///////////////////////////////////////////////////////////////////////////////
//
// IAR C/C++ Compiler V10.30.1.6000 for 8051              23/Aug/2019  12:13:53
// Copyright 2004-2018 IAR Systems AB.
// PC-locked license - IAR Embedded Workbench for 8051
//
//    Core               =  plain
//    Code model         =  banked
//    Data model         =  large
//    Calling convention =  xdata reentrant
//    Constant location  =  data_rom
//    Dptr setup         =  1,16
//                          
//    Source file        =  
//        E:\qqобтьнд╪Ч\ZStack-CC2530-r200\ZStack-CC2530-r200\Components\hal\common\hal_assert.c
//    Command line       =  
//        -f C:\Users\VULCAN\AppData\Local\Temp\EW8F61.tmp
//        (E:\qqобтьнд╪Ч\ZStack-CC2530-r200\ZStack-CC2530-r200\Components\hal\common\hal_assert.c
//        -D ZIGBEEPRO -D NWK_AUTO_POLL -D ZTOOL_P1 -D xMT_TASK -D xMT_SYS_FUNC
//        -D MT_ZDO_FUNC -D SAPP_ZSTACK -lC
//        E:\qqобтьнд╪Ч\ZStack-CC2530-r200\ZStack-CC2530-r200\Projects\SappWsn\EndDeviceEB\List
//        -lA
//        E:\qqобтьнд╪Ч\ZStack-CC2530-r200\ZStack-CC2530-r200\Projects\SappWsn\EndDeviceEB\List
//        --diag_suppress Pe001,Pa010 -o
//        E:\qqобтьнд╪Ч\ZStack-CC2530-r200\ZStack-CC2530-r200\Projects\SappWsn\EndDeviceEB\Obj
//        -e --debug --core=plain --dptr=16,1 --data_model=large
//        --code_model=banked --calling_convention=xdata_reentrant
//        --place_constants=data_rom --nr_virtual_regs 8 -f
//        E:\qqобтьнд╪Ч\ZStack-CC2530-r200\ZStack-CC2530-r200\Projects\SappWsn\..\zstack\Tools\CC2530DB\f8wEndev.cfg
//        (-DCPU32MHZ -DROOT=__near_func -DMAC_CFG_TX_DATA_MAX=3
//        -DMAC_CFG_TX_MAX=6 -DMAC_CFG_RX_MAX=3) -f
//        E:\qqобтьнд╪Ч\ZStack-CC2530-r200\ZStack-CC2530-r200\Projects\SappWsn\..\zstack\Tools\CC2530DB\f8wConfig.cfg
//        (-DZIGBEEPRO -DSECURE=0 -DZG_SECURE_DYNAMIC=0 -DREFLECTOR
//        -DDEFAULT_CHANLIST=0x00800000 -DZDAPP_CONFIG_PAN_ID=0x0057
//        -DNWK_START_DELAY=100 -DEXTENDED_JOINING_RANDOM_MASK=0x007F
//        -DBEACON_REQUEST_DELAY=100 -DBEACON_REQ_DELAY_MASK=0x00FF
//        -DLINK_STATUS_JITTER_MASK=0x007F -DROUTE_EXPIRY_TIME=30
//        -DAPSC_ACK_WAIT_DURATION_POLLED=3000 -DNWK_INDIRECT_MSG_TIMEOUT=7
//        -DMAX_RREQ_ENTRIES=8 -DAPSC_MAX_FRAME_RETRIES=3
//        -DNWK_MAX_DATA_RETRIES=2 -DMAX_POLL_FAILURE_RETRIES=2 -DMAX_BCAST=9
//        -DAPS_MAX_GROUPS=16 -DMAX_RTG_ENTRIES=40 -DNWK_MAX_BINDING_ENTRIES=4
//        -DMAX_BINDING_CLUSTER_IDS=4 "-DDEFAULT_KEY={0x01, 0x03, 0x05, 0x07,
//        0x09, 0x0B, 0x0D, 0x0F, 0x00, 0x02, 0x04, 0x06, 0x08, 0x0A, 0x0C,
//        0x0D}" -DMAC_MAX_FRAME_SIZE=116 -DZDNWKMGR_MIN_TRANSMISSIONS=20
//        "-DCONST=const __code" -DGENERIC=__generic -DRFD_RCVC_ALWAYS_ON=FALSE
//        -DPOLL_RATE=1000 -DQUEUED_POLL_RATE=100 -DRESPONSE_POLL_RATE=100
//        -DREJOIN_POLL_RATE=440) -I
//        E:\qqобтьнд╪Ч\ZStack-CC2530-r200\ZStack-CC2530-r200\Projects\SappWsn\
//        -I
//        E:\qqобтьнд╪Ч\ZStack-CC2530-r200\ZStack-CC2530-r200\Projects\SappWsn\Source\
//        -I
//        E:\qqобтьнд╪Ч\ZStack-CC2530-r200\ZStack-CC2530-r200\Projects\SappWsn\..\zstack\ZMain\TI2530DB\
//        -I
//        E:\qqобтьнд╪Ч\ZStack-CC2530-r200\ZStack-CC2530-r200\Projects\SappWsn\..\..\Components\hal\include\
//        -I
//        E:\qqобтьнд╪Ч\ZStack-CC2530-r200\ZStack-CC2530-r200\Projects\SappWsn\..\..\Components\hal\target\CC2530EB\
//        -I
//        E:\qqобтьнд╪Ч\ZStack-CC2530-r200\ZStack-CC2530-r200\Projects\SappWsn\..\..\Components\mac\include\
//        -I
//        E:\qqобтьнд╪Ч\ZStack-CC2530-r200\ZStack-CC2530-r200\Projects\SappWsn\..\..\Components\mac\high_level\
//        -I
//        E:\qqобтьнд╪Ч\ZStack-CC2530-r200\ZStack-CC2530-r200\Projects\SappWsn\..\..\Components\mac\low_level\srf04\
//        -I
//        E:\qqобтьнд╪Ч\ZStack-CC2530-r200\ZStack-CC2530-r200\Projects\SappWsn\..\..\Components\mac\low_level\srf04\single_chip\
//        -I
//        E:\qqобтьнд╪Ч\ZStack-CC2530-r200\ZStack-CC2530-r200\Projects\SappWsn\..\..\Components\mt\
//        -I
//        E:\qqобтьнд╪Ч\ZStack-CC2530-r200\ZStack-CC2530-r200\Projects\SappWsn\..\..\Components\osal\include\
//        -I
//        E:\qqобтьнд╪Ч\ZStack-CC2530-r200\ZStack-CC2530-r200\Projects\SappWsn\..\..\Components\services\saddr\
//        -I
//        E:\qqобтьнд╪Ч\ZStack-CC2530-r200\ZStack-CC2530-r200\Projects\SappWsn\..\..\Components\services\sdata\
//        -I
//        E:\qqобтьнд╪Ч\ZStack-CC2530-r200\ZStack-CC2530-r200\Projects\SappWsn\..\..\Components\stack\af\
//        -I
//        E:\qqобтьнд╪Ч\ZStack-CC2530-r200\ZStack-CC2530-r200\Projects\SappWsn\..\..\Components\stack\nwk\
//        -I
//        E:\qqобтьнд╪Ч\ZStack-CC2530-r200\ZStack-CC2530-r200\Projects\SappWsn\..\..\Components\stack\sapi\
//        -I
//        E:\qqобтьнд╪Ч\ZStack-CC2530-r200\ZStack-CC2530-r200\Projects\SappWsn\..\..\Components\stack\sec\
//        -I
//        E:\qqобтьнд╪Ч\ZStack-CC2530-r200\ZStack-CC2530-r200\Projects\SappWsn\..\..\Components\stack\sys\
//        -I
//        E:\qqобтьнд╪Ч\ZStack-CC2530-r200\ZStack-CC2530-r200\Projects\SappWsn\..\..\Components\stack\zdo\
//        -I
//        E:\qqобтьнд╪Ч\ZStack-CC2530-r200\ZStack-CC2530-r200\Projects\SappWsn\..\..\Components\zmac\
//        -I
//        E:\qqобтьнд╪Ч\ZStack-CC2530-r200\ZStack-CC2530-r200\Projects\SappWsn\..\..\Components\zmac\f8w\
//        -Ohz --require_prototypes --no_code_motion)
//    Locale             =  Chinese (Simplified)_CHN.936
//    List file          =  
//        E:\qqобтьнд╪Ч\ZStack-CC2530-r200\ZStack-CC2530-r200\Projects\SappWsn\EndDeviceEB\List\hal_assert.s51
//
///////////////////////////////////////////////////////////////////////////////

        NAME hal_assert

        RTMODEL "__SystemLibrary", "CLib"
        RTMODEL "__calling_convention", "xdata_reentrant"
        RTMODEL "__code_model", "banked"
        RTMODEL "__core", "plain"
        RTMODEL "__data_model", "large"
        RTMODEL "__dptr_size", "16"
        RTMODEL "__extended_stack", "disabled"
        RTMODEL "__location_for_constants", "data"
        RTMODEL "__number_of_dptrs", "1"
        RTMODEL "__register_banks", "*"
        RTMODEL "__rt_version", "1"

        RSEG DOVERLAY:DATA:NOROOT(0)
        RSEG IOVERLAY:IDATA:NOROOT(0)
        RSEG ISTACK:IDATA:NOROOT(0)
        RSEG PSTACK:XDATA:NOROOT(0)
        RSEG XSTACK:XDATA:NOROOT(0)

        EXTERN ?V0
        EXTERN ?V1
        EXTERN ?V2
        EXTERN ?V3
        EXTERN ?ALLOC_XSTACK8
        EXTERN ?BANKED_ENTER_XDATA
        EXTERN ?BANKED_LEAVE_XDATA
        EXTERN ?BDISPATCH
        EXTERN ?BRET
        EXTERN ?DEALLOC_XSTACK8
        EXTERN ?L_ADD_TO_X
        EXTERN ?L_MOV_X
        EXTERN ?S_SHL
        EXTERN ?UL_GT_X
        EXTERN ?XSP
        EXTERN ?XSTACK_DISP0_8
        EXTERN __INIT_XDATA_Z

        PUBLIC `??halAssertHandler::?relay`
        FUNCTION `??halAssertHandler::?relay`,0203H
        PUBLIC `??halAssertHazardLights::?relay`
        FUNCTION `??halAssertHazardLights::?relay`,0203H
        PUBWEAK CLKCONCMD
        PUBWEAK CLKCONSTA
        PUBWEAK P0INP
        PUBWEAK P1DIR
        PUBWEAK P2DIR
        PUBWEAK SLEEPCMD
        PUBWEAK SLEEPSTA
        PUBWEAK _A_IEN0
        PUBWEAK _A_P0
        PUBWEAK _A_P1
        PUBWEAK _A_P2
        PUBWEAK __Constant_1
        PUBWEAK __Constant_5800
        PUBLIC halAssertHandler
        FUNCTION halAssertHandler,021203H
        ARGFRAME XSTACK, 0, STACK
        LOCFRAME ISTACK, 2, STACK
        PUBLIC halAssertHazardLights
        FUNCTION halAssertHazardLights,080203H
        ARGFRAME XSTACK, 0, STACK
        ARGFRAME IOVERLAY, 0, STATIC
        ARGFRAME DOVERLAY, 0, STATIC
        LOCFRAME ISTACK, 1, STACK
        LOCFRAME XSTACK, 22, STACK
        
          CFI Names cfiNames0
          CFI StackFrame CFA_SP SP IDATA
          CFI StackFrame CFA_PSP16 PSP16 XDATA
          CFI StackFrame CFA_XSP16 XSP16 XDATA
          CFI StaticOverlayFrame CFA_IOVERLAY IOVERLAY
          CFI StaticOverlayFrame CFA_DOVERLAY DOVERLAY
          CFI Resource `PSW.CY`:1, `B.BR0`:1, `B.BR1`:1, `B.BR2`:1, `B.BR3`:1
          CFI Resource `B.BR4`:1, `B.BR5`:1, `B.BR6`:1, `B.BR7`:1, `VB.BR8`:1
          CFI Resource `VB.BR9`:1, `VB.BR10`:1, `VB.BR11`:1, `VB.BR12`:1
          CFI Resource `VB.BR13`:1, `VB.BR14`:1, `VB.BR15`:1, VB:8, B:8, A:8
          CFI Resource PSW:8, DPL0:8, DPH0:8, R0:8, R1:8, R2:8, R3:8, R4:8, R5:8
          CFI Resource R6:8, R7:8, V0:8, V1:8, V2:8, V3:8, V4:8, V5:8, V6:8, V7:8
          CFI Resource SP:8, PSPH:8, PSPL:8, PSP16:16, XSPH:8, XSPL:8, XSP16:16
          CFI VirtualResource ?RET:24
          CFI Resource ?BRET_EXT:8
          CFI VirtualResource ?RET_HIGH:8, ?RET_LOW:8
          CFI ResourceParts PSP16 PSPH, PSPL
          CFI ResourceParts XSP16 XSPH, XSPL
          CFI ResourceParts ?RET ?BRET_EXT, ?RET_HIGH, ?RET_LOW
          CFI EndNames cfiNames0
        
          CFI Common cfiCommon0 Using cfiNames0
          CFI CodeAlign 1
          CFI DataAlign -1
          CFI ReturnAddress ?RET CODE
          CFI CFA_DOVERLAY Used
          CFI CFA_IOVERLAY Used
          CFI CFA_SP SP+-3
          CFI CFA_PSP16 PSP16+0
          CFI CFA_XSP16 XSP16+0
          CFI `PSW.CY` SameValue
          CFI `B.BR0` SameValue
          CFI `B.BR1` SameValue
          CFI `B.BR2` SameValue
          CFI `B.BR3` SameValue
          CFI `B.BR4` SameValue
          CFI `B.BR5` SameValue
          CFI `B.BR6` SameValue
          CFI `B.BR7` SameValue
          CFI `VB.BR8` SameValue
          CFI `VB.BR9` SameValue
          CFI `VB.BR10` SameValue
          CFI `VB.BR11` SameValue
          CFI `VB.BR12` SameValue
          CFI `VB.BR13` SameValue
          CFI `VB.BR14` SameValue
          CFI `VB.BR15` SameValue
          CFI VB SameValue
          CFI B Undefined
          CFI A Undefined
          CFI PSW SameValue
          CFI DPL0 SameValue
          CFI DPH0 SameValue
          CFI R0 Undefined
          CFI R1 Undefined
          CFI R2 Undefined
          CFI R3 Undefined
          CFI R4 Undefined
          CFI R5 Undefined
          CFI R6 SameValue
          CFI R7 SameValue
          CFI V0 SameValue
          CFI V1 SameValue
          CFI V2 SameValue
          CFI V3 SameValue
          CFI V4 SameValue
          CFI V5 SameValue
          CFI V6 SameValue
          CFI V7 SameValue
          CFI PSPH Undefined
          CFI PSPL Undefined
          CFI XSPH Undefined
          CFI XSPL Undefined
          CFI ?RET Concat
          CFI ?BRET_EXT Frame(CFA_SP, 3)
          CFI ?RET_HIGH Frame(CFA_SP, 2)
          CFI ?RET_LOW Frame(CFA_SP, 1)
          CFI EndCommon cfiCommon0
        
halAssertHandler    SYMBOL "halAssertHandler"
`??halAssertHandler::?relay` SYMBOL "?relay", halAssertHandler
halAssertHazardLights SYMBOL "halAssertHazardLights"
`??halAssertHazardLights::?relay` SYMBOL "?relay", halAssertHazardLights

        EXTERN macRxActive
        EXTERN macTxActive

// E:\qqобтьнд╪Ч\ZStack-CC2530-r200\ZStack-CC2530-r200\Components\hal\common\hal_assert.c
//    1 /**************************************************************************************************
//    2   Filename:       hal_assert.c
//    3   Revised:        $Date: 2010-11-22 08:13:43 -0800 (Mon, 22 Nov 2010) $
//    4   Revision:       $Revision: 24480 $
//    5 
//    6   Description:    Describe the purpose and contents of the file.
//    7 
//    8 
//    9   Copyright 2006-2010 Texas Instruments Incorporated. All rights reserved.
//   10 
//   11   IMPORTANT: Your use of this Software is limited to those specific rights
//   12   granted under the terms of a software license agreement between the user
//   13   who downloaded the software, his/her employer (which must be your employer)
//   14   and Texas Instruments Incorporated (the "License").  You may not use this
//   15   Software unless you agree to abide by the terms of the License. The License
//   16   limits your use, and you acknowledge, that the Software may not be modified,
//   17   copied or distributed unless embedded on a Texas Instruments microcontroller
//   18   or used solely and exclusively in conjunction with a Texas Instruments radio
//   19   frequency transceiver, which is integrated into your product.  Other than for
//   20   the foregoing purpose, you may not use, reproduce, copy, prepare derivative
//   21   works of, modify, distribute, perform, display or sell this Software and/or
//   22   its documentation for any purpose.
//   23 
//   24   YOU FURTHER ACKNOWLEDGE AND AGREE THAT THE SOFTWARE AND DOCUMENTATION ARE
//   25   PROVIDED ⌠AS IS■ WITHOUT WARRANTY OF ANY KIND, EITHER EXPRESS OR IMPLIED,
//   26   INCLUDING WITHOUT LIMITATION, ANY WARRANTY OF MERCHANTABILITY, TITLE,
//   27   NON-INFRINGEMENT AND FITNESS FOR A PARTICULAR PURPOSE. IN NO EVENT SHALL
//   28   TEXAS INSTRUMENTS OR ITS LICENSORS BE LIABLE OR OBLIGATED UNDER CONTRACT,
//   29   NEGLIGENCE, STRICT LIABILITY, CONTRIBUTION, BREACH OF WARRANTY, OR OTHER
//   30   LEGAL EQUITABLE THEORY ANY DIRECT OR INDIRECT DAMAGES OR EXPENSES
//   31   INCLUDING BUT NOT LIMITED TO ANY INCIDENTAL, SPECIAL, INDIRECT, PUNITIVE
//   32   OR CONSEQUENTIAL DAMAGES, LOST PROFITS OR LOST DATA, COST OF PROCUREMENT
//   33   OF SUBSTITUTE GOODS, TECHNOLOGY, SERVICES, OR ANY CLAIMS BY THIRD PARTIES
//   34   (INCLUDING BUT NOT LIMITED TO ANY DEFENSE THEREOF), OR OTHER SIMILAR COSTS.
//   35 
//   36   Should you have any questions regarding your right to use this Software,
//   37   contact Texas Instruments Incorporated at www.TI.com.
//   38 **************************************************************************************************/
//   39 
//   40 
//   41 /* ------------------------------------------------------------------------------------------------
//   42  *                                          Includes
//   43  * ------------------------------------------------------------------------------------------------
//   44  */
//   45 #include "hal_assert.h"
//   46 #include "hal_types.h"
//   47 #include "hal_board.h"

        ASEGN SFR_AN:DATA:NOROOT,080H
// union <unnamed> volatile __sfr _A_P0
_A_P0:
        DATA8
        DS 1

        ASEGN SFR_AN:DATA:NOROOT,08fH
// unsigned char volatile __sfr P0INP
P0INP:
        DATA8
        DS 1

        ASEGN SFR_AN:DATA:NOROOT,090H
// union <unnamed> volatile __sfr _A_P1
_A_P1:
        DATA8
        DS 1

        ASEGN SFR_AN:DATA:NOROOT,09dH
// unsigned char volatile __sfr SLEEPSTA
SLEEPSTA:
        DATA8
        DS 1

        ASEGN SFR_AN:DATA:NOROOT,09eH
// unsigned char volatile __sfr CLKCONSTA
CLKCONSTA:
        DATA8
        DS 1

        ASEGN SFR_AN:DATA:NOROOT,0a0H
// union <unnamed> volatile __sfr _A_P2
_A_P2:
        DATA8
        DS 1

        ASEGN SFR_AN:DATA:NOROOT,0a8H
// union <unnamed> volatile __sfr _A_IEN0
_A_IEN0:
        DATA8
        DS 1

        ASEGN SFR_AN:DATA:NOROOT,0beH
// unsigned char volatile __sfr SLEEPCMD
SLEEPCMD:
        DATA8
        DS 1

        ASEGN SFR_AN:DATA:NOROOT,0c6H
// unsigned char volatile __sfr CLKCONCMD
CLKCONCMD:
        DATA8
        DS 1

        ASEGN SFR_AN:DATA:NOROOT,0feH
// unsigned char volatile __sfr P1DIR
P1DIR:
        DATA8
        DS 1

        ASEGN SFR_AN:DATA:NOROOT,0ffH
// unsigned char volatile __sfr P2DIR
P2DIR:
        DATA8
        DS 1
//   48 #include "hal_defs.h"
//   49 #include "hal_mcu.h"
//   50 
//   51 #if (defined HAL_MCU_AVR) || (defined HAL_MCU_CC2430) || (defined HAL_MCU_CC2530) || \ 
//   52     (defined HAL_MCU_CC2533) || (defined HAL_MCU_MSP430)
//   53   /* for access to debug data */
//   54 #include "mac_rx.h"
//   55 #include "mac_tx.h"
//   56 #endif
//   57 
//   58 /* ------------------------------------------------------------------------------------------------
//   59  *                                       Local Prototypes
//   60  * ------------------------------------------------------------------------------------------------
//   61  */
//   62 void halAssertHazardLights(void);
//   63 
//   64 
//   65 /**************************************************************************************************
//   66  * @fn          halAssertHandler
//   67  *
//   68  * @brief       Logic to handle an assert.
//   69  *
//   70  * @param       none
//   71  *
//   72  * @return      none
//   73  **************************************************************************************************
//   74  */

        RSEG BANKED_CODE:HUGECODE:NOROOT(0)
//   75 void halAssertHandler(void)
halAssertHandler:
          CFI Block cfiBlock0 Using cfiCommon0
          CFI Function halAssertHandler
        CODE
//   76 {
        FUNCALL halAssertHandler, halAssertHazardLights
        LOCFRAME ISTACK, 2, STACK
        LOCFRAME PSTACK, 0, STACK
        LOCFRAME XSTACK, 0, STACK
        LOCFRAME IOVERLAY, 0, STATIC
        LOCFRAME DOVERLAY, 0, STATIC
        ARGFRAME ISTACK, 2, STACK
        ARGFRAME PSTACK, 0, STACK
        ARGFRAME XSTACK, 0, STACK
        ARGFRAME IOVERLAY, 0, STATIC
        ARGFRAME DOVERLAY, 0, STATIC
        PUSH      DPL
          CFI DPL0 Frame(CFA_SP, 4)
          CFI CFA_SP SP+-4
        PUSH      DPH
          CFI DPH0 Frame(CFA_SP, 5)
          CFI CFA_SP SP+-5
        ; Saved register size: 2
        ; Auto size: 0
//   77   /* execute code that handles asserts */
//   78 #ifdef ASSERT_RESET
//   79   HAL_SYSTEM_RESET();
//   80 #elif !defined ASSERT_WHILE
//   81   halAssertHazardLights();
        ; Setup parameters for call to function halAssertHazardLights
        LCALL     `??halAssertHazardLights::?relay`; Banked call to: halAssertHazardLights
//   82 #else
//   83   while(1);
//   84 #endif
//   85 }
        POP       DPH
          CFI DPH0 SameValue
          CFI CFA_SP SP+-4
        POP       DPL
          CFI DPL0 SameValue
          CFI CFA_SP SP+-3
        LJMP      ?BRET
          CFI EndBlock cfiBlock0
//   86 
//   87 #if !defined ASSERT_WHILE
//   88 /**************************************************************************************************
//   89  * @fn          halAssertHazardLights
//   90  *
//   91  * @brief       Blink LEDs to indicate an error.
//   92  *
//   93  * @param       none
//   94  *
//   95  * @return      none
//   96  **************************************************************************************************
//   97  */

        RSEG BANKED_CODE:HUGECODE:NOROOT(0)
//   98 void halAssertHazardLights(void)
halAssertHazardLights:
          CFI Block cfiBlock1 Using cfiCommon0
          CFI Function halAssertHazardLights
        CODE
//   99 {
        REQUIRE ?V0
        REQUIRE ?V1
        REQUIRE ?V2
        REQUIRE ?V3
        MOV       A,#-0xc
        LCALL     ?BANKED_ENTER_XDATA
          CFI DPH0 load(1, XDATA, add(CFA_XSP16, literal(-1)))
          CFI DPL0 load(1, XDATA, add(CFA_XSP16, literal(-2)))
          CFI ?BRET_EXT load(1, XDATA, add(CFA_XSP16, literal(-3)))
          CFI ?RET_HIGH load(1, XDATA, add(CFA_XSP16, literal(-4)))
          CFI ?RET_LOW load(1, XDATA, add(CFA_XSP16, literal(-5)))
          CFI R7 load(1, XDATA, add(CFA_XSP16, literal(-6)))
          CFI V3 load(1, XDATA, add(CFA_XSP16, literal(-7)))
          CFI V2 load(1, XDATA, add(CFA_XSP16, literal(-8)))
          CFI V1 load(1, XDATA, add(CFA_XSP16, literal(-9)))
          CFI V0 load(1, XDATA, add(CFA_XSP16, literal(-10)))
          CFI VB load(1, XDATA, add(CFA_XSP16, literal(-11)))
          CFI R6 load(1, XDATA, add(CFA_XSP16, literal(-12)))
          CFI CFA_SP SP+0
          CFI CFA_XSP16 add(XSP16, 12)
        ; Saved register size: 12
        ; Auto size: 10
        MOV       A,#-0xa
        LCALL     ?ALLOC_XSTACK8
          CFI CFA_XSP16 add(XSP16, 22)
//  100   enum
//  101   {
//  102     DEBUG_DATA_RSTACK_HIGH_OFS,
//  103     DEBUG_DATA_RSTACK_LOW_OFS,
//  104     DEBUG_DATA_TX_ACTIVE_OFS,
//  105     DEBUG_DATA_RX_ACTIVE_OFS,
//  106 
//  107 #if (defined HAL_MCU_AVR) || (defined HAL_MCU_CC2430)
//  108     DEBUG_DATA_INT_MASK_OFS,
//  109 #elif (defined HAL_MCU_CC2530) || (defined HAL_MCU_CC2533)
//  110     DEBUG_DATA_INT_MASK0_OFS,
//  111     DEBUG_DATA_INT_MASK1_OFS,
//  112 #endif
//  113 
//  114     DEBUG_DATA_SIZE
//  115   };
//  116 
//  117   uint8 buttonHeld;
//  118   uint8 debugData[DEBUG_DATA_SIZE];
//  119 
//  120   /* disable all interrupts before anything else */
//  121   HAL_DISABLE_INTERRUPTS();
        CLR       0xa8.7
//  122 
//  123   /*-------------------------------------------------------------------------------
//  124    *  Initialize LEDs and turn them off.
//  125    */
//  126   HAL_BOARD_INIT();
        ANL       0xbe,#0xfb
??halAssertHazardLights_0:
        MOV       A,0x9d
        MOV       C,0xE0 /* A   */.6
        JNC       ??halAssertHazardLights_0
        NOP
        MOV       R0,#-0x8
        MOV       R1,#0x1
??halAssertHazardLights_1:
        NOP
        MOV       A,R0
        ADD       A,#-0x1
        DEC       R0
        MOV       A,R1
        ADDC      A,#-0x1
        MOV       R1,A
        MOV       A,R0
        ORL       A,R1
        JNZ       ??halAssertHazardLights_1
        MOV       0xc6,#0x0
??halAssertHazardLights_2:
        MOV       A,0x9e
        JNZ       ??halAssertHazardLights_2
        ORL       0xbe,#0x4
        MOV       DPTR,#0x6270
        MOV       A,#0x8
        MOVX      @DPTR,A
        SETB      0xa0.0
        ORL       0xff,#0x1
        SETB      0x90.1
        ORL       0xfe,#0x2
        CLR       0x90.4
        ORL       0xfe,#0x10
        ORL       0x8f,#0x1
//  127 
//  128   HAL_TURN_OFF_LED1();
        SETB      0xa0.0
//  129   HAL_TURN_OFF_LED2();
        SETB      0x90.1
//  130   HAL_TURN_OFF_LED3();
        CLR       0x90.4
//  131   HAL_TURN_OFF_LED4();
        SJMP      ??halAssertHazardLights_3
//  132 
//  133   /*-------------------------------------------------------------------------------
//  134    *  Master infinite loop.
//  135    */
//  136   for (;;)
//  137   {
//  138     buttonHeld = 0;
//  139 
//  140     /*-------------------------------------------------------------------------------
//  141      *  "Hazard lights" loop.  A held keypress will exit this loop.
//  142      */
//  143     do
//  144     {
//  145       HAL_LED_BLINK_DELAY();
//  146 
//  147       /* toggle LEDS, the #ifdefs are in case HAL has logically remapped non-existent LEDs */
//  148 #if (HAL_NUM_LEDS >= 1)
//  149       HAL_TOGGLE_LED1();
//  150 #if (HAL_NUM_LEDS >= 2)
//  151       HAL_TOGGLE_LED2();
//  152 #if (HAL_NUM_LEDS >= 3)
//  153       HAL_TOGGLE_LED3();
//  154 #if (HAL_NUM_LEDS >= 4)
//  155       HAL_TOGGLE_LED4();
//  156 #endif
//  157 #endif
//  158 #endif
//  159 #endif
//  160 
//  161       /* escape hatch to continue execution, set escape to '1' to continue execution */
//  162       {
//  163         static uint8 escape = 0;
//  164         if (escape)
//  165         {
//  166           escape = 0;
//  167           return;
//  168         }
//  169       }
//  170 
//  171       /* break out of loop if button is held long enough */
//  172       if (HAL_PUSH_BUTTON1())
//  173       {
//  174         buttonHeld++;
//  175       }
//  176       else
//  177       {
//  178         buttonHeld = 0;
//  179       }
//  180     }
//  181     while (buttonHeld != 10);  /* loop until button is held specified number of loops */
//  182 
//  183     /*-------------------------------------------------------------------------------
//  184      *  Just exited from "hazard lights" loop.
//  185      */
//  186 
//  187     /* turn off all LEDs */
//  188     HAL_TURN_OFF_LED1();
//  189     HAL_TURN_OFF_LED2();
//  190     HAL_TURN_OFF_LED3();
//  191     HAL_TURN_OFF_LED4();
//  192 
//  193     /* wait for button release */
//  194     HAL_DEBOUNCE(!HAL_PUSH_BUTTON1());
//  195 
//  196     /*-------------------------------------------------------------------------------
//  197      *  Load debug data into memory.
//  198      */
//  199 #ifdef HAL_MCU_AVR
//  200     {
//  201       uint8 * pStack;
//  202       pStack = (uint8 *) SP;
//  203       pStack++; /* point to return address on stack */
//  204       debugData[DEBUG_DATA_RSTACK_HIGH_OFS] = *pStack;
//  205       pStack++;
//  206       debugData[DEBUG_DATA_RSTACK_LOW_OFS] = *pStack;
//  207     }
//  208     debugData[DEBUG_DATA_INT_MASK_OFS] = EIMSK;
//  209 #endif
//  210 
//  211 #if (defined HAL_MCU_CC2430)
//  212     debugData[DEBUG_DATA_INT_MASK_OFS] = RFIM;
//  213 #elif (defined HAL_MCU_CC2530) || (defined HAL_MCU_CC2533)
//  214     debugData[DEBUG_DATA_INT_MASK0_OFS] = RFIRQM0;
//  215     debugData[DEBUG_DATA_INT_MASK1_OFS] = RFIRQM1;
//  216 #endif
//  217 
//  218 
//  219 #if (defined HAL_MCU_AVR) || (defined HAL_MCU_CC2430) || (defined HAL_MCU_CC2530) || \ 
//  220     (defined HAL_MCU_CC2533) || (defined HAL_MCU_MSP430)
//  221     debugData[DEBUG_DATA_TX_ACTIVE_OFS] = macTxActive;
//  222     debugData[DEBUG_DATA_RX_ACTIVE_OFS] = macRxActive;
//  223 #endif
//  224 
//  225    /* initialize for data dump loop */
//  226     {
//  227       uint8 iBit;
//  228       uint8 iByte;
//  229 
//  230       iBit  = 0;
//  231       iByte = 0;
//  232 
//  233       /*-------------------------------------------------------------------------------
//  234        *  Data dump loop.  A button press cycles data bits to an LED.
//  235        */
//  236       while (iByte < DEBUG_DATA_SIZE)
//  237       {
//  238         /* wait for key press */
//  239         while(!HAL_PUSH_BUTTON1());
//  240 
//  241         /* turn on all LEDs for first bit of byte, turn on three LEDs if not first bit */
//  242         HAL_TURN_ON_LED1();
//  243         HAL_TURN_ON_LED2();
//  244         HAL_TURN_ON_LED3();
//  245         if (iBit == 0)
//  246         {
//  247           HAL_TURN_ON_LED4();
//  248         }
//  249         else
//  250         {
//  251           HAL_TURN_OFF_LED4();
//  252         }
//  253 
//  254         /* wait for debounced key release */
//  255         HAL_DEBOUNCE(!HAL_PUSH_BUTTON1());
//  256 
//  257         /* turn off all LEDs */
//  258         HAL_TURN_OFF_LED1();
//  259         HAL_TURN_OFF_LED2();
//  260         HAL_TURN_OFF_LED3();
//  261         HAL_TURN_OFF_LED4();
//  262 
//  263         /* output value of data bit to LED1 */
//  264         if (debugData[iByte] & (1 << (7 - iBit)))
//  265         {
//  266           HAL_TURN_ON_LED1();
//  267         }
//  268         else
//  269         {
//  270           HAL_TURN_OFF_LED1();
??halAssertHazardLights_4:
        SETB      0xa0.0
//  271         }
//  272 
//  273         /* advance to next bit */
//  274         iBit++;
??halAssertHazardLights_5:
        INC       R1
//  275         if (iBit == 8)
        MOV       A,#0x8
        XRL       A,R1
        JZ        $+5
        LJMP      ??halAssertHazardLights_6 & 0xFFFF
//  276         {
//  277           iBit = 0;
        MOV       R1,#0x0
//  278           iByte++;
        INC       R4
//  279         }
        MOV       A,R4
        CLR       C
        SUBB      A,#0x6
        JNC       $+5
        LJMP      ??halAssertHazardLights_6 & 0xFFFF
//  280       }
//  281     }
//  282 
//  283     /*
//  284      *  About to enter "hazard lights" loop again.  Turn off LED1 in case the last bit
//  285      *  displayed happened to be one.  This guarantees all LEDs are off at the start of
//  286      *  the flashing loop which uses a toggle operation to change LED states.
//  287      */
//  288     HAL_TURN_OFF_LED1();
??halAssertHazardLights_3:
        SETB      0xa0.0
??halAssertHazardLights_7:
        MOV       R1,#0x0
??halAssertHazardLights_8:
        MOV       A,#0x6
        LCALL     ?XSTACK_DISP0_8
        CLR       A
        MOVX      @DPTR,A
        INC       DPTR
        MOVX      @DPTR,A
        INC       DPTR
        MOVX      @DPTR,A
        INC       DPTR
        MOVX      @DPTR,A
        SJMP      ??halAssertHazardLights_9
??halAssertHazardLights_10:
        MOV       DPTR,#__Constant_1
        MOV       R0,#?V0
        LCALL     ?L_MOV_X
        MOV       A,#0x6
        LCALL     ?XSTACK_DISP0_8
        MOV       R0,#?V0
        LCALL     ?L_ADD_TO_X
??halAssertHazardLights_9:
        MOV       DPTR,#__Constant_5800
        MOV       R0,#?V0
        LCALL     ?L_MOV_X
        MOV       A,#0x6
        LCALL     ?XSTACK_DISP0_8
        MOV       R0,#?V0
        LCALL     ?UL_GT_X
        JC        ??halAssertHazardLights_10
        MOV       C,0xa0.0
        JNC       ??halAssertHazardLights_11
        CLR       0xa0.0
        SJMP      ??halAssertHazardLights_12
??halAssertHazardLights_11:
        SETB      0xa0.0
??halAssertHazardLights_12:
        MOV       C,0x90.1
        JNC       ??halAssertHazardLights_13
        CLR       0x90.1
        SJMP      ??halAssertHazardLights_14
??halAssertHazardLights_13:
        SETB      0x90.1
??halAssertHazardLights_14:
        MOV       C,0x90.4
        JNC       ??halAssertHazardLights_15
        CLR       0x90.4
        SJMP      ??halAssertHazardLights_16
??halAssertHazardLights_15:
        SETB      0x90.4
??halAssertHazardLights_16:
        MOV       DPTR,#??escape
        MOVX      A,@DPTR
        JZ        ??halAssertHazardLights_17
        CLR       A
        MOVX      @DPTR,A
        MOV       A,#0xa
        LCALL     ?DEALLOC_XSTACK8
          CFI CFA_XSP16 add(XSP16, 12)
        MOV       R7,#0x4
        LJMP      ?BANKED_LEAVE_XDATA
          CFI CFA_XSP16 add(XSP16, 22)
??halAssertHazardLights_17:
        MOV       C,0x80.1
        JNC       ??halAssertHazardLights_7
        INC       R1
        MOV       A,#0xa
        XRL       A,R1
        JNZ       ??halAssertHazardLights_8
        SETB      0xa0.0
        SETB      0x90.1
        CLR       0x90.4
        SETB      0xa0.0
        MOV       R0,#0x0
        MOV       R1,#0x0
??halAssertHazardLights_18:
        MOV       C,0x80.1
        JNC       ??halAssertHazardLights_19
        MOV       R0,#0x0
        MOV       R1,#0x0
??halAssertHazardLights_19:
        INC       R0
        MOV       A,R0
        JNZ       ??halAssertHazardLights_20
        INC       R1
??halAssertHazardLights_20:
        CLR       C
        SUBB      A,#-0xc
        MOV       A,R1
        SUBB      A,#0x1
        MOV       C,0xD0 /* PSW */.2
        XRL       A,PSW
        RLC       A
        JC        ??halAssertHazardLights_18
        MOV       DPTR,#0x61a3
        MOVX      A,@DPTR
        PUSH      A
          CFI CFA_SP SP+-1
        MOV       A,#0x4
        LCALL     ?XSTACK_DISP0_8
        POP       A
          CFI CFA_SP SP+0
        MOVX      @DPTR,A
        MOV       DPTR,#0x61a4
        MOVX      A,@DPTR
        PUSH      A
          CFI CFA_SP SP+-1
        MOV       A,#0x5
        LCALL     ?XSTACK_DISP0_8
        POP       A
          CFI CFA_SP SP+0
        MOVX      @DPTR,A
        MOV       DPTR,#macTxActive
        MOVX      A,@DPTR
        PUSH      A
          CFI CFA_SP SP+-1
        MOV       A,#0x2
        LCALL     ?XSTACK_DISP0_8
        POP       A
          CFI CFA_SP SP+0
        MOVX      @DPTR,A
        MOV       DPTR,#macRxActive
        MOVX      A,@DPTR
        PUSH      A
          CFI CFA_SP SP+-1
        MOV       A,#0x3
        LCALL     ?XSTACK_DISP0_8
        POP       A
          CFI CFA_SP SP+0
        MOVX      @DPTR,A
        MOV       R1,#0x0
        MOV       R4,#0x0
??halAssertHazardLights_6:
        MOV       C,0x80.1
        JNC       ??halAssertHazardLights_6
        CLR       0xa0.0
        CLR       0x90.1
        SETB      0x90.4
        MOV       A,R1
        JNZ       ??halAssertHazardLights_21
        CLR       0xa0.0
        SJMP      ??halAssertHazardLights_22
??halAssertHazardLights_21:
        SETB      0xa0.0
??halAssertHazardLights_22:
        MOV       R2,#0x0
        MOV       R3,#0x0
??halAssertHazardLights_23:
        MOV       C,0x80.1
        JNC       ??halAssertHazardLights_24
        MOV       R2,#0x0
        MOV       R3,#0x0
??halAssertHazardLights_24:
        INC       R2
        MOV       A,R2
        JNZ       ??halAssertHazardLights_25
        INC       R3
??halAssertHazardLights_25:
        CLR       C
        SUBB      A,#-0xc
        MOV       A,R3
        SUBB      A,#0x1
        MOV       C,0xD0 /* PSW */.2
        XRL       A,PSW
        RLC       A
        JC        ??halAssertHazardLights_23
        SETB      0xa0.0
        SETB      0x90.1
        CLR       0x90.4
        SETB      0xa0.0
        MOV       ?V0,#0x1
        MOV       ?V1,#0x0
        MOV       A,#0x7
        CLR       C
        SUBB      A,R1
        MOV       R0,#?V0
        LCALL     ?S_SHL
        MOV       A,R4
        MOV       R2,A
        MOV       DPL,?XSP + 0
        MOV       DPH,?XSP + 1
        MOV       A,DPL
        ADD       A,R2
        MOV       DPL,A
        CLR       A
        ADDC      A,DPH
        MOV       DPH,A
        MOVX      A,@DPTR
        ANL       A,?V0
        JNZ       $+5
        LJMP      ??halAssertHazardLights_4 & 0xFFFF
        CLR       0xa0.0
        LJMP      ??halAssertHazardLights_5 & 0xFFFF
          CFI EndBlock cfiBlock1
        REQUIRE _A_IEN0
        REQUIRE SLEEPCMD
        REQUIRE SLEEPSTA
        REQUIRE CLKCONCMD
        REQUIRE CLKCONSTA
        REQUIRE _A_P2
        REQUIRE P2DIR
        REQUIRE _A_P1
        REQUIRE P1DIR
        REQUIRE P0INP
        REQUIRE _A_P0
//  289   }
//  290 }

        RSEG XDATA_Z:XDATA:NOROOT(0)
        DATA8
??escape:
        DS 1
        REQUIRE __INIT_XDATA_Z

        RSEG XDATA_ROM_C:CONST:REORDER:NOROOT(0)
        DATA32
__Constant_1:
        DD 1

        RSEG XDATA_ROM_C:CONST:REORDER:NOROOT(0)
        DATA32
__Constant_5800:
        DD 22528

        RSEG BANK_RELAYS:CODE:REORDER:NOROOT(0)
`??halAssertHandler::?relay`:
        CODE
        LCALL   ?BDISPATCH
        DATA24
        DC24    halAssertHandler

        RSEG BANK_RELAYS:CODE:REORDER:NOROOT(0)
`??halAssertHazardLights::?relay`:
        CODE
        LCALL   ?BDISPATCH
        DATA24
        DC24    halAssertHazardLights

        END
//  291 #endif
//  292 
//  293 /* ------------------------------------------------------------------------------------------------
//  294  *                                    Compile Time Assertions
//  295  * ------------------------------------------------------------------------------------------------
//  296  */
//  297 
//  298 /* integrity check of type sizes */
//  299 HAL_ASSERT_SIZE(  int8, 1);
//  300 HAL_ASSERT_SIZE( uint8, 1);
//  301 HAL_ASSERT_SIZE( int16, 2);
//  302 HAL_ASSERT_SIZE(uint16, 2);
//  303 HAL_ASSERT_SIZE( int32, 4);
//  304 HAL_ASSERT_SIZE(uint32, 4);
//  305 
//  306 
//  307 /**************************************************************************************************
//  308 */
// 
// 434 bytes in segment BANKED_CODE
//  12 bytes in segment BANK_RELAYS
//  11 bytes in segment SFR_AN
//   8 bytes in segment XDATA_ROM_C
//   1 byte  in segment XDATA_Z
// 
//  12 bytes of CODE     memory
//   0 bytes of CONST    memory (+  8 bytes shared)
//   0 bytes of DATA     memory (+ 11 bytes shared)
// 434 bytes of HUGECODE memory
//   1 byte  of XDATA    memory
//
//Errors: none
//Warnings: none
