///////////////////////////////////////////////////////////////////////////////
//
// IAR C/C++ Compiler V10.30.1.6000 for 8051              23/Aug/2019  12:10:26
// Copyright 2004-2018 IAR Systems AB.
// PC-locked license - IAR Embedded Workbench for 8051
//
//    Core               =  plain
//    Code model         =  banked
//    Data model         =  large
//    Calling convention =  xdata reentrant
//    Constant location  =  data_rom
//    Dptr setup         =  1,16
//                          
//    Source file        =  
//        E:\qqÏÂÔØÎÄ¼þ\ZStack-CC2530-r200\ZStack-CC2530-r200\Components\mt\MT_ZDO.c
//    Command line       =  
//        -f C:\Users\VULCAN\AppData\Local\Temp\EW6257.tmp
//        (E:\qqÏÂÔØÎÄ¼þ\ZStack-CC2530-r200\ZStack-CC2530-r200\Components\mt\MT_ZDO.c
//        -D ZIGBEEPRO -D ZTOOL_P1 -D MT_TASK -D MT_SYS_FUNC -D MT_ZDO_FUNC -D
//        SAPP_ZSTACK -lC
//        E:\qqÏÂÔØÎÄ¼þ\ZStack-CC2530-r200\ZStack-CC2530-r200\Projects\SappWsn\CoordinatorEB\List
//        -lA
//        E:\qqÏÂÔØÎÄ¼þ\ZStack-CC2530-r200\ZStack-CC2530-r200\Projects\SappWsn\CoordinatorEB\List
//        --diag_suppress Pe001,Pa010 -o
//        E:\qqÏÂÔØÎÄ¼þ\ZStack-CC2530-r200\ZStack-CC2530-r200\Projects\SappWsn\CoordinatorEB\Obj
//        -e --debug --core=plain --dptr=16,1 --data_model=large
//        --code_model=banked --calling_convention=xdata_reentrant
//        --place_constants=data_rom --nr_virtual_regs 8 -f
//        E:\qqÏÂÔØÎÄ¼þ\ZStack-CC2530-r200\ZStack-CC2530-r200\Projects\SappWsn\..\zstack\Tools\CC2530DB\f8wCoord.cfg
//        (-DCPU32MHZ -DROOT=__near_func -DMAC_CFG_APP_PENDING_QUEUE=TRUE
//        -DMAC_CFG_TX_DATA_MAX=5 -DMAC_CFG_TX_MAX=8 -DMAC_CFG_RX_MAX=5
//        -DZDO_COORDINATOR -DRTR_NWK) -f
//        E:\qqÏÂÔØÎÄ¼þ\ZStack-CC2530-r200\ZStack-CC2530-r200\Projects\SappWsn\..\zstack\Tools\CC2530DB\f8wConfig.cfg
//        (-DZIGBEEPRO -DSECURE=0 -DZG_SECURE_DYNAMIC=0 -DREFLECTOR
//        -DDEFAULT_CHANLIST=0x00800000 -DZDAPP_CONFIG_PAN_ID=0x0057
//        -DNWK_START_DELAY=100 -DEXTENDED_JOINING_RANDOM_MASK=0x007F
//        -DBEACON_REQUEST_DELAY=100 -DBEACON_REQ_DELAY_MASK=0x00FF
//        -DLINK_STATUS_JITTER_MASK=0x007F -DROUTE_EXPIRY_TIME=30
//        -DAPSC_ACK_WAIT_DURATION_POLLED=3000 -DNWK_INDIRECT_MSG_TIMEOUT=7
//        -DMAX_RREQ_ENTRIES=8 -DAPSC_MAX_FRAME_RETRIES=3
//        -DNWK_MAX_DATA_RETRIES=2 -DMAX_POLL_FAILURE_RETRIES=2 -DMAX_BCAST=9
//        -DAPS_MAX_GROUPS=16 -DMAX_RTG_ENTRIES=40 -DNWK_MAX_BINDING_ENTRIES=4
//        -DMAX_BINDING_CLUSTER_IDS=4 "-DDEFAULT_KEY={0x01, 0x03, 0x05, 0x07,
//        0x09, 0x0B, 0x0D, 0x0F, 0x00, 0x02, 0x04, 0x06, 0x08, 0x0A, 0x0C,
//        0x0D}" -DMAC_MAX_FRAME_SIZE=116 -DZDNWKMGR_MIN_TRANSMISSIONS=20
//        "-DCONST=const __code" -DGENERIC=__generic -DRFD_RCVC_ALWAYS_ON=FALSE
//        -DPOLL_RATE=1000 -DQUEUED_POLL_RATE=100 -DRESPONSE_POLL_RATE=100
//        -DREJOIN_POLL_RATE=440) -I
//        E:\qqÏÂÔØÎÄ¼þ\ZStack-CC2530-r200\ZStack-CC2530-r200\Projects\SappWsn\
//        -I
//        E:\qqÏÂÔØÎÄ¼þ\ZStack-CC2530-r200\ZStack-CC2530-r200\Projects\SappWsn\Source\
//        -I
//        E:\qqÏÂÔØÎÄ¼þ\ZStack-CC2530-r200\ZStack-CC2530-r200\Projects\SappWsn\..\zstack\ZMain\TI2530DB\
//        -I
//        E:\qqÏÂÔØÎÄ¼þ\ZStack-CC2530-r200\ZStack-CC2530-r200\Projects\SappWsn\..\..\Components\hal\include\
//        -I
//        E:\qqÏÂÔØÎÄ¼þ\ZStack-CC2530-r200\ZStack-CC2530-r200\Projects\SappWsn\..\..\Components\hal\target\CC2530EB\
//        -I
//        E:\qqÏÂÔØÎÄ¼þ\ZStack-CC2530-r200\ZStack-CC2530-r200\Projects\SappWsn\..\..\Components\mac\include\
//        -I
//        E:\qqÏÂÔØÎÄ¼þ\ZStack-CC2530-r200\ZStack-CC2530-r200\Projects\SappWsn\..\..\Components\mac\high_level\
//        -I
//        E:\qqÏÂÔØÎÄ¼þ\ZStack-CC2530-r200\ZStack-CC2530-r200\Projects\SappWsn\..\..\Components\mac\low_level\srf04\
//        -I
//        E:\qqÏÂÔØÎÄ¼þ\ZStack-CC2530-r200\ZStack-CC2530-r200\Projects\SappWsn\..\..\Components\mac\low_level\srf04\single_chip\
//        -I
//        E:\qqÏÂÔØÎÄ¼þ\ZStack-CC2530-r200\ZStack-CC2530-r200\Projects\SappWsn\..\..\Components\mt\
//        -I
//        E:\qqÏÂÔØÎÄ¼þ\ZStack-CC2530-r200\ZStack-CC2530-r200\Projects\SappWsn\..\..\Components\osal\include\
//        -I
//        E:\qqÏÂÔØÎÄ¼þ\ZStack-CC2530-r200\ZStack-CC2530-r200\Projects\SappWsn\..\..\Components\services\saddr\
//        -I
//        E:\qqÏÂÔØÎÄ¼þ\ZStack-CC2530-r200\ZStack-CC2530-r200\Projects\SappWsn\..\..\Components\services\sdata\
//        -I
//        E:\qqÏÂÔØÎÄ¼þ\ZStack-CC2530-r200\ZStack-CC2530-r200\Projects\SappWsn\..\..\Components\stack\af\
//        -I
//        E:\qqÏÂÔØÎÄ¼þ\ZStack-CC2530-r200\ZStack-CC2530-r200\Projects\SappWsn\..\..\Components\stack\nwk\
//        -I
//        E:\qqÏÂÔØÎÄ¼þ\ZStack-CC2530-r200\ZStack-CC2530-r200\Projects\SappWsn\..\..\Components\stack\sapi\
//        -I
//        E:\qqÏÂÔØÎÄ¼þ\ZStack-CC2530-r200\ZStack-CC2530-r200\Projects\SappWsn\..\..\Components\stack\sec\
//        -I
//        E:\qqÏÂÔØÎÄ¼þ\ZStack-CC2530-r200\ZStack-CC2530-r200\Projects\SappWsn\..\..\Components\stack\sys\
//        -I
//        E:\qqÏÂÔØÎÄ¼þ\ZStack-CC2530-r200\ZStack-CC2530-r200\Projects\SappWsn\..\..\Components\stack\zdo\
//        -I
//        E:\qqÏÂÔØÎÄ¼þ\ZStack-CC2530-r200\ZStack-CC2530-r200\Projects\SappWsn\..\..\Components\zmac\
//        -I
//        E:\qqÏÂÔØÎÄ¼þ\ZStack-CC2530-r200\ZStack-CC2530-r200\Projects\SappWsn\..\..\Components\zmac\f8w\
//        -Ohz --require_prototypes --no_code_motion)
//    Locale             =  Chinese (Simplified)_CHN.936
//    List file          =  
//        E:\qqÏÂÔØÎÄ¼þ\ZStack-CC2530-r200\ZStack-CC2530-r200\Projects\SappWsn\CoordinatorEB\List\MT_ZDO.s51
//
///////////////////////////////////////////////////////////////////////////////

        NAME MT_ZDO

        RTMODEL "__SystemLibrary", "CLib"
        RTMODEL "__calling_convention", "xdata_reentrant"
        RTMODEL "__code_model", "banked"
        RTMODEL "__core", "plain"
        RTMODEL "__data_model", "large"
        RTMODEL "__dptr_size", "16"
        RTMODEL "__extended_stack", "disabled"
        RTMODEL "__location_for_constants", "data"
        RTMODEL "__number_of_dptrs", "1"
        RTMODEL "__register_banks", "*"
        RTMODEL "__rt_version", "1"

        RSEG DOVERLAY:DATA:NOROOT(0)
        RSEG IOVERLAY:IDATA:NOROOT(0)
        RSEG ISTACK:IDATA:NOROOT(0)
        RSEG PSTACK:XDATA:NOROOT(0)
        RSEG XSTACK:XDATA:NOROOT(0)

        EXTERN ?V0
        EXTERN ?V1
        EXTERN ?V2
        EXTERN ?V3
        EXTERN ?V4
        EXTERN ?V5
        EXTERN ?V6
        EXTERN ?V7
        EXTERN ?ALLOC_XSTACK8
        EXTERN ?BANKED_ENTER_XDATA
        EXTERN ?BANKED_LEAVE_XDATA
        EXTERN ?BDISPATCH
        EXTERN ?BRET
        EXTERN ?DEALLOC_XSTACK8
        EXTERN ?PUSH_XSTACK_I_ONE
        EXTERN ?PUSH_XSTACK_I_THREE
        EXTERN ?PUSH_XSTACK_I_TWO
        EXTERN ?XSP
        EXTERN ?XSTACK_DISP0_8
        EXTERN ?XSTACK_DISP100_8
        EXTERN ?XSTACK_DISP101_8
        EXTERN ?XSTACK_DISP102_8
        EXTERN ?XSTACK_DISP103_8
        EXTERN __INIT_XDATA_Z

        PUBLIC `??MT_ZdoActiveEpRequest::?relay`
        FUNCTION `??MT_ZdoActiveEpRequest::?relay`,0203H
        PUBLIC `??MT_ZdoBeaconIndCB::?relay`
        FUNCTION `??MT_ZdoBeaconIndCB::?relay`,0203H
        PUBLIC `??MT_ZdoBindRequest::?relay`
        FUNCTION `??MT_ZdoBindRequest::?relay`,0203H
        PUBLIC `??MT_ZdoCommandProcessing::?relay`
        FUNCTION `??MT_ZdoCommandProcessing::?relay`,0203H
        PUBLIC `??MT_ZdoComplexDescRequest::?relay`
        FUNCTION `??MT_ZdoComplexDescRequest::?relay`,0203H
        PUBLIC `??MT_ZdoEndDevAnnce::?relay`
        FUNCTION `??MT_ZdoEndDevAnnce::?relay`,0203H
        PUBLIC `??MT_ZdoEndDevBindRequest::?relay`
        FUNCTION `??MT_ZdoEndDevBindRequest::?relay`,0203H
        PUBLIC `??MT_ZdoIEEEAddrRequest::?relay`
        FUNCTION `??MT_ZdoIEEEAddrRequest::?relay`,0203H
        PUBLIC `??MT_ZdoInit::?relay`
        FUNCTION `??MT_ZdoInit::?relay`,0203H
        PUBLIC `??MT_ZdoJoinCnfCB::?relay`
        FUNCTION `??MT_ZdoJoinCnfCB::?relay`,0203H
        PUBLIC `??MT_ZdoJoinReq::?relay`
        FUNCTION `??MT_ZdoJoinReq::?relay`,0203H
        PUBLIC `??MT_ZdoMatchDescRequest::?relay`
        FUNCTION `??MT_ZdoMatchDescRequest::?relay`,0203H
        PUBLIC `??MT_ZdoNWKAddressRequest::?relay`
        FUNCTION `??MT_ZdoNWKAddressRequest::?relay`,0203H
        PUBLIC `??MT_ZdoNetworkDiscoveryReq::?relay`
        FUNCTION `??MT_ZdoNetworkDiscoveryReq::?relay`,0203H
        PUBLIC `??MT_ZdoNodeDescRequest::?relay`
        FUNCTION `??MT_ZdoNodeDescRequest::?relay`,0203H
        PUBLIC `??MT_ZdoNwkDiscoveryCnfCB::?relay`
        FUNCTION `??MT_ZdoNwkDiscoveryCnfCB::?relay`,0203H
        PUBLIC `??MT_ZdoPowerDescRequest::?relay`
        FUNCTION `??MT_ZdoPowerDescRequest::?relay`,0203H
        PUBLIC `??MT_ZdoRegisterForZDOMsg::?relay`
        FUNCTION `??MT_ZdoRegisterForZDOMsg::?relay`,0203H
        PUBLIC `??MT_ZdoRemoveRegisteredCB::?relay`
        FUNCTION `??MT_ZdoRemoveRegisteredCB::?relay`,0203H
        PUBLIC `??MT_ZdoSendMsgCB::?relay`
        FUNCTION `??MT_ZdoSendMsgCB::?relay`,0203H
        PUBLIC `??MT_ZdoServiceDiscRequest::?relay`
        FUNCTION `??MT_ZdoServiceDiscRequest::?relay`,0203H
        PUBLIC `??MT_ZdoSimpleDescRequest::?relay`
        FUNCTION `??MT_ZdoSimpleDescRequest::?relay`,0203H
        PUBLIC `??MT_ZdoStartupFromApp::?relay`
        FUNCTION `??MT_ZdoStartupFromApp::?relay`,0203H
        PUBLIC `??MT_ZdoUnbindRequest::?relay`
        FUNCTION `??MT_ZdoUnbindRequest::?relay`,0203H
        PUBLIC `??MT_ZdoUserDescRequest::?relay`
        FUNCTION `??MT_ZdoUserDescRequest::?relay`,0203H
        PUBLIC `??MT_ZdoUserDescSet::?relay`
        FUNCTION `??MT_ZdoUserDescSet::?relay`,0203H
        PUBLIC MT_ZdoActiveEpRequest
        FUNCTION MT_ZdoActiveEpRequest,0a1203H
        ARGFRAME XSTACK, 9, STACK
        ARGFRAME IOVERLAY, 0, STATIC
        ARGFRAME DOVERLAY, 0, STATIC
        LOCFRAME ISTACK, 1, STACK
        LOCFRAME XSTACK, 20, STACK
        PUBLIC MT_ZdoBeaconIndCB
        FUNCTION MT_ZdoBeaconIndCB,0a1603H
        ARGFRAME XSTACK, 9, STACK
        ARGFRAME IOVERLAY, 0, STATIC
        ARGFRAME DOVERLAY, 0, STATIC
        LOCFRAME ISTACK, 1, STACK
        LOCFRAME XSTACK, 14, STACK
        PUBLIC MT_ZdoBindRequest
        FUNCTION MT_ZdoBindRequest,0a1203H
        ARGFRAME XSTACK, 9, STACK
        ARGFRAME IOVERLAY, 0, STATIC
        ARGFRAME DOVERLAY, 0, STATIC
        LOCFRAME ISTACK, 1, STACK
        LOCFRAME XSTACK, 43, STACK
        PUBLIC MT_ZdoCommandProcessing
        FUNCTION MT_ZdoCommandProcessing,021203H
        ARGFRAME XSTACK, 0, STACK
        LOCFRAME XSTACK, 9, STACK
        PUBLIC MT_ZdoComplexDescRequest
        FUNCTION MT_ZdoComplexDescRequest,0a1203H
        ARGFRAME XSTACK, 9, STACK
        ARGFRAME IOVERLAY, 0, STATIC
        ARGFRAME DOVERLAY, 0, STATIC
        LOCFRAME ISTACK, 1, STACK
        LOCFRAME XSTACK, 20, STACK
        PUBLIC MT_ZdoEndDevAnnce
        FUNCTION MT_ZdoEndDevAnnce,0a1203H
        ARGFRAME XSTACK, 9, STACK
        ARGFRAME IOVERLAY, 0, STATIC
        ARGFRAME DOVERLAY, 0, STATIC
        LOCFRAME ISTACK, 1, STACK
        LOCFRAME XSTACK, 11, STACK
        PUBLIC MT_ZdoEndDevBindRequest
        FUNCTION MT_ZdoEndDevBindRequest,0a1203H
        ARGFRAME XSTACK, 9, STACK
        ARGFRAME IOVERLAY, 0, STATIC
        ARGFRAME DOVERLAY, 0, STATIC
        LOCFRAME ISTACK, 1, STACK
        LOCFRAME XSTACK, 94, STACK
        PUBLIC MT_ZdoIEEEAddrRequest
        FUNCTION MT_ZdoIEEEAddrRequest,0a1203H
        ARGFRAME XSTACK, 9, STACK
        ARGFRAME IOVERLAY, 0, STATIC
        ARGFRAME DOVERLAY, 0, STATIC
        LOCFRAME ISTACK, 1, STACK
        LOCFRAME XSTACK, 11, STACK
        PUBLIC MT_ZdoInit
        FUNCTION MT_ZdoInit,0203H
        ARGFRAME XSTACK, 0, STACK
        PUBLIC MT_ZdoJoinCnfCB
        FUNCTION MT_ZdoJoinCnfCB,021603H
        ARGFRAME XSTACK, 0, STACK
        LOCFRAME ISTACK, 1, STACK
        LOCFRAME XSTACK, 14, STACK
        PUBLIC MT_ZdoJoinReq
        FUNCTION MT_ZdoJoinReq,0a1203H
        ARGFRAME XSTACK, 9, STACK
        ARGFRAME IOVERLAY, 0, STATIC
        ARGFRAME DOVERLAY, 0, STATIC
        LOCFRAME ISTACK, 1, STACK
        LOCFRAME XSTACK, 17, STACK
        PUBLIC MT_ZdoMatchDescRequest
        FUNCTION MT_ZdoMatchDescRequest,0a1203H
        ARGFRAME XSTACK, 9, STACK
        ARGFRAME IOVERLAY, 0, STATIC
        ARGFRAME DOVERLAY, 0, STATIC
        LOCFRAME ISTACK, 1, STACK
        LOCFRAME XSTACK, 96, STACK
        PUBLIC MT_ZdoNWKAddressRequest
        FUNCTION MT_ZdoNWKAddressRequest,0a1203H
        ARGFRAME XSTACK, 9, STACK
        ARGFRAME IOVERLAY, 0, STATIC
        ARGFRAME DOVERLAY, 0, STATIC
        LOCFRAME ISTACK, 1, STACK
        LOCFRAME XSTACK, 11, STACK
        PUBLIC MT_ZdoNetworkDiscoveryReq
        FUNCTION MT_ZdoNetworkDiscoveryReq,0a1203H
        ARGFRAME XSTACK, 9, STACK
        ARGFRAME IOVERLAY, 0, STATIC
        ARGFRAME DOVERLAY, 0, STATIC
        LOCFRAME ISTACK, 1, STACK
        LOCFRAME XSTACK, 14, STACK
        PUBLIC MT_ZdoNodeDescRequest
        FUNCTION MT_ZdoNodeDescRequest,0a1203H
        ARGFRAME XSTACK, 9, STACK
        ARGFRAME IOVERLAY, 0, STATIC
        ARGFRAME DOVERLAY, 0, STATIC
        LOCFRAME ISTACK, 1, STACK
        LOCFRAME XSTACK, 20, STACK
        PUBLIC MT_ZdoNwkDiscoveryCnfCB
        FUNCTION MT_ZdoNwkDiscoveryCnfCB,021603H
        ARGFRAME XSTACK, 0, STACK
        LOCFRAME XSTACK, 9, STACK
        PUBLIC MT_ZdoPowerDescRequest
        FUNCTION MT_ZdoPowerDescRequest,0a1203H
        ARGFRAME XSTACK, 9, STACK
        ARGFRAME IOVERLAY, 0, STATIC
        ARGFRAME DOVERLAY, 0, STATIC
        LOCFRAME ISTACK, 1, STACK
        LOCFRAME XSTACK, 20, STACK
        PUBLIC MT_ZdoRegisterForZDOMsg
        FUNCTION MT_ZdoRegisterForZDOMsg,021203H
        ARGFRAME XSTACK, 9, STACK
        ARGFRAME IOVERLAY, 0, STATIC
        ARGFRAME DOVERLAY, 0, STATIC
        LOCFRAME ISTACK, 1, STACK
        LOCFRAME XSTACK, 10, STACK
        PUBLIC MT_ZdoRemoveRegisteredCB
        FUNCTION MT_ZdoRemoveRegisteredCB,021203H
        ARGFRAME XSTACK, 9, STACK
        ARGFRAME IOVERLAY, 0, STATIC
        ARGFRAME DOVERLAY, 0, STATIC
        LOCFRAME ISTACK, 1, STACK
        LOCFRAME XSTACK, 10, STACK
        PUBLIC MT_ZdoSendMsgCB
        FUNCTION MT_ZdoSendMsgCB,0a1203H
        ARGFRAME XSTACK, 0, STACK
        LOCFRAME ISTACK, 1, STACK
        LOCFRAME XSTACK, 17, STACK
        PUBLIC MT_ZdoServiceDiscRequest
        FUNCTION MT_ZdoServiceDiscRequest,021203H
        ARGFRAME XSTACK, 9, STACK
        ARGFRAME IOVERLAY, 0, STATIC
        ARGFRAME DOVERLAY, 0, STATIC
        LOCFRAME ISTACK, 1, STACK
        LOCFRAME XSTACK, 10, STACK
        PUBLIC MT_ZdoSimpleDescRequest
        FUNCTION MT_ZdoSimpleDescRequest,0a1203H
        ARGFRAME XSTACK, 9, STACK
        ARGFRAME IOVERLAY, 0, STATIC
        ARGFRAME DOVERLAY, 0, STATIC
        LOCFRAME ISTACK, 1, STACK
        LOCFRAME XSTACK, 20, STACK
        PUBLIC MT_ZdoStartupFromApp
        FUNCTION MT_ZdoStartupFromApp,021203H
        ARGFRAME XSTACK, 9, STACK
        ARGFRAME IOVERLAY, 0, STATIC
        ARGFRAME DOVERLAY, 0, STATIC
        LOCFRAME ISTACK, 1, STACK
        LOCFRAME XSTACK, 10, STACK
        PUBLIC MT_ZdoUnbindRequest
        FUNCTION MT_ZdoUnbindRequest,0a1203H
        ARGFRAME XSTACK, 9, STACK
        ARGFRAME IOVERLAY, 0, STATIC
        ARGFRAME DOVERLAY, 0, STATIC
        LOCFRAME ISTACK, 1, STACK
        LOCFRAME XSTACK, 43, STACK
        PUBLIC MT_ZdoUserDescRequest
        FUNCTION MT_ZdoUserDescRequest,0a1203H
        ARGFRAME XSTACK, 9, STACK
        ARGFRAME IOVERLAY, 0, STATIC
        ARGFRAME DOVERLAY, 0, STATIC
        LOCFRAME ISTACK, 1, STACK
        LOCFRAME XSTACK, 20, STACK
        PUBLIC MT_ZdoUserDescSet
        FUNCTION MT_ZdoUserDescSet,0a1203H
        ARGFRAME XSTACK, 9, STACK
        ARGFRAME IOVERLAY, 0, STATIC
        ARGFRAME DOVERLAY, 0, STATIC
        LOCFRAME ISTACK, 1, STACK
        LOCFRAME XSTACK, 42, STACK
        PUBLIC _zdoCallbackSub
        PUBLIC pBeaconIndBuf
        
          CFI Names cfiNames0
          CFI StackFrame CFA_SP SP IDATA
          CFI StackFrame CFA_PSP16 PSP16 XDATA
          CFI StackFrame CFA_XSP16 XSP16 XDATA
          CFI StaticOverlayFrame CFA_IOVERLAY IOVERLAY
          CFI StaticOverlayFrame CFA_DOVERLAY DOVERLAY
          CFI Resource `PSW.CY`:1, `B.BR0`:1, `B.BR1`:1, `B.BR2`:1, `B.BR3`:1
          CFI Resource `B.BR4`:1, `B.BR5`:1, `B.BR6`:1, `B.BR7`:1, `VB.BR8`:1
          CFI Resource `VB.BR9`:1, `VB.BR10`:1, `VB.BR11`:1, `VB.BR12`:1
          CFI Resource `VB.BR13`:1, `VB.BR14`:1, `VB.BR15`:1, VB:8, B:8, A:8
          CFI Resource PSW:8, DPL0:8, DPH0:8, R0:8, R1:8, R2:8, R3:8, R4:8, R5:8
          CFI Resource R6:8, R7:8, V0:8, V1:8, V2:8, V3:8, V4:8, V5:8, V6:8, V7:8
          CFI Resource SP:8, PSPH:8, PSPL:8, PSP16:16, XSPH:8, XSPL:8, XSP16:16
          CFI VirtualResource ?RET:24
          CFI Resource ?BRET_EXT:8
          CFI VirtualResource ?RET_HIGH:8, ?RET_LOW:8
          CFI ResourceParts PSP16 PSPH, PSPL
          CFI ResourceParts XSP16 XSPH, XSPL
          CFI ResourceParts ?RET ?BRET_EXT, ?RET_HIGH, ?RET_LOW
          CFI EndNames cfiNames0
        
          CFI Common cfiCommon0 Using cfiNames0
          CFI CodeAlign 1
          CFI DataAlign -1
          CFI ReturnAddress ?RET CODE
          CFI CFA_DOVERLAY Used
          CFI CFA_IOVERLAY Used
          CFI CFA_SP SP+-3
          CFI CFA_PSP16 PSP16+0
          CFI CFA_XSP16 XSP16+0
          CFI `PSW.CY` SameValue
          CFI `B.BR0` SameValue
          CFI `B.BR1` SameValue
          CFI `B.BR2` SameValue
          CFI `B.BR3` SameValue
          CFI `B.BR4` SameValue
          CFI `B.BR5` SameValue
          CFI `B.BR6` SameValue
          CFI `B.BR7` SameValue
          CFI `VB.BR8` SameValue
          CFI `VB.BR9` SameValue
          CFI `VB.BR10` SameValue
          CFI `VB.BR11` SameValue
          CFI `VB.BR12` SameValue
          CFI `VB.BR13` SameValue
          CFI `VB.BR14` SameValue
          CFI `VB.BR15` SameValue
          CFI VB SameValue
          CFI B Undefined
          CFI A Undefined
          CFI PSW SameValue
          CFI DPL0 SameValue
          CFI DPH0 SameValue
          CFI R0 Undefined
          CFI R1 Undefined
          CFI R2 Undefined
          CFI R3 Undefined
          CFI R4 Undefined
          CFI R5 Undefined
          CFI R6 SameValue
          CFI R7 SameValue
          CFI V0 SameValue
          CFI V1 SameValue
          CFI V2 SameValue
          CFI V3 SameValue
          CFI V4 SameValue
          CFI V5 SameValue
          CFI V6 SameValue
          CFI V7 SameValue
          CFI PSPH Undefined
          CFI PSPL Undefined
          CFI XSPH Undefined
          CFI XSPL Undefined
          CFI ?RET Concat
          CFI ?BRET_EXT Frame(CFA_SP, 3)
          CFI ?RET_HIGH Frame(CFA_SP, 2)
          CFI ?RET_LOW Frame(CFA_SP, 1)
          CFI EndCommon cfiCommon0
        
        
          CFI Common cfiCommon1 Using cfiNames0
          CFI CodeAlign 1
          CFI DataAlign -1
          CFI ReturnAddress ?RET CODE
          CFI CFA_DOVERLAY Used
          CFI CFA_IOVERLAY Used
          CFI CFA_SP SP+-2
          CFI CFA_PSP16 PSP16+0
          CFI CFA_XSP16 XSP16+0
          CFI `PSW.CY` SameValue
          CFI `B.BR0` SameValue
          CFI `B.BR1` SameValue
          CFI `B.BR2` SameValue
          CFI `B.BR3` SameValue
          CFI `B.BR4` SameValue
          CFI `B.BR5` SameValue
          CFI `B.BR6` SameValue
          CFI `B.BR7` SameValue
          CFI `VB.BR8` SameValue
          CFI `VB.BR9` SameValue
          CFI `VB.BR10` SameValue
          CFI `VB.BR11` SameValue
          CFI `VB.BR12` SameValue
          CFI `VB.BR13` SameValue
          CFI `VB.BR14` SameValue
          CFI `VB.BR15` SameValue
          CFI VB SameValue
          CFI B SameValue
          CFI A SameValue
          CFI PSW SameValue
          CFI DPL0 SameValue
          CFI DPH0 SameValue
          CFI R0 SameValue
          CFI R1 SameValue
          CFI R2 SameValue
          CFI R3 SameValue
          CFI R4 SameValue
          CFI R5 SameValue
          CFI R6 SameValue
          CFI R7 SameValue
          CFI V0 SameValue
          CFI V1 SameValue
          CFI V2 SameValue
          CFI V3 SameValue
          CFI V4 SameValue
          CFI V5 SameValue
          CFI V6 SameValue
          CFI V7 SameValue
          CFI PSPH Undefined
          CFI PSPL Undefined
          CFI XSPH Undefined
          CFI XSPL Undefined
          CFI ?RET Concat
          CFI ?BRET_EXT SameValue
          CFI ?RET_HIGH Frame(CFA_SP, 2)
          CFI ?RET_LOW Frame(CFA_SP, 1)
          CFI EndCommon cfiCommon1
        
MT_BuildAndSendZToolResponse SYMBOL "MT_BuildAndSendZToolResponse"
`??MT_BuildAndSendZToolResponse::?relay` SYMBOL "?relay", MT_BuildAndSendZToolResponse
ZDApp_JoinReq       SYMBOL "ZDApp_JoinReq"
`??ZDApp_JoinReq::?relay` SYMBOL "?relay", ZDApp_JoinReq
ZDApp_NetworkDiscoveryReq SYMBOL "ZDApp_NetworkDiscoveryReq"
`??ZDApp_NetworkDiscoveryReq::?relay` SYMBOL "?relay", ZDApp_NetworkDiscoveryReq
ZDOInitDevice       SYMBOL "ZDOInitDevice"
`??ZDOInitDevice::?relay` SYMBOL "?relay", ZDOInitDevice
ZDO_DeregisterForZdoCB SYMBOL "ZDO_DeregisterForZdoCB"
`??ZDO_DeregisterForZdoCB::?relay` SYMBOL "?relay", ZDO_DeregisterForZdoCB
ZDO_RegisterForZDOMsg SYMBOL "ZDO_RegisterForZDOMsg"
`??ZDO_RegisterForZDOMsg::?relay` SYMBOL "?relay", ZDO_RegisterForZDOMsg
ZDO_RegisterForZdoCB SYMBOL "ZDO_RegisterForZdoCB"
`??ZDO_RegisterForZdoCB::?relay` SYMBOL "?relay", ZDO_RegisterForZdoCB
ZDO_RemoveRegisteredCB SYMBOL "ZDO_RemoveRegisteredCB"
`??ZDO_RemoveRegisteredCB::?relay` SYMBOL "?relay", ZDO_RemoveRegisteredCB
ZDP_BindUnbindReq   SYMBOL "ZDP_BindUnbindReq"
`??ZDP_BindUnbindReq::?relay` SYMBOL "?relay", ZDP_BindUnbindReq
ZDP_DeviceAnnce     SYMBOL "ZDP_DeviceAnnce"
`??ZDP_DeviceAnnce::?relay` SYMBOL "?relay", ZDP_DeviceAnnce
ZDP_EndDeviceBindReq SYMBOL "ZDP_EndDeviceBindReq"
`??ZDP_EndDeviceBindReq::?relay` SYMBOL "?relay", ZDP_EndDeviceBindReq
ZDP_IEEEAddrReq     SYMBOL "ZDP_IEEEAddrReq"
`??ZDP_IEEEAddrReq::?relay` SYMBOL "?relay", ZDP_IEEEAddrReq
ZDP_MatchDescReq    SYMBOL "ZDP_MatchDescReq"
`??ZDP_MatchDescReq::?relay` SYMBOL "?relay", ZDP_MatchDescReq
ZDP_NWKAddrOfInterestReq SYMBOL "ZDP_NWKAddrOfInterestReq"
`??ZDP_NWKAddrOfInterestReq::?relay` SYMBOL "?relay", ZDP_NWKAddrOfInterestReq
ZDP_NwkAddrReq      SYMBOL "ZDP_NwkAddrReq"
`??ZDP_NwkAddrReq::?relay` SYMBOL "?relay", ZDP_NwkAddrReq
ZDP_ServerDiscReq   SYMBOL "ZDP_ServerDiscReq"
`??ZDP_ServerDiscReq::?relay` SYMBOL "?relay", ZDP_ServerDiscReq
ZDP_SimpleDescReq   SYMBOL "ZDP_SimpleDescReq"
`??ZDP_SimpleDescReq::?relay` SYMBOL "?relay", ZDP_SimpleDescReq
ZDP_UserDescSet     SYMBOL "ZDP_UserDescSet"
`??ZDP_UserDescSet::?relay` SYMBOL "?relay", ZDP_UserDescSet
osal_build_uint32   SYMBOL "osal_build_uint32"
`??osal_build_uint32::?relay` SYMBOL "?relay", osal_build_uint32
osal_mem_alloc      SYMBOL "osal_mem_alloc"
`??osal_mem_alloc::?relay` SYMBOL "?relay", osal_mem_alloc
osal_mem_free       SYMBOL "osal_mem_free"
`??osal_mem_free::?relay` SYMBOL "?relay", osal_mem_free
osal_memcpy         SYMBOL "osal_memcpy"
`??osal_memcpy::?relay` SYMBOL "?relay", osal_memcpy
sAddrExtCpy         SYMBOL "sAddrExtCpy"
`??sAddrExtCpy::?relay` SYMBOL "?relay", sAddrExtCpy
MT_ZdoActiveEpRequest SYMBOL "MT_ZdoActiveEpRequest"
`??MT_ZdoActiveEpRequest::?relay` SYMBOL "?relay", MT_ZdoActiveEpRequest
MT_ZdoBeaconIndCB   SYMBOL "MT_ZdoBeaconIndCB"
`??MT_ZdoBeaconIndCB::?relay` SYMBOL "?relay", MT_ZdoBeaconIndCB
MT_ZdoBindRequest   SYMBOL "MT_ZdoBindRequest"
`??MT_ZdoBindRequest::?relay` SYMBOL "?relay", MT_ZdoBindRequest
MT_ZdoCommandProcessing SYMBOL "MT_ZdoCommandProcessing"
`??MT_ZdoCommandProcessing::?relay` SYMBOL "?relay", MT_ZdoCommandProcessing
MT_ZdoComplexDescRequest SYMBOL "MT_ZdoComplexDescRequest"
`??MT_ZdoComplexDescRequest::?relay` SYMBOL "?relay", MT_ZdoComplexDescRequest
MT_ZdoEndDevAnnce   SYMBOL "MT_ZdoEndDevAnnce"
`??MT_ZdoEndDevAnnce::?relay` SYMBOL "?relay", MT_ZdoEndDevAnnce
MT_ZdoEndDevBindRequest SYMBOL "MT_ZdoEndDevBindRequest"
`??MT_ZdoEndDevBindRequest::?relay` SYMBOL "?relay", MT_ZdoEndDevBindRequest
MT_ZdoIEEEAddrRequest SYMBOL "MT_ZdoIEEEAddrRequest"
`??MT_ZdoIEEEAddrRequest::?relay` SYMBOL "?relay", MT_ZdoIEEEAddrRequest
MT_ZdoInit          SYMBOL "MT_ZdoInit"
`??MT_ZdoInit::?relay` SYMBOL "?relay", MT_ZdoInit
MT_ZdoJoinCnfCB     SYMBOL "MT_ZdoJoinCnfCB"
`??MT_ZdoJoinCnfCB::?relay` SYMBOL "?relay", MT_ZdoJoinCnfCB
MT_ZdoJoinReq       SYMBOL "MT_ZdoJoinReq"
`??MT_ZdoJoinReq::?relay` SYMBOL "?relay", MT_ZdoJoinReq
MT_ZdoMatchDescRequest SYMBOL "MT_ZdoMatchDescRequest"
`??MT_ZdoMatchDescRequest::?relay` SYMBOL "?relay", MT_ZdoMatchDescRequest
MT_ZdoNWKAddressRequest SYMBOL "MT_ZdoNWKAddressRequest"
`??MT_ZdoNWKAddressRequest::?relay` SYMBOL "?relay", MT_ZdoNWKAddressRequest
MT_ZdoNetworkDiscoveryReq SYMBOL "MT_ZdoNetworkDiscoveryReq"
`??MT_ZdoNetworkDiscoveryReq::?relay` SYMBOL "?relay", MT_ZdoNetworkDiscoveryReq
MT_ZdoNodeDescRequest SYMBOL "MT_ZdoNodeDescRequest"
`??MT_ZdoNodeDescRequest::?relay` SYMBOL "?relay", MT_ZdoNodeDescRequest
MT_ZdoNwkDiscoveryCnfCB SYMBOL "MT_ZdoNwkDiscoveryCnfCB"
`??MT_ZdoNwkDiscoveryCnfCB::?relay` SYMBOL "?relay", MT_ZdoNwkDiscoveryCnfCB
MT_ZdoPowerDescRequest SYMBOL "MT_ZdoPowerDescRequest"
`??MT_ZdoPowerDescRequest::?relay` SYMBOL "?relay", MT_ZdoPowerDescRequest
MT_ZdoRegisterForZDOMsg SYMBOL "MT_ZdoRegisterForZDOMsg"
`??MT_ZdoRegisterForZDOMsg::?relay` SYMBOL "?relay", MT_ZdoRegisterForZDOMsg
MT_ZdoRemoveRegisteredCB SYMBOL "MT_ZdoRemoveRegisteredCB"
`??MT_ZdoRemoveRegisteredCB::?relay` SYMBOL "?relay", MT_ZdoRemoveRegisteredCB
MT_ZdoSendMsgCB     SYMBOL "MT_ZdoSendMsgCB"
`??MT_ZdoSendMsgCB::?relay` SYMBOL "?relay", MT_ZdoSendMsgCB
MT_ZdoServiceDiscRequest SYMBOL "MT_ZdoServiceDiscRequest"
`??MT_ZdoServiceDiscRequest::?relay` SYMBOL "?relay", MT_ZdoServiceDiscRequest
MT_ZdoSimpleDescRequest SYMBOL "MT_ZdoSimpleDescRequest"
`??MT_ZdoSimpleDescRequest::?relay` SYMBOL "?relay", MT_ZdoSimpleDescRequest
MT_ZdoStartupFromApp SYMBOL "MT_ZdoStartupFromApp"
`??MT_ZdoStartupFromApp::?relay` SYMBOL "?relay", MT_ZdoStartupFromApp
MT_ZdoUnbindRequest SYMBOL "MT_ZdoUnbindRequest"
`??MT_ZdoUnbindRequest::?relay` SYMBOL "?relay", MT_ZdoUnbindRequest
MT_ZdoUserDescRequest SYMBOL "MT_ZdoUserDescRequest"
`??MT_ZdoUserDescRequest::?relay` SYMBOL "?relay", MT_ZdoUserDescRequest
MT_ZdoUserDescSet   SYMBOL "MT_ZdoUserDescSet"
`??MT_ZdoUserDescSet::?relay` SYMBOL "?relay", MT_ZdoUserDescSet

        EXTERN `??MT_BuildAndSendZToolResponse::?relay`
        FUNCTION `??MT_BuildAndSendZToolResponse::?relay`,00H
        EXTERN `??ZDApp_JoinReq::?relay`
        FUNCTION `??ZDApp_JoinReq::?relay`,00H
        EXTERN `??ZDApp_NetworkDiscoveryReq::?relay`
        FUNCTION `??ZDApp_NetworkDiscoveryReq::?relay`,00H
        EXTERN `??ZDOInitDevice::?relay`
        FUNCTION `??ZDOInitDevice::?relay`,00H
        EXTERN `??ZDO_DeregisterForZdoCB::?relay`
        FUNCTION `??ZDO_DeregisterForZdoCB::?relay`,00H
        EXTERN `??ZDO_RegisterForZDOMsg::?relay`
        FUNCTION `??ZDO_RegisterForZDOMsg::?relay`,00H
        EXTERN `??ZDO_RegisterForZdoCB::?relay`
        FUNCTION `??ZDO_RegisterForZdoCB::?relay`,00H
        EXTERN `??ZDO_RemoveRegisteredCB::?relay`
        FUNCTION `??ZDO_RemoveRegisteredCB::?relay`,00H
        EXTERN `??ZDP_BindUnbindReq::?relay`
        FUNCTION `??ZDP_BindUnbindReq::?relay`,00H
        EXTERN `??ZDP_DeviceAnnce::?relay`
        FUNCTION `??ZDP_DeviceAnnce::?relay`,00H
        EXTERN `??ZDP_EndDeviceBindReq::?relay`
        FUNCTION `??ZDP_EndDeviceBindReq::?relay`,00H
        EXTERN `??ZDP_IEEEAddrReq::?relay`
        FUNCTION `??ZDP_IEEEAddrReq::?relay`,00H
        EXTERN `??ZDP_MatchDescReq::?relay`
        FUNCTION `??ZDP_MatchDescReq::?relay`,00H
        EXTERN `??ZDP_NWKAddrOfInterestReq::?relay`
        FUNCTION `??ZDP_NWKAddrOfInterestReq::?relay`,00H
        EXTERN `??ZDP_NwkAddrReq::?relay`
        FUNCTION `??ZDP_NwkAddrReq::?relay`,00H
        EXTERN `??ZDP_ServerDiscReq::?relay`
        FUNCTION `??ZDP_ServerDiscReq::?relay`,00H
        EXTERN `??ZDP_SimpleDescReq::?relay`
        FUNCTION `??ZDP_SimpleDescReq::?relay`,00H
        EXTERN `??ZDP_UserDescSet::?relay`
        FUNCTION `??ZDP_UserDescSet::?relay`,00H
        EXTERN `??osal_build_uint32::?relay`
        FUNCTION `??osal_build_uint32::?relay`,00H
        EXTERN `??osal_mem_alloc::?relay`
        FUNCTION `??osal_mem_alloc::?relay`,00H
        EXTERN `??osal_mem_free::?relay`
        FUNCTION `??osal_mem_free::?relay`,00H
        EXTERN `??osal_memcpy::?relay`
        FUNCTION `??osal_memcpy::?relay`,00H
        EXTERN `??sAddrExtCpy::?relay`
        FUNCTION `??sAddrExtCpy::?relay`,00H
        EXTERN MT_BuildAndSendZToolResponse
        FUNCTION MT_BuildAndSendZToolResponse,0202H
        ARGFRAME ISTACK, 0, STACK
        ARGFRAME PSTACK, 0, STACK
        ARGFRAME XSTACK, 88, STACK
        ARGFRAME IOVERLAY, 0, STATIC
        ARGFRAME DOVERLAY, 0, STATIC
        EXTERN MT_TaskID
        EXTERN ZDApp_JoinReq
        FUNCTION ZDApp_JoinReq,0202H
        ARGFRAME ISTACK, 0, STACK
        ARGFRAME PSTACK, 0, STACK
        ARGFRAME XSTACK, 17, STACK
        ARGFRAME IOVERLAY, 0, STATIC
        ARGFRAME DOVERLAY, 0, STATIC
        EXTERN ZDApp_NetworkDiscoveryReq
        FUNCTION ZDApp_NetworkDiscoveryReq,0202H
        ARGFRAME ISTACK, 0, STACK
        ARGFRAME PSTACK, 0, STACK
        ARGFRAME XSTACK, 14, STACK
        ARGFRAME IOVERLAY, 0, STATIC
        ARGFRAME DOVERLAY, 0, STATIC
        EXTERN ZDOInitDevice
        FUNCTION ZDOInitDevice,0202H
        ARGFRAME ISTACK, 0, STACK
        ARGFRAME PSTACK, 0, STACK
        ARGFRAME XSTACK, 10, STACK
        ARGFRAME IOVERLAY, 0, STATIC
        ARGFRAME DOVERLAY, 0, STATIC
        EXTERN ZDO_DeregisterForZdoCB
        FUNCTION ZDO_DeregisterForZdoCB,0202H
        ARGFRAME ISTACK, 0, STACK
        ARGFRAME PSTACK, 0, STACK
        ARGFRAME XSTACK, 14, STACK
        ARGFRAME IOVERLAY, 0, STATIC
        ARGFRAME DOVERLAY, 0, STATIC
        EXTERN ZDO_RegisterForZDOMsg
        FUNCTION ZDO_RegisterForZDOMsg,0202H
        ARGFRAME ISTACK, 0, STACK
        ARGFRAME PSTACK, 0, STACK
        ARGFRAME XSTACK, 10, STACK
        ARGFRAME IOVERLAY, 0, STATIC
        ARGFRAME DOVERLAY, 0, STATIC
        EXTERN ZDO_RegisterForZdoCB
        FUNCTION ZDO_RegisterForZdoCB,0202H
        ARGFRAME ISTACK, 0, STACK
        ARGFRAME PSTACK, 0, STACK
        ARGFRAME XSTACK, 14, STACK
        ARGFRAME IOVERLAY, 0, STATIC
        ARGFRAME DOVERLAY, 0, STATIC
        EXTERN ZDO_RemoveRegisteredCB
        FUNCTION ZDO_RemoveRegisteredCB,0202H
        ARGFRAME ISTACK, 0, STACK
        ARGFRAME PSTACK, 0, STACK
        ARGFRAME XSTACK, 10, STACK
        ARGFRAME IOVERLAY, 0, STATIC
        ARGFRAME DOVERLAY, 0, STATIC
        EXTERN ZDP_BindUnbindReq
        FUNCTION ZDP_BindUnbindReq,0202H
        ARGFRAME ISTACK, 0, STACK
        ARGFRAME PSTACK, 0, STACK
        ARGFRAME XSTACK, 43, STACK
        ARGFRAME IOVERLAY, 0, STATIC
        ARGFRAME DOVERLAY, 0, STATIC
        EXTERN ZDP_DeviceAnnce
        FUNCTION ZDP_DeviceAnnce,0202H
        ARGFRAME ISTACK, 0, STACK
        ARGFRAME PSTACK, 0, STACK
        ARGFRAME XSTACK, 11, STACK
        ARGFRAME IOVERLAY, 0, STATIC
        ARGFRAME DOVERLAY, 0, STATIC
        EXTERN ZDP_EndDeviceBindReq
        FUNCTION ZDP_EndDeviceBindReq,0202H
        ARGFRAME ISTACK, 0, STACK
        ARGFRAME PSTACK, 0, STACK
        ARGFRAME XSTACK, 94, STACK
        ARGFRAME IOVERLAY, 0, STATIC
        ARGFRAME DOVERLAY, 0, STATIC
        EXTERN ZDP_IEEEAddrReq
        FUNCTION ZDP_IEEEAddrReq,0202H
        ARGFRAME ISTACK, 0, STACK
        ARGFRAME PSTACK, 0, STACK
        ARGFRAME XSTACK, 11, STACK
        ARGFRAME IOVERLAY, 0, STATIC
        ARGFRAME DOVERLAY, 0, STATIC
        EXTERN ZDP_MatchDescReq
        FUNCTION ZDP_MatchDescReq,0202H
        ARGFRAME ISTACK, 0, STACK
        ARGFRAME PSTACK, 0, STACK
        ARGFRAME XSTACK, 96, STACK
        ARGFRAME IOVERLAY, 0, STATIC
        ARGFRAME DOVERLAY, 0, STATIC
        EXTERN ZDP_NWKAddrOfInterestReq
        FUNCTION ZDP_NWKAddrOfInterestReq,0202H
        ARGFRAME ISTACK, 0, STACK
        ARGFRAME PSTACK, 0, STACK
        ARGFRAME XSTACK, 20, STACK
        ARGFRAME IOVERLAY, 0, STATIC
        ARGFRAME DOVERLAY, 0, STATIC
        EXTERN ZDP_NwkAddrReq
        FUNCTION ZDP_NwkAddrReq,0202H
        ARGFRAME ISTACK, 0, STACK
        ARGFRAME PSTACK, 0, STACK
        ARGFRAME XSTACK, 11, STACK
        ARGFRAME IOVERLAY, 0, STATIC
        ARGFRAME DOVERLAY, 0, STATIC
        EXTERN ZDP_ServerDiscReq
        FUNCTION ZDP_ServerDiscReq,0202H
        ARGFRAME ISTACK, 0, STACK
        ARGFRAME PSTACK, 0, STACK
        ARGFRAME XSTACK, 10, STACK
        ARGFRAME IOVERLAY, 0, STATIC
        ARGFRAME DOVERLAY, 0, STATIC
        EXTERN ZDP_SimpleDescReq
        FUNCTION ZDP_SimpleDescReq,0202H
        ARGFRAME ISTACK, 0, STACK
        ARGFRAME PSTACK, 0, STACK
        ARGFRAME XSTACK, 20, STACK
        ARGFRAME IOVERLAY, 0, STATIC
        ARGFRAME DOVERLAY, 0, STATIC
        EXTERN ZDP_UserDescSet
        FUNCTION ZDP_UserDescSet,0202H
        ARGFRAME ISTACK, 0, STACK
        ARGFRAME PSTACK, 0, STACK
        ARGFRAME XSTACK, 41, STACK
        ARGFRAME IOVERLAY, 0, STATIC
        ARGFRAME DOVERLAY, 0, STATIC
        EXTERN osal_build_uint32
        FUNCTION osal_build_uint32,0202H
        ARGFRAME ISTACK, 0, STACK
        ARGFRAME PSTACK, 0, STACK
        ARGFRAME XSTACK, 14, STACK
        ARGFRAME IOVERLAY, 0, STATIC
        ARGFRAME DOVERLAY, 0, STATIC
        EXTERN osal_mem_alloc
        FUNCTION osal_mem_alloc,0202H
        ARGFRAME ISTACK, 0, STACK
        ARGFRAME PSTACK, 0, STACK
        ARGFRAME XSTACK, 14, STACK
        ARGFRAME IOVERLAY, 0, STATIC
        ARGFRAME DOVERLAY, 0, STATIC
        EXTERN osal_mem_free
        FUNCTION osal_mem_free,0202H
        ARGFRAME ISTACK, 0, STACK
        ARGFRAME PSTACK, 0, STACK
        ARGFRAME XSTACK, 14, STACK
        ARGFRAME IOVERLAY, 0, STATIC
        ARGFRAME DOVERLAY, 0, STATIC
        EXTERN osal_memcpy
        FUNCTION osal_memcpy,0202H
        ARGFRAME ISTACK, 0, STACK
        ARGFRAME PSTACK, 0, STACK
        ARGFRAME XSTACK, 42, STACK
        ARGFRAME IOVERLAY, 0, STATIC
        ARGFRAME DOVERLAY, 0, STATIC
        EXTERN sAddrExtCpy
        FUNCTION sAddrExtCpy,0202H
        ARGFRAME ISTACK, 0, STACK
        ARGFRAME PSTACK, 0, STACK
        ARGFRAME XSTACK, 35, STACK
        ARGFRAME IOVERLAY, 0, STATIC
        ARGFRAME DOVERLAY, 0, STATIC

// E:\qqÏÂÔØÎÄ¼þ\ZStack-CC2530-r200\ZStack-CC2530-r200\Components\mt\MT_ZDO.c
//    1 /**************************************************************************************************
//    2   Filename:       MT_ZDO.c
//    3   Revised:        $Date: 2011-06-07 14:34:55 -0700 (Tue, 07 Jun 2011) $
//    4   Revision:       $Revision: 26241 $
//    5 
//    6   Description:    MonitorTest functions for the ZDO layer.
//    7 
//    8 
//    9   Copyright 2004-2011 Texas Instruments Incorporated. All rights reserved.
//   10 
//   11   IMPORTANT: Your use of this Software is limited to those specific rights
//   12   granted under the terms of a software license agreement between the user
//   13   who downloaded the software, his/her employer (which must be your employer)
//   14   and Texas Instruments Incorporated (the "License").  You may not use this
//   15   Software unless you agree to abide by the terms of the License. The License
//   16   limits your use, and you acknowledge, that the Software may not be modified,
//   17   copied or distributed unless embedded on a Texas Instruments microcontroller
//   18   or used solely and exclusively in conjunction with a Texas Instruments radio
//   19   frequency transceiver, which is integrated into your product.  Other than for
//   20   the foregoing purpose, you may not use, reproduce, copy, prepare derivative
//   21   works of, modify, distribute, perform, display or sell this Software and/or
//   22   its documentation for any purpose.
//   23 
//   24   YOU FURTHER ACKNOWLEDGE AND AGREE THAT THE SOFTWARE AND DOCUMENTATION ARE
//   25   PROVIDED “AS IS” WITHOUT WARRANTY OF ANY KIND, EITHER EXPRESS OR IMPLIED,
//   26   INCLUDING WITHOUT LIMITATION, ANY WARRANTY OF MERCHANTABILITY, TITLE,
//   27   NON-INFRINGEMENT AND FITNESS FOR A PARTICULAR PURPOSE. IN NO EVENT SHALL
//   28   TEXAS INSTRUMENTS OR ITS LICENSORS BE LIABLE OR OBLIGATED UNDER CONTRACT,
//   29   NEGLIGENCE, STRICT LIABILITY, CONTRIBUTION, BREACH OF WARRANTY, OR OTHER
//   30   LEGAL EQUITABLE THEORY ANY DIRECT OR INDIRECT DAMAGES OR EXPENSES
//   31   INCLUDING BUT NOT LIMITED TO ANY INCIDENTAL, SPECIAL, INDIRECT, PUNITIVE
//   32   OR CONSEQUENTIAL DAMAGES, LOST PROFITS OR LOST DATA, COST OF PROCUREMENT
//   33   OF SUBSTITUTE GOODS, TECHNOLOGY, SERVICES, OR ANY CLAIMS BY THIRD PARTIES
//   34   (INCLUDING BUT NOT LIMITED TO ANY DEFENSE THEREOF), OR OTHER SIMILAR COSTS.
//   35 
//   36   Should you have any questions regarding your right to use this Software,
//   37   contact Texas Instruments Incorporated at www.TI.com.
//   38 **************************************************************************************************/
//   39 
//   40 #ifdef MT_ZDO_FUNC
//   41 
//   42 /**************************************************************************************************
//   43  * INCLUDES
//   44  **************************************************************************************************/
//   45 #include "ZComDef.h"
//   46 #include "OSAL.h"
//   47 #include "OSAL_Nv.h"
//   48 #include "MT.h"
//   49 #include "MT_ZDO.h"
//   50 #include "APSMEDE.h"
//   51 #include "ZDConfig.h"
//   52 #include "ZDProfile.h"
//   53 #include "ZDObject.h"
//   54 #include "ZDApp.h"
//   55 
//   56 #if !defined( WIN32 )
//   57   #include "OnBoard.h"
//   58 #endif
//   59 
//   60 #if defined ( MT_SYS_KEY_MANAGEMENT )
//   61   #include "ZDSecMgr.h"
//   62 #endif
//   63 
//   64 #include "nwk_util.h"
//   65 
//   66 /**************************************************************************************************
//   67  * CONSTANTS
//   68  **************************************************************************************************/
//   69 #define MT_ZDO_END_DEVICE_ANNCE_IND_LEN   0x0D
//   70 #define MT_ZDO_ADDR_RSP_LEN               0x0D
//   71 #define MT_ZDO_BIND_UNBIND_RSP_LEN        0x03
//   72 #define MT_ZDO_BEACON_IND_LEN             21
//   73 #define MT_ZDO_BEACON_IND_PACK_LEN        (MT_UART_TX_BUFF_MAX - SPI_0DATA_MSG_LEN)
//   74 #define MT_ZDO_JOIN_CNF_LEN               5
//   75 
//   76 // Message must pack nwk addr, entire (not just pointer to) ieee addr, and packet cost, so the
//   77 // sizeof(zdoConcentratorInd_t) is not usable.
//   78 #define MT_ZDO_CONCENTRATOR_IND_LEN      (2 + Z_EXTADDR_LEN + 1)
//   79 
//   80 #define MTZDO_RESPONSE_BUFFER_LEN   100
//   81 
//   82 #define MTZDO_MAX_MATCH_CLUSTERS    16
//   83 #define MTZDO_MAX_ED_BIND_CLUSTERS  15
//   84 
//   85 // Conversion from ZDO Cluster Id to the RPC AREQ Id is direct as follows:
//   86 #define MT_ZDO_CID_TO_AREQ_ID(CId)  ((uint8)(CId) | 0x80)
//   87 
//   88 #define MT_ZDO_STATUS_LEN   1
//   89 
//   90 /**************************************************************************************************
//   91  * GLOBAL VARIABLES
//   92  **************************************************************************************************/

        RSEG XDATA_Z:XDATA:NOROOT(0)
        DATA32
//   93 uint32 _zdoCallbackSub;
_zdoCallbackSub:
        DS 4
        REQUIRE __INIT_XDATA_Z

        RSEG XDATA_Z:XDATA:NOROOT(0)
        DATA16
//   94 uint8 *pBeaconIndBuf = NULL;
pBeaconIndBuf:
        DS 2
        REQUIRE __INIT_XDATA_Z
//   95 
//   96 /**************************************************************************************************
//   97  * LOCAL VARIABLES
//   98  **************************************************************************************************/
//   99 
//  100 /**************************************************************************************************
//  101  * LOCAL FUNCTIONS
//  102  **************************************************************************************************/
//  103 #if defined (MT_ZDO_FUNC)
//  104 void MT_ZdoNWKAddressRequest(uint8 *pBuf);
//  105 void MT_ZdoIEEEAddrRequest(uint8 *pBuf);
//  106 void MT_ZdoNodeDescRequest(uint8 *pBuf);
//  107 void MT_ZdoPowerDescRequest(uint8 *pBuf);
//  108 void MT_ZdoSimpleDescRequest(uint8 *pBuf);
//  109 void MT_ZdoActiveEpRequest(uint8 *pBuf);
//  110 void MT_ZdoMatchDescRequest(uint8 *pBuf);
//  111 void MT_ZdoComplexDescRequest(uint8 *pBuf);
//  112 void MT_ZdoUserDescRequest(uint8 *pBuf);
//  113 void MT_ZdoEndDevAnnce(uint8 *pBuf);
//  114 void MT_ZdoUserDescSet(uint8 *pBuf);
//  115 void MT_ZdoServiceDiscRequest(uint8 *pBuf);
//  116 void MT_ZdoEndDevBindRequest(uint8 *pBuf);
//  117 void MT_ZdoBindRequest(uint8 *pBuf);
//  118 void MT_ZdoUnbindRequest(uint8 *pBuf);
//  119 void MT_ZdoMgmtNwkDiscRequest(uint8 *pBuf);
//  120 #if defined ( MT_SYS_KEY_MANAGEMENT )
//  121 void MT_ZdoSetLinkKey(uint8 *pBuf);
//  122 void MT_ZdoRemoveLinkKey(uint8 *pBuf);
//  123 void MT_ZdoGetLinkKey(uint8 *pBuf);
//  124 #endif /* MT_SYS_KEY_MANAGEMENT */
//  125 void MT_ZdoNetworkDiscoveryReq(uint8 *pBuf);
//  126 void MT_ZdoJoinReq(uint8 *pBuf);
//  127 /* Call back function */
//  128 void *MT_ZdoNwkDiscoveryCnfCB ( void *pStr );
//  129 void *MT_ZdoBeaconIndCB ( void *pStr );
//  130 void *MT_ZdoJoinCnfCB ( void *pStr );
//  131 #if defined (MT_ZDO_MGMT)
//  132 void MT_ZdoMgmtLqiRequest(uint8 *pBuf);
//  133 void MT_ZdoMgmtRtgRequest(uint8 *pBuf);
//  134 void MT_ZdoMgmtBindRequest(uint8 *pBuf);
//  135 void MT_ZdoMgmtLeaveRequest(uint8 *pBuf);
//  136 void MT_ZdoMgmtDirectJoinRequest(uint8 *pBuf);
//  137 void MT_ZdoMgmtPermitJoinRequest(uint8 *pBuf);
//  138 void MT_ZdoMgmtNwkUpdateRequest(uint8 *pBuf);
//  139 #endif /* MT_ZDO_MGMT */
//  140 void MT_ZdoStartupFromApp(uint8 *pBuf);
//  141 void MT_ZdoRegisterForZDOMsg(uint8 *pBuf);
//  142 void MT_ZdoRemoveRegisteredCB(uint8 *pBuf);
//  143 #endif /* MT_ZDO_FUNC */
//  144 
//  145 #if defined (MT_ZDO_CB_FUNC)
//  146 uint8 MT_ZdoHandleExceptions( afIncomingMSGPacket_t *pData, zdoIncomingMsg_t *inMsg );
//  147 void MT_ZdoAddrRspCB( ZDO_NwkIEEEAddrResp_t *pMsg, uint16 clusterID );
//  148 void MT_ZdoEndDevAnnceCB( ZDO_DeviceAnnce_t *pMsg, uint16 srcAddr );
//  149 void MT_ZdoBindUnbindRspCB( uint16 clusterID, uint16 srcAddr, uint8 status );
//  150 void* MT_ZdoSrcRtgCB( void *pStr );
//  151 static void *MT_ZdoConcentratorIndCB(void *pStr);
//  152 #endif /* MT_ZDO_CB_FUNC */
//  153 
//  154 #if defined (MT_ZDO_FUNC)
//  155 /***************************************************************************************************
//  156  * @fn      MT_ZdoInit
//  157  *
//  158  * @brief   MT ZDO initialization
//  159  *
//  160  * @param   none
//  161  *
//  162  * @return  none
//  163  ***************************************************************************************************/

        RSEG BANKED_CODE:HUGECODE:NOROOT(0)
//  164 void MT_ZdoInit(void)
MT_ZdoInit:
          CFI Block cfiBlock0 Using cfiCommon0
          CFI Function MT_ZdoInit
        CODE
//  165 {
        ; Saved register size: 0
        ; Auto size: 0
//  166 #ifdef MT_ZDO_CB_FUNC
//  167   /* Register with ZDO for indication callbacks */
//  168   ZDO_RegisterForZdoCB(ZDO_SRC_RTG_IND_CBID, &MT_ZdoSrcRtgCB);
//  169   ZDO_RegisterForZdoCB(ZDO_CONCENTRATOR_IND_CBID, &MT_ZdoConcentratorIndCB);
//  170 #endif
//  171 }
        LJMP      ?BRET
          CFI EndBlock cfiBlock0
//  172 
//  173 /***************************************************************************************************
//  174  * @fn      MT_ZdoCommandProcessing
//  175  *
//  176  * @brief
//  177  *
//  178  *   Process all the ZDO commands that are issued by test tool
//  179  *
//  180  * @param   pBuf - pointer to the msg buffer
//  181  *
//  182  *          | LEN  | CMD0  | CMD1  |  DATA  |
//  183  *          |  1   |   1   |   1   |  0-255 |
//  184  *
//  185  * @return  status
//  186  ***************************************************************************************************/

        RSEG BANKED_CODE:HUGECODE:NOROOT(0)
//  187 uint8 MT_ZdoCommandProcessing(uint8* pBuf)
MT_ZdoCommandProcessing:
          CFI Block cfiBlock1 Using cfiCommon0
          CFI Function MT_ZdoCommandProcessing
        CODE
//  188 {
        FUNCALL MT_ZdoCommandProcessing, MT_ZdoNWKAddressRequest
        LOCFRAME ISTACK, 0, STACK
        LOCFRAME PSTACK, 0, STACK
        LOCFRAME XSTACK, 9, STACK
        LOCFRAME IOVERLAY, 0, STATIC
        LOCFRAME DOVERLAY, 0, STATIC
        ARGFRAME ISTACK, 0, STACK
        ARGFRAME PSTACK, 0, STACK
        ARGFRAME XSTACK, 9, STACK
        ARGFRAME IOVERLAY, 0, STATIC
        ARGFRAME DOVERLAY, 0, STATIC
        FUNCALL MT_ZdoCommandProcessing, MT_ZdoIEEEAddrRequest
        LOCFRAME ISTACK, 0, STACK
        LOCFRAME PSTACK, 0, STACK
        LOCFRAME XSTACK, 9, STACK
        LOCFRAME IOVERLAY, 0, STATIC
        LOCFRAME DOVERLAY, 0, STATIC
        ARGFRAME ISTACK, 0, STACK
        ARGFRAME PSTACK, 0, STACK
        ARGFRAME XSTACK, 9, STACK
        ARGFRAME IOVERLAY, 0, STATIC
        ARGFRAME DOVERLAY, 0, STATIC
        FUNCALL MT_ZdoCommandProcessing, MT_ZdoNodeDescRequest
        LOCFRAME ISTACK, 0, STACK
        LOCFRAME PSTACK, 0, STACK
        LOCFRAME XSTACK, 9, STACK
        LOCFRAME IOVERLAY, 0, STATIC
        LOCFRAME DOVERLAY, 0, STATIC
        ARGFRAME ISTACK, 0, STACK
        ARGFRAME PSTACK, 0, STACK
        ARGFRAME XSTACK, 9, STACK
        ARGFRAME IOVERLAY, 0, STATIC
        ARGFRAME DOVERLAY, 0, STATIC
        FUNCALL MT_ZdoCommandProcessing, MT_ZdoPowerDescRequest
        LOCFRAME ISTACK, 0, STACK
        LOCFRAME PSTACK, 0, STACK
        LOCFRAME XSTACK, 9, STACK
        LOCFRAME IOVERLAY, 0, STATIC
        LOCFRAME DOVERLAY, 0, STATIC
        ARGFRAME ISTACK, 0, STACK
        ARGFRAME PSTACK, 0, STACK
        ARGFRAME XSTACK, 9, STACK
        ARGFRAME IOVERLAY, 0, STATIC
        ARGFRAME DOVERLAY, 0, STATIC
        FUNCALL MT_ZdoCommandProcessing, MT_ZdoSimpleDescRequest
        LOCFRAME ISTACK, 0, STACK
        LOCFRAME PSTACK, 0, STACK
        LOCFRAME XSTACK, 9, STACK
        LOCFRAME IOVERLAY, 0, STATIC
        LOCFRAME DOVERLAY, 0, STATIC
        ARGFRAME ISTACK, 0, STACK
        ARGFRAME PSTACK, 0, STACK
        ARGFRAME XSTACK, 9, STACK
        ARGFRAME IOVERLAY, 0, STATIC
        ARGFRAME DOVERLAY, 0, STATIC
        FUNCALL MT_ZdoCommandProcessing, MT_ZdoActiveEpRequest
        LOCFRAME ISTACK, 0, STACK
        LOCFRAME PSTACK, 0, STACK
        LOCFRAME XSTACK, 9, STACK
        LOCFRAME IOVERLAY, 0, STATIC
        LOCFRAME DOVERLAY, 0, STATIC
        ARGFRAME ISTACK, 0, STACK
        ARGFRAME PSTACK, 0, STACK
        ARGFRAME XSTACK, 9, STACK
        ARGFRAME IOVERLAY, 0, STATIC
        ARGFRAME DOVERLAY, 0, STATIC
        FUNCALL MT_ZdoCommandProcessing, MT_ZdoMatchDescRequest
        LOCFRAME ISTACK, 0, STACK
        LOCFRAME PSTACK, 0, STACK
        LOCFRAME XSTACK, 9, STACK
        LOCFRAME IOVERLAY, 0, STATIC
        LOCFRAME DOVERLAY, 0, STATIC
        ARGFRAME ISTACK, 0, STACK
        ARGFRAME PSTACK, 0, STACK
        ARGFRAME XSTACK, 9, STACK
        ARGFRAME IOVERLAY, 0, STATIC
        ARGFRAME DOVERLAY, 0, STATIC
        FUNCALL MT_ZdoCommandProcessing, MT_ZdoComplexDescRequest
        LOCFRAME ISTACK, 0, STACK
        LOCFRAME PSTACK, 0, STACK
        LOCFRAME XSTACK, 9, STACK
        LOCFRAME IOVERLAY, 0, STATIC
        LOCFRAME DOVERLAY, 0, STATIC
        ARGFRAME ISTACK, 0, STACK
        ARGFRAME PSTACK, 0, STACK
        ARGFRAME XSTACK, 9, STACK
        ARGFRAME IOVERLAY, 0, STATIC
        ARGFRAME DOVERLAY, 0, STATIC
        FUNCALL MT_ZdoCommandProcessing, MT_ZdoUserDescRequest
        LOCFRAME ISTACK, 0, STACK
        LOCFRAME PSTACK, 0, STACK
        LOCFRAME XSTACK, 9, STACK
        LOCFRAME IOVERLAY, 0, STATIC
        LOCFRAME DOVERLAY, 0, STATIC
        ARGFRAME ISTACK, 0, STACK
        ARGFRAME PSTACK, 0, STACK
        ARGFRAME XSTACK, 9, STACK
        ARGFRAME IOVERLAY, 0, STATIC
        ARGFRAME DOVERLAY, 0, STATIC
        FUNCALL MT_ZdoCommandProcessing, MT_ZdoEndDevAnnce
        LOCFRAME ISTACK, 0, STACK
        LOCFRAME PSTACK, 0, STACK
        LOCFRAME XSTACK, 9, STACK
        LOCFRAME IOVERLAY, 0, STATIC
        LOCFRAME DOVERLAY, 0, STATIC
        ARGFRAME ISTACK, 0, STACK
        ARGFRAME PSTACK, 0, STACK
        ARGFRAME XSTACK, 9, STACK
        ARGFRAME IOVERLAY, 0, STATIC
        ARGFRAME DOVERLAY, 0, STATIC
        FUNCALL MT_ZdoCommandProcessing, MT_ZdoUserDescSet
        LOCFRAME ISTACK, 0, STACK
        LOCFRAME PSTACK, 0, STACK
        LOCFRAME XSTACK, 9, STACK
        LOCFRAME IOVERLAY, 0, STATIC
        LOCFRAME DOVERLAY, 0, STATIC
        ARGFRAME ISTACK, 0, STACK
        ARGFRAME PSTACK, 0, STACK
        ARGFRAME XSTACK, 9, STACK
        ARGFRAME IOVERLAY, 0, STATIC
        ARGFRAME DOVERLAY, 0, STATIC
        FUNCALL MT_ZdoCommandProcessing, MT_ZdoServiceDiscRequest
        LOCFRAME ISTACK, 0, STACK
        LOCFRAME PSTACK, 0, STACK
        LOCFRAME XSTACK, 9, STACK
        LOCFRAME IOVERLAY, 0, STATIC
        LOCFRAME DOVERLAY, 0, STATIC
        ARGFRAME ISTACK, 0, STACK
        ARGFRAME PSTACK, 0, STACK
        ARGFRAME XSTACK, 9, STACK
        ARGFRAME IOVERLAY, 0, STATIC
        ARGFRAME DOVERLAY, 0, STATIC
        FUNCALL MT_ZdoCommandProcessing, MT_ZdoEndDevBindRequest
        LOCFRAME ISTACK, 0, STACK
        LOCFRAME PSTACK, 0, STACK
        LOCFRAME XSTACK, 9, STACK
        LOCFRAME IOVERLAY, 0, STATIC
        LOCFRAME DOVERLAY, 0, STATIC
        ARGFRAME ISTACK, 0, STACK
        ARGFRAME PSTACK, 0, STACK
        ARGFRAME XSTACK, 9, STACK
        ARGFRAME IOVERLAY, 0, STATIC
        ARGFRAME DOVERLAY, 0, STATIC
        FUNCALL MT_ZdoCommandProcessing, MT_ZdoBindRequest
        LOCFRAME ISTACK, 0, STACK
        LOCFRAME PSTACK, 0, STACK
        LOCFRAME XSTACK, 9, STACK
        LOCFRAME IOVERLAY, 0, STATIC
        LOCFRAME DOVERLAY, 0, STATIC
        ARGFRAME ISTACK, 0, STACK
        ARGFRAME PSTACK, 0, STACK
        ARGFRAME XSTACK, 9, STACK
        ARGFRAME IOVERLAY, 0, STATIC
        ARGFRAME DOVERLAY, 0, STATIC
        FUNCALL MT_ZdoCommandProcessing, MT_ZdoUnbindRequest
        LOCFRAME ISTACK, 0, STACK
        LOCFRAME PSTACK, 0, STACK
        LOCFRAME XSTACK, 9, STACK
        LOCFRAME IOVERLAY, 0, STATIC
        LOCFRAME DOVERLAY, 0, STATIC
        ARGFRAME ISTACK, 0, STACK
        ARGFRAME PSTACK, 0, STACK
        ARGFRAME XSTACK, 9, STACK
        ARGFRAME IOVERLAY, 0, STATIC
        ARGFRAME DOVERLAY, 0, STATIC
        FUNCALL MT_ZdoCommandProcessing, MT_ZdoNetworkDiscoveryReq
        LOCFRAME ISTACK, 0, STACK
        LOCFRAME PSTACK, 0, STACK
        LOCFRAME XSTACK, 9, STACK
        LOCFRAME IOVERLAY, 0, STATIC
        LOCFRAME DOVERLAY, 0, STATIC
        ARGFRAME ISTACK, 0, STACK
        ARGFRAME PSTACK, 0, STACK
        ARGFRAME XSTACK, 9, STACK
        ARGFRAME IOVERLAY, 0, STATIC
        ARGFRAME DOVERLAY, 0, STATIC
        FUNCALL MT_ZdoCommandProcessing, MT_ZdoJoinReq
        LOCFRAME ISTACK, 0, STACK
        LOCFRAME PSTACK, 0, STACK
        LOCFRAME XSTACK, 9, STACK
        LOCFRAME IOVERLAY, 0, STATIC
        LOCFRAME DOVERLAY, 0, STATIC
        ARGFRAME ISTACK, 0, STACK
        ARGFRAME PSTACK, 0, STACK
        ARGFRAME XSTACK, 9, STACK
        ARGFRAME IOVERLAY, 0, STATIC
        ARGFRAME DOVERLAY, 0, STATIC
        FUNCALL MT_ZdoCommandProcessing, MT_ZdoStartupFromApp
        LOCFRAME ISTACK, 0, STACK
        LOCFRAME PSTACK, 0, STACK
        LOCFRAME XSTACK, 9, STACK
        LOCFRAME IOVERLAY, 0, STATIC
        LOCFRAME DOVERLAY, 0, STATIC
        ARGFRAME ISTACK, 0, STACK
        ARGFRAME PSTACK, 0, STACK
        ARGFRAME XSTACK, 9, STACK
        ARGFRAME IOVERLAY, 0, STATIC
        ARGFRAME DOVERLAY, 0, STATIC
        FUNCALL MT_ZdoCommandProcessing, MT_ZdoRegisterForZDOMsg
        LOCFRAME ISTACK, 0, STACK
        LOCFRAME PSTACK, 0, STACK
        LOCFRAME XSTACK, 9, STACK
        LOCFRAME IOVERLAY, 0, STATIC
        LOCFRAME DOVERLAY, 0, STATIC
        ARGFRAME ISTACK, 0, STACK
        ARGFRAME PSTACK, 0, STACK
        ARGFRAME XSTACK, 9, STACK
        ARGFRAME IOVERLAY, 0, STATIC
        ARGFRAME DOVERLAY, 0, STATIC
        FUNCALL MT_ZdoCommandProcessing, MT_ZdoRemoveRegisteredCB
        LOCFRAME ISTACK, 0, STACK
        LOCFRAME PSTACK, 0, STACK
        LOCFRAME XSTACK, 9, STACK
        LOCFRAME IOVERLAY, 0, STATIC
        LOCFRAME DOVERLAY, 0, STATIC
        ARGFRAME ISTACK, 0, STACK
        ARGFRAME PSTACK, 0, STACK
        ARGFRAME XSTACK, 9, STACK
        ARGFRAME IOVERLAY, 0, STATIC
        ARGFRAME DOVERLAY, 0, STATIC
        MOV       A,#-0x9
        LCALL     ?BANKED_ENTER_XDATA
          CFI DPH0 load(1, XDATA, add(CFA_XSP16, literal(-1)))
          CFI DPL0 load(1, XDATA, add(CFA_XSP16, literal(-2)))
          CFI ?BRET_EXT load(1, XDATA, add(CFA_XSP16, literal(-3)))
          CFI ?RET_HIGH load(1, XDATA, add(CFA_XSP16, literal(-4)))
          CFI ?RET_LOW load(1, XDATA, add(CFA_XSP16, literal(-5)))
          CFI R7 load(1, XDATA, add(CFA_XSP16, literal(-6)))
          CFI V0 load(1, XDATA, add(CFA_XSP16, literal(-7)))
          CFI VB load(1, XDATA, add(CFA_XSP16, literal(-8)))
          CFI R6 load(1, XDATA, add(CFA_XSP16, literal(-9)))
          CFI CFA_SP SP+0
          CFI CFA_XSP16 add(XSP16, 9)
        ; Saved register size: 9
        ; Auto size: 0
//  189   uint8 status = MT_RPC_SUCCESS;
        MOV       R6,#0x0
//  190 
//  191   switch (pBuf[MT_RPC_POS_CMD1])
        MOV       DPL,R2
        MOV       DPH,R3
        INC       DPTR
        INC       DPTR
        MOVX      A,@DPTR
        JZ        ??MT_ZdoCommandProcessing_0
        DEC       A
        JZ        ??MT_ZdoCommandProcessing_1
        DEC       A
        JZ        ??MT_ZdoCommandProcessing_2
        DEC       A
        JZ        ??MT_ZdoCommandProcessing_3
        DEC       A
        JZ        ??MT_ZdoCommandProcessing_4
        DEC       A
        JZ        ??MT_ZdoCommandProcessing_5
        DEC       A
        JZ        ??MT_ZdoCommandProcessing_6
        DEC       A
        JZ        ??MT_ZdoCommandProcessing_7
        DEC       A
        JZ        ??MT_ZdoCommandProcessing_8
        ADD       A,#-0x2
        JZ        ??MT_ZdoCommandProcessing_9
        DEC       A
        JZ        ??MT_ZdoCommandProcessing_10
        DEC       A
        JZ        ??MT_ZdoCommandProcessing_11
        ADD       A,#-0x14
        JZ        ??MT_ZdoCommandProcessing_12
        DEC       A
        JZ        ??MT_ZdoCommandProcessing_13
        DEC       A
        JZ        ??MT_ZdoCommandProcessing_14
        ADD       A,#-0x4
        JZ        ??MT_ZdoCommandProcessing_15
        DEC       A
        JZ        ??MT_ZdoCommandProcessing_16
        ADD       A,#-0x17
        JZ        ??MT_ZdoCommandProcessing_17
        DEC       A
        JZ        ??MT_ZdoCommandProcessing_18
        DEC       A
        JZ        ??MT_ZdoCommandProcessing_19
        SJMP      ??MT_ZdoCommandProcessing_20
//  192   {
//  193 #if defined ( ZDO_NWKADDR_REQUEST )
//  194     case MT_ZDO_NWK_ADDR_REQ:
//  195       MT_ZdoNWKAddressRequest(pBuf);
??MT_ZdoCommandProcessing_0:
        ; Setup parameters for call to function MT_ZdoNWKAddressRequest
        LCALL     `??MT_ZdoNWKAddressRequest::?relay`; Banked call to: MT_ZdoNWKAddressRequest
//  196       break;
        SJMP      ??MT_ZdoCommandProcessing_21
//  197 #endif
//  198 
//  199 #if defined ( ZDO_IEEEADDR_REQUEST )
//  200     case MT_ZDO_IEEE_ADDR_REQ:
//  201       MT_ZdoIEEEAddrRequest(pBuf);
??MT_ZdoCommandProcessing_1:
        ; Setup parameters for call to function MT_ZdoIEEEAddrRequest
        LCALL     `??MT_ZdoIEEEAddrRequest::?relay`; Banked call to: MT_ZdoIEEEAddrRequest
//  202       break;
        SJMP      ??MT_ZdoCommandProcessing_21
//  203 #endif
//  204 
//  205 #if defined ( ZDO_NODEDESC_REQUEST )
//  206     case MT_ZDO_NODE_DESC_REQ:
//  207       MT_ZdoNodeDescRequest(pBuf);
??MT_ZdoCommandProcessing_2:
        ; Setup parameters for call to function MT_ZdoNodeDescRequest
        LCALL     `??MT_ZdoNodeDescRequest::?relay`; Banked call to: MT_ZdoNodeDescRequest
//  208       break;
        SJMP      ??MT_ZdoCommandProcessing_21
//  209 #endif
//  210 
//  211 #if defined ( ZDO_POWERDESC_REQUEST )
//  212     case MT_ZDO_POWER_DESC_REQ:
//  213       MT_ZdoPowerDescRequest(pBuf);
??MT_ZdoCommandProcessing_3:
        ; Setup parameters for call to function MT_ZdoPowerDescRequest
        LCALL     `??MT_ZdoPowerDescRequest::?relay`; Banked call to: MT_ZdoPowerDescRequest
//  214       break;
        SJMP      ??MT_ZdoCommandProcessing_21
//  215 #endif
//  216 
//  217 #if defined ( ZDO_SIMPLEDESC_REQUEST )
//  218     case MT_ZDO_SIMPLE_DESC_REQ:
//  219       MT_ZdoSimpleDescRequest(pBuf);
??MT_ZdoCommandProcessing_4:
        ; Setup parameters for call to function MT_ZdoSimpleDescRequest
        LCALL     `??MT_ZdoSimpleDescRequest::?relay`; Banked call to: MT_ZdoSimpleDescRequest
//  220       break;
        SJMP      ??MT_ZdoCommandProcessing_21
//  221 #endif
//  222 
//  223 #if defined ( ZDO_ACTIVEEP_REQUEST )
//  224     case MT_ZDO_ACTIVE_EP_REQ:
//  225       MT_ZdoActiveEpRequest(pBuf);
??MT_ZdoCommandProcessing_5:
        ; Setup parameters for call to function MT_ZdoActiveEpRequest
        LCALL     `??MT_ZdoActiveEpRequest::?relay`; Banked call to: MT_ZdoActiveEpRequest
//  226       break;
        SJMP      ??MT_ZdoCommandProcessing_21
//  227 #endif
//  228 
//  229 #if defined ( ZDO_MATCH_REQUEST )
//  230     case MT_ZDO_MATCH_DESC_REQ:
//  231       MT_ZdoMatchDescRequest(pBuf);
??MT_ZdoCommandProcessing_6:
        ; Setup parameters for call to function MT_ZdoMatchDescRequest
        LCALL     `??MT_ZdoMatchDescRequest::?relay`; Banked call to: MT_ZdoMatchDescRequest
//  232       break;
        SJMP      ??MT_ZdoCommandProcessing_21
//  233 #endif
//  234 
//  235 #if defined ( ZDO_COMPLEXDESC_REQUEST )
//  236     case MT_ZDO_COMPLEX_DESC_REQ:
//  237       MT_ZdoComplexDescRequest(pBuf);
??MT_ZdoCommandProcessing_7:
        ; Setup parameters for call to function MT_ZdoComplexDescRequest
        LCALL     `??MT_ZdoComplexDescRequest::?relay`; Banked call to: MT_ZdoComplexDescRequest
//  238       break;
        SJMP      ??MT_ZdoCommandProcessing_21
//  239 #endif
//  240 
//  241 #if defined ( ZDO_USERDESC_REQUEST )
//  242     case MT_ZDO_USER_DESC_REQ:
//  243       MT_ZdoUserDescRequest(pBuf);
??MT_ZdoCommandProcessing_8:
        ; Setup parameters for call to function MT_ZdoUserDescRequest
        LCALL     `??MT_ZdoUserDescRequest::?relay`; Banked call to: MT_ZdoUserDescRequest
//  244       break;
        SJMP      ??MT_ZdoCommandProcessing_21
//  245 #endif
//  246 
//  247 #if defined ( ZDO_ENDDEVICE_ANNCE )
//  248     case MT_ZDO_END_DEV_ANNCE:
//  249       MT_ZdoEndDevAnnce(pBuf);
??MT_ZdoCommandProcessing_9:
        ; Setup parameters for call to function MT_ZdoEndDevAnnce
        LCALL     `??MT_ZdoEndDevAnnce::?relay`; Banked call to: MT_ZdoEndDevAnnce
//  250       break;
        SJMP      ??MT_ZdoCommandProcessing_21
//  251 #endif
//  252 
//  253 #if defined ( ZDO_USERDESCSET_REQUEST )
//  254     case MT_ZDO_USER_DESC_SET:
//  255       MT_ZdoUserDescSet(pBuf);
??MT_ZdoCommandProcessing_10:
        ; Setup parameters for call to function MT_ZdoUserDescSet
        LCALL     `??MT_ZdoUserDescSet::?relay`; Banked call to: MT_ZdoUserDescSet
//  256       break;
        SJMP      ??MT_ZdoCommandProcessing_21
//  257 #endif
//  258 
//  259 #if defined ( ZDO_SERVERDISC_REQUEST )
//  260     case MT_ZDO_SERVICE_DISC_REQ:
//  261       MT_ZdoServiceDiscRequest(pBuf);
??MT_ZdoCommandProcessing_11:
        ; Setup parameters for call to function MT_ZdoServiceDiscRequest
        LCALL     `??MT_ZdoServiceDiscRequest::?relay`; Banked call to: MT_ZdoServiceDiscRequest
//  262       break;
        SJMP      ??MT_ZdoCommandProcessing_21
//  263 #endif
//  264 
//  265 #if defined ( ZDO_ENDDEVICEBIND_REQUEST )
//  266     case MT_ZDO_END_DEV_BIND_REQ:
//  267       MT_ZdoEndDevBindRequest(pBuf);
??MT_ZdoCommandProcessing_12:
        ; Setup parameters for call to function MT_ZdoEndDevBindRequest
        LCALL     `??MT_ZdoEndDevBindRequest::?relay`; Banked call to: MT_ZdoEndDevBindRequest
//  268       break;
        SJMP      ??MT_ZdoCommandProcessing_21
//  269 #endif
//  270 
//  271 #if defined ( ZDO_BIND_UNBIND_REQUEST )
//  272     case MT_ZDO_BIND_REQ:
//  273       MT_ZdoBindRequest(pBuf);
??MT_ZdoCommandProcessing_13:
        ; Setup parameters for call to function MT_ZdoBindRequest
        LCALL     `??MT_ZdoBindRequest::?relay`; Banked call to: MT_ZdoBindRequest
//  274       break;
        SJMP      ??MT_ZdoCommandProcessing_21
//  275 #endif
//  276 
//  277 #if defined ( ZDO_BIND_UNBIND_REQUEST )
//  278     case MT_ZDO_UNBIND_REQ:
//  279       MT_ZdoUnbindRequest(pBuf);
??MT_ZdoCommandProcessing_14:
        ; Setup parameters for call to function MT_ZdoUnbindRequest
        LCALL     `??MT_ZdoUnbindRequest::?relay`; Banked call to: MT_ZdoUnbindRequest
//  280       break;
        SJMP      ??MT_ZdoCommandProcessing_21
//  281 #endif
//  282 
//  283 #if defined ( MT_SYS_KEY_MANAGEMENT )
//  284     case MT_ZDO_SET_LINK_KEY:
//  285       MT_ZdoSetLinkKey(pBuf);
//  286       break;
//  287 
//  288     case MT_ZDO_REMOVE_LINK_KEY:
//  289       MT_ZdoRemoveLinkKey(pBuf);
//  290       break;
//  291 
//  292     case MT_ZDO_GET_LINK_KEY:
//  293       MT_ZdoGetLinkKey(pBuf);
//  294       break;
//  295 #endif // MT_SYS_KEY_MANAGEMENT
//  296 
//  297 #if defined ( ZDO_MANUAL_JOIN )
//  298     case MT_ZDO_NWK_DISCOVERY_REQ:
//  299       MT_ZdoNetworkDiscoveryReq(pBuf);
??MT_ZdoCommandProcessing_15:
        ; Setup parameters for call to function MT_ZdoNetworkDiscoveryReq
        LCALL     `??MT_ZdoNetworkDiscoveryReq::?relay`; Banked call to: MT_ZdoNetworkDiscoveryReq
//  300       break;
        SJMP      ??MT_ZdoCommandProcessing_21
//  301 
//  302     case MT_ZDO_JOIN_REQ:
//  303       MT_ZdoJoinReq(pBuf);
??MT_ZdoCommandProcessing_16:
        ; Setup parameters for call to function MT_ZdoJoinReq
        LCALL     `??MT_ZdoJoinReq::?relay`; Banked call to: MT_ZdoJoinReq
//  304       break;
        SJMP      ??MT_ZdoCommandProcessing_21
//  305 #endif
//  306 
//  307 #if defined ( ZDO_MGMT_NWKDISC_REQUEST )
//  308     case MT_ZDO_MGMT_NWKDISC_REQ:
//  309       MT_ZdoMgmtNwkDiscRequest(pBuf);
//  310       break;
//  311 #endif
//  312 
//  313 #if defined ( ZDO_MGMT_LQI_REQUEST )
//  314     case MT_ZDO_MGMT_LQI_REQ:
//  315       MT_ZdoMgmtLqiRequest(pBuf);
//  316       break;
//  317 #endif
//  318 
//  319 #if defined ( ZDO_MGMT_RTG_REQUEST )
//  320     case MT_ZDO_MGMT_RTG_REQ:
//  321       MT_ZdoMgmtRtgRequest(pBuf);
//  322       break;
//  323 #endif
//  324 
//  325 #if defined ( ZDO_MGMT_BIND_REQUEST )
//  326     case MT_ZDO_MGMT_BIND_REQ:
//  327       MT_ZdoMgmtBindRequest(pBuf);
//  328       break;
//  329 #endif
//  330 
//  331 #if defined ( ZDO_MGMT_LEAVE_REQUEST )
//  332     case MT_ZDO_MGMT_LEAVE_REQ:
//  333       MT_ZdoMgmtLeaveRequest(pBuf);
//  334       break;
//  335 #endif
//  336 
//  337 #if defined ( ZDO_MGMT_JOINDIRECT_REQUEST )
//  338     case MT_ZDO_MGMT_DIRECT_JOIN_REQ:
//  339       MT_ZdoMgmtDirectJoinRequest(pBuf);
//  340       break;
//  341 #endif
//  342 
//  343 #if defined ( ZDO_MGMT_PERMIT_JOIN_REQUEST )
//  344     case MT_ZDO_MGMT_PERMIT_JOIN_REQ:
//  345       MT_ZdoMgmtPermitJoinRequest(pBuf);
//  346       break;
//  347 #endif
//  348 
//  349 #if defined ( ZDO_MGMT_NWKUPDATE_REQUEST )
//  350     case MT_ZDO_MGMT_NWK_UPDATE_REQ:
//  351       MT_ZdoMgmtNwkUpdateRequest(pBuf);
//  352       break;
//  353 #endif
//  354 
//  355 #if defined ( ZDO_NETWORKSTART_REQUEST )
//  356     case MT_ZDO_STARTUP_FROM_APP:
//  357       MT_ZdoStartupFromApp(pBuf);
??MT_ZdoCommandProcessing_19:
        ; Setup parameters for call to function MT_ZdoStartupFromApp
        LCALL     `??MT_ZdoStartupFromApp::?relay`; Banked call to: MT_ZdoStartupFromApp
//  358       break;
        SJMP      ??MT_ZdoCommandProcessing_21
//  359 #endif
//  360 
//  361     case MT_ZDO_MSG_CB_REGISTER:
//  362       MT_ZdoRegisterForZDOMsg(pBuf);
??MT_ZdoCommandProcessing_17:
        ; Setup parameters for call to function MT_ZdoRegisterForZDOMsg
        LCALL     `??MT_ZdoRegisterForZDOMsg::?relay`; Banked call to: MT_ZdoRegisterForZDOMsg
//  363       break;
        SJMP      ??MT_ZdoCommandProcessing_21
//  364 
//  365     case MT_ZDO_MSG_CB_REMOVE:
//  366       MT_ZdoRemoveRegisteredCB(pBuf);
??MT_ZdoCommandProcessing_18:
        ; Setup parameters for call to function MT_ZdoRemoveRegisteredCB
        LCALL     `??MT_ZdoRemoveRegisteredCB::?relay`; Banked call to: MT_ZdoRemoveRegisteredCB
//  367       break;
        SJMP      ??MT_ZdoCommandProcessing_21
//  368 
//  369     default:
//  370       status = MT_RPC_ERR_COMMAND_ID;
??MT_ZdoCommandProcessing_20:
        MOV       R6,#0x2
//  371       break;
//  372   }
//  373 
//  374   return status;
??MT_ZdoCommandProcessing_21:
        MOV       A,R6
        MOV       R1,A
        LJMP      ??Subroutine67_0 & 0xFFFF
//  375 }
          CFI EndBlock cfiBlock1
//  376 
//  377 /***************************************************************************************************
//  378  * @fn      MT_ZdoNwkAddrReq
//  379  *
//  380  * @brief   Handle a nwk address request.
//  381  *
//  382  * @param   pData  - MT message data
//  383  *
//  384  * @return  void
//  385  ***************************************************************************************************/

        RSEG BANKED_CODE:HUGECODE:NOROOT(0)
//  386 void MT_ZdoNWKAddressRequest(uint8 *pBuf)
MT_ZdoNWKAddressRequest:
          CFI Block cfiBlock2 Using cfiCommon0
          CFI Function MT_ZdoNWKAddressRequest
        CODE
//  387 {
        FUNCALL MT_ZdoNWKAddressRequest, ZDP_NwkAddrReq
        LOCFRAME ISTACK, 0, STACK
        LOCFRAME PSTACK, 0, STACK
        LOCFRAME XSTACK, 11, STACK
        LOCFRAME IOVERLAY, 0, STATIC
        LOCFRAME DOVERLAY, 0, STATIC
        ARGFRAME ISTACK, 0, STACK
        ARGFRAME PSTACK, 0, STACK
        ARGFRAME XSTACK, 11, STACK
        ARGFRAME IOVERLAY, 0, STATIC
        ARGFRAME DOVERLAY, 0, STATIC
        FUNCALL MT_ZdoNWKAddressRequest, MT_BuildAndSendZToolResponse
        LOCFRAME ISTACK, 0, STACK
        LOCFRAME PSTACK, 0, STACK
        LOCFRAME XSTACK, 11, STACK
        LOCFRAME IOVERLAY, 0, STATIC
        LOCFRAME DOVERLAY, 0, STATIC
        ARGFRAME ISTACK, 0, STACK
        ARGFRAME PSTACK, 0, STACK
        ARGFRAME XSTACK, 11, STACK
        ARGFRAME IOVERLAY, 0, STATIC
        ARGFRAME DOVERLAY, 0, STATIC
        REQUIRE ?V0
        REQUIRE ?V1
        MOV       A,#-0xa
        LCALL     ?BANKED_ENTER_XDATA
          CFI DPH0 load(1, XDATA, add(CFA_XSP16, literal(-1)))
          CFI DPL0 load(1, XDATA, add(CFA_XSP16, literal(-2)))
          CFI ?BRET_EXT load(1, XDATA, add(CFA_XSP16, literal(-3)))
          CFI ?RET_HIGH load(1, XDATA, add(CFA_XSP16, literal(-4)))
          CFI ?RET_LOW load(1, XDATA, add(CFA_XSP16, literal(-5)))
          CFI R7 load(1, XDATA, add(CFA_XSP16, literal(-6)))
          CFI V1 load(1, XDATA, add(CFA_XSP16, literal(-7)))
          CFI V0 load(1, XDATA, add(CFA_XSP16, literal(-8)))
          CFI VB load(1, XDATA, add(CFA_XSP16, literal(-9)))
          CFI R6 load(1, XDATA, add(CFA_XSP16, literal(-10)))
          CFI CFA_SP SP+0
          CFI CFA_XSP16 add(XSP16, 10)
        ; Saved register size: 10
        ; Auto size: 1
        MOV       A,#-0x1
        LCALL     ?ALLOC_XSTACK8
          CFI CFA_XSP16 add(XSP16, 11)
//  388   uint8 cmdId;
//  389   uint8 retValue;
//  390   uint8 reqType;
//  391   uint8 startIndex;
//  392   uint8 *pExtAddr;
//  393 
//  394   /* parse header */
//  395   cmdId = pBuf[MT_RPC_POS_CMD1];
        LCALL     ??Subroutine62_0 & 0xFFFF
//  396   pBuf += MT_RPC_FRAME_HDR_SZ;
//  397 
//  398   /* parse parameters */
//  399   pExtAddr = pBuf;
??CrossCallReturnLabel_124:
        MOV       ?V0,A
        CLR       A
        ADDC      A,R3
        MOV       ?V1,A
//  400   pBuf += Z_EXTADDR_LEN;
        MOV       A,?V0
        ADD       A,#0x8
        MOV       R2,A
        CLR       A
        ADDC      A,?V1
        MOV       R3,A
//  401 
//  402   /* Request type */
//  403   reqType = *pBuf++;
//  404 
//  405   /* Start index */
//  406   startIndex = *pBuf;
//  407 
//  408   retValue = (uint8)ZDP_NwkAddrReq(pExtAddr, reqType, startIndex, 0);
        ; Setup parameters for call to function ZDP_NwkAddrReq
        MOV       R5,#0x0
        MOV       DPL,R2
        MOV       DPH,A
        INC       DPTR
        MOVX      A,@DPTR
        MOV       R4,A
        MOV       DPL,R2
        MOV       DPH,R3
        MOVX      A,@DPTR
        MOV       R1,A
        MOV       R2,?V0
        MOV       R3,?V1
        LCALL     `??ZDP_NwkAddrReq::?relay`; Banked call to: ZDP_NwkAddrReq
          CFI EndBlock cfiBlock2
        REQUIRE ?Subroutine1
        ; // Fall through to label ?Subroutine1
//  409 
//  410   /* Build and send back the response */
//  411   MT_BuildAndSendZToolResponse(((uint8)MT_RPC_CMD_SRSP | (uint8)MT_RPC_SYS_ZDO), cmdId, 1, &retValue);
//  412 }

        RSEG BANKED_CODE:HUGECODE:NOROOT(0)
?Subroutine1:
          CFI Block cfiBlock3 Using cfiCommon0
          CFI NoFunction
          CFI CFA_SP SP+0
          CFI CFA_XSP16 add(XSP16, 11)
          CFI VB load(1, XDATA, add(CFA_XSP16, literal(-9)))
          CFI DPL0 load(1, XDATA, add(CFA_XSP16, literal(-2)))
          CFI DPH0 load(1, XDATA, add(CFA_XSP16, literal(-1)))
          CFI R6 load(1, XDATA, add(CFA_XSP16, literal(-10)))
          CFI R7 load(1, XDATA, add(CFA_XSP16, literal(-6)))
          CFI V0 load(1, XDATA, add(CFA_XSP16, literal(-8)))
          CFI V1 load(1, XDATA, add(CFA_XSP16, literal(-7)))
          CFI ?BRET_EXT load(1, XDATA, add(CFA_XSP16, literal(-3)))
          CFI ?RET_HIGH load(1, XDATA, add(CFA_XSP16, literal(-4)))
          CFI ?RET_LOW load(1, XDATA, add(CFA_XSP16, literal(-5)))
        LCALL     ?Subroutine32 & 0xFFFF
??CrossCallReturnLabel_128:
        MOV       A,#0x1
        LCALL     ?DEALLOC_XSTACK8
          CFI CFA_XSP16 add(XSP16, 10)
        MOV       R7,#0x2
        LJMP      ?BANKED_LEAVE_XDATA
          CFI EndBlock cfiBlock3
//  413 
//  414 /***************************************************************************************************
//  415  * @fn      MT_ZdoIEEEAddrRequest
//  416  *
//  417  * @brief   Handle a IEEE address request.
//  418  *
//  419  * @param   pData  - MT message data
//  420  *
//  421  * @return  void
//  422  ***************************************************************************************************/

        RSEG BANKED_CODE:HUGECODE:NOROOT(0)
//  423 void MT_ZdoIEEEAddrRequest (uint8 *pBuf)
MT_ZdoIEEEAddrRequest:
          CFI Block cfiBlock4 Using cfiCommon0
          CFI Function MT_ZdoIEEEAddrRequest
        CODE
//  424 {
        FUNCALL MT_ZdoIEEEAddrRequest, ZDP_IEEEAddrReq
        LOCFRAME ISTACK, 0, STACK
        LOCFRAME PSTACK, 0, STACK
        LOCFRAME XSTACK, 11, STACK
        LOCFRAME IOVERLAY, 0, STATIC
        LOCFRAME DOVERLAY, 0, STATIC
        ARGFRAME ISTACK, 0, STACK
        ARGFRAME PSTACK, 0, STACK
        ARGFRAME XSTACK, 11, STACK
        ARGFRAME IOVERLAY, 0, STATIC
        ARGFRAME DOVERLAY, 0, STATIC
        FUNCALL MT_ZdoIEEEAddrRequest, MT_BuildAndSendZToolResponse
        LOCFRAME ISTACK, 0, STACK
        LOCFRAME PSTACK, 0, STACK
        LOCFRAME XSTACK, 11, STACK
        LOCFRAME IOVERLAY, 0, STATIC
        LOCFRAME DOVERLAY, 0, STATIC
        ARGFRAME ISTACK, 0, STACK
        ARGFRAME PSTACK, 0, STACK
        ARGFRAME XSTACK, 11, STACK
        ARGFRAME IOVERLAY, 0, STATIC
        ARGFRAME DOVERLAY, 0, STATIC
        REQUIRE ?V0
        REQUIRE ?V1
        MOV       A,#-0xa
        LCALL     ?BANKED_ENTER_XDATA
          CFI DPH0 load(1, XDATA, add(CFA_XSP16, literal(-1)))
          CFI DPL0 load(1, XDATA, add(CFA_XSP16, literal(-2)))
          CFI ?BRET_EXT load(1, XDATA, add(CFA_XSP16, literal(-3)))
          CFI ?RET_HIGH load(1, XDATA, add(CFA_XSP16, literal(-4)))
          CFI ?RET_LOW load(1, XDATA, add(CFA_XSP16, literal(-5)))
          CFI R7 load(1, XDATA, add(CFA_XSP16, literal(-6)))
          CFI V1 load(1, XDATA, add(CFA_XSP16, literal(-7)))
          CFI V0 load(1, XDATA, add(CFA_XSP16, literal(-8)))
          CFI VB load(1, XDATA, add(CFA_XSP16, literal(-9)))
          CFI R6 load(1, XDATA, add(CFA_XSP16, literal(-10)))
          CFI CFA_SP SP+0
          CFI CFA_XSP16 add(XSP16, 10)
        ; Saved register size: 10
        ; Auto size: 1
        MOV       A,#-0x1
        LCALL     ?ALLOC_XSTACK8
          CFI CFA_XSP16 add(XSP16, 11)
//  425   uint8 cmdId;
//  426   uint8 retValue;
//  427   uint16 shortAddr;
//  428   uint8 reqType;
//  429   uint8 startIndex;
//  430 
//  431   /* parse header */
//  432   cmdId = pBuf[MT_RPC_POS_CMD1];
        LCALL     ?Subroutine9 & 0xFFFF
//  433   pBuf += MT_RPC_FRAME_HDR_SZ;
??CrossCallReturnLabel_11:
        JNC       ??MT_ZdoIEEEAddrRequest_0
        INC       R3
//  434 
//  435   /* Dev address */
//  436   shortAddr = BUILD_UINT16(pBuf[0], pBuf[1]);
//  437   pBuf += 2;
//  438 
//  439   /* request type */
//  440   reqType = *pBuf++;
//  441 
//  442   /* start index */
//  443   startIndex = *pBuf;
//  444 
//  445   retValue = (uint8)ZDP_IEEEAddrReq(shortAddr, reqType, startIndex, 0);
??MT_ZdoIEEEAddrRequest_0:
        ; Setup parameters for call to function ZDP_IEEEAddrReq
        MOV       R5,#0x0
        MOV       DPL,A
        MOV       DPH,R3
        INC       DPTR
        INC       DPTR
        INC       DPTR
        MOVX      A,@DPTR
        MOV       R4,A
        MOV       DPL,R2
        MOV       DPH,R3
        INC       DPTR
        INC       DPTR
        MOVX      A,@DPTR
        MOV       R1,A
        MOV       DPL,R2
        MOV       DPH,R3
        LCALL     ?Subroutine17 & 0xFFFF
??CrossCallReturnLabel_30:
        LCALL     `??ZDP_IEEEAddrReq::?relay`; Banked call to: ZDP_IEEEAddrReq
        SJMP      ?Subroutine1
//  446 
//  447   MT_BuildAndSendZToolResponse(((uint8)MT_RPC_CMD_SRSP | (uint8)MT_RPC_SYS_ZDO), cmdId, 1, &retValue);
//  448 }
          CFI EndBlock cfiBlock4
//  449 
//  450 /***************************************************************************************************
//  451  * @fn      MT_ZdoNodeDescRequest
//  452  *
//  453  * @brief   Handle a Node Descriptor request.
//  454  *
//  455  * @param   pData  - MT message data
//  456  *
//  457  * @return  void
//  458  ***************************************************************************************************/

        RSEG BANKED_CODE:HUGECODE:NOROOT(0)
//  459 void MT_ZdoNodeDescRequest (uint8 *pBuf)
MT_ZdoNodeDescRequest:
          CFI Block cfiBlock5 Using cfiCommon0
          CFI Function MT_ZdoNodeDescRequest
        CODE
//  460 {
        FUNCALL MT_ZdoNodeDescRequest, ZDP_NWKAddrOfInterestReq
        LOCFRAME ISTACK, 0, STACK
        LOCFRAME PSTACK, 0, STACK
        LOCFRAME XSTACK, 20, STACK
        LOCFRAME IOVERLAY, 0, STATIC
        LOCFRAME DOVERLAY, 0, STATIC
        ARGFRAME ISTACK, 0, STACK
        ARGFRAME PSTACK, 0, STACK
        ARGFRAME XSTACK, 20, STACK
        ARGFRAME IOVERLAY, 0, STATIC
        ARGFRAME DOVERLAY, 0, STATIC
        FUNCALL MT_ZdoNodeDescRequest, MT_BuildAndSendZToolResponse
        LOCFRAME ISTACK, 0, STACK
        LOCFRAME PSTACK, 0, STACK
        LOCFRAME XSTACK, 19, STACK
        LOCFRAME IOVERLAY, 0, STATIC
        LOCFRAME DOVERLAY, 0, STATIC
        ARGFRAME ISTACK, 0, STACK
        ARGFRAME PSTACK, 0, STACK
        ARGFRAME XSTACK, 19, STACK
        ARGFRAME IOVERLAY, 0, STATIC
        ARGFRAME DOVERLAY, 0, STATIC
        REQUIRE ?V0
        MOV       A,#-0x9
        LCALL     ?BANKED_ENTER_XDATA
          CFI DPH0 load(1, XDATA, add(CFA_XSP16, literal(-1)))
          CFI DPL0 load(1, XDATA, add(CFA_XSP16, literal(-2)))
          CFI ?BRET_EXT load(1, XDATA, add(CFA_XSP16, literal(-3)))
          CFI ?RET_HIGH load(1, XDATA, add(CFA_XSP16, literal(-4)))
          CFI ?RET_LOW load(1, XDATA, add(CFA_XSP16, literal(-5)))
          CFI R7 load(1, XDATA, add(CFA_XSP16, literal(-6)))
          CFI V0 load(1, XDATA, add(CFA_XSP16, literal(-7)))
          CFI VB load(1, XDATA, add(CFA_XSP16, literal(-8)))
          CFI R6 load(1, XDATA, add(CFA_XSP16, literal(-9)))
          CFI CFA_SP SP+0
          CFI CFA_XSP16 add(XSP16, 9)
        ; Saved register size: 9
        ; Auto size: 10
        MOV       A,#-0xa
        LCALL     ?ALLOC_XSTACK8
          CFI CFA_XSP16 add(XSP16, 19)
//  461   uint8 cmdId;
//  462   uint8 retValue;
//  463   zAddrType_t destAddr;
//  464   uint16 shortAddr;
//  465 
//  466   /* parse header */
//  467   cmdId = pBuf[MT_RPC_POS_CMD1];
        LCALL     ?Subroutine9 & 0xFFFF
//  468   pBuf += MT_RPC_FRAME_HDR_SZ;
??CrossCallReturnLabel_12:
        JNC       ??MT_ZdoNodeDescRequest_0
        INC       R3
//  469 
//  470   /* Destination address */
//  471   destAddr.addrMode = Addr16Bit;
??MT_ZdoNodeDescRequest_0:
        MOV       A,#0x9
        LCALL     ?XSTACK_DISP0_8
        LCALL     ?Subroutine8 & 0xFFFF
//  472   destAddr.addr.shortAddr = BUILD_UINT16( pBuf[0], pBuf[1] );
??CrossCallReturnLabel_4:
        LCALL     ?XSTACK_DISP0_8
        LCALL     ?Subroutine31 & 0xFFFF
//  473   pBuf += 2;
??CrossCallReturnLabel_55:
        JNC       ??MT_ZdoNodeDescRequest_1
        INC       R3
//  474 
//  475   /* Network address of interest */
//  476   shortAddr = BUILD_UINT16( pBuf[0], pBuf[1] );
//  477   pBuf += 2;
//  478 
//  479   retValue = (uint8)ZDP_NodeDescReq( &destAddr, shortAddr, 0);
??MT_ZdoNodeDescRequest_1:
        ; Setup parameters for call to function ZDP_NWKAddrOfInterestReq
        MOV       ?V0,#0x0
        MOV       R0,#?V0
        LCALL     ?PUSH_XSTACK_I_ONE
          CFI CFA_XSP16 add(XSP16, 20)
        MOV       R1,#0x2
        MOV       DPL,R2
        MOV       DPH,R3
        LCALL     ?Subroutine16 & 0xFFFF
??CrossCallReturnLabel_28:
        MOV       A,R1
        LJMP      ??Subroutine64_0 & 0xFFFF
//  480 
//  481   MT_BuildAndSendZToolResponse(((uint8)MT_RPC_CMD_SRSP | (uint8)MT_RPC_SYS_ZDO), cmdId, 1, &retValue);
//  482 }
          CFI EndBlock cfiBlock5
//  483 
//  484 /***************************************************************************************************
//  485  * @fn      MT_ZdoPowerDescRequest
//  486  *
//  487  * @brief   Handle a Power Descriptor request.
//  488  *
//  489  * @param   pData  - MT message data
//  490  *
//  491  * @return  void
//  492  ***************************************************************************************************/

        RSEG BANKED_CODE:HUGECODE:NOROOT(0)
//  493 void MT_ZdoPowerDescRequest(uint8 *pBuf)
MT_ZdoPowerDescRequest:
          CFI Block cfiBlock6 Using cfiCommon0
          CFI Function MT_ZdoPowerDescRequest
        CODE
//  494 {
        FUNCALL MT_ZdoPowerDescRequest, ZDP_NWKAddrOfInterestReq
        LOCFRAME ISTACK, 0, STACK
        LOCFRAME PSTACK, 0, STACK
        LOCFRAME XSTACK, 20, STACK
        LOCFRAME IOVERLAY, 0, STATIC
        LOCFRAME DOVERLAY, 0, STATIC
        ARGFRAME ISTACK, 0, STACK
        ARGFRAME PSTACK, 0, STACK
        ARGFRAME XSTACK, 20, STACK
        ARGFRAME IOVERLAY, 0, STATIC
        ARGFRAME DOVERLAY, 0, STATIC
        FUNCALL MT_ZdoPowerDescRequest, MT_BuildAndSendZToolResponse
        LOCFRAME ISTACK, 0, STACK
        LOCFRAME PSTACK, 0, STACK
        LOCFRAME XSTACK, 19, STACK
        LOCFRAME IOVERLAY, 0, STATIC
        LOCFRAME DOVERLAY, 0, STATIC
        ARGFRAME ISTACK, 0, STACK
        ARGFRAME PSTACK, 0, STACK
        ARGFRAME XSTACK, 19, STACK
        ARGFRAME IOVERLAY, 0, STATIC
        ARGFRAME DOVERLAY, 0, STATIC
        REQUIRE ?V0
        MOV       A,#-0x9
        LCALL     ?BANKED_ENTER_XDATA
          CFI DPH0 load(1, XDATA, add(CFA_XSP16, literal(-1)))
          CFI DPL0 load(1, XDATA, add(CFA_XSP16, literal(-2)))
          CFI ?BRET_EXT load(1, XDATA, add(CFA_XSP16, literal(-3)))
          CFI ?RET_HIGH load(1, XDATA, add(CFA_XSP16, literal(-4)))
          CFI ?RET_LOW load(1, XDATA, add(CFA_XSP16, literal(-5)))
          CFI R7 load(1, XDATA, add(CFA_XSP16, literal(-6)))
          CFI V0 load(1, XDATA, add(CFA_XSP16, literal(-7)))
          CFI VB load(1, XDATA, add(CFA_XSP16, literal(-8)))
          CFI R6 load(1, XDATA, add(CFA_XSP16, literal(-9)))
          CFI CFA_SP SP+0
          CFI CFA_XSP16 add(XSP16, 9)
        ; Saved register size: 9
        ; Auto size: 10
        MOV       A,#-0xa
        LCALL     ?ALLOC_XSTACK8
          CFI CFA_XSP16 add(XSP16, 19)
//  495   uint8 cmdId;
//  496   uint8 retValue;
//  497   zAddrType_t destAddr;
//  498   uint16 shortAddr;
//  499 
//  500   /* parse header */
//  501   cmdId = pBuf[MT_RPC_POS_CMD1];
        LCALL     ?Subroutine9 & 0xFFFF
//  502   pBuf += MT_RPC_FRAME_HDR_SZ;
??CrossCallReturnLabel_13:
        JNC       ??MT_ZdoPowerDescRequest_0
        INC       R3
//  503 
//  504   /* Dev address */
//  505   destAddr.addrMode = Addr16Bit;
??MT_ZdoPowerDescRequest_0:
        MOV       A,#0x9
        LCALL     ?XSTACK_DISP0_8
        LCALL     ?Subroutine8 & 0xFFFF
//  506   destAddr.addr.shortAddr = BUILD_UINT16( pBuf[0], pBuf[1] );
??CrossCallReturnLabel_5:
        LCALL     ?XSTACK_DISP0_8
        LCALL     ?Subroutine31 & 0xFFFF
//  507   pBuf += 2;
??CrossCallReturnLabel_56:
        JNC       ??MT_ZdoPowerDescRequest_1
        INC       R3
//  508 
//  509   /* Network address of interest */
//  510   shortAddr = BUILD_UINT16( pBuf[0], pBuf[1] );
//  511   pBuf += 2;
//  512 
//  513   retValue = (uint8)ZDP_PowerDescReq( &destAddr, shortAddr, 0);
??MT_ZdoPowerDescRequest_1:
        ; Setup parameters for call to function ZDP_NWKAddrOfInterestReq
        MOV       ?V0,#0x0
        MOV       R0,#?V0
        LCALL     ?PUSH_XSTACK_I_ONE
          CFI CFA_XSP16 add(XSP16, 20)
        MOV       R1,#0x3
        LJMP      ?Subroutine0 & 0xFFFF
//  514 
//  515   MT_BuildAndSendZToolResponse(((uint8)MT_RPC_CMD_SRSP | (uint8)MT_RPC_SYS_ZDO), cmdId, 1, &retValue);
//  516 }
          CFI EndBlock cfiBlock6
//  517 
//  518 /***************************************************************************************************
//  519  * @fn      MT_ZdoSimpleDescRequest
//  520  *
//  521  * @brief   Handle a Simple Descriptor request.
//  522  *
//  523  * @param   pBuf  - MT message data
//  524  *
//  525  * @return  void
//  526  ***************************************************************************************************/

        RSEG BANKED_CODE:HUGECODE:NOROOT(0)
//  527 void MT_ZdoSimpleDescRequest(uint8 *pBuf)
MT_ZdoSimpleDescRequest:
          CFI Block cfiBlock7 Using cfiCommon0
          CFI Function MT_ZdoSimpleDescRequest
        CODE
//  528 {
        FUNCALL MT_ZdoSimpleDescRequest, ZDP_SimpleDescReq
        LOCFRAME ISTACK, 0, STACK
        LOCFRAME PSTACK, 0, STACK
        LOCFRAME XSTACK, 20, STACK
        LOCFRAME IOVERLAY, 0, STATIC
        LOCFRAME DOVERLAY, 0, STATIC
        ARGFRAME ISTACK, 0, STACK
        ARGFRAME PSTACK, 0, STACK
        ARGFRAME XSTACK, 20, STACK
        ARGFRAME IOVERLAY, 0, STATIC
        ARGFRAME DOVERLAY, 0, STATIC
        FUNCALL MT_ZdoSimpleDescRequest, MT_BuildAndSendZToolResponse
        LOCFRAME ISTACK, 0, STACK
        LOCFRAME PSTACK, 0, STACK
        LOCFRAME XSTACK, 19, STACK
        LOCFRAME IOVERLAY, 0, STATIC
        LOCFRAME DOVERLAY, 0, STATIC
        ARGFRAME ISTACK, 0, STACK
        ARGFRAME PSTACK, 0, STACK
        ARGFRAME XSTACK, 19, STACK
        ARGFRAME IOVERLAY, 0, STATIC
        ARGFRAME DOVERLAY, 0, STATIC
        REQUIRE ?V0
        MOV       A,#-0x9
        LCALL     ?BANKED_ENTER_XDATA
          CFI DPH0 load(1, XDATA, add(CFA_XSP16, literal(-1)))
          CFI DPL0 load(1, XDATA, add(CFA_XSP16, literal(-2)))
          CFI ?BRET_EXT load(1, XDATA, add(CFA_XSP16, literal(-3)))
          CFI ?RET_HIGH load(1, XDATA, add(CFA_XSP16, literal(-4)))
          CFI ?RET_LOW load(1, XDATA, add(CFA_XSP16, literal(-5)))
          CFI R7 load(1, XDATA, add(CFA_XSP16, literal(-6)))
          CFI V0 load(1, XDATA, add(CFA_XSP16, literal(-7)))
          CFI VB load(1, XDATA, add(CFA_XSP16, literal(-8)))
          CFI R6 load(1, XDATA, add(CFA_XSP16, literal(-9)))
          CFI CFA_SP SP+0
          CFI CFA_XSP16 add(XSP16, 9)
        ; Saved register size: 9
        ; Auto size: 10
        MOV       A,#-0xa
        LCALL     ?ALLOC_XSTACK8
          CFI CFA_XSP16 add(XSP16, 19)
//  529   uint8 cmdId;
//  530   uint8 retValue;
//  531   uint8 epInt;
//  532   zAddrType_t destAddr;
//  533   uint16 shortAddr;
//  534 
//  535   /* parse header */
//  536   cmdId = pBuf[MT_RPC_POS_CMD1];
        LCALL     ?Subroutine9 & 0xFFFF
//  537   pBuf += MT_RPC_FRAME_HDR_SZ;
??CrossCallReturnLabel_14:
        JNC       ??MT_ZdoSimpleDescRequest_0
        INC       R3
//  538 
//  539   /* Dev address */
//  540   destAddr.addrMode = Addr16Bit;
??MT_ZdoSimpleDescRequest_0:
        MOV       A,#0x9
        LCALL     ?XSTACK_DISP0_8
        LCALL     ?Subroutine8 & 0xFFFF
//  541   destAddr.addr.shortAddr = BUILD_UINT16( pBuf[0], pBuf[1] );
??CrossCallReturnLabel_6:
        LCALL     ?XSTACK_DISP0_8
        LCALL     ?Subroutine31 & 0xFFFF
//  542   pBuf += 2;
??CrossCallReturnLabel_57:
        JNC       ??MT_ZdoSimpleDescRequest_1
        INC       R3
//  543 
//  544   /* Network address of interest */
//  545   shortAddr = BUILD_UINT16( pBuf[0], pBuf[1] );
//  546   pBuf += 2;
//  547 
//  548   /* endpoint/interface */
//  549   epInt = *pBuf++;
//  550 
//  551   retValue = (uint8)ZDP_SimpleDescReq( &destAddr, shortAddr, epInt, 0);
??MT_ZdoSimpleDescRequest_1:
        ; Setup parameters for call to function ZDP_SimpleDescReq
        MOV       ?V0,#0x0
        MOV       R0,#?V0
        LCALL     ?PUSH_XSTACK_I_ONE
          CFI CFA_XSP16 add(XSP16, 20)
        MOV       DPL,R2
        MOV       DPH,R3
        INC       DPTR
        INC       DPTR
        MOVX      A,@DPTR
        MOV       R1,A
        LCALL     ?Subroutine12 & 0xFFFF
??CrossCallReturnLabel_22:
        LCALL     ?XSTACK_DISP101_8
        LCALL     `??ZDP_SimpleDescReq::?relay`; Banked call to: ZDP_SimpleDescReq
        LJMP      ??Subroutine65_0 & 0xFFFF
//  552 
//  553   MT_BuildAndSendZToolResponse(((uint8)MT_RPC_CMD_SRSP | (uint8)MT_RPC_SYS_ZDO), cmdId, 1, &retValue);
//  554 }
          CFI EndBlock cfiBlock7

        RSEG BANKED_CODE:HUGECODE:NOROOT(0)
?Subroutine9:
          CFI Block cfiCond8 Using cfiCommon0
          CFI Function MT_ZdoIEEEAddrRequest
          CFI Conditional ??CrossCallReturnLabel_11
          CFI R6 load(1, XDATA, add(CFA_XSP16, literal(-10)))
          CFI VB load(1, XDATA, add(CFA_XSP16, literal(-9)))
          CFI V0 load(1, XDATA, add(CFA_XSP16, literal(-8)))
          CFI V1 load(1, XDATA, add(CFA_XSP16, literal(-7)))
          CFI R7 load(1, XDATA, add(CFA_XSP16, literal(-6)))
          CFI ?RET_LOW load(1, XDATA, add(CFA_XSP16, literal(-5)))
          CFI ?RET_HIGH load(1, XDATA, add(CFA_XSP16, literal(-4)))
          CFI ?BRET_EXT load(1, XDATA, add(CFA_XSP16, literal(-3)))
          CFI DPL0 load(1, XDATA, add(CFA_XSP16, literal(-2)))
          CFI DPH0 load(1, XDATA, add(CFA_XSP16, literal(-1)))
          CFI CFA_SP SP+-2
          CFI CFA_XSP16 add(XSP16, 11)
          CFI Block cfiCond9 Using cfiCommon0
          CFI (cfiCond9) Function MT_ZdoNodeDescRequest
          CFI (cfiCond9) Conditional ??CrossCallReturnLabel_12
          CFI (cfiCond9) R6 load(1, XDATA, add(CFA_XSP16, literal(-9)))
          CFI (cfiCond9) VB load(1, XDATA, add(CFA_XSP16, literal(-8)))
          CFI (cfiCond9) V0 load(1, XDATA, add(CFA_XSP16, literal(-7)))
          CFI (cfiCond9) R7 load(1, XDATA, add(CFA_XSP16, literal(-6)))
          CFI (cfiCond9) ?RET_LOW load(1, XDATA, add(CFA_XSP16, literal(-5)))
          CFI (cfiCond9) ?RET_HIGH load(1, XDATA, add(CFA_XSP16, literal(-4)))
          CFI (cfiCond9) ?BRET_EXT load(1, XDATA, add(CFA_XSP16, literal(-3)))
          CFI (cfiCond9) DPL0 load(1, XDATA, add(CFA_XSP16, literal(-2)))
          CFI (cfiCond9) DPH0 load(1, XDATA, add(CFA_XSP16, literal(-1)))
          CFI (cfiCond9) CFA_SP SP+-2
          CFI (cfiCond9) CFA_XSP16 add(XSP16, 19)
          CFI Block cfiCond10 Using cfiCommon0
          CFI (cfiCond10) Function MT_ZdoPowerDescRequest
          CFI (cfiCond10) Conditional ??CrossCallReturnLabel_13
          CFI (cfiCond10) R6 load(1, XDATA, add(CFA_XSP16, literal(-9)))
          CFI (cfiCond10) VB load(1, XDATA, add(CFA_XSP16, literal(-8)))
          CFI (cfiCond10) V0 load(1, XDATA, add(CFA_XSP16, literal(-7)))
          CFI (cfiCond10) R7 load(1, XDATA, add(CFA_XSP16, literal(-6)))
          CFI (cfiCond10) ?RET_LOW load(1, XDATA, add(CFA_XSP16, literal(-5)))
          CFI (cfiCond10) ?RET_HIGH load(1, XDATA, add(CFA_XSP16, literal(-4)))
          CFI (cfiCond10) ?BRET_EXT load(1, XDATA, add(CFA_XSP16, literal(-3)))
          CFI (cfiCond10) DPL0 load(1, XDATA, add(CFA_XSP16, literal(-2)))
          CFI (cfiCond10) DPH0 load(1, XDATA, add(CFA_XSP16, literal(-1)))
          CFI (cfiCond10) CFA_SP SP+-2
          CFI (cfiCond10) CFA_XSP16 add(XSP16, 19)
          CFI Block cfiCond11 Using cfiCommon0
          CFI (cfiCond11) Function MT_ZdoSimpleDescRequest
          CFI (cfiCond11) Conditional ??CrossCallReturnLabel_14
          CFI (cfiCond11) R6 load(1, XDATA, add(CFA_XSP16, literal(-9)))
          CFI (cfiCond11) VB load(1, XDATA, add(CFA_XSP16, literal(-8)))
          CFI (cfiCond11) V0 load(1, XDATA, add(CFA_XSP16, literal(-7)))
          CFI (cfiCond11) R7 load(1, XDATA, add(CFA_XSP16, literal(-6)))
          CFI (cfiCond11) ?RET_LOW load(1, XDATA, add(CFA_XSP16, literal(-5)))
          CFI (cfiCond11) ?RET_HIGH load(1, XDATA, add(CFA_XSP16, literal(-4)))
          CFI (cfiCond11) ?BRET_EXT load(1, XDATA, add(CFA_XSP16, literal(-3)))
          CFI (cfiCond11) DPL0 load(1, XDATA, add(CFA_XSP16, literal(-2)))
          CFI (cfiCond11) DPH0 load(1, XDATA, add(CFA_XSP16, literal(-1)))
          CFI (cfiCond11) CFA_SP SP+-2
          CFI (cfiCond11) CFA_XSP16 add(XSP16, 19)
          CFI Block cfiCond12 Using cfiCommon0
          CFI (cfiCond12) Function MT_ZdoActiveEpRequest
          CFI (cfiCond12) Conditional ??CrossCallReturnLabel_15
          CFI (cfiCond12) R6 load(1, XDATA, add(CFA_XSP16, literal(-9)))
          CFI (cfiCond12) VB load(1, XDATA, add(CFA_XSP16, literal(-8)))
          CFI (cfiCond12) V0 load(1, XDATA, add(CFA_XSP16, literal(-7)))
          CFI (cfiCond12) R7 load(1, XDATA, add(CFA_XSP16, literal(-6)))
          CFI (cfiCond12) ?RET_LOW load(1, XDATA, add(CFA_XSP16, literal(-5)))
          CFI (cfiCond12) ?RET_HIGH load(1, XDATA, add(CFA_XSP16, literal(-4)))
          CFI (cfiCond12) ?BRET_EXT load(1, XDATA, add(CFA_XSP16, literal(-3)))
          CFI (cfiCond12) DPL0 load(1, XDATA, add(CFA_XSP16, literal(-2)))
          CFI (cfiCond12) DPH0 load(1, XDATA, add(CFA_XSP16, literal(-1)))
          CFI (cfiCond12) CFA_SP SP+-2
          CFI (cfiCond12) CFA_XSP16 add(XSP16, 19)
          CFI Block cfiCond13 Using cfiCommon0
          CFI (cfiCond13) Function MT_ZdoComplexDescRequest
          CFI (cfiCond13) Conditional ??CrossCallReturnLabel_16
          CFI (cfiCond13) R6 load(1, XDATA, add(CFA_XSP16, literal(-9)))
          CFI (cfiCond13) VB load(1, XDATA, add(CFA_XSP16, literal(-8)))
          CFI (cfiCond13) V0 load(1, XDATA, add(CFA_XSP16, literal(-7)))
          CFI (cfiCond13) R7 load(1, XDATA, add(CFA_XSP16, literal(-6)))
          CFI (cfiCond13) ?RET_LOW load(1, XDATA, add(CFA_XSP16, literal(-5)))
          CFI (cfiCond13) ?RET_HIGH load(1, XDATA, add(CFA_XSP16, literal(-4)))
          CFI (cfiCond13) ?BRET_EXT load(1, XDATA, add(CFA_XSP16, literal(-3)))
          CFI (cfiCond13) DPL0 load(1, XDATA, add(CFA_XSP16, literal(-2)))
          CFI (cfiCond13) DPH0 load(1, XDATA, add(CFA_XSP16, literal(-1)))
          CFI (cfiCond13) CFA_SP SP+-2
          CFI (cfiCond13) CFA_XSP16 add(XSP16, 19)
          CFI Block cfiCond14 Using cfiCommon0
          CFI (cfiCond14) Function MT_ZdoUserDescRequest
          CFI (cfiCond14) Conditional ??CrossCallReturnLabel_17
          CFI (cfiCond14) R6 load(1, XDATA, add(CFA_XSP16, literal(-9)))
          CFI (cfiCond14) VB load(1, XDATA, add(CFA_XSP16, literal(-8)))
          CFI (cfiCond14) V0 load(1, XDATA, add(CFA_XSP16, literal(-7)))
          CFI (cfiCond14) R7 load(1, XDATA, add(CFA_XSP16, literal(-6)))
          CFI (cfiCond14) ?RET_LOW load(1, XDATA, add(CFA_XSP16, literal(-5)))
          CFI (cfiCond14) ?RET_HIGH load(1, XDATA, add(CFA_XSP16, literal(-4)))
          CFI (cfiCond14) ?BRET_EXT load(1, XDATA, add(CFA_XSP16, literal(-3)))
          CFI (cfiCond14) DPL0 load(1, XDATA, add(CFA_XSP16, literal(-2)))
          CFI (cfiCond14) DPH0 load(1, XDATA, add(CFA_XSP16, literal(-1)))
          CFI (cfiCond14) CFA_SP SP+-2
          CFI (cfiCond14) CFA_XSP16 add(XSP16, 19)
          CFI Block cfiPicker15 Using cfiCommon1
          CFI (cfiPicker15) NoFunction
          CFI (cfiPicker15) Picker
        MOV       DPL,R2
        MOV       DPH,R3
        INC       DPTR
        INC       DPTR
        MOVX      A,@DPTR
        MOV       R6,A
        MOV       A,R2
        ADD       A,#0x3
        MOV       R2,A
        RET
          CFI EndBlock cfiCond8
          CFI EndBlock cfiCond9
          CFI EndBlock cfiCond10
          CFI EndBlock cfiCond11
          CFI EndBlock cfiCond12
          CFI EndBlock cfiCond13
          CFI EndBlock cfiCond14
          CFI EndBlock cfiPicker15
//  555 
//  556 /***************************************************************************************************
//  557  * @fn      MT_ZdoActiveEpRequest
//  558  *
//  559  * @brief   Handle a Active EP request.
//  560  *
//  561  * @param   pBuf  - MT message data
//  562  *
//  563  * @return  void
//  564  ***************************************************************************************************/

        RSEG BANKED_CODE:HUGECODE:NOROOT(0)
//  565 void MT_ZdoActiveEpRequest(uint8 *pBuf)
MT_ZdoActiveEpRequest:
          CFI Block cfiBlock16 Using cfiCommon0
          CFI Function MT_ZdoActiveEpRequest
        CODE
//  566 {
        FUNCALL MT_ZdoActiveEpRequest, ZDP_NWKAddrOfInterestReq
        LOCFRAME ISTACK, 0, STACK
        LOCFRAME PSTACK, 0, STACK
        LOCFRAME XSTACK, 20, STACK
        LOCFRAME IOVERLAY, 0, STATIC
        LOCFRAME DOVERLAY, 0, STATIC
        ARGFRAME ISTACK, 0, STACK
        ARGFRAME PSTACK, 0, STACK
        ARGFRAME XSTACK, 20, STACK
        ARGFRAME IOVERLAY, 0, STATIC
        ARGFRAME DOVERLAY, 0, STATIC
        FUNCALL MT_ZdoActiveEpRequest, MT_BuildAndSendZToolResponse
        LOCFRAME ISTACK, 0, STACK
        LOCFRAME PSTACK, 0, STACK
        LOCFRAME XSTACK, 19, STACK
        LOCFRAME IOVERLAY, 0, STATIC
        LOCFRAME DOVERLAY, 0, STATIC
        ARGFRAME ISTACK, 0, STACK
        ARGFRAME PSTACK, 0, STACK
        ARGFRAME XSTACK, 19, STACK
        ARGFRAME IOVERLAY, 0, STATIC
        ARGFRAME DOVERLAY, 0, STATIC
        REQUIRE ?V0
        MOV       A,#-0x9
        LCALL     ?BANKED_ENTER_XDATA
          CFI DPH0 load(1, XDATA, add(CFA_XSP16, literal(-1)))
          CFI DPL0 load(1, XDATA, add(CFA_XSP16, literal(-2)))
          CFI ?BRET_EXT load(1, XDATA, add(CFA_XSP16, literal(-3)))
          CFI ?RET_HIGH load(1, XDATA, add(CFA_XSP16, literal(-4)))
          CFI ?RET_LOW load(1, XDATA, add(CFA_XSP16, literal(-5)))
          CFI R7 load(1, XDATA, add(CFA_XSP16, literal(-6)))
          CFI V0 load(1, XDATA, add(CFA_XSP16, literal(-7)))
          CFI VB load(1, XDATA, add(CFA_XSP16, literal(-8)))
          CFI R6 load(1, XDATA, add(CFA_XSP16, literal(-9)))
          CFI CFA_SP SP+0
          CFI CFA_XSP16 add(XSP16, 9)
        ; Saved register size: 9
        ; Auto size: 10
        MOV       A,#-0xa
        LCALL     ?ALLOC_XSTACK8
          CFI CFA_XSP16 add(XSP16, 19)
//  567   uint8 cmdId;
//  568   uint8 retValue;
//  569   zAddrType_t destAddr;
//  570   uint16 shortAddr;
//  571 
//  572   /* parse header */
//  573   cmdId = pBuf[MT_RPC_POS_CMD1];
        LCALL     ?Subroutine9 & 0xFFFF
//  574   pBuf += MT_RPC_FRAME_HDR_SZ;
??CrossCallReturnLabel_15:
        JNC       ??MT_ZdoActiveEpRequest_0
        INC       R3
//  575 
//  576   /* Dev address */
//  577   destAddr.addrMode = Addr16Bit;
??MT_ZdoActiveEpRequest_0:
        MOV       A,#0x9
        LCALL     ?XSTACK_DISP0_8
        LCALL     ?Subroutine8 & 0xFFFF
//  578   destAddr.addr.shortAddr = BUILD_UINT16( pBuf[0], pBuf[1] );
??CrossCallReturnLabel_7:
        LCALL     ?XSTACK_DISP0_8
        LCALL     ?Subroutine31 & 0xFFFF
//  579   pBuf += 2;
??CrossCallReturnLabel_58:
        JNC       ??MT_ZdoActiveEpRequest_1
        INC       R3
//  580 
//  581   /* Network address of interest */
//  582   shortAddr = BUILD_UINT16( pBuf[0], pBuf[1] );
//  583   pBuf += 2;
//  584 
//  585   retValue = (uint8)ZDP_ActiveEPReq( &destAddr, shortAddr, 0);
??MT_ZdoActiveEpRequest_1:
        ; Setup parameters for call to function ZDP_NWKAddrOfInterestReq
        MOV       ?V0,#0x0
        MOV       R0,#?V0
        LCALL     ?PUSH_XSTACK_I_ONE
          CFI CFA_XSP16 add(XSP16, 20)
        MOV       R1,#0x5
        LJMP      ?Subroutine0 & 0xFFFF
//  586 
//  587   MT_BuildAndSendZToolResponse(((uint8)MT_RPC_CMD_SRSP | (uint8)MT_RPC_SYS_ZDO), cmdId, 1, &retValue);
//  588 }
          CFI EndBlock cfiBlock16

        RSEG BANKED_CODE:HUGECODE:NOROOT(0)
?Subroutine31:
          CFI Block cfiCond17 Using cfiCommon0
          CFI Function MT_ZdoNodeDescRequest
          CFI Conditional ??CrossCallReturnLabel_55
          CFI R6 load(1, XDATA, add(CFA_XSP16, literal(-9)))
          CFI VB load(1, XDATA, add(CFA_XSP16, literal(-8)))
          CFI V0 load(1, XDATA, add(CFA_XSP16, literal(-7)))
          CFI R7 load(1, XDATA, add(CFA_XSP16, literal(-6)))
          CFI ?RET_LOW load(1, XDATA, add(CFA_XSP16, literal(-5)))
          CFI ?RET_HIGH load(1, XDATA, add(CFA_XSP16, literal(-4)))
          CFI ?BRET_EXT load(1, XDATA, add(CFA_XSP16, literal(-3)))
          CFI DPL0 load(1, XDATA, add(CFA_XSP16, literal(-2)))
          CFI DPH0 load(1, XDATA, add(CFA_XSP16, literal(-1)))
          CFI CFA_SP SP+-2
          CFI CFA_XSP16 add(XSP16, 19)
          CFI Block cfiCond18 Using cfiCommon0
          CFI (cfiCond18) Function MT_ZdoPowerDescRequest
          CFI (cfiCond18) Conditional ??CrossCallReturnLabel_56
          CFI (cfiCond18) R6 load(1, XDATA, add(CFA_XSP16, literal(-9)))
          CFI (cfiCond18) VB load(1, XDATA, add(CFA_XSP16, literal(-8)))
          CFI (cfiCond18) V0 load(1, XDATA, add(CFA_XSP16, literal(-7)))
          CFI (cfiCond18) R7 load(1, XDATA, add(CFA_XSP16, literal(-6)))
          CFI (cfiCond18) ?RET_LOW load(1, XDATA, add(CFA_XSP16, literal(-5)))
          CFI (cfiCond18) ?RET_HIGH load(1, XDATA, add(CFA_XSP16, literal(-4)))
          CFI (cfiCond18) ?BRET_EXT load(1, XDATA, add(CFA_XSP16, literal(-3)))
          CFI (cfiCond18) DPL0 load(1, XDATA, add(CFA_XSP16, literal(-2)))
          CFI (cfiCond18) DPH0 load(1, XDATA, add(CFA_XSP16, literal(-1)))
          CFI (cfiCond18) CFA_SP SP+-2
          CFI (cfiCond18) CFA_XSP16 add(XSP16, 19)
          CFI Block cfiCond19 Using cfiCommon0
          CFI (cfiCond19) Function MT_ZdoSimpleDescRequest
          CFI (cfiCond19) Conditional ??CrossCallReturnLabel_57
          CFI (cfiCond19) R6 load(1, XDATA, add(CFA_XSP16, literal(-9)))
          CFI (cfiCond19) VB load(1, XDATA, add(CFA_XSP16, literal(-8)))
          CFI (cfiCond19) V0 load(1, XDATA, add(CFA_XSP16, literal(-7)))
          CFI (cfiCond19) R7 load(1, XDATA, add(CFA_XSP16, literal(-6)))
          CFI (cfiCond19) ?RET_LOW load(1, XDATA, add(CFA_XSP16, literal(-5)))
          CFI (cfiCond19) ?RET_HIGH load(1, XDATA, add(CFA_XSP16, literal(-4)))
          CFI (cfiCond19) ?BRET_EXT load(1, XDATA, add(CFA_XSP16, literal(-3)))
          CFI (cfiCond19) DPL0 load(1, XDATA, add(CFA_XSP16, literal(-2)))
          CFI (cfiCond19) DPH0 load(1, XDATA, add(CFA_XSP16, literal(-1)))
          CFI (cfiCond19) CFA_SP SP+-2
          CFI (cfiCond19) CFA_XSP16 add(XSP16, 19)
          CFI Block cfiCond20 Using cfiCommon0
          CFI (cfiCond20) Function MT_ZdoActiveEpRequest
          CFI (cfiCond20) Conditional ??CrossCallReturnLabel_58
          CFI (cfiCond20) R6 load(1, XDATA, add(CFA_XSP16, literal(-9)))
          CFI (cfiCond20) VB load(1, XDATA, add(CFA_XSP16, literal(-8)))
          CFI (cfiCond20) V0 load(1, XDATA, add(CFA_XSP16, literal(-7)))
          CFI (cfiCond20) R7 load(1, XDATA, add(CFA_XSP16, literal(-6)))
          CFI (cfiCond20) ?RET_LOW load(1, XDATA, add(CFA_XSP16, literal(-5)))
          CFI (cfiCond20) ?RET_HIGH load(1, XDATA, add(CFA_XSP16, literal(-4)))
          CFI (cfiCond20) ?BRET_EXT load(1, XDATA, add(CFA_XSP16, literal(-3)))
          CFI (cfiCond20) DPL0 load(1, XDATA, add(CFA_XSP16, literal(-2)))
          CFI (cfiCond20) DPH0 load(1, XDATA, add(CFA_XSP16, literal(-1)))
          CFI (cfiCond20) CFA_SP SP+-2
          CFI (cfiCond20) CFA_XSP16 add(XSP16, 19)
          CFI Block cfiCond21 Using cfiCommon0
          CFI (cfiCond21) Function MT_ZdoComplexDescRequest
          CFI (cfiCond21) Conditional ??CrossCallReturnLabel_59
          CFI (cfiCond21) R6 load(1, XDATA, add(CFA_XSP16, literal(-9)))
          CFI (cfiCond21) VB load(1, XDATA, add(CFA_XSP16, literal(-8)))
          CFI (cfiCond21) V0 load(1, XDATA, add(CFA_XSP16, literal(-7)))
          CFI (cfiCond21) R7 load(1, XDATA, add(CFA_XSP16, literal(-6)))
          CFI (cfiCond21) ?RET_LOW load(1, XDATA, add(CFA_XSP16, literal(-5)))
          CFI (cfiCond21) ?RET_HIGH load(1, XDATA, add(CFA_XSP16, literal(-4)))
          CFI (cfiCond21) ?BRET_EXT load(1, XDATA, add(CFA_XSP16, literal(-3)))
          CFI (cfiCond21) DPL0 load(1, XDATA, add(CFA_XSP16, literal(-2)))
          CFI (cfiCond21) DPH0 load(1, XDATA, add(CFA_XSP16, literal(-1)))
          CFI (cfiCond21) CFA_SP SP+-2
          CFI (cfiCond21) CFA_XSP16 add(XSP16, 19)
          CFI Block cfiCond22 Using cfiCommon0
          CFI (cfiCond22) Function MT_ZdoUserDescRequest
          CFI (cfiCond22) Conditional ??CrossCallReturnLabel_60
          CFI (cfiCond22) R6 load(1, XDATA, add(CFA_XSP16, literal(-9)))
          CFI (cfiCond22) VB load(1, XDATA, add(CFA_XSP16, literal(-8)))
          CFI (cfiCond22) V0 load(1, XDATA, add(CFA_XSP16, literal(-7)))
          CFI (cfiCond22) R7 load(1, XDATA, add(CFA_XSP16, literal(-6)))
          CFI (cfiCond22) ?RET_LOW load(1, XDATA, add(CFA_XSP16, literal(-5)))
          CFI (cfiCond22) ?RET_HIGH load(1, XDATA, add(CFA_XSP16, literal(-4)))
          CFI (cfiCond22) ?BRET_EXT load(1, XDATA, add(CFA_XSP16, literal(-3)))
          CFI (cfiCond22) DPL0 load(1, XDATA, add(CFA_XSP16, literal(-2)))
          CFI (cfiCond22) DPH0 load(1, XDATA, add(CFA_XSP16, literal(-1)))
          CFI (cfiCond22) CFA_SP SP+-2
          CFI (cfiCond22) CFA_XSP16 add(XSP16, 19)
          CFI Block cfiCond23 Using cfiCommon0
          CFI (cfiCond23) Function MT_ZdoUserDescSet
          CFI (cfiCond23) Conditional ??CrossCallReturnLabel_61
          CFI (cfiCond23) R6 load(1, XDATA, add(CFA_XSP16, literal(-12)))
          CFI (cfiCond23) VB load(1, XDATA, add(CFA_XSP16, literal(-11)))
          CFI (cfiCond23) V0 load(1, XDATA, add(CFA_XSP16, literal(-10)))
          CFI (cfiCond23) V1 load(1, XDATA, add(CFA_XSP16, literal(-9)))
          CFI (cfiCond23) V2 load(1, XDATA, add(CFA_XSP16, literal(-8)))
          CFI (cfiCond23) V3 load(1, XDATA, add(CFA_XSP16, literal(-7)))
          CFI (cfiCond23) R7 load(1, XDATA, add(CFA_XSP16, literal(-6)))
          CFI (cfiCond23) ?RET_LOW load(1, XDATA, add(CFA_XSP16, literal(-5)))
          CFI (cfiCond23) ?RET_HIGH load(1, XDATA, add(CFA_XSP16, literal(-4)))
          CFI (cfiCond23) ?BRET_EXT load(1, XDATA, add(CFA_XSP16, literal(-3)))
          CFI (cfiCond23) DPL0 load(1, XDATA, add(CFA_XSP16, literal(-2)))
          CFI (cfiCond23) DPH0 load(1, XDATA, add(CFA_XSP16, literal(-1)))
          CFI (cfiCond23) CFA_SP SP+-2
          CFI (cfiCond23) CFA_XSP16 add(XSP16, 39)
          CFI Block cfiPicker24 Using cfiCommon1
          CFI (cfiPicker24) NoFunction
          CFI (cfiPicker24) Picker
        MOV       A,R4
        MOVX      @DPTR,A
        INC       DPTR
        MOV       A,R1
        MOVX      @DPTR,A
        MOV       A,R2
        ADD       A,#0x2
        MOV       R2,A
        RET
          CFI EndBlock cfiCond17
          CFI EndBlock cfiCond18
          CFI EndBlock cfiCond19
          CFI EndBlock cfiCond20
          CFI EndBlock cfiCond21
          CFI EndBlock cfiCond22
          CFI EndBlock cfiCond23
          CFI EndBlock cfiPicker24

        RSEG BANKED_CODE:HUGECODE:NOROOT(0)
?Subroutine8:
          CFI Block cfiCond25 Using cfiCommon0
          CFI Function MT_ZdoNodeDescRequest
          CFI Conditional ??CrossCallReturnLabel_4
          CFI R6 load(1, XDATA, add(CFA_XSP16, literal(-9)))
          CFI VB load(1, XDATA, add(CFA_XSP16, literal(-8)))
          CFI V0 load(1, XDATA, add(CFA_XSP16, literal(-7)))
          CFI R7 load(1, XDATA, add(CFA_XSP16, literal(-6)))
          CFI ?RET_LOW load(1, XDATA, add(CFA_XSP16, literal(-5)))
          CFI ?RET_HIGH load(1, XDATA, add(CFA_XSP16, literal(-4)))
          CFI ?BRET_EXT load(1, XDATA, add(CFA_XSP16, literal(-3)))
          CFI DPL0 load(1, XDATA, add(CFA_XSP16, literal(-2)))
          CFI DPH0 load(1, XDATA, add(CFA_XSP16, literal(-1)))
          CFI CFA_SP SP+-2
          CFI CFA_XSP16 add(XSP16, 19)
          CFI Block cfiCond26 Using cfiCommon0
          CFI (cfiCond26) Function MT_ZdoPowerDescRequest
          CFI (cfiCond26) Conditional ??CrossCallReturnLabel_5
          CFI (cfiCond26) R6 load(1, XDATA, add(CFA_XSP16, literal(-9)))
          CFI (cfiCond26) VB load(1, XDATA, add(CFA_XSP16, literal(-8)))
          CFI (cfiCond26) V0 load(1, XDATA, add(CFA_XSP16, literal(-7)))
          CFI (cfiCond26) R7 load(1, XDATA, add(CFA_XSP16, literal(-6)))
          CFI (cfiCond26) ?RET_LOW load(1, XDATA, add(CFA_XSP16, literal(-5)))
          CFI (cfiCond26) ?RET_HIGH load(1, XDATA, add(CFA_XSP16, literal(-4)))
          CFI (cfiCond26) ?BRET_EXT load(1, XDATA, add(CFA_XSP16, literal(-3)))
          CFI (cfiCond26) DPL0 load(1, XDATA, add(CFA_XSP16, literal(-2)))
          CFI (cfiCond26) DPH0 load(1, XDATA, add(CFA_XSP16, literal(-1)))
          CFI (cfiCond26) CFA_SP SP+-2
          CFI (cfiCond26) CFA_XSP16 add(XSP16, 19)
          CFI Block cfiCond27 Using cfiCommon0
          CFI (cfiCond27) Function MT_ZdoSimpleDescRequest
          CFI (cfiCond27) Conditional ??CrossCallReturnLabel_6
          CFI (cfiCond27) R6 load(1, XDATA, add(CFA_XSP16, literal(-9)))
          CFI (cfiCond27) VB load(1, XDATA, add(CFA_XSP16, literal(-8)))
          CFI (cfiCond27) V0 load(1, XDATA, add(CFA_XSP16, literal(-7)))
          CFI (cfiCond27) R7 load(1, XDATA, add(CFA_XSP16, literal(-6)))
          CFI (cfiCond27) ?RET_LOW load(1, XDATA, add(CFA_XSP16, literal(-5)))
          CFI (cfiCond27) ?RET_HIGH load(1, XDATA, add(CFA_XSP16, literal(-4)))
          CFI (cfiCond27) ?BRET_EXT load(1, XDATA, add(CFA_XSP16, literal(-3)))
          CFI (cfiCond27) DPL0 load(1, XDATA, add(CFA_XSP16, literal(-2)))
          CFI (cfiCond27) DPH0 load(1, XDATA, add(CFA_XSP16, literal(-1)))
          CFI (cfiCond27) CFA_SP SP+-2
          CFI (cfiCond27) CFA_XSP16 add(XSP16, 19)
          CFI Block cfiCond28 Using cfiCommon0
          CFI (cfiCond28) Function MT_ZdoActiveEpRequest
          CFI (cfiCond28) Conditional ??CrossCallReturnLabel_7
          CFI (cfiCond28) R6 load(1, XDATA, add(CFA_XSP16, literal(-9)))
          CFI (cfiCond28) VB load(1, XDATA, add(CFA_XSP16, literal(-8)))
          CFI (cfiCond28) V0 load(1, XDATA, add(CFA_XSP16, literal(-7)))
          CFI (cfiCond28) R7 load(1, XDATA, add(CFA_XSP16, literal(-6)))
          CFI (cfiCond28) ?RET_LOW load(1, XDATA, add(CFA_XSP16, literal(-5)))
          CFI (cfiCond28) ?RET_HIGH load(1, XDATA, add(CFA_XSP16, literal(-4)))
          CFI (cfiCond28) ?BRET_EXT load(1, XDATA, add(CFA_XSP16, literal(-3)))
          CFI (cfiCond28) DPL0 load(1, XDATA, add(CFA_XSP16, literal(-2)))
          CFI (cfiCond28) DPH0 load(1, XDATA, add(CFA_XSP16, literal(-1)))
          CFI (cfiCond28) CFA_SP SP+-2
          CFI (cfiCond28) CFA_XSP16 add(XSP16, 19)
          CFI Block cfiCond29 Using cfiCommon0
          CFI (cfiCond29) Function MT_ZdoComplexDescRequest
          CFI (cfiCond29) Conditional ??CrossCallReturnLabel_8
          CFI (cfiCond29) R6 load(1, XDATA, add(CFA_XSP16, literal(-9)))
          CFI (cfiCond29) VB load(1, XDATA, add(CFA_XSP16, literal(-8)))
          CFI (cfiCond29) V0 load(1, XDATA, add(CFA_XSP16, literal(-7)))
          CFI (cfiCond29) R7 load(1, XDATA, add(CFA_XSP16, literal(-6)))
          CFI (cfiCond29) ?RET_LOW load(1, XDATA, add(CFA_XSP16, literal(-5)))
          CFI (cfiCond29) ?RET_HIGH load(1, XDATA, add(CFA_XSP16, literal(-4)))
          CFI (cfiCond29) ?BRET_EXT load(1, XDATA, add(CFA_XSP16, literal(-3)))
          CFI (cfiCond29) DPL0 load(1, XDATA, add(CFA_XSP16, literal(-2)))
          CFI (cfiCond29) DPH0 load(1, XDATA, add(CFA_XSP16, literal(-1)))
          CFI (cfiCond29) CFA_SP SP+-2
          CFI (cfiCond29) CFA_XSP16 add(XSP16, 19)
          CFI Block cfiCond30 Using cfiCommon0
          CFI (cfiCond30) Function MT_ZdoUserDescRequest
          CFI (cfiCond30) Conditional ??CrossCallReturnLabel_9
          CFI (cfiCond30) R6 load(1, XDATA, add(CFA_XSP16, literal(-9)))
          CFI (cfiCond30) VB load(1, XDATA, add(CFA_XSP16, literal(-8)))
          CFI (cfiCond30) V0 load(1, XDATA, add(CFA_XSP16, literal(-7)))
          CFI (cfiCond30) R7 load(1, XDATA, add(CFA_XSP16, literal(-6)))
          CFI (cfiCond30) ?RET_LOW load(1, XDATA, add(CFA_XSP16, literal(-5)))
          CFI (cfiCond30) ?RET_HIGH load(1, XDATA, add(CFA_XSP16, literal(-4)))
          CFI (cfiCond30) ?BRET_EXT load(1, XDATA, add(CFA_XSP16, literal(-3)))
          CFI (cfiCond30) DPL0 load(1, XDATA, add(CFA_XSP16, literal(-2)))
          CFI (cfiCond30) DPH0 load(1, XDATA, add(CFA_XSP16, literal(-1)))
          CFI (cfiCond30) CFA_SP SP+-2
          CFI (cfiCond30) CFA_XSP16 add(XSP16, 19)
          CFI Block cfiCond31 Using cfiCommon0
          CFI (cfiCond31) Function MT_ZdoUserDescSet
          CFI (cfiCond31) Conditional ??CrossCallReturnLabel_10
          CFI (cfiCond31) R6 load(1, XDATA, add(CFA_XSP16, literal(-12)))
          CFI (cfiCond31) VB load(1, XDATA, add(CFA_XSP16, literal(-11)))
          CFI (cfiCond31) V0 load(1, XDATA, add(CFA_XSP16, literal(-10)))
          CFI (cfiCond31) V1 load(1, XDATA, add(CFA_XSP16, literal(-9)))
          CFI (cfiCond31) V2 load(1, XDATA, add(CFA_XSP16, literal(-8)))
          CFI (cfiCond31) V3 load(1, XDATA, add(CFA_XSP16, literal(-7)))
          CFI (cfiCond31) R7 load(1, XDATA, add(CFA_XSP16, literal(-6)))
          CFI (cfiCond31) ?RET_LOW load(1, XDATA, add(CFA_XSP16, literal(-5)))
          CFI (cfiCond31) ?RET_HIGH load(1, XDATA, add(CFA_XSP16, literal(-4)))
          CFI (cfiCond31) ?BRET_EXT load(1, XDATA, add(CFA_XSP16, literal(-3)))
          CFI (cfiCond31) DPL0 load(1, XDATA, add(CFA_XSP16, literal(-2)))
          CFI (cfiCond31) DPH0 load(1, XDATA, add(CFA_XSP16, literal(-1)))
          CFI (cfiCond31) CFA_SP SP+-2
          CFI (cfiCond31) CFA_XSP16 add(XSP16, 39)
          CFI Block cfiPicker32 Using cfiCommon1
          CFI (cfiPicker32) NoFunction
          CFI (cfiPicker32) Picker
        MOV       A,#0x2
        MOVX      @DPTR,A
        MOV       DPL,R2
        LCALL     ??Subroutine60_0 & 0xFFFF
??CrossCallReturnLabel_119:
        MOV       R1,A
        MOV       A,#0x1
        RET
          CFI EndBlock cfiCond25
          CFI EndBlock cfiCond26
          CFI EndBlock cfiCond27
          CFI EndBlock cfiCond28
          CFI EndBlock cfiCond29
          CFI EndBlock cfiCond30
          CFI EndBlock cfiCond31
          CFI EndBlock cfiPicker32

        RSEG BANKED_CODE:HUGECODE:NOROOT(0)
?Subroutine57:
          CFI Block cfiCond33 Using cfiCommon0
          CFI Function MT_ZdoServiceDiscRequest
          CFI Conditional ??CrossCallReturnLabel_120
          CFI R6 load(1, XDATA, add(CFA_XSP16, literal(-9)))
          CFI VB load(1, XDATA, add(CFA_XSP16, literal(-8)))
          CFI V0 load(1, XDATA, add(CFA_XSP16, literal(-7)))
          CFI R7 load(1, XDATA, add(CFA_XSP16, literal(-6)))
          CFI ?RET_LOW load(1, XDATA, add(CFA_XSP16, literal(-5)))
          CFI ?RET_HIGH load(1, XDATA, add(CFA_XSP16, literal(-4)))
          CFI ?BRET_EXT load(1, XDATA, add(CFA_XSP16, literal(-3)))
          CFI DPL0 load(1, XDATA, add(CFA_XSP16, literal(-2)))
          CFI DPH0 load(1, XDATA, add(CFA_XSP16, literal(-1)))
          CFI CFA_SP SP+-2
          CFI CFA_XSP16 add(XSP16, 10)
          CFI Block cfiCond34 Using cfiCommon0
          CFI (cfiCond34) Function MT_ZdoUserDescSet
          CFI (cfiCond34) Conditional ??CrossCallReturnLabel_121, ??CrossCallReturnLabel_100
          CFI (cfiCond34) R6 load(1, XDATA, add(CFA_XSP16, literal(-12)))
          CFI (cfiCond34) VB load(1, XDATA, add(CFA_XSP16, literal(-11)))
          CFI (cfiCond34) V0 load(1, XDATA, add(CFA_XSP16, literal(-10)))
          CFI (cfiCond34) V1 load(1, XDATA, add(CFA_XSP16, literal(-9)))
          CFI (cfiCond34) V2 load(1, XDATA, add(CFA_XSP16, literal(-8)))
          CFI (cfiCond34) V3 load(1, XDATA, add(CFA_XSP16, literal(-7)))
          CFI (cfiCond34) R7 load(1, XDATA, add(CFA_XSP16, literal(-6)))
          CFI (cfiCond34) ?RET_LOW load(1, XDATA, add(CFA_XSP16, literal(-5)))
          CFI (cfiCond34) ?RET_HIGH load(1, XDATA, add(CFA_XSP16, literal(-4)))
          CFI (cfiCond34) ?BRET_EXT load(1, XDATA, add(CFA_XSP16, literal(-3)))
          CFI (cfiCond34) DPL0 load(1, XDATA, add(CFA_XSP16, literal(-2)))
          CFI (cfiCond34) DPH0 load(1, XDATA, add(CFA_XSP16, literal(-1)))
          CFI (cfiCond34) CFA_SP SP+-4
          CFI (cfiCond34) CFA_XSP16 add(XSP16, 39)
          CFI Block cfiCond35 Using cfiCommon0
          CFI (cfiCond35) Function MT_ZdoRegisterForZDOMsg
          CFI (cfiCond35) Conditional ??CrossCallReturnLabel_121, ??CrossCallReturnLabel_101, ??CrossCallReturnLabel_20
          CFI (cfiCond35) R6 load(1, XDATA, add(CFA_XSP16, literal(-9)))
          CFI (cfiCond35) VB load(1, XDATA, add(CFA_XSP16, literal(-8)))
          CFI (cfiCond35) V0 load(1, XDATA, add(CFA_XSP16, literal(-7)))
          CFI (cfiCond35) R7 load(1, XDATA, add(CFA_XSP16, literal(-6)))
          CFI (cfiCond35) ?RET_LOW load(1, XDATA, add(CFA_XSP16, literal(-5)))
          CFI (cfiCond35) ?RET_HIGH load(1, XDATA, add(CFA_XSP16, literal(-4)))
          CFI (cfiCond35) ?BRET_EXT load(1, XDATA, add(CFA_XSP16, literal(-3)))
          CFI (cfiCond35) DPL0 load(1, XDATA, add(CFA_XSP16, literal(-2)))
          CFI (cfiCond35) DPH0 load(1, XDATA, add(CFA_XSP16, literal(-1)))
          CFI (cfiCond35) CFA_SP SP+-6
          CFI (cfiCond35) CFA_XSP16 add(XSP16, 10)
          CFI Block cfiCond36 Using cfiCommon0
          CFI (cfiCond36) Function MT_ZdoRemoveRegisteredCB
          CFI (cfiCond36) Conditional ??CrossCallReturnLabel_121, ??CrossCallReturnLabel_101, ??CrossCallReturnLabel_21
          CFI (cfiCond36) R6 load(1, XDATA, add(CFA_XSP16, literal(-9)))
          CFI (cfiCond36) VB load(1, XDATA, add(CFA_XSP16, literal(-8)))
          CFI (cfiCond36) V0 load(1, XDATA, add(CFA_XSP16, literal(-7)))
          CFI (cfiCond36) R7 load(1, XDATA, add(CFA_XSP16, literal(-6)))
          CFI (cfiCond36) ?RET_LOW load(1, XDATA, add(CFA_XSP16, literal(-5)))
          CFI (cfiCond36) ?RET_HIGH load(1, XDATA, add(CFA_XSP16, literal(-4)))
          CFI (cfiCond36) ?BRET_EXT load(1, XDATA, add(CFA_XSP16, literal(-3)))
          CFI (cfiCond36) DPL0 load(1, XDATA, add(CFA_XSP16, literal(-2)))
          CFI (cfiCond36) DPH0 load(1, XDATA, add(CFA_XSP16, literal(-1)))
          CFI (cfiCond36) CFA_SP SP+-6
          CFI (cfiCond36) CFA_XSP16 add(XSP16, 10)
          CFI Block cfiPicker37 Using cfiCommon1
          CFI (cfiPicker37) NoFunction
          CFI (cfiPicker37) Picker
        MOV       DPL,A
          CFI EndBlock cfiCond33
          CFI EndBlock cfiCond34
          CFI EndBlock cfiCond35
          CFI EndBlock cfiCond36
          CFI EndBlock cfiPicker37
        REQUIRE ??Subroutine60_0
        ; // Fall through to label ??Subroutine60_0

        RSEG BANKED_CODE:HUGECODE:NOROOT(0)
??Subroutine60_0:
          CFI Block cfiCond38 Using cfiCommon0
          CFI Function MT_ZdoNodeDescRequest
          CFI Conditional ??CrossCallReturnLabel_119, ??CrossCallReturnLabel_4
          CFI R6 load(1, XDATA, add(CFA_XSP16, literal(-9)))
          CFI VB load(1, XDATA, add(CFA_XSP16, literal(-8)))
          CFI V0 load(1, XDATA, add(CFA_XSP16, literal(-7)))
          CFI R7 load(1, XDATA, add(CFA_XSP16, literal(-6)))
          CFI ?RET_LOW load(1, XDATA, add(CFA_XSP16, literal(-5)))
          CFI ?RET_HIGH load(1, XDATA, add(CFA_XSP16, literal(-4)))
          CFI ?BRET_EXT load(1, XDATA, add(CFA_XSP16, literal(-3)))
          CFI DPL0 load(1, XDATA, add(CFA_XSP16, literal(-2)))
          CFI DPH0 load(1, XDATA, add(CFA_XSP16, literal(-1)))
          CFI CFA_SP SP+-4
          CFI CFA_XSP16 add(XSP16, 19)
          CFI Block cfiCond39 Using cfiCommon0
          CFI (cfiCond39) Function MT_ZdoPowerDescRequest
          CFI (cfiCond39) Conditional ??CrossCallReturnLabel_119, ??CrossCallReturnLabel_5
          CFI (cfiCond39) R6 load(1, XDATA, add(CFA_XSP16, literal(-9)))
          CFI (cfiCond39) VB load(1, XDATA, add(CFA_XSP16, literal(-8)))
          CFI (cfiCond39) V0 load(1, XDATA, add(CFA_XSP16, literal(-7)))
          CFI (cfiCond39) R7 load(1, XDATA, add(CFA_XSP16, literal(-6)))
          CFI (cfiCond39) ?RET_LOW load(1, XDATA, add(CFA_XSP16, literal(-5)))
          CFI (cfiCond39) ?RET_HIGH load(1, XDATA, add(CFA_XSP16, literal(-4)))
          CFI (cfiCond39) ?BRET_EXT load(1, XDATA, add(CFA_XSP16, literal(-3)))
          CFI (cfiCond39) DPL0 load(1, XDATA, add(CFA_XSP16, literal(-2)))
          CFI (cfiCond39) DPH0 load(1, XDATA, add(CFA_XSP16, literal(-1)))
          CFI (cfiCond39) CFA_SP SP+-4
          CFI (cfiCond39) CFA_XSP16 add(XSP16, 19)
          CFI Block cfiCond40 Using cfiCommon0
          CFI (cfiCond40) Function MT_ZdoSimpleDescRequest
          CFI (cfiCond40) Conditional ??CrossCallReturnLabel_119, ??CrossCallReturnLabel_6
          CFI (cfiCond40) R6 load(1, XDATA, add(CFA_XSP16, literal(-9)))
          CFI (cfiCond40) VB load(1, XDATA, add(CFA_XSP16, literal(-8)))
          CFI (cfiCond40) V0 load(1, XDATA, add(CFA_XSP16, literal(-7)))
          CFI (cfiCond40) R7 load(1, XDATA, add(CFA_XSP16, literal(-6)))
          CFI (cfiCond40) ?RET_LOW load(1, XDATA, add(CFA_XSP16, literal(-5)))
          CFI (cfiCond40) ?RET_HIGH load(1, XDATA, add(CFA_XSP16, literal(-4)))
          CFI (cfiCond40) ?BRET_EXT load(1, XDATA, add(CFA_XSP16, literal(-3)))
          CFI (cfiCond40) DPL0 load(1, XDATA, add(CFA_XSP16, literal(-2)))
          CFI (cfiCond40) DPH0 load(1, XDATA, add(CFA_XSP16, literal(-1)))
          CFI (cfiCond40) CFA_SP SP+-4
          CFI (cfiCond40) CFA_XSP16 add(XSP16, 19)
          CFI Block cfiCond41 Using cfiCommon0
          CFI (cfiCond41) Function MT_ZdoActiveEpRequest
          CFI (cfiCond41) Conditional ??CrossCallReturnLabel_119, ??CrossCallReturnLabel_7
          CFI (cfiCond41) R6 load(1, XDATA, add(CFA_XSP16, literal(-9)))
          CFI (cfiCond41) VB load(1, XDATA, add(CFA_XSP16, literal(-8)))
          CFI (cfiCond41) V0 load(1, XDATA, add(CFA_XSP16, literal(-7)))
          CFI (cfiCond41) R7 load(1, XDATA, add(CFA_XSP16, literal(-6)))
          CFI (cfiCond41) ?RET_LOW load(1, XDATA, add(CFA_XSP16, literal(-5)))
          CFI (cfiCond41) ?RET_HIGH load(1, XDATA, add(CFA_XSP16, literal(-4)))
          CFI (cfiCond41) ?BRET_EXT load(1, XDATA, add(CFA_XSP16, literal(-3)))
          CFI (cfiCond41) DPL0 load(1, XDATA, add(CFA_XSP16, literal(-2)))
          CFI (cfiCond41) DPH0 load(1, XDATA, add(CFA_XSP16, literal(-1)))
          CFI (cfiCond41) CFA_SP SP+-4
          CFI (cfiCond41) CFA_XSP16 add(XSP16, 19)
          CFI Block cfiCond42 Using cfiCommon0
          CFI (cfiCond42) Function MT_ZdoComplexDescRequest
          CFI (cfiCond42) Conditional ??CrossCallReturnLabel_119, ??CrossCallReturnLabel_8
          CFI (cfiCond42) R6 load(1, XDATA, add(CFA_XSP16, literal(-9)))
          CFI (cfiCond42) VB load(1, XDATA, add(CFA_XSP16, literal(-8)))
          CFI (cfiCond42) V0 load(1, XDATA, add(CFA_XSP16, literal(-7)))
          CFI (cfiCond42) R7 load(1, XDATA, add(CFA_XSP16, literal(-6)))
          CFI (cfiCond42) ?RET_LOW load(1, XDATA, add(CFA_XSP16, literal(-5)))
          CFI (cfiCond42) ?RET_HIGH load(1, XDATA, add(CFA_XSP16, literal(-4)))
          CFI (cfiCond42) ?BRET_EXT load(1, XDATA, add(CFA_XSP16, literal(-3)))
          CFI (cfiCond42) DPL0 load(1, XDATA, add(CFA_XSP16, literal(-2)))
          CFI (cfiCond42) DPH0 load(1, XDATA, add(CFA_XSP16, literal(-1)))
          CFI (cfiCond42) CFA_SP SP+-4
          CFI (cfiCond42) CFA_XSP16 add(XSP16, 19)
          CFI Block cfiCond43 Using cfiCommon0
          CFI (cfiCond43) Function MT_ZdoUserDescRequest
          CFI (cfiCond43) Conditional ??CrossCallReturnLabel_119, ??CrossCallReturnLabel_9
          CFI (cfiCond43) R6 load(1, XDATA, add(CFA_XSP16, literal(-9)))
          CFI (cfiCond43) VB load(1, XDATA, add(CFA_XSP16, literal(-8)))
          CFI (cfiCond43) V0 load(1, XDATA, add(CFA_XSP16, literal(-7)))
          CFI (cfiCond43) R7 load(1, XDATA, add(CFA_XSP16, literal(-6)))
          CFI (cfiCond43) ?RET_LOW load(1, XDATA, add(CFA_XSP16, literal(-5)))
          CFI (cfiCond43) ?RET_HIGH load(1, XDATA, add(CFA_XSP16, literal(-4)))
          CFI (cfiCond43) ?BRET_EXT load(1, XDATA, add(CFA_XSP16, literal(-3)))
          CFI (cfiCond43) DPL0 load(1, XDATA, add(CFA_XSP16, literal(-2)))
          CFI (cfiCond43) DPH0 load(1, XDATA, add(CFA_XSP16, literal(-1)))
          CFI (cfiCond43) CFA_SP SP+-4
          CFI (cfiCond43) CFA_XSP16 add(XSP16, 19)
          CFI Block cfiCond44 Using cfiCommon0
          CFI (cfiCond44) Function MT_ZdoUserDescSet
          CFI (cfiCond44) Conditional ??CrossCallReturnLabel_119, ??CrossCallReturnLabel_10
          CFI (cfiCond44) R6 load(1, XDATA, add(CFA_XSP16, literal(-12)))
          CFI (cfiCond44) VB load(1, XDATA, add(CFA_XSP16, literal(-11)))
          CFI (cfiCond44) V0 load(1, XDATA, add(CFA_XSP16, literal(-10)))
          CFI (cfiCond44) V1 load(1, XDATA, add(CFA_XSP16, literal(-9)))
          CFI (cfiCond44) V2 load(1, XDATA, add(CFA_XSP16, literal(-8)))
          CFI (cfiCond44) V3 load(1, XDATA, add(CFA_XSP16, literal(-7)))
          CFI (cfiCond44) R7 load(1, XDATA, add(CFA_XSP16, literal(-6)))
          CFI (cfiCond44) ?RET_LOW load(1, XDATA, add(CFA_XSP16, literal(-5)))
          CFI (cfiCond44) ?RET_HIGH load(1, XDATA, add(CFA_XSP16, literal(-4)))
          CFI (cfiCond44) ?BRET_EXT load(1, XDATA, add(CFA_XSP16, literal(-3)))
          CFI (cfiCond44) DPL0 load(1, XDATA, add(CFA_XSP16, literal(-2)))
          CFI (cfiCond44) DPH0 load(1, XDATA, add(CFA_XSP16, literal(-1)))
          CFI (cfiCond44) CFA_SP SP+-4
          CFI (cfiCond44) CFA_XSP16 add(XSP16, 39)
          CFI Block cfiCond45 Using cfiCommon0
          CFI (cfiCond45) Function MT_ZdoServiceDiscRequest
          CFI (cfiCond45) Conditional ??CrossCallReturnLabel_120
          CFI (cfiCond45) R6 load(1, XDATA, add(CFA_XSP16, literal(-9)))
          CFI (cfiCond45) VB load(1, XDATA, add(CFA_XSP16, literal(-8)))
          CFI (cfiCond45) V0 load(1, XDATA, add(CFA_XSP16, literal(-7)))
          CFI (cfiCond45) R7 load(1, XDATA, add(CFA_XSP16, literal(-6)))
          CFI (cfiCond45) ?RET_LOW load(1, XDATA, add(CFA_XSP16, literal(-5)))
          CFI (cfiCond45) ?RET_HIGH load(1, XDATA, add(CFA_XSP16, literal(-4)))
          CFI (cfiCond45) ?BRET_EXT load(1, XDATA, add(CFA_XSP16, literal(-3)))
          CFI (cfiCond45) DPL0 load(1, XDATA, add(CFA_XSP16, literal(-2)))
          CFI (cfiCond45) DPH0 load(1, XDATA, add(CFA_XSP16, literal(-1)))
          CFI (cfiCond45) CFA_SP SP+-2
          CFI (cfiCond45) CFA_XSP16 add(XSP16, 10)
          CFI Block cfiCond46 Using cfiCommon0
          CFI (cfiCond46) Function MT_ZdoUserDescSet
          CFI (cfiCond46) Conditional ??CrossCallReturnLabel_121, ??CrossCallReturnLabel_100
          CFI (cfiCond46) R6 load(1, XDATA, add(CFA_XSP16, literal(-12)))
          CFI (cfiCond46) VB load(1, XDATA, add(CFA_XSP16, literal(-11)))
          CFI (cfiCond46) V0 load(1, XDATA, add(CFA_XSP16, literal(-10)))
          CFI (cfiCond46) V1 load(1, XDATA, add(CFA_XSP16, literal(-9)))
          CFI (cfiCond46) V2 load(1, XDATA, add(CFA_XSP16, literal(-8)))
          CFI (cfiCond46) V3 load(1, XDATA, add(CFA_XSP16, literal(-7)))
          CFI (cfiCond46) R7 load(1, XDATA, add(CFA_XSP16, literal(-6)))
          CFI (cfiCond46) ?RET_LOW load(1, XDATA, add(CFA_XSP16, literal(-5)))
          CFI (cfiCond46) ?RET_HIGH load(1, XDATA, add(CFA_XSP16, literal(-4)))
          CFI (cfiCond46) ?BRET_EXT load(1, XDATA, add(CFA_XSP16, literal(-3)))
          CFI (cfiCond46) DPL0 load(1, XDATA, add(CFA_XSP16, literal(-2)))
          CFI (cfiCond46) DPH0 load(1, XDATA, add(CFA_XSP16, literal(-1)))
          CFI (cfiCond46) CFA_SP SP+-4
          CFI (cfiCond46) CFA_XSP16 add(XSP16, 39)
          CFI Block cfiCond47 Using cfiCommon0
          CFI (cfiCond47) Function MT_ZdoRegisterForZDOMsg
          CFI (cfiCond47) Conditional ??CrossCallReturnLabel_121, ??CrossCallReturnLabel_101, ??CrossCallReturnLabel_20
          CFI (cfiCond47) R6 load(1, XDATA, add(CFA_XSP16, literal(-9)))
          CFI (cfiCond47) VB load(1, XDATA, add(CFA_XSP16, literal(-8)))
          CFI (cfiCond47) V0 load(1, XDATA, add(CFA_XSP16, literal(-7)))
          CFI (cfiCond47) R7 load(1, XDATA, add(CFA_XSP16, literal(-6)))
          CFI (cfiCond47) ?RET_LOW load(1, XDATA, add(CFA_XSP16, literal(-5)))
          CFI (cfiCond47) ?RET_HIGH load(1, XDATA, add(CFA_XSP16, literal(-4)))
          CFI (cfiCond47) ?BRET_EXT load(1, XDATA, add(CFA_XSP16, literal(-3)))
          CFI (cfiCond47) DPL0 load(1, XDATA, add(CFA_XSP16, literal(-2)))
          CFI (cfiCond47) DPH0 load(1, XDATA, add(CFA_XSP16, literal(-1)))
          CFI (cfiCond47) CFA_SP SP+-6
          CFI (cfiCond47) CFA_XSP16 add(XSP16, 10)
          CFI Block cfiCond48 Using cfiCommon0
          CFI (cfiCond48) Function MT_ZdoRemoveRegisteredCB
          CFI (cfiCond48) Conditional ??CrossCallReturnLabel_121, ??CrossCallReturnLabel_101, ??CrossCallReturnLabel_21
          CFI (cfiCond48) R6 load(1, XDATA, add(CFA_XSP16, literal(-9)))
          CFI (cfiCond48) VB load(1, XDATA, add(CFA_XSP16, literal(-8)))
          CFI (cfiCond48) V0 load(1, XDATA, add(CFA_XSP16, literal(-7)))
          CFI (cfiCond48) R7 load(1, XDATA, add(CFA_XSP16, literal(-6)))
          CFI (cfiCond48) ?RET_LOW load(1, XDATA, add(CFA_XSP16, literal(-5)))
          CFI (cfiCond48) ?RET_HIGH load(1, XDATA, add(CFA_XSP16, literal(-4)))
          CFI (cfiCond48) ?BRET_EXT load(1, XDATA, add(CFA_XSP16, literal(-3)))
          CFI (cfiCond48) DPL0 load(1, XDATA, add(CFA_XSP16, literal(-2)))
          CFI (cfiCond48) DPH0 load(1, XDATA, add(CFA_XSP16, literal(-1)))
          CFI (cfiCond48) CFA_SP SP+-6
          CFI (cfiCond48) CFA_XSP16 add(XSP16, 10)
          CFI Block cfiPicker49 Using cfiCommon1
          CFI (cfiPicker49) NoFunction
          CFI (cfiPicker49) Picker
        MOV       DPH,R3
          CFI EndBlock cfiCond38
          CFI EndBlock cfiCond39
          CFI EndBlock cfiCond40
          CFI EndBlock cfiCond41
          CFI EndBlock cfiCond42
          CFI EndBlock cfiCond43
          CFI EndBlock cfiCond44
          CFI EndBlock cfiCond45
          CFI EndBlock cfiCond46
          CFI EndBlock cfiCond47
          CFI EndBlock cfiCond48
          CFI EndBlock cfiPicker49
        REQUIRE ??Subroutine61_0
        ; // Fall through to label ??Subroutine61_0

        RSEG BANKED_CODE:HUGECODE:NOROOT(0)
??Subroutine61_0:
          CFI Block cfiCond50 Using cfiCommon0
          CFI Function MT_ZdoMatchDescRequest
          CFI Conditional ??CrossCallReturnLabel_116
          CFI R6 load(1, XDATA, add(CFA_XSP16, literal(-14)))
          CFI VB load(1, XDATA, add(CFA_XSP16, literal(-13)))
          CFI V0 load(1, XDATA, add(CFA_XSP16, literal(-12)))
          CFI V1 load(1, XDATA, add(CFA_XSP16, literal(-11)))
          CFI V2 load(1, XDATA, add(CFA_XSP16, literal(-10)))
          CFI V3 load(1, XDATA, add(CFA_XSP16, literal(-9)))
          CFI V4 load(1, XDATA, add(CFA_XSP16, literal(-8)))
          CFI V5 load(1, XDATA, add(CFA_XSP16, literal(-7)))
          CFI R7 load(1, XDATA, add(CFA_XSP16, literal(-6)))
          CFI ?RET_LOW load(1, XDATA, add(CFA_XSP16, literal(-5)))
          CFI ?RET_HIGH load(1, XDATA, add(CFA_XSP16, literal(-4)))
          CFI ?BRET_EXT load(1, XDATA, add(CFA_XSP16, literal(-3)))
          CFI DPL0 load(1, XDATA, add(CFA_XSP16, literal(-2)))
          CFI DPH0 load(1, XDATA, add(CFA_XSP16, literal(-1)))
          CFI CFA_SP SP+-2
          CFI CFA_XSP16 add(XSP16, 88)
          CFI Block cfiCond51 Using cfiCommon0
          CFI (cfiCond51) Function MT_ZdoNodeDescRequest
          CFI (cfiCond51) Conditional ??CrossCallReturnLabel_118, ??CrossCallReturnLabel_93, ??CrossCallReturnLabel_28
          CFI (cfiCond51) R6 load(1, XDATA, add(CFA_XSP16, literal(-9)))
          CFI (cfiCond51) VB load(1, XDATA, add(CFA_XSP16, literal(-8)))
          CFI (cfiCond51) V0 load(1, XDATA, add(CFA_XSP16, literal(-7)))
          CFI (cfiCond51) R7 load(1, XDATA, add(CFA_XSP16, literal(-6)))
          CFI (cfiCond51) ?RET_LOW load(1, XDATA, add(CFA_XSP16, literal(-5)))
          CFI (cfiCond51) ?RET_HIGH load(1, XDATA, add(CFA_XSP16, literal(-4)))
          CFI (cfiCond51) ?BRET_EXT load(1, XDATA, add(CFA_XSP16, literal(-3)))
          CFI (cfiCond51) DPL0 load(1, XDATA, add(CFA_XSP16, literal(-2)))
          CFI (cfiCond51) DPH0 load(1, XDATA, add(CFA_XSP16, literal(-1)))
          CFI (cfiCond51) CFA_SP SP+-6
          CFI (cfiCond51) CFA_XSP16 add(XSP16, 20)
          CFI Block cfiCond52 Using cfiCommon0
          CFI (cfiCond52) Function MT_ZdoMatchDescRequest
          CFI (cfiCond52) Conditional ??CrossCallReturnLabel_118, ??CrossCallReturnLabel_93, ??CrossCallReturnLabel_29
          CFI (cfiCond52) R6 load(1, XDATA, add(CFA_XSP16, literal(-14)))
          CFI (cfiCond52) VB load(1, XDATA, add(CFA_XSP16, literal(-13)))
          CFI (cfiCond52) V0 load(1, XDATA, add(CFA_XSP16, literal(-12)))
          CFI (cfiCond52) V1 load(1, XDATA, add(CFA_XSP16, literal(-11)))
          CFI (cfiCond52) V2 load(1, XDATA, add(CFA_XSP16, literal(-10)))
          CFI (cfiCond52) V3 load(1, XDATA, add(CFA_XSP16, literal(-9)))
          CFI (cfiCond52) V4 load(1, XDATA, add(CFA_XSP16, literal(-8)))
          CFI (cfiCond52) V5 load(1, XDATA, add(CFA_XSP16, literal(-7)))
          CFI (cfiCond52) R7 load(1, XDATA, add(CFA_XSP16, literal(-6)))
          CFI (cfiCond52) ?RET_LOW load(1, XDATA, add(CFA_XSP16, literal(-5)))
          CFI (cfiCond52) ?RET_HIGH load(1, XDATA, add(CFA_XSP16, literal(-4)))
          CFI (cfiCond52) ?BRET_EXT load(1, XDATA, add(CFA_XSP16, literal(-3)))
          CFI (cfiCond52) DPL0 load(1, XDATA, add(CFA_XSP16, literal(-2)))
          CFI (cfiCond52) DPH0 load(1, XDATA, add(CFA_XSP16, literal(-1)))
          CFI (cfiCond52) CFA_SP SP+-6
          CFI (cfiCond52) CFA_XSP16 add(XSP16, 88)
          CFI Block cfiCond53 Using cfiCommon0
          CFI (cfiCond53) Function MT_ZdoSimpleDescRequest
          CFI (cfiCond53) Conditional ??CrossCallReturnLabel_118, ??CrossCallReturnLabel_92, ??CrossCallReturnLabel_22
          CFI (cfiCond53) R6 load(1, XDATA, add(CFA_XSP16, literal(-9)))
          CFI (cfiCond53) VB load(1, XDATA, add(CFA_XSP16, literal(-8)))
          CFI (cfiCond53) V0 load(1, XDATA, add(CFA_XSP16, literal(-7)))
          CFI (cfiCond53) R7 load(1, XDATA, add(CFA_XSP16, literal(-6)))
          CFI (cfiCond53) ?RET_LOW load(1, XDATA, add(CFA_XSP16, literal(-5)))
          CFI (cfiCond53) ?RET_HIGH load(1, XDATA, add(CFA_XSP16, literal(-4)))
          CFI (cfiCond53) ?BRET_EXT load(1, XDATA, add(CFA_XSP16, literal(-3)))
          CFI (cfiCond53) DPL0 load(1, XDATA, add(CFA_XSP16, literal(-2)))
          CFI (cfiCond53) DPH0 load(1, XDATA, add(CFA_XSP16, literal(-1)))
          CFI (cfiCond53) CFA_SP SP+-6
          CFI (cfiCond53) CFA_XSP16 add(XSP16, 20)
          CFI Block cfiCond54 Using cfiCommon0
          CFI (cfiCond54) Function MT_ZdoPowerDescRequest
          CFI (cfiCond54) Conditional ??CrossCallReturnLabel_118, ??CrossCallReturnLabel_92, ??CrossCallReturnLabel_23
          CFI (cfiCond54) R6 load(1, XDATA, add(CFA_XSP16, literal(-9)))
          CFI (cfiCond54) VB load(1, XDATA, add(CFA_XSP16, literal(-8)))
          CFI (cfiCond54) V0 load(1, XDATA, add(CFA_XSP16, literal(-7)))
          CFI (cfiCond54) R7 load(1, XDATA, add(CFA_XSP16, literal(-6)))
          CFI (cfiCond54) ?RET_LOW load(1, XDATA, add(CFA_XSP16, literal(-5)))
          CFI (cfiCond54) ?RET_HIGH load(1, XDATA, add(CFA_XSP16, literal(-4)))
          CFI (cfiCond54) ?BRET_EXT load(1, XDATA, add(CFA_XSP16, literal(-3)))
          CFI (cfiCond54) DPL0 load(1, XDATA, add(CFA_XSP16, literal(-2)))
          CFI (cfiCond54) DPH0 load(1, XDATA, add(CFA_XSP16, literal(-1)))
          CFI (cfiCond54) CFA_SP SP+-6
          CFI (cfiCond54) CFA_XSP16 add(XSP16, 20)
          CFI Block cfiCond55 Using cfiCommon0
          CFI (cfiCond55) Function MT_ZdoActiveEpRequest
          CFI (cfiCond55) Conditional ??CrossCallReturnLabel_118, ??CrossCallReturnLabel_92, ??CrossCallReturnLabel_23
          CFI (cfiCond55) R6 load(1, XDATA, add(CFA_XSP16, literal(-9)))
          CFI (cfiCond55) VB load(1, XDATA, add(CFA_XSP16, literal(-8)))
          CFI (cfiCond55) V0 load(1, XDATA, add(CFA_XSP16, literal(-7)))
          CFI (cfiCond55) R7 load(1, XDATA, add(CFA_XSP16, literal(-6)))
          CFI (cfiCond55) ?RET_LOW load(1, XDATA, add(CFA_XSP16, literal(-5)))
          CFI (cfiCond55) ?RET_HIGH load(1, XDATA, add(CFA_XSP16, literal(-4)))
          CFI (cfiCond55) ?BRET_EXT load(1, XDATA, add(CFA_XSP16, literal(-3)))
          CFI (cfiCond55) DPL0 load(1, XDATA, add(CFA_XSP16, literal(-2)))
          CFI (cfiCond55) DPH0 load(1, XDATA, add(CFA_XSP16, literal(-1)))
          CFI (cfiCond55) CFA_SP SP+-6
          CFI (cfiCond55) CFA_XSP16 add(XSP16, 20)
          CFI Block cfiCond56 Using cfiCommon0
          CFI (cfiCond56) Function MT_ZdoComplexDescRequest
          CFI (cfiCond56) Conditional ??CrossCallReturnLabel_118, ??CrossCallReturnLabel_92, ??CrossCallReturnLabel_23
          CFI (cfiCond56) R6 load(1, XDATA, add(CFA_XSP16, literal(-9)))
          CFI (cfiCond56) VB load(1, XDATA, add(CFA_XSP16, literal(-8)))
          CFI (cfiCond56) V0 load(1, XDATA, add(CFA_XSP16, literal(-7)))
          CFI (cfiCond56) R7 load(1, XDATA, add(CFA_XSP16, literal(-6)))
          CFI (cfiCond56) ?RET_LOW load(1, XDATA, add(CFA_XSP16, literal(-5)))
          CFI (cfiCond56) ?RET_HIGH load(1, XDATA, add(CFA_XSP16, literal(-4)))
          CFI (cfiCond56) ?BRET_EXT load(1, XDATA, add(CFA_XSP16, literal(-3)))
          CFI (cfiCond56) DPL0 load(1, XDATA, add(CFA_XSP16, literal(-2)))
          CFI (cfiCond56) DPH0 load(1, XDATA, add(CFA_XSP16, literal(-1)))
          CFI (cfiCond56) CFA_SP SP+-6
          CFI (cfiCond56) CFA_XSP16 add(XSP16, 20)
          CFI Block cfiCond57 Using cfiCommon0
          CFI (cfiCond57) Function MT_ZdoUserDescRequest
          CFI (cfiCond57) Conditional ??CrossCallReturnLabel_118, ??CrossCallReturnLabel_92, ??CrossCallReturnLabel_23
          CFI (cfiCond57) R6 load(1, XDATA, add(CFA_XSP16, literal(-9)))
          CFI (cfiCond57) VB load(1, XDATA, add(CFA_XSP16, literal(-8)))
          CFI (cfiCond57) V0 load(1, XDATA, add(CFA_XSP16, literal(-7)))
          CFI (cfiCond57) R7 load(1, XDATA, add(CFA_XSP16, literal(-6)))
          CFI (cfiCond57) ?RET_LOW load(1, XDATA, add(CFA_XSP16, literal(-5)))
          CFI (cfiCond57) ?RET_HIGH load(1, XDATA, add(CFA_XSP16, literal(-4)))
          CFI (cfiCond57) ?BRET_EXT load(1, XDATA, add(CFA_XSP16, literal(-3)))
          CFI (cfiCond57) DPL0 load(1, XDATA, add(CFA_XSP16, literal(-2)))
          CFI (cfiCond57) DPH0 load(1, XDATA, add(CFA_XSP16, literal(-1)))
          CFI (cfiCond57) CFA_SP SP+-6
          CFI (cfiCond57) CFA_XSP16 add(XSP16, 20)
          CFI Block cfiCond58 Using cfiCommon0
          CFI (cfiCond58) Function MT_ZdoBeaconIndCB
          CFI (cfiCond58) Conditional ??CrossCallReturnLabel_117, ??CrossCallReturnLabel_2
          CFI (cfiCond58) R6 load(1, XDATA, add(CFA_XSP16, literal(-11)))
          CFI (cfiCond58) VB load(1, XDATA, add(CFA_XSP16, literal(-10)))
          CFI (cfiCond58) V0 load(1, XDATA, add(CFA_XSP16, literal(-9)))
          CFI (cfiCond58) V1 load(1, XDATA, add(CFA_XSP16, literal(-8)))
          CFI (cfiCond58) V2 load(1, XDATA, add(CFA_XSP16, literal(-7)))
          CFI (cfiCond58) R7 load(1, XDATA, add(CFA_XSP16, literal(-6)))
          CFI (cfiCond58) ?RET_LOW load(1, XDATA, add(CFA_XSP16, literal(-5)))
          CFI (cfiCond58) ?RET_HIGH load(1, XDATA, add(CFA_XSP16, literal(-4)))
          CFI (cfiCond58) ?BRET_EXT load(1, XDATA, add(CFA_XSP16, literal(-3)))
          CFI (cfiCond58) DPL0 load(1, XDATA, add(CFA_XSP16, literal(-2)))
          CFI (cfiCond58) DPH0 load(1, XDATA, add(CFA_XSP16, literal(-1)))
          CFI (cfiCond58) CFA_SP SP+-4
          CFI (cfiCond58) CFA_XSP16 add(XSP16, 11)
          CFI Block cfiCond59 Using cfiCommon0
          CFI (cfiCond59) Function MT_ZdoBeaconIndCB
          CFI (cfiCond59) Conditional ??CrossCallReturnLabel_117, ??CrossCallReturnLabel_3
          CFI (cfiCond59) R6 load(1, XDATA, add(CFA_XSP16, literal(-11)))
          CFI (cfiCond59) VB load(1, XDATA, add(CFA_XSP16, literal(-10)))
          CFI (cfiCond59) V0 load(1, XDATA, add(CFA_XSP16, literal(-9)))
          CFI (cfiCond59) V1 load(1, XDATA, add(CFA_XSP16, literal(-8)))
          CFI (cfiCond59) V2 load(1, XDATA, add(CFA_XSP16, literal(-7)))
          CFI (cfiCond59) R7 load(1, XDATA, add(CFA_XSP16, literal(-6)))
          CFI (cfiCond59) ?RET_LOW load(1, XDATA, add(CFA_XSP16, literal(-5)))
          CFI (cfiCond59) ?RET_HIGH load(1, XDATA, add(CFA_XSP16, literal(-4)))
          CFI (cfiCond59) ?BRET_EXT load(1, XDATA, add(CFA_XSP16, literal(-3)))
          CFI (cfiCond59) DPL0 load(1, XDATA, add(CFA_XSP16, literal(-2)))
          CFI (cfiCond59) DPH0 load(1, XDATA, add(CFA_XSP16, literal(-1)))
          CFI (cfiCond59) CFA_SP SP+-4
          CFI (cfiCond59) CFA_XSP16 add(XSP16, 11)
          CFI Block cfiCond60 Using cfiCommon0
          CFI (cfiCond60) Function MT_ZdoNodeDescRequest
          CFI (cfiCond60) Conditional ??CrossCallReturnLabel_119, ??CrossCallReturnLabel_4
          CFI (cfiCond60) R6 load(1, XDATA, add(CFA_XSP16, literal(-9)))
          CFI (cfiCond60) VB load(1, XDATA, add(CFA_XSP16, literal(-8)))
          CFI (cfiCond60) V0 load(1, XDATA, add(CFA_XSP16, literal(-7)))
          CFI (cfiCond60) R7 load(1, XDATA, add(CFA_XSP16, literal(-6)))
          CFI (cfiCond60) ?RET_LOW load(1, XDATA, add(CFA_XSP16, literal(-5)))
          CFI (cfiCond60) ?RET_HIGH load(1, XDATA, add(CFA_XSP16, literal(-4)))
          CFI (cfiCond60) ?BRET_EXT load(1, XDATA, add(CFA_XSP16, literal(-3)))
          CFI (cfiCond60) DPL0 load(1, XDATA, add(CFA_XSP16, literal(-2)))
          CFI (cfiCond60) DPH0 load(1, XDATA, add(CFA_XSP16, literal(-1)))
          CFI (cfiCond60) CFA_SP SP+-4
          CFI (cfiCond60) CFA_XSP16 add(XSP16, 19)
          CFI Block cfiCond61 Using cfiCommon0
          CFI (cfiCond61) Function MT_ZdoPowerDescRequest
          CFI (cfiCond61) Conditional ??CrossCallReturnLabel_119, ??CrossCallReturnLabel_5
          CFI (cfiCond61) R6 load(1, XDATA, add(CFA_XSP16, literal(-9)))
          CFI (cfiCond61) VB load(1, XDATA, add(CFA_XSP16, literal(-8)))
          CFI (cfiCond61) V0 load(1, XDATA, add(CFA_XSP16, literal(-7)))
          CFI (cfiCond61) R7 load(1, XDATA, add(CFA_XSP16, literal(-6)))
          CFI (cfiCond61) ?RET_LOW load(1, XDATA, add(CFA_XSP16, literal(-5)))
          CFI (cfiCond61) ?RET_HIGH load(1, XDATA, add(CFA_XSP16, literal(-4)))
          CFI (cfiCond61) ?BRET_EXT load(1, XDATA, add(CFA_XSP16, literal(-3)))
          CFI (cfiCond61) DPL0 load(1, XDATA, add(CFA_XSP16, literal(-2)))
          CFI (cfiCond61) DPH0 load(1, XDATA, add(CFA_XSP16, literal(-1)))
          CFI (cfiCond61) CFA_SP SP+-4
          CFI (cfiCond61) CFA_XSP16 add(XSP16, 19)
          CFI Block cfiCond62 Using cfiCommon0
          CFI (cfiCond62) Function MT_ZdoSimpleDescRequest
          CFI (cfiCond62) Conditional ??CrossCallReturnLabel_119, ??CrossCallReturnLabel_6
          CFI (cfiCond62) R6 load(1, XDATA, add(CFA_XSP16, literal(-9)))
          CFI (cfiCond62) VB load(1, XDATA, add(CFA_XSP16, literal(-8)))
          CFI (cfiCond62) V0 load(1, XDATA, add(CFA_XSP16, literal(-7)))
          CFI (cfiCond62) R7 load(1, XDATA, add(CFA_XSP16, literal(-6)))
          CFI (cfiCond62) ?RET_LOW load(1, XDATA, add(CFA_XSP16, literal(-5)))
          CFI (cfiCond62) ?RET_HIGH load(1, XDATA, add(CFA_XSP16, literal(-4)))
          CFI (cfiCond62) ?BRET_EXT load(1, XDATA, add(CFA_XSP16, literal(-3)))
          CFI (cfiCond62) DPL0 load(1, XDATA, add(CFA_XSP16, literal(-2)))
          CFI (cfiCond62) DPH0 load(1, XDATA, add(CFA_XSP16, literal(-1)))
          CFI (cfiCond62) CFA_SP SP+-4
          CFI (cfiCond62) CFA_XSP16 add(XSP16, 19)
          CFI Block cfiCond63 Using cfiCommon0
          CFI (cfiCond63) Function MT_ZdoActiveEpRequest
          CFI (cfiCond63) Conditional ??CrossCallReturnLabel_119, ??CrossCallReturnLabel_7
          CFI (cfiCond63) R6 load(1, XDATA, add(CFA_XSP16, literal(-9)))
          CFI (cfiCond63) VB load(1, XDATA, add(CFA_XSP16, literal(-8)))
          CFI (cfiCond63) V0 load(1, XDATA, add(CFA_XSP16, literal(-7)))
          CFI (cfiCond63) R7 load(1, XDATA, add(CFA_XSP16, literal(-6)))
          CFI (cfiCond63) ?RET_LOW load(1, XDATA, add(CFA_XSP16, literal(-5)))
          CFI (cfiCond63) ?RET_HIGH load(1, XDATA, add(CFA_XSP16, literal(-4)))
          CFI (cfiCond63) ?BRET_EXT load(1, XDATA, add(CFA_XSP16, literal(-3)))
          CFI (cfiCond63) DPL0 load(1, XDATA, add(CFA_XSP16, literal(-2)))
          CFI (cfiCond63) DPH0 load(1, XDATA, add(CFA_XSP16, literal(-1)))
          CFI (cfiCond63) CFA_SP SP+-4
          CFI (cfiCond63) CFA_XSP16 add(XSP16, 19)
          CFI Block cfiCond64 Using cfiCommon0
          CFI (cfiCond64) Function MT_ZdoComplexDescRequest
          CFI (cfiCond64) Conditional ??CrossCallReturnLabel_119, ??CrossCallReturnLabel_8
          CFI (cfiCond64) R6 load(1, XDATA, add(CFA_XSP16, literal(-9)))
          CFI (cfiCond64) VB load(1, XDATA, add(CFA_XSP16, literal(-8)))
          CFI (cfiCond64) V0 load(1, XDATA, add(CFA_XSP16, literal(-7)))
          CFI (cfiCond64) R7 load(1, XDATA, add(CFA_XSP16, literal(-6)))
          CFI (cfiCond64) ?RET_LOW load(1, XDATA, add(CFA_XSP16, literal(-5)))
          CFI (cfiCond64) ?RET_HIGH load(1, XDATA, add(CFA_XSP16, literal(-4)))
          CFI (cfiCond64) ?BRET_EXT load(1, XDATA, add(CFA_XSP16, literal(-3)))
          CFI (cfiCond64) DPL0 load(1, XDATA, add(CFA_XSP16, literal(-2)))
          CFI (cfiCond64) DPH0 load(1, XDATA, add(CFA_XSP16, literal(-1)))
          CFI (cfiCond64) CFA_SP SP+-4
          CFI (cfiCond64) CFA_XSP16 add(XSP16, 19)
          CFI Block cfiCond65 Using cfiCommon0
          CFI (cfiCond65) Function MT_ZdoUserDescRequest
          CFI (cfiCond65) Conditional ??CrossCallReturnLabel_119, ??CrossCallReturnLabel_9
          CFI (cfiCond65) R6 load(1, XDATA, add(CFA_XSP16, literal(-9)))
          CFI (cfiCond65) VB load(1, XDATA, add(CFA_XSP16, literal(-8)))
          CFI (cfiCond65) V0 load(1, XDATA, add(CFA_XSP16, literal(-7)))
          CFI (cfiCond65) R7 load(1, XDATA, add(CFA_XSP16, literal(-6)))
          CFI (cfiCond65) ?RET_LOW load(1, XDATA, add(CFA_XSP16, literal(-5)))
          CFI (cfiCond65) ?RET_HIGH load(1, XDATA, add(CFA_XSP16, literal(-4)))
          CFI (cfiCond65) ?BRET_EXT load(1, XDATA, add(CFA_XSP16, literal(-3)))
          CFI (cfiCond65) DPL0 load(1, XDATA, add(CFA_XSP16, literal(-2)))
          CFI (cfiCond65) DPH0 load(1, XDATA, add(CFA_XSP16, literal(-1)))
          CFI (cfiCond65) CFA_SP SP+-4
          CFI (cfiCond65) CFA_XSP16 add(XSP16, 19)
          CFI Block cfiCond66 Using cfiCommon0
          CFI (cfiCond66) Function MT_ZdoUserDescSet
          CFI (cfiCond66) Conditional ??CrossCallReturnLabel_119, ??CrossCallReturnLabel_10
          CFI (cfiCond66) R6 load(1, XDATA, add(CFA_XSP16, literal(-12)))
          CFI (cfiCond66) VB load(1, XDATA, add(CFA_XSP16, literal(-11)))
          CFI (cfiCond66) V0 load(1, XDATA, add(CFA_XSP16, literal(-10)))
          CFI (cfiCond66) V1 load(1, XDATA, add(CFA_XSP16, literal(-9)))
          CFI (cfiCond66) V2 load(1, XDATA, add(CFA_XSP16, literal(-8)))
          CFI (cfiCond66) V3 load(1, XDATA, add(CFA_XSP16, literal(-7)))
          CFI (cfiCond66) R7 load(1, XDATA, add(CFA_XSP16, literal(-6)))
          CFI (cfiCond66) ?RET_LOW load(1, XDATA, add(CFA_XSP16, literal(-5)))
          CFI (cfiCond66) ?RET_HIGH load(1, XDATA, add(CFA_XSP16, literal(-4)))
          CFI (cfiCond66) ?BRET_EXT load(1, XDATA, add(CFA_XSP16, literal(-3)))
          CFI (cfiCond66) DPL0 load(1, XDATA, add(CFA_XSP16, literal(-2)))
          CFI (cfiCond66) DPH0 load(1, XDATA, add(CFA_XSP16, literal(-1)))
          CFI (cfiCond66) CFA_SP SP+-4
          CFI (cfiCond66) CFA_XSP16 add(XSP16, 39)
          CFI Block cfiCond67 Using cfiCommon0
          CFI (cfiCond67) Function MT_ZdoServiceDiscRequest
          CFI (cfiCond67) Conditional ??CrossCallReturnLabel_120
          CFI (cfiCond67) R6 load(1, XDATA, add(CFA_XSP16, literal(-9)))
          CFI (cfiCond67) VB load(1, XDATA, add(CFA_XSP16, literal(-8)))
          CFI (cfiCond67) V0 load(1, XDATA, add(CFA_XSP16, literal(-7)))
          CFI (cfiCond67) R7 load(1, XDATA, add(CFA_XSP16, literal(-6)))
          CFI (cfiCond67) ?RET_LOW load(1, XDATA, add(CFA_XSP16, literal(-5)))
          CFI (cfiCond67) ?RET_HIGH load(1, XDATA, add(CFA_XSP16, literal(-4)))
          CFI (cfiCond67) ?BRET_EXT load(1, XDATA, add(CFA_XSP16, literal(-3)))
          CFI (cfiCond67) DPL0 load(1, XDATA, add(CFA_XSP16, literal(-2)))
          CFI (cfiCond67) DPH0 load(1, XDATA, add(CFA_XSP16, literal(-1)))
          CFI (cfiCond67) CFA_SP SP+-2
          CFI (cfiCond67) CFA_XSP16 add(XSP16, 10)
          CFI Block cfiCond68 Using cfiCommon0
          CFI (cfiCond68) Function MT_ZdoUserDescSet
          CFI (cfiCond68) Conditional ??CrossCallReturnLabel_121, ??CrossCallReturnLabel_100
          CFI (cfiCond68) R6 load(1, XDATA, add(CFA_XSP16, literal(-12)))
          CFI (cfiCond68) VB load(1, XDATA, add(CFA_XSP16, literal(-11)))
          CFI (cfiCond68) V0 load(1, XDATA, add(CFA_XSP16, literal(-10)))
          CFI (cfiCond68) V1 load(1, XDATA, add(CFA_XSP16, literal(-9)))
          CFI (cfiCond68) V2 load(1, XDATA, add(CFA_XSP16, literal(-8)))
          CFI (cfiCond68) V3 load(1, XDATA, add(CFA_XSP16, literal(-7)))
          CFI (cfiCond68) R7 load(1, XDATA, add(CFA_XSP16, literal(-6)))
          CFI (cfiCond68) ?RET_LOW load(1, XDATA, add(CFA_XSP16, literal(-5)))
          CFI (cfiCond68) ?RET_HIGH load(1, XDATA, add(CFA_XSP16, literal(-4)))
          CFI (cfiCond68) ?BRET_EXT load(1, XDATA, add(CFA_XSP16, literal(-3)))
          CFI (cfiCond68) DPL0 load(1, XDATA, add(CFA_XSP16, literal(-2)))
          CFI (cfiCond68) DPH0 load(1, XDATA, add(CFA_XSP16, literal(-1)))
          CFI (cfiCond68) CFA_SP SP+-4
          CFI (cfiCond68) CFA_XSP16 add(XSP16, 39)
          CFI Block cfiCond69 Using cfiCommon0
          CFI (cfiCond69) Function MT_ZdoRegisterForZDOMsg
          CFI (cfiCond69) Conditional ??CrossCallReturnLabel_121, ??CrossCallReturnLabel_101, ??CrossCallReturnLabel_20
          CFI (cfiCond69) R6 load(1, XDATA, add(CFA_XSP16, literal(-9)))
          CFI (cfiCond69) VB load(1, XDATA, add(CFA_XSP16, literal(-8)))
          CFI (cfiCond69) V0 load(1, XDATA, add(CFA_XSP16, literal(-7)))
          CFI (cfiCond69) R7 load(1, XDATA, add(CFA_XSP16, literal(-6)))
          CFI (cfiCond69) ?RET_LOW load(1, XDATA, add(CFA_XSP16, literal(-5)))
          CFI (cfiCond69) ?RET_HIGH load(1, XDATA, add(CFA_XSP16, literal(-4)))
          CFI (cfiCond69) ?BRET_EXT load(1, XDATA, add(CFA_XSP16, literal(-3)))
          CFI (cfiCond69) DPL0 load(1, XDATA, add(CFA_XSP16, literal(-2)))
          CFI (cfiCond69) DPH0 load(1, XDATA, add(CFA_XSP16, literal(-1)))
          CFI (cfiCond69) CFA_SP SP+-6
          CFI (cfiCond69) CFA_XSP16 add(XSP16, 10)
          CFI Block cfiCond70 Using cfiCommon0
          CFI (cfiCond70) Function MT_ZdoRemoveRegisteredCB
          CFI (cfiCond70) Conditional ??CrossCallReturnLabel_121, ??CrossCallReturnLabel_101, ??CrossCallReturnLabel_21
          CFI (cfiCond70) R6 load(1, XDATA, add(CFA_XSP16, literal(-9)))
          CFI (cfiCond70) VB load(1, XDATA, add(CFA_XSP16, literal(-8)))
          CFI (cfiCond70) V0 load(1, XDATA, add(CFA_XSP16, literal(-7)))
          CFI (cfiCond70) R7 load(1, XDATA, add(CFA_XSP16, literal(-6)))
          CFI (cfiCond70) ?RET_LOW load(1, XDATA, add(CFA_XSP16, literal(-5)))
          CFI (cfiCond70) ?RET_HIGH load(1, XDATA, add(CFA_XSP16, literal(-4)))
          CFI (cfiCond70) ?BRET_EXT load(1, XDATA, add(CFA_XSP16, literal(-3)))
          CFI (cfiCond70) DPL0 load(1, XDATA, add(CFA_XSP16, literal(-2)))
          CFI (cfiCond70) DPH0 load(1, XDATA, add(CFA_XSP16, literal(-1)))
          CFI (cfiCond70) CFA_SP SP+-6
          CFI (cfiCond70) CFA_XSP16 add(XSP16, 10)
          CFI Block cfiPicker71 Using cfiCommon1
          CFI (cfiPicker71) NoFunction
          CFI (cfiPicker71) Picker
        MOVX      A,@DPTR
        MOV       R4,A
        INC       DPTR
        MOVX      A,@DPTR
        RET
          CFI EndBlock cfiCond50
          CFI EndBlock cfiCond51
          CFI EndBlock cfiCond52
          CFI EndBlock cfiCond53
          CFI EndBlock cfiCond54
          CFI EndBlock cfiCond55
          CFI EndBlock cfiCond56
          CFI EndBlock cfiCond57
          CFI EndBlock cfiCond58
          CFI EndBlock cfiCond59
          CFI EndBlock cfiCond60
          CFI EndBlock cfiCond61
          CFI EndBlock cfiCond62
          CFI EndBlock cfiCond63
          CFI EndBlock cfiCond64
          CFI EndBlock cfiCond65
          CFI EndBlock cfiCond66
          CFI EndBlock cfiCond67
          CFI EndBlock cfiCond68
          CFI EndBlock cfiCond69
          CFI EndBlock cfiCond70
          CFI EndBlock cfiPicker71
//  589 
//  590 /***************************************************************************************************
//  591  * @fn      MT_ZdoMatchDescRequest
//  592  *
//  593  * @brief   Handle a Match Descriptor request.
//  594  *
//  595  * @param   pBuf  - MT message data
//  596  *
//  597  * @return  void
//  598  ***************************************************************************************************/

        RSEG BANKED_CODE:HUGECODE:NOROOT(0)
//  599 void MT_ZdoMatchDescRequest(uint8 *pBuf)
MT_ZdoMatchDescRequest:
          CFI Block cfiBlock72 Using cfiCommon0
          CFI Function MT_ZdoMatchDescRequest
        CODE
//  600 {
        FUNCALL MT_ZdoMatchDescRequest, ZDP_MatchDescReq
        LOCFRAME ISTACK, 0, STACK
        LOCFRAME PSTACK, 0, STACK
        LOCFRAME XSTACK, 96, STACK
        LOCFRAME IOVERLAY, 0, STATIC
        LOCFRAME DOVERLAY, 0, STATIC
        ARGFRAME ISTACK, 0, STACK
        ARGFRAME PSTACK, 0, STACK
        ARGFRAME XSTACK, 96, STACK
        ARGFRAME IOVERLAY, 0, STATIC
        ARGFRAME DOVERLAY, 0, STATIC
        FUNCALL MT_ZdoMatchDescRequest, MT_BuildAndSendZToolResponse
        LOCFRAME ISTACK, 0, STACK
        LOCFRAME PSTACK, 0, STACK
        LOCFRAME XSTACK, 88, STACK
        LOCFRAME IOVERLAY, 0, STATIC
        LOCFRAME DOVERLAY, 0, STATIC
        ARGFRAME ISTACK, 0, STACK
        ARGFRAME PSTACK, 0, STACK
        ARGFRAME XSTACK, 88, STACK
        ARGFRAME IOVERLAY, 0, STATIC
        ARGFRAME DOVERLAY, 0, STATIC
        REQUIRE ?V0
        REQUIRE ?V1
        REQUIRE ?V2
        REQUIRE ?V3
        REQUIRE ?V4
        REQUIRE ?V5
        MOV       A,#-0xe
        LCALL     ?BANKED_ENTER_XDATA
          CFI DPH0 load(1, XDATA, add(CFA_XSP16, literal(-1)))
          CFI DPL0 load(1, XDATA, add(CFA_XSP16, literal(-2)))
          CFI ?BRET_EXT load(1, XDATA, add(CFA_XSP16, literal(-3)))
          CFI ?RET_HIGH load(1, XDATA, add(CFA_XSP16, literal(-4)))
          CFI ?RET_LOW load(1, XDATA, add(CFA_XSP16, literal(-5)))
          CFI R7 load(1, XDATA, add(CFA_XSP16, literal(-6)))
          CFI V5 load(1, XDATA, add(CFA_XSP16, literal(-7)))
          CFI V4 load(1, XDATA, add(CFA_XSP16, literal(-8)))
          CFI V3 load(1, XDATA, add(CFA_XSP16, literal(-9)))
          CFI V2 load(1, XDATA, add(CFA_XSP16, literal(-10)))
          CFI V1 load(1, XDATA, add(CFA_XSP16, literal(-11)))
          CFI V0 load(1, XDATA, add(CFA_XSP16, literal(-12)))
          CFI VB load(1, XDATA, add(CFA_XSP16, literal(-13)))
          CFI R6 load(1, XDATA, add(CFA_XSP16, literal(-14)))
          CFI CFA_SP SP+0
          CFI CFA_XSP16 add(XSP16, 14)
        ; Saved register size: 14
        ; Auto size: 74
        MOV       A,#-0x4a
        LCALL     ?ALLOC_XSTACK8
          CFI CFA_XSP16 add(XSP16, 88)
        MOV       A,R3
        MOV       R1,A
//  601   uint8 cmdId;
//  602   uint8 retValue = 0;
        MOV       DPL,?XSP + 0
        MOV       DPH,?XSP + 1
        CLR       A
        MOVX      @DPTR,A
//  603   uint8 i, numInClusters, numOutClusters;
//  604   uint16 profileId;
//  605   zAddrType_t destAddr;
//  606   uint16 shortAddr;
//  607   uint16 inClusters[MTZDO_MAX_MATCH_CLUSTERS], outClusters[MTZDO_MAX_MATCH_CLUSTERS];
//  608 
//  609   /* parse header */
//  610   cmdId = pBuf[MT_RPC_POS_CMD1];
        LCALL     ??Subroutine62_0 & 0xFFFF
//  611   pBuf += MT_RPC_FRAME_HDR_SZ;
??CrossCallReturnLabel_125:
        MOV       R0,A
        JNC       ??MT_ZdoMatchDescRequest_0
        INC       R1
//  612 
//  613   /* Dev address */
//  614   destAddr.addrMode = Addr16Bit;
??MT_ZdoMatchDescRequest_0:
        MOV       A,#0x9
        LCALL     ?XSTACK_DISP0_8
        MOV       A,#0x2
        LCALL     ?Subroutine36 & 0xFFFF
//  615   destAddr.addr.shortAddr = BUILD_UINT16( pBuf[0], pBuf[1] );
??CrossCallReturnLabel_66:
        LCALL     ??Subroutine61_0 & 0xFFFF
??CrossCallReturnLabel_116:
        MOV       R3,A
        MOV       A,#0x1
        LCALL     ?XSTACK_DISP0_8
        MOV       A,R4
        MOVX      @DPTR,A
        INC       DPTR
        MOV       A,R3
        MOVX      @DPTR,A
//  616   pBuf += 2;
        MOV       A,R0
        ADD       A,#0x2
        MOV       R0,A
        JNC       ??MT_ZdoMatchDescRequest_1
        INC       R1
//  617 
//  618   /* Network address of interest */
//  619   shortAddr = BUILD_UINT16( pBuf[0], pBuf[1] );
??MT_ZdoMatchDescRequest_1:
        MOV       DPL,A
        MOV       DPH,R1
        LCALL     ?Subroutine16 & 0xFFFF
//  620   pBuf += 2;
??CrossCallReturnLabel_29:
        MOV       A,R0
        ADD       A,#0x2
        MOV       R0,A
        JNC       ??MT_ZdoMatchDescRequest_2
        INC       R1
//  621 
//  622   /* Profile ID */
//  623   profileId = BUILD_UINT16( pBuf[0], pBuf[1] );
??MT_ZdoMatchDescRequest_2:
        MOV       DPL,A
        MOV       DPH,R1
        LCALL     ?Subroutine17 & 0xFFFF
//  624   pBuf += 2;
//  625 
//  626   /* NumInClusters */
//  627   numInClusters = *pBuf++;
??CrossCallReturnLabel_31:
        MOV       DPL,R0
        MOV       DPH,R1
        INC       DPTR
        INC       DPTR
        MOVX      A,@DPTR
        MOV       R7,A
        MOV       A,R0
        ADD       A,#0x3
        MOV       R0,A
        JNC       ??MT_ZdoMatchDescRequest_3
        INC       R1
//  628   if ( numInClusters <= MTZDO_MAX_MATCH_CLUSTERS )
??MT_ZdoMatchDescRequest_3:
        MOV       A,R7
        CLR       C
        SUBB      A,#0x11
        JNC       ??MT_ZdoMatchDescRequest_4
//  629   {
//  630     /* IN clusters */
//  631     for ( i = 0; i < numInClusters; i++ )
        MOV       ?V3,#0x0
??MT_ZdoMatchDescRequest_5:
        MOV       A,?V3
        CLR       C
        SUBB      A,R7
        JNC       ??MT_ZdoMatchDescRequest_6
//  632     {
//  633       inClusters[i] = BUILD_UINT16( pBuf[0], pBuf[1]);
        MOV       DPL,R0
        MOV       DPH,R1
        MOVX      A,@DPTR
        MOV       ?V4,A
        INC       DPTR
        MOVX      A,@DPTR
        MOV       ?V1,A
        MOV       A,?V4
        ADD       A,#0x0
        CLR       A
        ADDC      A,?V1
        MOV       ?V5,A
        LCALL     ?Subroutine41 & 0xFFFF
//  634       pBuf += 2;
//  635     }
??CrossCallReturnLabel_81:
        MOV       A,#0x2a
        LCALL     ?XSTACK_DISP0_8
        LCALL     ?Subroutine29 & 0xFFFF
??CrossCallReturnLabel_51:
        JNC       ??MT_ZdoMatchDescRequest_7
        INC       R1
??MT_ZdoMatchDescRequest_7:
        INC       ?V3
        SJMP      ??MT_ZdoMatchDescRequest_5
//  636   }
//  637   else
//  638   {
//  639     retValue = ZDP_INVALID_REQTYPE;
??MT_ZdoMatchDescRequest_4:
        MOV       DPL,?XSP + 0
        MOV       DPH,?XSP + 1
        MOV       A,#-0x80
        MOVX      @DPTR,A
//  640   }
//  641 
//  642   /* NumOutClusters */
//  643   numOutClusters = *pBuf++;
??MT_ZdoMatchDescRequest_6:
        MOV       DPL,R0
        MOV       DPH,R1
        MOVX      A,@DPTR
        MOV       ?V2,A
        INC       DPTR
        MOV       R0,DPL
        MOV       R1,DPH
//  644   if ( numOutClusters <= MTZDO_MAX_MATCH_CLUSTERS )
        CLR       C
        SUBB      A,#0x11
        JNC       ??MT_ZdoMatchDescRequest_8
//  645   {
//  646     /* OUT Clusters */
//  647     for ( i = 0; i < numOutClusters; i++ )
        MOV       ?V3,#0x0
??MT_ZdoMatchDescRequest_9:
        MOV       A,?V3
        CLR       C
        SUBB      A,?V2
        JNC       ??MT_ZdoMatchDescRequest_10
//  648     {
//  649       outClusters[i] = BUILD_UINT16( pBuf[0], pBuf[1]);
        MOV       DPL,R0
        MOV       DPH,R1
        LCALL     ?Subroutine48 & 0xFFFF
//  650       pBuf += 2;
//  651     }
??CrossCallReturnLabel_96:
        LCALL     ?Subroutine41 & 0xFFFF
??CrossCallReturnLabel_82:
        MOV       A,#0xa
        LCALL     ?XSTACK_DISP0_8
        LCALL     ?Subroutine29 & 0xFFFF
??CrossCallReturnLabel_52:
        JNC       ??MT_ZdoMatchDescRequest_11
        INC       R1
??MT_ZdoMatchDescRequest_11:
        INC       ?V3
        SJMP      ??MT_ZdoMatchDescRequest_9
//  652   }
//  653   else
//  654   {
//  655     retValue = ZDP_INVALID_REQTYPE;
??MT_ZdoMatchDescRequest_8:
        MOV       DPL,?XSP + 0
        MOV       DPH,?XSP + 1
        MOV       A,#-0x80
        SJMP      ??MT_ZdoMatchDescRequest_12
//  656   }
//  657 
//  658   if ( retValue == 0 )
??MT_ZdoMatchDescRequest_10:
        MOV       DPL,?XSP + 0
        MOV       DPH,?XSP + 1
        MOVX      A,@DPTR
        JNZ       ??MT_ZdoMatchDescRequest_13
//  659   {
//  660     retValue = (uint8)ZDP_MatchDescReq( &destAddr, shortAddr, profileId, numInClusters,
//  661                                        inClusters, numOutClusters, outClusters, 0);
        ; Setup parameters for call to function ZDP_MatchDescReq
        MOV       ?V0,#0x0
        MOV       R0,#?V0
        LCALL     ?PUSH_XSTACK_I_ONE
          CFI CFA_XSP16 add(XSP16, 89)
        MOV       A,#0xb
        LCALL     ?XSTACK_DISP100_8
        MOV       ?V0,R0
        MOV       ?V1,R1
        MOV       R0,#?V0
        LCALL     ?PUSH_XSTACK_I_TWO
          CFI CFA_XSP16 add(XSP16, 91)
        MOV       A,?V2
        MOV       ?V0,A
        MOV       R0,#?V0
        LCALL     ?PUSH_XSTACK_I_ONE
          CFI CFA_XSP16 add(XSP16, 92)
        MOV       A,#0x2e
        LCALL     ?XSTACK_DISP100_8
        MOV       ?V0,R0
        MOV       ?V1,R1
        MOV       R0,#?V0
        LCALL     ?PUSH_XSTACK_I_TWO
          CFI CFA_XSP16 add(XSP16, 94)
        MOV       ?V0,R2
        MOV       ?V1,R3
        MOV       R0,#?V0
        LCALL     ?PUSH_XSTACK_I_TWO
          CFI CFA_XSP16 add(XSP16, 96)
        MOV       A,R7
        MOV       R1,A
        MOV       A,#0x9
        LCALL     ?XSTACK_DISP101_8
        LCALL     `??ZDP_MatchDescReq::?relay`; Banked call to: ZDP_MatchDescReq
        MOV       A,#0x8
        LCALL     ?DEALLOC_XSTACK8
          CFI CFA_XSP16 add(XSP16, 88)
        MOV       A,R1
        MOV       DPL,?XSP + 0
        MOV       DPH,?XSP + 1
??MT_ZdoMatchDescRequest_12:
        MOVX      @DPTR,A
//  662   }
//  663 
//  664   MT_BuildAndSendZToolResponse(((uint8)MT_RPC_CMD_SRSP | (uint8)MT_RPC_SYS_ZDO), cmdId, 1, &retValue);
??MT_ZdoMatchDescRequest_13:
        ; Setup parameters for call to function MT_BuildAndSendZToolResponse
        MOV       R4,?XSP + 0
        MOV       R5,?XSP + 1
        MOV       R3,#0x1
        MOV       A,R6
        MOV       R2,A
        MOV       R1,#0x65
        LCALL     `??MT_BuildAndSendZToolResponse::?relay`; Banked call to: MT_BuildAndSendZToolResponse
//  665 }
        MOV       A,#0x4a
        LCALL     ?DEALLOC_XSTACK8
          CFI EndBlock cfiBlock72
        REQUIRE ?Subroutine2
        ; // Fall through to label ?Subroutine2

        RSEG BANKED_CODE:HUGECODE:NOROOT(0)
?Subroutine2:
          CFI Block cfiBlock73 Using cfiCommon0
          CFI NoFunction
          CFI CFA_SP SP+0
          CFI CFA_XSP16 add(XSP16, 14)
          CFI VB load(1, XDATA, add(CFA_XSP16, literal(-13)))
          CFI DPL0 load(1, XDATA, add(CFA_XSP16, literal(-2)))
          CFI DPH0 load(1, XDATA, add(CFA_XSP16, literal(-1)))
          CFI R6 load(1, XDATA, add(CFA_XSP16, literal(-14)))
          CFI R7 load(1, XDATA, add(CFA_XSP16, literal(-6)))
          CFI V0 load(1, XDATA, add(CFA_XSP16, literal(-12)))
          CFI V1 load(1, XDATA, add(CFA_XSP16, literal(-11)))
          CFI V2 load(1, XDATA, add(CFA_XSP16, literal(-10)))
          CFI V3 load(1, XDATA, add(CFA_XSP16, literal(-9)))
          CFI V4 load(1, XDATA, add(CFA_XSP16, literal(-8)))
          CFI V5 load(1, XDATA, add(CFA_XSP16, literal(-7)))
          CFI ?BRET_EXT load(1, XDATA, add(CFA_XSP16, literal(-3)))
          CFI ?RET_HIGH load(1, XDATA, add(CFA_XSP16, literal(-4)))
          CFI ?RET_LOW load(1, XDATA, add(CFA_XSP16, literal(-5)))
        MOV       R7,#0x6
        LJMP      ?BANKED_LEAVE_XDATA
          CFI EndBlock cfiBlock73

        RSEG BANKED_CODE:HUGECODE:NOROOT(0)
?Subroutine41:
          CFI Block cfiCond74 Using cfiCommon0
          CFI Function MT_ZdoMatchDescRequest
          CFI Conditional ??CrossCallReturnLabel_81
          CFI R6 load(1, XDATA, add(CFA_XSP16, literal(-14)))
          CFI VB load(1, XDATA, add(CFA_XSP16, literal(-13)))
          CFI V0 load(1, XDATA, add(CFA_XSP16, literal(-12)))
          CFI V1 load(1, XDATA, add(CFA_XSP16, literal(-11)))
          CFI V2 load(1, XDATA, add(CFA_XSP16, literal(-10)))
          CFI V3 load(1, XDATA, add(CFA_XSP16, literal(-9)))
          CFI V4 load(1, XDATA, add(CFA_XSP16, literal(-8)))
          CFI V5 load(1, XDATA, add(CFA_XSP16, literal(-7)))
          CFI R7 load(1, XDATA, add(CFA_XSP16, literal(-6)))
          CFI ?RET_LOW load(1, XDATA, add(CFA_XSP16, literal(-5)))
          CFI ?RET_HIGH load(1, XDATA, add(CFA_XSP16, literal(-4)))
          CFI ?BRET_EXT load(1, XDATA, add(CFA_XSP16, literal(-3)))
          CFI DPL0 load(1, XDATA, add(CFA_XSP16, literal(-2)))
          CFI DPH0 load(1, XDATA, add(CFA_XSP16, literal(-1)))
          CFI CFA_SP SP+-2
          CFI CFA_XSP16 add(XSP16, 88)
          CFI Block cfiCond75 Using cfiCommon0
          CFI (cfiCond75) Function MT_ZdoMatchDescRequest
          CFI (cfiCond75) Conditional ??CrossCallReturnLabel_82
          CFI (cfiCond75) R6 load(1, XDATA, add(CFA_XSP16, literal(-14)))
          CFI (cfiCond75) VB load(1, XDATA, add(CFA_XSP16, literal(-13)))
          CFI (cfiCond75) V0 load(1, XDATA, add(CFA_XSP16, literal(-12)))
          CFI (cfiCond75) V1 load(1, XDATA, add(CFA_XSP16, literal(-11)))
          CFI (cfiCond75) V2 load(1, XDATA, add(CFA_XSP16, literal(-10)))
          CFI (cfiCond75) V3 load(1, XDATA, add(CFA_XSP16, literal(-9)))
          CFI (cfiCond75) V4 load(1, XDATA, add(CFA_XSP16, literal(-8)))
          CFI (cfiCond75) V5 load(1, XDATA, add(CFA_XSP16, literal(-7)))
          CFI (cfiCond75) R7 load(1, XDATA, add(CFA_XSP16, literal(-6)))
          CFI (cfiCond75) ?RET_LOW load(1, XDATA, add(CFA_XSP16, literal(-5)))
          CFI (cfiCond75) ?RET_HIGH load(1, XDATA, add(CFA_XSP16, literal(-4)))
          CFI (cfiCond75) ?BRET_EXT load(1, XDATA, add(CFA_XSP16, literal(-3)))
          CFI (cfiCond75) DPL0 load(1, XDATA, add(CFA_XSP16, literal(-2)))
          CFI (cfiCond75) DPH0 load(1, XDATA, add(CFA_XSP16, literal(-1)))
          CFI (cfiCond75) CFA_SP SP+-2
          CFI (cfiCond75) CFA_XSP16 add(XSP16, 88)
          CFI Block cfiPicker76 Using cfiCommon1
          CFI (cfiPicker76) NoFunction
          CFI (cfiPicker76) Picker
        MOV       A,?V3
        LCALL     ?Subroutine55 & 0xFFFF
??CrossCallReturnLabel_109:
        RET
          CFI EndBlock cfiCond74
          CFI EndBlock cfiCond75
          CFI EndBlock cfiPicker76

        RSEG BANKED_CODE:HUGECODE:NOROOT(0)
?Subroutine29:
          CFI Block cfiCond77 Using cfiCommon0
          CFI Function MT_ZdoMatchDescRequest
          CFI Conditional ??CrossCallReturnLabel_51
          CFI R6 load(1, XDATA, add(CFA_XSP16, literal(-14)))
          CFI VB load(1, XDATA, add(CFA_XSP16, literal(-13)))
          CFI V0 load(1, XDATA, add(CFA_XSP16, literal(-12)))
          CFI V1 load(1, XDATA, add(CFA_XSP16, literal(-11)))
          CFI V2 load(1, XDATA, add(CFA_XSP16, literal(-10)))
          CFI V3 load(1, XDATA, add(CFA_XSP16, literal(-9)))
          CFI V4 load(1, XDATA, add(CFA_XSP16, literal(-8)))
          CFI V5 load(1, XDATA, add(CFA_XSP16, literal(-7)))
          CFI R7 load(1, XDATA, add(CFA_XSP16, literal(-6)))
          CFI ?RET_LOW load(1, XDATA, add(CFA_XSP16, literal(-5)))
          CFI ?RET_HIGH load(1, XDATA, add(CFA_XSP16, literal(-4)))
          CFI ?BRET_EXT load(1, XDATA, add(CFA_XSP16, literal(-3)))
          CFI DPL0 load(1, XDATA, add(CFA_XSP16, literal(-2)))
          CFI DPH0 load(1, XDATA, add(CFA_XSP16, literal(-1)))
          CFI CFA_SP SP+-2
          CFI CFA_XSP16 add(XSP16, 88)
          CFI Block cfiCond78 Using cfiCommon0
          CFI (cfiCond78) Function MT_ZdoMatchDescRequest
          CFI (cfiCond78) Conditional ??CrossCallReturnLabel_52
          CFI (cfiCond78) R6 load(1, XDATA, add(CFA_XSP16, literal(-14)))
          CFI (cfiCond78) VB load(1, XDATA, add(CFA_XSP16, literal(-13)))
          CFI (cfiCond78) V0 load(1, XDATA, add(CFA_XSP16, literal(-12)))
          CFI (cfiCond78) V1 load(1, XDATA, add(CFA_XSP16, literal(-11)))
          CFI (cfiCond78) V2 load(1, XDATA, add(CFA_XSP16, literal(-10)))
          CFI (cfiCond78) V3 load(1, XDATA, add(CFA_XSP16, literal(-9)))
          CFI (cfiCond78) V4 load(1, XDATA, add(CFA_XSP16, literal(-8)))
          CFI (cfiCond78) V5 load(1, XDATA, add(CFA_XSP16, literal(-7)))
          CFI (cfiCond78) R7 load(1, XDATA, add(CFA_XSP16, literal(-6)))
          CFI (cfiCond78) ?RET_LOW load(1, XDATA, add(CFA_XSP16, literal(-5)))
          CFI (cfiCond78) ?RET_HIGH load(1, XDATA, add(CFA_XSP16, literal(-4)))
          CFI (cfiCond78) ?BRET_EXT load(1, XDATA, add(CFA_XSP16, literal(-3)))
          CFI (cfiCond78) DPL0 load(1, XDATA, add(CFA_XSP16, literal(-2)))
          CFI (cfiCond78) DPH0 load(1, XDATA, add(CFA_XSP16, literal(-1)))
          CFI (cfiCond78) CFA_SP SP+-2
          CFI (cfiCond78) CFA_XSP16 add(XSP16, 88)
          CFI Block cfiPicker79 Using cfiCommon1
          CFI (cfiPicker79) NoFunction
          CFI (cfiPicker79) Picker
        LCALL     ?Subroutine54 & 0xFFFF
??CrossCallReturnLabel_106:
        MOV       A,R0
        ADD       A,#0x2
        MOV       R0,A
        RET
          CFI EndBlock cfiCond77
          CFI EndBlock cfiCond78
          CFI EndBlock cfiPicker79

        RSEG BANKED_CODE:HUGECODE:NOROOT(0)
?Subroutine17:
          CFI Block cfiCond80 Using cfiCommon0
          CFI Function MT_ZdoIEEEAddrRequest
          CFI Conditional ??CrossCallReturnLabel_30
          CFI R6 load(1, XDATA, add(CFA_XSP16, literal(-10)))
          CFI VB load(1, XDATA, add(CFA_XSP16, literal(-9)))
          CFI V0 load(1, XDATA, add(CFA_XSP16, literal(-8)))
          CFI V1 load(1, XDATA, add(CFA_XSP16, literal(-7)))
          CFI R7 load(1, XDATA, add(CFA_XSP16, literal(-6)))
          CFI ?RET_LOW load(1, XDATA, add(CFA_XSP16, literal(-5)))
          CFI ?RET_HIGH load(1, XDATA, add(CFA_XSP16, literal(-4)))
          CFI ?BRET_EXT load(1, XDATA, add(CFA_XSP16, literal(-3)))
          CFI DPL0 load(1, XDATA, add(CFA_XSP16, literal(-2)))
          CFI DPH0 load(1, XDATA, add(CFA_XSP16, literal(-1)))
          CFI CFA_SP SP+-2
          CFI CFA_XSP16 add(XSP16, 11)
          CFI Block cfiCond81 Using cfiCommon0
          CFI (cfiCond81) Function MT_ZdoMatchDescRequest
          CFI (cfiCond81) Conditional ??CrossCallReturnLabel_31
          CFI (cfiCond81) R6 load(1, XDATA, add(CFA_XSP16, literal(-14)))
          CFI (cfiCond81) VB load(1, XDATA, add(CFA_XSP16, literal(-13)))
          CFI (cfiCond81) V0 load(1, XDATA, add(CFA_XSP16, literal(-12)))
          CFI (cfiCond81) V1 load(1, XDATA, add(CFA_XSP16, literal(-11)))
          CFI (cfiCond81) V2 load(1, XDATA, add(CFA_XSP16, literal(-10)))
          CFI (cfiCond81) V3 load(1, XDATA, add(CFA_XSP16, literal(-9)))
          CFI (cfiCond81) V4 load(1, XDATA, add(CFA_XSP16, literal(-8)))
          CFI (cfiCond81) V5 load(1, XDATA, add(CFA_XSP16, literal(-7)))
          CFI (cfiCond81) R7 load(1, XDATA, add(CFA_XSP16, literal(-6)))
          CFI (cfiCond81) ?RET_LOW load(1, XDATA, add(CFA_XSP16, literal(-5)))
          CFI (cfiCond81) ?RET_HIGH load(1, XDATA, add(CFA_XSP16, literal(-4)))
          CFI (cfiCond81) ?BRET_EXT load(1, XDATA, add(CFA_XSP16, literal(-3)))
          CFI (cfiCond81) DPL0 load(1, XDATA, add(CFA_XSP16, literal(-2)))
          CFI (cfiCond81) DPH0 load(1, XDATA, add(CFA_XSP16, literal(-1)))
          CFI (cfiCond81) CFA_SP SP+-2
          CFI (cfiCond81) CFA_XSP16 add(XSP16, 88)
          CFI Block cfiCond82 Using cfiCommon0
          CFI (cfiCond82) Function MT_ZdoEndDevBindRequest
          CFI (cfiCond82) Conditional ??CrossCallReturnLabel_32
          CFI (cfiCond82) R6 load(1, XDATA, add(CFA_XSP16, literal(-15)))
          CFI (cfiCond82) VB load(1, XDATA, add(CFA_XSP16, literal(-14)))
          CFI (cfiCond82) V0 load(1, XDATA, add(CFA_XSP16, literal(-13)))
          CFI (cfiCond82) V1 load(1, XDATA, add(CFA_XSP16, literal(-12)))
          CFI (cfiCond82) V2 load(1, XDATA, add(CFA_XSP16, literal(-11)))
          CFI (cfiCond82) V3 load(1, XDATA, add(CFA_XSP16, literal(-10)))
          CFI (cfiCond82) V4 load(1, XDATA, add(CFA_XSP16, literal(-9)))
          CFI (cfiCond82) V5 load(1, XDATA, add(CFA_XSP16, literal(-8)))
          CFI (cfiCond82) V6 load(1, XDATA, add(CFA_XSP16, literal(-7)))
          CFI (cfiCond82) R7 load(1, XDATA, add(CFA_XSP16, literal(-6)))
          CFI (cfiCond82) ?RET_LOW load(1, XDATA, add(CFA_XSP16, literal(-5)))
          CFI (cfiCond82) ?RET_HIGH load(1, XDATA, add(CFA_XSP16, literal(-4)))
          CFI (cfiCond82) ?BRET_EXT load(1, XDATA, add(CFA_XSP16, literal(-3)))
          CFI (cfiCond82) DPL0 load(1, XDATA, add(CFA_XSP16, literal(-2)))
          CFI (cfiCond82) DPH0 load(1, XDATA, add(CFA_XSP16, literal(-1)))
          CFI (cfiCond82) CFA_SP SP+-2
          CFI (cfiCond82) CFA_XSP16 add(XSP16, 85)
          CFI Block cfiPicker83 Using cfiCommon1
          CFI (cfiPicker83) NoFunction
          CFI (cfiPicker83) Picker
        MOVX      A,@DPTR
        MOV       ?V0,A
        INC       DPTR
        MOVX      A,@DPTR
        MOV       R3,A
        MOV       R2,?V0
        RET
          CFI EndBlock cfiCond80
          CFI EndBlock cfiCond81
          CFI EndBlock cfiCond82
          CFI EndBlock cfiPicker83

        RSEG BANKED_CODE:HUGECODE:NOROOT(0)
?Subroutine16:
          CFI Block cfiCond84 Using cfiCommon0
          CFI Function MT_ZdoNodeDescRequest
          CFI Conditional ??CrossCallReturnLabel_28
          CFI R6 load(1, XDATA, add(CFA_XSP16, literal(-9)))
          CFI VB load(1, XDATA, add(CFA_XSP16, literal(-8)))
          CFI V0 load(1, XDATA, add(CFA_XSP16, literal(-7)))
          CFI R7 load(1, XDATA, add(CFA_XSP16, literal(-6)))
          CFI ?RET_LOW load(1, XDATA, add(CFA_XSP16, literal(-5)))
          CFI ?RET_HIGH load(1, XDATA, add(CFA_XSP16, literal(-4)))
          CFI ?BRET_EXT load(1, XDATA, add(CFA_XSP16, literal(-3)))
          CFI DPL0 load(1, XDATA, add(CFA_XSP16, literal(-2)))
          CFI DPH0 load(1, XDATA, add(CFA_XSP16, literal(-1)))
          CFI CFA_SP SP+-2
          CFI CFA_XSP16 add(XSP16, 20)
          CFI Block cfiCond85 Using cfiCommon0
          CFI (cfiCond85) Function MT_ZdoMatchDescRequest
          CFI (cfiCond85) Conditional ??CrossCallReturnLabel_29
          CFI (cfiCond85) R6 load(1, XDATA, add(CFA_XSP16, literal(-14)))
          CFI (cfiCond85) VB load(1, XDATA, add(CFA_XSP16, literal(-13)))
          CFI (cfiCond85) V0 load(1, XDATA, add(CFA_XSP16, literal(-12)))
          CFI (cfiCond85) V1 load(1, XDATA, add(CFA_XSP16, literal(-11)))
          CFI (cfiCond85) V2 load(1, XDATA, add(CFA_XSP16, literal(-10)))
          CFI (cfiCond85) V3 load(1, XDATA, add(CFA_XSP16, literal(-9)))
          CFI (cfiCond85) V4 load(1, XDATA, add(CFA_XSP16, literal(-8)))
          CFI (cfiCond85) V5 load(1, XDATA, add(CFA_XSP16, literal(-7)))
          CFI (cfiCond85) R7 load(1, XDATA, add(CFA_XSP16, literal(-6)))
          CFI (cfiCond85) ?RET_LOW load(1, XDATA, add(CFA_XSP16, literal(-5)))
          CFI (cfiCond85) ?RET_HIGH load(1, XDATA, add(CFA_XSP16, literal(-4)))
          CFI (cfiCond85) ?BRET_EXT load(1, XDATA, add(CFA_XSP16, literal(-3)))
          CFI (cfiCond85) DPL0 load(1, XDATA, add(CFA_XSP16, literal(-2)))
          CFI (cfiCond85) DPH0 load(1, XDATA, add(CFA_XSP16, literal(-1)))
          CFI (cfiCond85) CFA_SP SP+-2
          CFI (cfiCond85) CFA_XSP16 add(XSP16, 88)
          CFI Block cfiPicker86 Using cfiCommon1
          CFI (cfiPicker86) NoFunction
          CFI (cfiPicker86) Picker
        LCALL     ?Subroutine46 & 0xFFFF
??CrossCallReturnLabel_93:
        RET
          CFI EndBlock cfiCond84
          CFI EndBlock cfiCond85
          CFI EndBlock cfiPicker86

        RSEG BANKED_CODE:HUGECODE:NOROOT(0)
?Subroutine46:
          CFI Block cfiCond87 Using cfiCommon0
          CFI Function MT_ZdoNodeDescRequest
          CFI Conditional ??CrossCallReturnLabel_93, ??CrossCallReturnLabel_28
          CFI R6 load(1, XDATA, add(CFA_XSP16, literal(-9)))
          CFI VB load(1, XDATA, add(CFA_XSP16, literal(-8)))
          CFI V0 load(1, XDATA, add(CFA_XSP16, literal(-7)))
          CFI R7 load(1, XDATA, add(CFA_XSP16, literal(-6)))
          CFI ?RET_LOW load(1, XDATA, add(CFA_XSP16, literal(-5)))
          CFI ?RET_HIGH load(1, XDATA, add(CFA_XSP16, literal(-4)))
          CFI ?BRET_EXT load(1, XDATA, add(CFA_XSP16, literal(-3)))
          CFI DPL0 load(1, XDATA, add(CFA_XSP16, literal(-2)))
          CFI DPH0 load(1, XDATA, add(CFA_XSP16, literal(-1)))
          CFI CFA_SP SP+-4
          CFI CFA_XSP16 add(XSP16, 20)
          CFI Block cfiCond88 Using cfiCommon0
          CFI (cfiCond88) Function MT_ZdoMatchDescRequest
          CFI (cfiCond88) Conditional ??CrossCallReturnLabel_93, ??CrossCallReturnLabel_29
          CFI (cfiCond88) R6 load(1, XDATA, add(CFA_XSP16, literal(-14)))
          CFI (cfiCond88) VB load(1, XDATA, add(CFA_XSP16, literal(-13)))
          CFI (cfiCond88) V0 load(1, XDATA, add(CFA_XSP16, literal(-12)))
          CFI (cfiCond88) V1 load(1, XDATA, add(CFA_XSP16, literal(-11)))
          CFI (cfiCond88) V2 load(1, XDATA, add(CFA_XSP16, literal(-10)))
          CFI (cfiCond88) V3 load(1, XDATA, add(CFA_XSP16, literal(-9)))
          CFI (cfiCond88) V4 load(1, XDATA, add(CFA_XSP16, literal(-8)))
          CFI (cfiCond88) V5 load(1, XDATA, add(CFA_XSP16, literal(-7)))
          CFI (cfiCond88) R7 load(1, XDATA, add(CFA_XSP16, literal(-6)))
          CFI (cfiCond88) ?RET_LOW load(1, XDATA, add(CFA_XSP16, literal(-5)))
          CFI (cfiCond88) ?RET_HIGH load(1, XDATA, add(CFA_XSP16, literal(-4)))
          CFI (cfiCond88) ?BRET_EXT load(1, XDATA, add(CFA_XSP16, literal(-3)))
          CFI (cfiCond88) DPL0 load(1, XDATA, add(CFA_XSP16, literal(-2)))
          CFI (cfiCond88) DPH0 load(1, XDATA, add(CFA_XSP16, literal(-1)))
          CFI (cfiCond88) CFA_SP SP+-4
          CFI (cfiCond88) CFA_XSP16 add(XSP16, 88)
          CFI Block cfiCond89 Using cfiCommon0
          CFI (cfiCond89) Function MT_ZdoSimpleDescRequest
          CFI (cfiCond89) Conditional ??CrossCallReturnLabel_92, ??CrossCallReturnLabel_22
          CFI (cfiCond89) R6 load(1, XDATA, add(CFA_XSP16, literal(-9)))
          CFI (cfiCond89) VB load(1, XDATA, add(CFA_XSP16, literal(-8)))
          CFI (cfiCond89) V0 load(1, XDATA, add(CFA_XSP16, literal(-7)))
          CFI (cfiCond89) R7 load(1, XDATA, add(CFA_XSP16, literal(-6)))
          CFI (cfiCond89) ?RET_LOW load(1, XDATA, add(CFA_XSP16, literal(-5)))
          CFI (cfiCond89) ?RET_HIGH load(1, XDATA, add(CFA_XSP16, literal(-4)))
          CFI (cfiCond89) ?BRET_EXT load(1, XDATA, add(CFA_XSP16, literal(-3)))
          CFI (cfiCond89) DPL0 load(1, XDATA, add(CFA_XSP16, literal(-2)))
          CFI (cfiCond89) DPH0 load(1, XDATA, add(CFA_XSP16, literal(-1)))
          CFI (cfiCond89) CFA_SP SP+-4
          CFI (cfiCond89) CFA_XSP16 add(XSP16, 20)
          CFI Block cfiCond90 Using cfiCommon0
          CFI (cfiCond90) Function MT_ZdoPowerDescRequest
          CFI (cfiCond90) Conditional ??CrossCallReturnLabel_92, ??CrossCallReturnLabel_23
          CFI (cfiCond90) R6 load(1, XDATA, add(CFA_XSP16, literal(-9)))
          CFI (cfiCond90) VB load(1, XDATA, add(CFA_XSP16, literal(-8)))
          CFI (cfiCond90) V0 load(1, XDATA, add(CFA_XSP16, literal(-7)))
          CFI (cfiCond90) R7 load(1, XDATA, add(CFA_XSP16, literal(-6)))
          CFI (cfiCond90) ?RET_LOW load(1, XDATA, add(CFA_XSP16, literal(-5)))
          CFI (cfiCond90) ?RET_HIGH load(1, XDATA, add(CFA_XSP16, literal(-4)))
          CFI (cfiCond90) ?BRET_EXT load(1, XDATA, add(CFA_XSP16, literal(-3)))
          CFI (cfiCond90) DPL0 load(1, XDATA, add(CFA_XSP16, literal(-2)))
          CFI (cfiCond90) DPH0 load(1, XDATA, add(CFA_XSP16, literal(-1)))
          CFI (cfiCond90) CFA_SP SP+-4
          CFI (cfiCond90) CFA_XSP16 add(XSP16, 20)
          CFI Block cfiCond91 Using cfiCommon0
          CFI (cfiCond91) Function MT_ZdoActiveEpRequest
          CFI (cfiCond91) Conditional ??CrossCallReturnLabel_92, ??CrossCallReturnLabel_23
          CFI (cfiCond91) R6 load(1, XDATA, add(CFA_XSP16, literal(-9)))
          CFI (cfiCond91) VB load(1, XDATA, add(CFA_XSP16, literal(-8)))
          CFI (cfiCond91) V0 load(1, XDATA, add(CFA_XSP16, literal(-7)))
          CFI (cfiCond91) R7 load(1, XDATA, add(CFA_XSP16, literal(-6)))
          CFI (cfiCond91) ?RET_LOW load(1, XDATA, add(CFA_XSP16, literal(-5)))
          CFI (cfiCond91) ?RET_HIGH load(1, XDATA, add(CFA_XSP16, literal(-4)))
          CFI (cfiCond91) ?BRET_EXT load(1, XDATA, add(CFA_XSP16, literal(-3)))
          CFI (cfiCond91) DPL0 load(1, XDATA, add(CFA_XSP16, literal(-2)))
          CFI (cfiCond91) DPH0 load(1, XDATA, add(CFA_XSP16, literal(-1)))
          CFI (cfiCond91) CFA_SP SP+-4
          CFI (cfiCond91) CFA_XSP16 add(XSP16, 20)
          CFI Block cfiCond92 Using cfiCommon0
          CFI (cfiCond92) Function MT_ZdoComplexDescRequest
          CFI (cfiCond92) Conditional ??CrossCallReturnLabel_92, ??CrossCallReturnLabel_23
          CFI (cfiCond92) R6 load(1, XDATA, add(CFA_XSP16, literal(-9)))
          CFI (cfiCond92) VB load(1, XDATA, add(CFA_XSP16, literal(-8)))
          CFI (cfiCond92) V0 load(1, XDATA, add(CFA_XSP16, literal(-7)))
          CFI (cfiCond92) R7 load(1, XDATA, add(CFA_XSP16, literal(-6)))
          CFI (cfiCond92) ?RET_LOW load(1, XDATA, add(CFA_XSP16, literal(-5)))
          CFI (cfiCond92) ?RET_HIGH load(1, XDATA, add(CFA_XSP16, literal(-4)))
          CFI (cfiCond92) ?BRET_EXT load(1, XDATA, add(CFA_XSP16, literal(-3)))
          CFI (cfiCond92) DPL0 load(1, XDATA, add(CFA_XSP16, literal(-2)))
          CFI (cfiCond92) DPH0 load(1, XDATA, add(CFA_XSP16, literal(-1)))
          CFI (cfiCond92) CFA_SP SP+-4
          CFI (cfiCond92) CFA_XSP16 add(XSP16, 20)
          CFI Block cfiCond93 Using cfiCommon0
          CFI (cfiCond93) Function MT_ZdoUserDescRequest
          CFI (cfiCond93) Conditional ??CrossCallReturnLabel_92, ??CrossCallReturnLabel_23
          CFI (cfiCond93) R6 load(1, XDATA, add(CFA_XSP16, literal(-9)))
          CFI (cfiCond93) VB load(1, XDATA, add(CFA_XSP16, literal(-8)))
          CFI (cfiCond93) V0 load(1, XDATA, add(CFA_XSP16, literal(-7)))
          CFI (cfiCond93) R7 load(1, XDATA, add(CFA_XSP16, literal(-6)))
          CFI (cfiCond93) ?RET_LOW load(1, XDATA, add(CFA_XSP16, literal(-5)))
          CFI (cfiCond93) ?RET_HIGH load(1, XDATA, add(CFA_XSP16, literal(-4)))
          CFI (cfiCond93) ?BRET_EXT load(1, XDATA, add(CFA_XSP16, literal(-3)))
          CFI (cfiCond93) DPL0 load(1, XDATA, add(CFA_XSP16, literal(-2)))
          CFI (cfiCond93) DPH0 load(1, XDATA, add(CFA_XSP16, literal(-1)))
          CFI (cfiCond93) CFA_SP SP+-4
          CFI (cfiCond93) CFA_XSP16 add(XSP16, 20)
          CFI Block cfiPicker94 Using cfiCommon1
          CFI (cfiPicker94) NoFunction
          CFI (cfiPicker94) Picker
        LCALL     ??Subroutine61_0 & 0xFFFF
??CrossCallReturnLabel_118:
        MOV       R2,A
        CLR       A
        XCH       A,R2
        MOV       R3,A
        MOV       A,R4
        ADD       A,R2
        CLR       A
        ADDC      A,R3
        MOV       R5,A
        RET
          CFI EndBlock cfiCond87
          CFI EndBlock cfiCond88
          CFI EndBlock cfiCond89
          CFI EndBlock cfiCond90
          CFI EndBlock cfiCond91
          CFI EndBlock cfiCond92
          CFI EndBlock cfiCond93
          CFI EndBlock cfiPicker94
//  666 
//  667 /***************************************************************************************************
//  668  * @fn      MT_ZdoComplexDescRequest
//  669  *
//  670  * @brief   Handle a Complex Descriptor request.
//  671  *
//  672  * @param   pBuf  - MT message data
//  673  *
//  674  * @return  void
//  675  ***************************************************************************************************/

        RSEG BANKED_CODE:HUGECODE:NOROOT(0)
//  676 void MT_ZdoComplexDescRequest(uint8 *pBuf)
MT_ZdoComplexDescRequest:
          CFI Block cfiBlock95 Using cfiCommon0
          CFI Function MT_ZdoComplexDescRequest
        CODE
//  677 {
        FUNCALL MT_ZdoComplexDescRequest, ZDP_NWKAddrOfInterestReq
        LOCFRAME ISTACK, 0, STACK
        LOCFRAME PSTACK, 0, STACK
        LOCFRAME XSTACK, 20, STACK
        LOCFRAME IOVERLAY, 0, STATIC
        LOCFRAME DOVERLAY, 0, STATIC
        ARGFRAME ISTACK, 0, STACK
        ARGFRAME PSTACK, 0, STACK
        ARGFRAME XSTACK, 20, STACK
        ARGFRAME IOVERLAY, 0, STATIC
        ARGFRAME DOVERLAY, 0, STATIC
        FUNCALL MT_ZdoComplexDescRequest, MT_BuildAndSendZToolResponse
        LOCFRAME ISTACK, 0, STACK
        LOCFRAME PSTACK, 0, STACK
        LOCFRAME XSTACK, 19, STACK
        LOCFRAME IOVERLAY, 0, STATIC
        LOCFRAME DOVERLAY, 0, STATIC
        ARGFRAME ISTACK, 0, STACK
        ARGFRAME PSTACK, 0, STACK
        ARGFRAME XSTACK, 19, STACK
        ARGFRAME IOVERLAY, 0, STATIC
        ARGFRAME DOVERLAY, 0, STATIC
        REQUIRE ?V0
        MOV       A,#-0x9
        LCALL     ?BANKED_ENTER_XDATA
          CFI DPH0 load(1, XDATA, add(CFA_XSP16, literal(-1)))
          CFI DPL0 load(1, XDATA, add(CFA_XSP16, literal(-2)))
          CFI ?BRET_EXT load(1, XDATA, add(CFA_XSP16, literal(-3)))
          CFI ?RET_HIGH load(1, XDATA, add(CFA_XSP16, literal(-4)))
          CFI ?RET_LOW load(1, XDATA, add(CFA_XSP16, literal(-5)))
          CFI R7 load(1, XDATA, add(CFA_XSP16, literal(-6)))
          CFI V0 load(1, XDATA, add(CFA_XSP16, literal(-7)))
          CFI VB load(1, XDATA, add(CFA_XSP16, literal(-8)))
          CFI R6 load(1, XDATA, add(CFA_XSP16, literal(-9)))
          CFI CFA_SP SP+0
          CFI CFA_XSP16 add(XSP16, 9)
        ; Saved register size: 9
        ; Auto size: 10
        MOV       A,#-0xa
        LCALL     ?ALLOC_XSTACK8
          CFI CFA_XSP16 add(XSP16, 19)
//  678   uint8 cmdId;
//  679   uint8 retValue;
//  680   zAddrType_t destAddr;
//  681   uint16 shortAddr;
//  682 
//  683   /* parse header */
//  684   cmdId = pBuf[MT_RPC_POS_CMD1];
        LCALL     ?Subroutine9 & 0xFFFF
//  685   pBuf += MT_RPC_FRAME_HDR_SZ;
??CrossCallReturnLabel_16:
        JNC       ??MT_ZdoComplexDescRequest_0
        INC       R3
//  686 
//  687   /* Dev address */
//  688   destAddr.addrMode = Addr16Bit;
??MT_ZdoComplexDescRequest_0:
        MOV       A,#0x9
        LCALL     ?XSTACK_DISP0_8
        LCALL     ?Subroutine8 & 0xFFFF
//  689   destAddr.addr.shortAddr = BUILD_UINT16( pBuf[0], pBuf[1] );
??CrossCallReturnLabel_8:
        LCALL     ?XSTACK_DISP0_8
        LCALL     ?Subroutine31 & 0xFFFF
//  690   pBuf += 2;
??CrossCallReturnLabel_59:
        JNC       ??MT_ZdoComplexDescRequest_1
        INC       R3
//  691 
//  692   /* Network address of interest */
//  693   shortAddr = BUILD_UINT16( pBuf[0], pBuf[1] );
//  694   pBuf += 2;
//  695 
//  696   retValue = (uint8)ZDP_ComplexDescReq( &destAddr, shortAddr, 0);
??MT_ZdoComplexDescRequest_1:
        ; Setup parameters for call to function ZDP_NWKAddrOfInterestReq
        MOV       ?V0,#0x0
        MOV       R0,#?V0
        LCALL     ?PUSH_XSTACK_I_ONE
          CFI CFA_XSP16 add(XSP16, 20)
        MOV       R1,#0x10
        LJMP      ?Subroutine0 & 0xFFFF
//  697 
//  698   MT_BuildAndSendZToolResponse(((uint8)MT_RPC_CMD_SRSP | (uint8)MT_RPC_SYS_ZDO), cmdId, 1, &retValue);
//  699 }
          CFI EndBlock cfiBlock95
//  700 
//  701 /***************************************************************************************************
//  702  * @fn      MT_ZdoUserDescRequest
//  703  *
//  704  * @brief   Handle a User Descriptor request.
//  705  *
//  706  * @param   pBuf  - MT message data
//  707  *
//  708  * @return  void
//  709  ***************************************************************************************************/

        RSEG BANKED_CODE:HUGECODE:NOROOT(0)
//  710 void MT_ZdoUserDescRequest(uint8 *pBuf)
MT_ZdoUserDescRequest:
          CFI Block cfiBlock96 Using cfiCommon0
          CFI Function MT_ZdoUserDescRequest
        CODE
//  711 {
        FUNCALL MT_ZdoUserDescRequest, ZDP_NWKAddrOfInterestReq
        LOCFRAME ISTACK, 0, STACK
        LOCFRAME PSTACK, 0, STACK
        LOCFRAME XSTACK, 20, STACK
        LOCFRAME IOVERLAY, 0, STATIC
        LOCFRAME DOVERLAY, 0, STATIC
        ARGFRAME ISTACK, 0, STACK
        ARGFRAME PSTACK, 0, STACK
        ARGFRAME XSTACK, 20, STACK
        ARGFRAME IOVERLAY, 0, STATIC
        ARGFRAME DOVERLAY, 0, STATIC
        FUNCALL MT_ZdoUserDescRequest, MT_BuildAndSendZToolResponse
        LOCFRAME ISTACK, 0, STACK
        LOCFRAME PSTACK, 0, STACK
        LOCFRAME XSTACK, 19, STACK
        LOCFRAME IOVERLAY, 0, STATIC
        LOCFRAME DOVERLAY, 0, STATIC
        ARGFRAME ISTACK, 0, STACK
        ARGFRAME PSTACK, 0, STACK
        ARGFRAME XSTACK, 19, STACK
        ARGFRAME IOVERLAY, 0, STATIC
        ARGFRAME DOVERLAY, 0, STATIC
        REQUIRE ?V0
        MOV       A,#-0x9
        LCALL     ?BANKED_ENTER_XDATA
          CFI DPH0 load(1, XDATA, add(CFA_XSP16, literal(-1)))
          CFI DPL0 load(1, XDATA, add(CFA_XSP16, literal(-2)))
          CFI ?BRET_EXT load(1, XDATA, add(CFA_XSP16, literal(-3)))
          CFI ?RET_HIGH load(1, XDATA, add(CFA_XSP16, literal(-4)))
          CFI ?RET_LOW load(1, XDATA, add(CFA_XSP16, literal(-5)))
          CFI R7 load(1, XDATA, add(CFA_XSP16, literal(-6)))
          CFI V0 load(1, XDATA, add(CFA_XSP16, literal(-7)))
          CFI VB load(1, XDATA, add(CFA_XSP16, literal(-8)))
          CFI R6 load(1, XDATA, add(CFA_XSP16, literal(-9)))
          CFI CFA_SP SP+0
          CFI CFA_XSP16 add(XSP16, 9)
        ; Saved register size: 9
        ; Auto size: 10
        MOV       A,#-0xa
        LCALL     ?ALLOC_XSTACK8
          CFI CFA_XSP16 add(XSP16, 19)
//  712   uint8 cmdId;
//  713   uint8 retValue;
//  714   zAddrType_t destAddr;
//  715   uint16 shortAddr;
//  716 
//  717   /* parse header */
//  718   cmdId = pBuf[MT_RPC_POS_CMD1];
        LCALL     ?Subroutine9 & 0xFFFF
//  719   pBuf += MT_RPC_FRAME_HDR_SZ;
??CrossCallReturnLabel_17:
        JNC       ??MT_ZdoUserDescRequest_0
        INC       R3
//  720 
//  721   /* Dev address */
//  722   destAddr.addrMode = Addr16Bit;
??MT_ZdoUserDescRequest_0:
        MOV       A,#0x9
        LCALL     ?XSTACK_DISP0_8
        LCALL     ?Subroutine8 & 0xFFFF
//  723   destAddr.addr.shortAddr = BUILD_UINT16( pBuf[0], pBuf[1]);
??CrossCallReturnLabel_9:
        LCALL     ?XSTACK_DISP0_8
        LCALL     ?Subroutine31 & 0xFFFF
//  724   pBuf += 2;
??CrossCallReturnLabel_60:
        JNC       ??MT_ZdoUserDescRequest_1
        INC       R3
//  725 
//  726   /* Network address of interest */
//  727   shortAddr = BUILD_UINT16( pBuf[0], pBuf[1]);
//  728   pBuf += 2;
//  729 
//  730   retValue = (uint8)ZDP_UserDescReq( &destAddr, shortAddr, 0);
??MT_ZdoUserDescRequest_1:
        ; Setup parameters for call to function ZDP_NWKAddrOfInterestReq
        MOV       ?V0,#0x0
        MOV       R0,#?V0
        LCALL     ?PUSH_XSTACK_I_ONE
          CFI CFA_XSP16 add(XSP16, 20)
        MOV       R1,#0x11
        LJMP      ?Subroutine0 & 0xFFFF
//  731 
//  732   MT_BuildAndSendZToolResponse(((uint8)MT_RPC_CMD_SRSP | (uint8)MT_RPC_SYS_ZDO), cmdId, 1, &retValue);
//  733 }
          CFI EndBlock cfiBlock96
//  734 
//  735 /***************************************************************************************************
//  736  * @fn      MT_ZdoEndDevAnnce
//  737  *
//  738  * @brief   Handle a End Device Announce Descriptor request.
//  739  *
//  740  * @param   pBuf  - MT message data
//  741  *
//  742  * @return  void
//  743  ***************************************************************************************************/

        RSEG BANKED_CODE:HUGECODE:NOROOT(0)
//  744 void MT_ZdoEndDevAnnce(uint8 *pBuf)
MT_ZdoEndDevAnnce:
          CFI Block cfiBlock97 Using cfiCommon0
          CFI Function MT_ZdoEndDevAnnce
        CODE
//  745 {
        FUNCALL MT_ZdoEndDevAnnce, ZDP_DeviceAnnce
        LOCFRAME ISTACK, 0, STACK
        LOCFRAME PSTACK, 0, STACK
        LOCFRAME XSTACK, 11, STACK
        LOCFRAME IOVERLAY, 0, STATIC
        LOCFRAME DOVERLAY, 0, STATIC
        ARGFRAME ISTACK, 0, STACK
        ARGFRAME PSTACK, 0, STACK
        ARGFRAME XSTACK, 11, STACK
        ARGFRAME IOVERLAY, 0, STATIC
        ARGFRAME DOVERLAY, 0, STATIC
        FUNCALL MT_ZdoEndDevAnnce, MT_BuildAndSendZToolResponse
        LOCFRAME ISTACK, 0, STACK
        LOCFRAME PSTACK, 0, STACK
        LOCFRAME XSTACK, 10, STACK
        LOCFRAME IOVERLAY, 0, STATIC
        LOCFRAME DOVERLAY, 0, STATIC
        ARGFRAME ISTACK, 0, STACK
        ARGFRAME PSTACK, 0, STACK
        ARGFRAME XSTACK, 10, STACK
        ARGFRAME IOVERLAY, 0, STATIC
        ARGFRAME DOVERLAY, 0, STATIC
        REQUIRE ?V0
        MOV       A,#-0x9
        LCALL     ?BANKED_ENTER_XDATA
          CFI DPH0 load(1, XDATA, add(CFA_XSP16, literal(-1)))
          CFI DPL0 load(1, XDATA, add(CFA_XSP16, literal(-2)))
          CFI ?BRET_EXT load(1, XDATA, add(CFA_XSP16, literal(-3)))
          CFI ?RET_HIGH load(1, XDATA, add(CFA_XSP16, literal(-4)))
          CFI ?RET_LOW load(1, XDATA, add(CFA_XSP16, literal(-5)))
          CFI R7 load(1, XDATA, add(CFA_XSP16, literal(-6)))
          CFI V0 load(1, XDATA, add(CFA_XSP16, literal(-7)))
          CFI VB load(1, XDATA, add(CFA_XSP16, literal(-8)))
          CFI R6 load(1, XDATA, add(CFA_XSP16, literal(-9)))
          CFI CFA_SP SP+0
          CFI CFA_XSP16 add(XSP16, 9)
        ; Saved register size: 9
        ; Auto size: 1
        MOV       A,#-0x1
        LCALL     ?ALLOC_XSTACK8
          CFI CFA_XSP16 add(XSP16, 10)
        MOV       A,R3
        MOV       R5,A
//  746   uint8 cmdId;
//  747   uint8 retValue;
//  748   uint16 shortAddr;
//  749   uint8 *pIEEEAddr;
//  750 
//  751   /* parse header */
//  752   cmdId = pBuf[MT_RPC_POS_CMD1];
        MOV       DPL,R2
        MOV       DPH,A
        LCALL     ??Subroutine63_0 & 0xFFFF
//  753   pBuf += MT_RPC_FRAME_HDR_SZ;
??CrossCallReturnLabel_127:
        MOV       R4,A
        JNC       ??MT_ZdoEndDevAnnce_0
        INC       R5
//  754 
//  755   /* network address */
//  756   shortAddr = BUILD_UINT16( pBuf[0], pBuf[1] );
??MT_ZdoEndDevAnnce_0:
        MOV       DPL,A
        MOV       DPH,R5
        LCALL     ?Subroutine23 & 0xFFFF
??CrossCallReturnLabel_41:
        CLR       A
        ADDC      A,R1
        MOV       R3,A
//  757   pBuf += 2;
        MOV       A,R4
        ADD       A,#0x2
        MOV       R4,A
        JNC       ??MT_ZdoEndDevAnnce_1
        INC       R5
//  758 
//  759   /* extended address */
//  760   pIEEEAddr = pBuf;
//  761   pBuf += Z_EXTADDR_LEN;
//  762 
//  763   retValue = (uint8)ZDP_DeviceAnnce( shortAddr, pIEEEAddr, *pBuf, 0);
??MT_ZdoEndDevAnnce_1:
        ; Setup parameters for call to function ZDP_DeviceAnnce
        MOV       ?V0,R0
        MOV       R0,#?V0
        LCALL     ?PUSH_XSTACK_I_ONE
          CFI CFA_XSP16 add(XSP16, 11)
        MOV       DPL,R4
        MOV       DPH,R5
        INC       DPTR
        INC       DPTR
        INC       DPTR
        INC       DPTR
        INC       DPTR
        INC       DPTR
        INC       DPTR
        INC       DPTR
        MOVX      A,@DPTR
        MOV       R1,A
        LCALL     `??ZDP_DeviceAnnce::?relay`; Banked call to: ZDP_DeviceAnnce
        MOV       A,#0x1
        LCALL     ?DEALLOC_XSTACK8
          CFI CFA_XSP16 add(XSP16, 10)
        LJMP      ?Subroutine5 & 0xFFFF
//  764 
//  765   MT_BuildAndSendZToolResponse(((uint8)MT_RPC_CMD_SRSP | (uint8)MT_RPC_SYS_ZDO), cmdId, 1, &retValue);
//  766 }
          CFI EndBlock cfiBlock97
//  767 
//  768 /***************************************************************************************************
//  769  * @fn      MT_ZdoUserDescSet
//  770  *
//  771  * @brief   Handle a User Descriptor Set.
//  772  *
//  773  * @param   pBuf  - MT message data
//  774  *
//  775  * @return  void
//  776  ***************************************************************************************************/

        RSEG BANKED_CODE:HUGECODE:NOROOT(0)
//  777 void MT_ZdoUserDescSet(uint8 *pBuf)
MT_ZdoUserDescSet:
          CFI Block cfiBlock98 Using cfiCommon0
          CFI Function MT_ZdoUserDescSet
        CODE
//  778 {
        FUNCALL MT_ZdoUserDescSet, osal_memcpy
        LOCFRAME ISTACK, 0, STACK
        LOCFRAME PSTACK, 0, STACK
        LOCFRAME XSTACK, 42, STACK
        LOCFRAME IOVERLAY, 0, STATIC
        LOCFRAME DOVERLAY, 0, STATIC
        ARGFRAME ISTACK, 0, STACK
        ARGFRAME PSTACK, 0, STACK
        ARGFRAME XSTACK, 42, STACK
        ARGFRAME IOVERLAY, 0, STATIC
        ARGFRAME DOVERLAY, 0, STATIC
        FUNCALL MT_ZdoUserDescSet, ZDP_UserDescSet
        LOCFRAME ISTACK, 0, STACK
        LOCFRAME PSTACK, 0, STACK
        LOCFRAME XSTACK, 41, STACK
        LOCFRAME IOVERLAY, 0, STATIC
        LOCFRAME DOVERLAY, 0, STATIC
        ARGFRAME ISTACK, 0, STACK
        ARGFRAME PSTACK, 0, STACK
        ARGFRAME XSTACK, 41, STACK
        ARGFRAME IOVERLAY, 0, STATIC
        ARGFRAME DOVERLAY, 0, STATIC
        FUNCALL MT_ZdoUserDescSet, MT_BuildAndSendZToolResponse
        LOCFRAME ISTACK, 0, STACK
        LOCFRAME PSTACK, 0, STACK
        LOCFRAME XSTACK, 39, STACK
        LOCFRAME IOVERLAY, 0, STATIC
        LOCFRAME DOVERLAY, 0, STATIC
        ARGFRAME ISTACK, 0, STACK
        ARGFRAME PSTACK, 0, STACK
        ARGFRAME XSTACK, 39, STACK
        ARGFRAME IOVERLAY, 0, STATIC
        ARGFRAME DOVERLAY, 0, STATIC
        REQUIRE ?V0
        REQUIRE ?V1
        REQUIRE ?V2
        REQUIRE ?V3
        MOV       A,#-0xc
        LCALL     ?BANKED_ENTER_XDATA
          CFI DPH0 load(1, XDATA, add(CFA_XSP16, literal(-1)))
          CFI DPL0 load(1, XDATA, add(CFA_XSP16, literal(-2)))
          CFI ?BRET_EXT load(1, XDATA, add(CFA_XSP16, literal(-3)))
          CFI ?RET_HIGH load(1, XDATA, add(CFA_XSP16, literal(-4)))
          CFI ?RET_LOW load(1, XDATA, add(CFA_XSP16, literal(-5)))
          CFI R7 load(1, XDATA, add(CFA_XSP16, literal(-6)))
          CFI V3 load(1, XDATA, add(CFA_XSP16, literal(-7)))
          CFI V2 load(1, XDATA, add(CFA_XSP16, literal(-8)))
          CFI V1 load(1, XDATA, add(CFA_XSP16, literal(-9)))
          CFI V0 load(1, XDATA, add(CFA_XSP16, literal(-10)))
          CFI VB load(1, XDATA, add(CFA_XSP16, literal(-11)))
          CFI R6 load(1, XDATA, add(CFA_XSP16, literal(-12)))
          CFI CFA_SP SP+0
          CFI CFA_XSP16 add(XSP16, 12)
        ; Saved register size: 12
        ; Auto size: 27
        MOV       A,#-0x1b
        LCALL     ?ALLOC_XSTACK8
          CFI CFA_XSP16 add(XSP16, 39)
//  779   uint8 cmdId;
//  780   uint8 retValue;
//  781   zAddrType_t destAddr;
//  782   uint16 shortAddr;
//  783   UserDescriptorFormat_t userDesc;
//  784 
//  785   /* parse header */
//  786   cmdId = pBuf[MT_RPC_POS_CMD1];
        MOV       DPL,R2
        MOV       DPH,R3
        INC       DPTR
        INC       DPTR
        MOVX      A,@DPTR
        MOV       ?V3,A
//  787   pBuf += MT_RPC_FRAME_HDR_SZ;
        MOV       A,R2
        ADD       A,#0x3
        MOV       R2,A
        JNC       ??MT_ZdoUserDescSet_0
        INC       R3
//  788 
//  789   /* Dev address */
//  790   destAddr.addrMode = Addr16Bit;
??MT_ZdoUserDescSet_0:
        MOV       A,#0x9
        LCALL     ?XSTACK_DISP0_8
        LCALL     ?Subroutine8 & 0xFFFF
//  791   destAddr.addr.shortAddr = BUILD_UINT16( pBuf[0], pBuf[1] );
??CrossCallReturnLabel_10:
        LCALL     ?XSTACK_DISP0_8
        LCALL     ?Subroutine31 & 0xFFFF
//  792   pBuf += 2;
??CrossCallReturnLabel_61:
        JNC       ??MT_ZdoUserDescSet_1
        INC       R3
//  793 
//  794   /* Network address of interest */
//  795   shortAddr = BUILD_UINT16( pBuf[0], pBuf[1] );
??MT_ZdoUserDescSet_1:
        LCALL     ?Subroutine51 & 0xFFFF
??CrossCallReturnLabel_100:
        MOV       R6,A
        CLR       A
        ADDC      A,R1
        MOV       R7,A
//  796   pBuf += 2;
//  797 
//  798   /* User descriptor */
//  799   userDesc.len = *pBuf++;
        MOV       DPL,R2
        MOV       DPH,R3
        INC       DPTR
        INC       DPTR
        MOVX      A,@DPTR
        PUSH      A
          CFI CFA_SP SP+-1
        MOV       A,#0xa
        LCALL     ?XSTACK_DISP0_8
        POP       A
          CFI CFA_SP SP+0
        MOVX      @DPTR,A
//  800   osal_memcpy( userDesc.desc, pBuf, userDesc.len );
        ; Setup parameters for call to function osal_memcpy
        MOV       DPL,R2
        MOV       DPH,R3
        INC       DPTR
        INC       DPTR
        INC       DPTR
        MOV       R1,DPL
        MOV       R2,DPH
        MOV       ?V0,R1
        MOV       ?V1,R2
        MOV       ?V2,R0
        MOV       R0,#?V0
        LCALL     ?PUSH_XSTACK_I_THREE
          CFI CFA_XSP16 add(XSP16, 42)
        MOV       A,#0xd
        LCALL     ?XSTACK_DISP0_8
        MOVX      A,@DPTR
        MOV       R4,A
        MOV       R5,#0x0
        MOV       A,#0xe
        LCALL     ?XSTACK_DISP0_8
        MOV       R2,DPL
        MOV       R3,DPH
        LCALL     `??osal_memcpy::?relay`; Banked call to: osal_memcpy
        MOV       A,#0x3
        LCALL     ?DEALLOC_XSTACK8
          CFI CFA_XSP16 add(XSP16, 39)
//  801   pBuf += 16;
//  802 
//  803   retValue = (uint8)ZDP_UserDescSet( &destAddr, shortAddr, &userDesc, 0);
        ; Setup parameters for call to function ZDP_UserDescSet
        MOV       A,#0xa
        LCALL     ?XSTACK_DISP100_8
        MOV       ?V0,R0
        MOV       ?V1,R1
        MOV       R0,#?V0
        LCALL     ?PUSH_XSTACK_I_TWO
          CFI CFA_XSP16 add(XSP16, 41)
        MOV       R1,#0x0
        MOV       A,R6
        MOV       R4,A
        MOV       A,R7
        MOV       R5,A
        MOV       A,#0x3
        LCALL     ?XSTACK_DISP101_8
        LCALL     `??ZDP_UserDescSet::?relay`; Banked call to: ZDP_UserDescSet
        MOV       A,#0x2
        LCALL     ?DEALLOC_XSTACK8
          CFI CFA_XSP16 add(XSP16, 39)
        LCALL     ?Subroutine33 & 0xFFFF
//  804 
//  805   MT_BuildAndSendZToolResponse(((uint8)MT_RPC_CMD_SRSP | (uint8)MT_RPC_SYS_ZDO), cmdId, 1, &retValue);
//  806 }
??CrossCallReturnLabel_62:
        MOV       A,#0x1b
          CFI EndBlock cfiBlock98
        REQUIRE ?Subroutine3
        ; // Fall through to label ?Subroutine3

        RSEG BANKED_CODE:HUGECODE:NOROOT(0)
?Subroutine3:
          CFI Block cfiBlock99 Using cfiCommon0
          CFI NoFunction
          CFI CFA_SP SP+0
          CFI CFA_XSP16 add(XSP16, 39)
          CFI VB load(1, XDATA, add(CFA_XSP16, literal(-11)))
          CFI DPL0 load(1, XDATA, add(CFA_XSP16, literal(-2)))
          CFI DPH0 load(1, XDATA, add(CFA_XSP16, literal(-1)))
          CFI R6 load(1, XDATA, add(CFA_XSP16, literal(-12)))
          CFI R7 load(1, XDATA, add(CFA_XSP16, literal(-6)))
          CFI V0 load(1, XDATA, add(CFA_XSP16, literal(-10)))
          CFI V1 load(1, XDATA, add(CFA_XSP16, literal(-9)))
          CFI V2 load(1, XDATA, add(CFA_XSP16, literal(-8)))
          CFI V3 load(1, XDATA, add(CFA_XSP16, literal(-7)))
          CFI ?BRET_EXT load(1, XDATA, add(CFA_XSP16, literal(-3)))
          CFI ?RET_HIGH load(1, XDATA, add(CFA_XSP16, literal(-4)))
          CFI ?RET_LOW load(1, XDATA, add(CFA_XSP16, literal(-5)))
          CFI Invalid
        LCALL     ?DEALLOC_XSTACK8
          CFI CFA_XSP16 add(XSP16, 12)
          CFI Valid
        MOV       R7,#0x4
        LJMP      ?BANKED_LEAVE_XDATA
          CFI EndBlock cfiBlock99
//  807 
//  808 /***************************************************************************************************
//  809  * @fn      MT_ZdoServiceDiscRequest
//  810  *
//  811  * @brief   Handle a Server Discovery request.
//  812  *
//  813  * @param   pBuf  - MT message data
//  814  *
//  815  * @return  void
//  816  ***************************************************************************************************/

        RSEG BANKED_CODE:HUGECODE:NOROOT(0)
//  817 void MT_ZdoServiceDiscRequest(uint8 *pBuf)
MT_ZdoServiceDiscRequest:
          CFI Block cfiBlock100 Using cfiCommon0
          CFI Function MT_ZdoServiceDiscRequest
        CODE
//  818 {
        FUNCALL MT_ZdoServiceDiscRequest, ZDP_ServerDiscReq
        LOCFRAME ISTACK, 0, STACK
        LOCFRAME PSTACK, 0, STACK
        LOCFRAME XSTACK, 10, STACK
        LOCFRAME IOVERLAY, 0, STATIC
        LOCFRAME DOVERLAY, 0, STATIC
        ARGFRAME ISTACK, 0, STACK
        ARGFRAME PSTACK, 0, STACK
        ARGFRAME XSTACK, 10, STACK
        ARGFRAME IOVERLAY, 0, STATIC
        ARGFRAME DOVERLAY, 0, STATIC
        FUNCALL MT_ZdoServiceDiscRequest, MT_BuildAndSendZToolResponse
        LOCFRAME ISTACK, 0, STACK
        LOCFRAME PSTACK, 0, STACK
        LOCFRAME XSTACK, 10, STACK
        LOCFRAME IOVERLAY, 0, STATIC
        LOCFRAME DOVERLAY, 0, STATIC
        ARGFRAME ISTACK, 0, STACK
        ARGFRAME PSTACK, 0, STACK
        ARGFRAME XSTACK, 10, STACK
        ARGFRAME IOVERLAY, 0, STATIC
        ARGFRAME DOVERLAY, 0, STATIC
        MOV       A,#-0x9
        LCALL     ?BANKED_ENTER_XDATA
          CFI DPH0 load(1, XDATA, add(CFA_XSP16, literal(-1)))
          CFI DPL0 load(1, XDATA, add(CFA_XSP16, literal(-2)))
          CFI ?BRET_EXT load(1, XDATA, add(CFA_XSP16, literal(-3)))
          CFI ?RET_HIGH load(1, XDATA, add(CFA_XSP16, literal(-4)))
          CFI ?RET_LOW load(1, XDATA, add(CFA_XSP16, literal(-5)))
          CFI R7 load(1, XDATA, add(CFA_XSP16, literal(-6)))
          CFI V0 load(1, XDATA, add(CFA_XSP16, literal(-7)))
          CFI VB load(1, XDATA, add(CFA_XSP16, literal(-8)))
          CFI R6 load(1, XDATA, add(CFA_XSP16, literal(-9)))
          CFI CFA_SP SP+0
          CFI CFA_XSP16 add(XSP16, 9)
        ; Saved register size: 9
        ; Auto size: 1
        MOV       A,#-0x1
        LCALL     ?ALLOC_XSTACK8
          CFI CFA_XSP16 add(XSP16, 10)
//  819   uint8 cmdId;
//  820   uint8 retValue;
//  821   uint16 serviceMask;
//  822 
//  823   /* parse header */
//  824   cmdId = pBuf[MT_RPC_POS_CMD1];
        LCALL     ??Subroutine62_0 & 0xFFFF
//  825   pBuf += MT_RPC_FRAME_HDR_SZ;
??CrossCallReturnLabel_126:
        JNC       ??MT_ZdoServiceDiscRequest_0
        INC       R3
//  826 
//  827   /* Service Mask */
//  828   serviceMask = BUILD_UINT16( pBuf[0], pBuf[1]);
//  829   pBuf += 2;
//  830 
//  831   retValue = (uint8)ZDP_ServerDiscReq( serviceMask, 0);
??MT_ZdoServiceDiscRequest_0:
        ; Setup parameters for call to function ZDP_ServerDiscReq
        MOV       R1,#0x0
        LCALL     ?Subroutine57 & 0xFFFF
??CrossCallReturnLabel_120:
        MOV       R3,A
        MOV       A,R4
        MOV       R2,A
        LCALL     `??ZDP_ServerDiscReq::?relay`; Banked call to: ZDP_ServerDiscReq
        LJMP      ?Subroutine5 & 0xFFFF
//  832 
//  833   MT_BuildAndSendZToolResponse(((uint8)MT_RPC_CMD_SRSP | (uint8)MT_RPC_SYS_ZDO), cmdId, 1, &retValue);
//  834 }
          CFI EndBlock cfiBlock100

        RSEG BANKED_CODE:HUGECODE:NOROOT(0)
?Subroutine15:
          CFI Block cfiCond101 Using cfiCommon0
          CFI Function MT_ZdoRegisterForZDOMsg
          CFI Conditional ??CrossCallReturnLabel_122
          CFI R6 load(1, XDATA, add(CFA_XSP16, literal(-9)))
          CFI VB load(1, XDATA, add(CFA_XSP16, literal(-8)))
          CFI V0 load(1, XDATA, add(CFA_XSP16, literal(-7)))
          CFI R7 load(1, XDATA, add(CFA_XSP16, literal(-6)))
          CFI ?RET_LOW load(1, XDATA, add(CFA_XSP16, literal(-5)))
          CFI ?RET_HIGH load(1, XDATA, add(CFA_XSP16, literal(-4)))
          CFI ?BRET_EXT load(1, XDATA, add(CFA_XSP16, literal(-3)))
          CFI DPL0 load(1, XDATA, add(CFA_XSP16, literal(-2)))
          CFI DPH0 load(1, XDATA, add(CFA_XSP16, literal(-1)))
          CFI CFA_SP SP+-2
          CFI CFA_XSP16 add(XSP16, 10)
          CFI Block cfiCond102 Using cfiCommon0
          CFI (cfiCond102) Function MT_ZdoRemoveRegisteredCB
          CFI (cfiCond102) Conditional ??CrossCallReturnLabel_123
          CFI (cfiCond102) R6 load(1, XDATA, add(CFA_XSP16, literal(-9)))
          CFI (cfiCond102) VB load(1, XDATA, add(CFA_XSP16, literal(-8)))
          CFI (cfiCond102) V0 load(1, XDATA, add(CFA_XSP16, literal(-7)))
          CFI (cfiCond102) R7 load(1, XDATA, add(CFA_XSP16, literal(-6)))
          CFI (cfiCond102) ?RET_LOW load(1, XDATA, add(CFA_XSP16, literal(-5)))
          CFI (cfiCond102) ?RET_HIGH load(1, XDATA, add(CFA_XSP16, literal(-4)))
          CFI (cfiCond102) ?BRET_EXT load(1, XDATA, add(CFA_XSP16, literal(-3)))
          CFI (cfiCond102) DPL0 load(1, XDATA, add(CFA_XSP16, literal(-2)))
          CFI (cfiCond102) DPH0 load(1, XDATA, add(CFA_XSP16, literal(-1)))
          CFI (cfiCond102) CFA_SP SP+-2
          CFI (cfiCond102) CFA_XSP16 add(XSP16, 10)
          CFI Block cfiPicker103 Using cfiCommon1
          CFI (cfiPicker103) NoFunction
          CFI (cfiPicker103) Picker
        MOV       DPL,R2
        MOV       DPH,R3
        INC       DPTR
        MOVX      A,@DPTR
        MOV       R7,A
          CFI EndBlock cfiCond101
          CFI EndBlock cfiCond102
          CFI EndBlock cfiPicker103
        REQUIRE ??Subroutine62_0
        ; // Fall through to label ??Subroutine62_0

        RSEG BANKED_CODE:HUGECODE:NOROOT(0)
??Subroutine62_0:
          CFI Block cfiCond104 Using cfiCommon0
          CFI Function MT_ZdoNWKAddressRequest
          CFI Conditional ??CrossCallReturnLabel_124
          CFI R6 load(1, XDATA, add(CFA_XSP16, literal(-10)))
          CFI VB load(1, XDATA, add(CFA_XSP16, literal(-9)))
          CFI V0 load(1, XDATA, add(CFA_XSP16, literal(-8)))
          CFI V1 load(1, XDATA, add(CFA_XSP16, literal(-7)))
          CFI R7 load(1, XDATA, add(CFA_XSP16, literal(-6)))
          CFI ?RET_LOW load(1, XDATA, add(CFA_XSP16, literal(-5)))
          CFI ?RET_HIGH load(1, XDATA, add(CFA_XSP16, literal(-4)))
          CFI ?BRET_EXT load(1, XDATA, add(CFA_XSP16, literal(-3)))
          CFI DPL0 load(1, XDATA, add(CFA_XSP16, literal(-2)))
          CFI DPH0 load(1, XDATA, add(CFA_XSP16, literal(-1)))
          CFI CFA_SP SP+-2
          CFI CFA_XSP16 add(XSP16, 11)
          CFI Block cfiCond105 Using cfiCommon0
          CFI (cfiCond105) Function MT_ZdoMatchDescRequest
          CFI (cfiCond105) Conditional ??CrossCallReturnLabel_125
          CFI (cfiCond105) R6 load(1, XDATA, add(CFA_XSP16, literal(-14)))
          CFI (cfiCond105) VB load(1, XDATA, add(CFA_XSP16, literal(-13)))
          CFI (cfiCond105) V0 load(1, XDATA, add(CFA_XSP16, literal(-12)))
          CFI (cfiCond105) V1 load(1, XDATA, add(CFA_XSP16, literal(-11)))
          CFI (cfiCond105) V2 load(1, XDATA, add(CFA_XSP16, literal(-10)))
          CFI (cfiCond105) V3 load(1, XDATA, add(CFA_XSP16, literal(-9)))
          CFI (cfiCond105) V4 load(1, XDATA, add(CFA_XSP16, literal(-8)))
          CFI (cfiCond105) V5 load(1, XDATA, add(CFA_XSP16, literal(-7)))
          CFI (cfiCond105) R7 load(1, XDATA, add(CFA_XSP16, literal(-6)))
          CFI (cfiCond105) ?RET_LOW load(1, XDATA, add(CFA_XSP16, literal(-5)))
          CFI (cfiCond105) ?RET_HIGH load(1, XDATA, add(CFA_XSP16, literal(-4)))
          CFI (cfiCond105) ?BRET_EXT load(1, XDATA, add(CFA_XSP16, literal(-3)))
          CFI (cfiCond105) DPL0 load(1, XDATA, add(CFA_XSP16, literal(-2)))
          CFI (cfiCond105) DPH0 load(1, XDATA, add(CFA_XSP16, literal(-1)))
          CFI (cfiCond105) CFA_SP SP+-2
          CFI (cfiCond105) CFA_XSP16 add(XSP16, 88)
          CFI Block cfiCond106 Using cfiCommon0
          CFI (cfiCond106) Function MT_ZdoServiceDiscRequest
          CFI (cfiCond106) Conditional ??CrossCallReturnLabel_126
          CFI (cfiCond106) R6 load(1, XDATA, add(CFA_XSP16, literal(-9)))
          CFI (cfiCond106) VB load(1, XDATA, add(CFA_XSP16, literal(-8)))
          CFI (cfiCond106) V0 load(1, XDATA, add(CFA_XSP16, literal(-7)))
          CFI (cfiCond106) R7 load(1, XDATA, add(CFA_XSP16, literal(-6)))
          CFI (cfiCond106) ?RET_LOW load(1, XDATA, add(CFA_XSP16, literal(-5)))
          CFI (cfiCond106) ?RET_HIGH load(1, XDATA, add(CFA_XSP16, literal(-4)))
          CFI (cfiCond106) ?BRET_EXT load(1, XDATA, add(CFA_XSP16, literal(-3)))
          CFI (cfiCond106) DPL0 load(1, XDATA, add(CFA_XSP16, literal(-2)))
          CFI (cfiCond106) DPH0 load(1, XDATA, add(CFA_XSP16, literal(-1)))
          CFI (cfiCond106) CFA_SP SP+-2
          CFI (cfiCond106) CFA_XSP16 add(XSP16, 10)
          CFI Block cfiCond107 Using cfiCommon0
          CFI (cfiCond107) Function MT_ZdoRegisterForZDOMsg
          CFI (cfiCond107) Conditional ??CrossCallReturnLabel_122
          CFI (cfiCond107) R6 load(1, XDATA, add(CFA_XSP16, literal(-9)))
          CFI (cfiCond107) VB load(1, XDATA, add(CFA_XSP16, literal(-8)))
          CFI (cfiCond107) V0 load(1, XDATA, add(CFA_XSP16, literal(-7)))
          CFI (cfiCond107) R7 load(1, XDATA, add(CFA_XSP16, literal(-6)))
          CFI (cfiCond107) ?RET_LOW load(1, XDATA, add(CFA_XSP16, literal(-5)))
          CFI (cfiCond107) ?RET_HIGH load(1, XDATA, add(CFA_XSP16, literal(-4)))
          CFI (cfiCond107) ?BRET_EXT load(1, XDATA, add(CFA_XSP16, literal(-3)))
          CFI (cfiCond107) DPL0 load(1, XDATA, add(CFA_XSP16, literal(-2)))
          CFI (cfiCond107) DPH0 load(1, XDATA, add(CFA_XSP16, literal(-1)))
          CFI (cfiCond107) CFA_SP SP+-2
          CFI (cfiCond107) CFA_XSP16 add(XSP16, 10)
          CFI Block cfiCond108 Using cfiCommon0
          CFI (cfiCond108) Function MT_ZdoRemoveRegisteredCB
          CFI (cfiCond108) Conditional ??CrossCallReturnLabel_123
          CFI (cfiCond108) R6 load(1, XDATA, add(CFA_XSP16, literal(-9)))
          CFI (cfiCond108) VB load(1, XDATA, add(CFA_XSP16, literal(-8)))
          CFI (cfiCond108) V0 load(1, XDATA, add(CFA_XSP16, literal(-7)))
          CFI (cfiCond108) R7 load(1, XDATA, add(CFA_XSP16, literal(-6)))
          CFI (cfiCond108) ?RET_LOW load(1, XDATA, add(CFA_XSP16, literal(-5)))
          CFI (cfiCond108) ?RET_HIGH load(1, XDATA, add(CFA_XSP16, literal(-4)))
          CFI (cfiCond108) ?BRET_EXT load(1, XDATA, add(CFA_XSP16, literal(-3)))
          CFI (cfiCond108) DPL0 load(1, XDATA, add(CFA_XSP16, literal(-2)))
          CFI (cfiCond108) DPH0 load(1, XDATA, add(CFA_XSP16, literal(-1)))
          CFI (cfiCond108) CFA_SP SP+-2
          CFI (cfiCond108) CFA_XSP16 add(XSP16, 10)
          CFI Block cfiPicker109 Using cfiCommon1
          CFI (cfiPicker109) NoFunction
          CFI (cfiPicker109) Picker
        MOV       DPL,R2
        MOV       DPH,R3
          CFI EndBlock cfiCond104
          CFI EndBlock cfiCond105
          CFI EndBlock cfiCond106
          CFI EndBlock cfiCond107
          CFI EndBlock cfiCond108
          CFI EndBlock cfiPicker109
        REQUIRE ??Subroutine63_0
        ; // Fall through to label ??Subroutine63_0

        RSEG BANKED_CODE:HUGECODE:NOROOT(0)
??Subroutine63_0:
          CFI Block cfiCond110 Using cfiCommon0
          CFI Function MT_ZdoEndDevAnnce
          CFI Conditional ??CrossCallReturnLabel_127
          CFI R6 load(1, XDATA, add(CFA_XSP16, literal(-9)))
          CFI VB load(1, XDATA, add(CFA_XSP16, literal(-8)))
          CFI V0 load(1, XDATA, add(CFA_XSP16, literal(-7)))
          CFI R7 load(1, XDATA, add(CFA_XSP16, literal(-6)))
          CFI ?RET_LOW load(1, XDATA, add(CFA_XSP16, literal(-5)))
          CFI ?RET_HIGH load(1, XDATA, add(CFA_XSP16, literal(-4)))
          CFI ?BRET_EXT load(1, XDATA, add(CFA_XSP16, literal(-3)))
          CFI DPL0 load(1, XDATA, add(CFA_XSP16, literal(-2)))
          CFI DPH0 load(1, XDATA, add(CFA_XSP16, literal(-1)))
          CFI CFA_SP SP+-2
          CFI CFA_XSP16 add(XSP16, 10)
          CFI Block cfiCond111 Using cfiCommon0
          CFI (cfiCond111) Function MT_ZdoNWKAddressRequest
          CFI (cfiCond111) Conditional ??CrossCallReturnLabel_124
          CFI (cfiCond111) R6 load(1, XDATA, add(CFA_XSP16, literal(-10)))
          CFI (cfiCond111) VB load(1, XDATA, add(CFA_XSP16, literal(-9)))
          CFI (cfiCond111) V0 load(1, XDATA, add(CFA_XSP16, literal(-8)))
          CFI (cfiCond111) V1 load(1, XDATA, add(CFA_XSP16, literal(-7)))
          CFI (cfiCond111) R7 load(1, XDATA, add(CFA_XSP16, literal(-6)))
          CFI (cfiCond111) ?RET_LOW load(1, XDATA, add(CFA_XSP16, literal(-5)))
          CFI (cfiCond111) ?RET_HIGH load(1, XDATA, add(CFA_XSP16, literal(-4)))
          CFI (cfiCond111) ?BRET_EXT load(1, XDATA, add(CFA_XSP16, literal(-3)))
          CFI (cfiCond111) DPL0 load(1, XDATA, add(CFA_XSP16, literal(-2)))
          CFI (cfiCond111) DPH0 load(1, XDATA, add(CFA_XSP16, literal(-1)))
          CFI (cfiCond111) CFA_SP SP+-2
          CFI (cfiCond111) CFA_XSP16 add(XSP16, 11)
          CFI Block cfiCond112 Using cfiCommon0
          CFI (cfiCond112) Function MT_ZdoMatchDescRequest
          CFI (cfiCond112) Conditional ??CrossCallReturnLabel_125
          CFI (cfiCond112) R6 load(1, XDATA, add(CFA_XSP16, literal(-14)))
          CFI (cfiCond112) VB load(1, XDATA, add(CFA_XSP16, literal(-13)))
          CFI (cfiCond112) V0 load(1, XDATA, add(CFA_XSP16, literal(-12)))
          CFI (cfiCond112) V1 load(1, XDATA, add(CFA_XSP16, literal(-11)))
          CFI (cfiCond112) V2 load(1, XDATA, add(CFA_XSP16, literal(-10)))
          CFI (cfiCond112) V3 load(1, XDATA, add(CFA_XSP16, literal(-9)))
          CFI (cfiCond112) V4 load(1, XDATA, add(CFA_XSP16, literal(-8)))
          CFI (cfiCond112) V5 load(1, XDATA, add(CFA_XSP16, literal(-7)))
          CFI (cfiCond112) R7 load(1, XDATA, add(CFA_XSP16, literal(-6)))
          CFI (cfiCond112) ?RET_LOW load(1, XDATA, add(CFA_XSP16, literal(-5)))
          CFI (cfiCond112) ?RET_HIGH load(1, XDATA, add(CFA_XSP16, literal(-4)))
          CFI (cfiCond112) ?BRET_EXT load(1, XDATA, add(CFA_XSP16, literal(-3)))
          CFI (cfiCond112) DPL0 load(1, XDATA, add(CFA_XSP16, literal(-2)))
          CFI (cfiCond112) DPH0 load(1, XDATA, add(CFA_XSP16, literal(-1)))
          CFI (cfiCond112) CFA_SP SP+-2
          CFI (cfiCond112) CFA_XSP16 add(XSP16, 88)
          CFI Block cfiCond113 Using cfiCommon0
          CFI (cfiCond113) Function MT_ZdoServiceDiscRequest
          CFI (cfiCond113) Conditional ??CrossCallReturnLabel_126
          CFI (cfiCond113) R6 load(1, XDATA, add(CFA_XSP16, literal(-9)))
          CFI (cfiCond113) VB load(1, XDATA, add(CFA_XSP16, literal(-8)))
          CFI (cfiCond113) V0 load(1, XDATA, add(CFA_XSP16, literal(-7)))
          CFI (cfiCond113) R7 load(1, XDATA, add(CFA_XSP16, literal(-6)))
          CFI (cfiCond113) ?RET_LOW load(1, XDATA, add(CFA_XSP16, literal(-5)))
          CFI (cfiCond113) ?RET_HIGH load(1, XDATA, add(CFA_XSP16, literal(-4)))
          CFI (cfiCond113) ?BRET_EXT load(1, XDATA, add(CFA_XSP16, literal(-3)))
          CFI (cfiCond113) DPL0 load(1, XDATA, add(CFA_XSP16, literal(-2)))
          CFI (cfiCond113) DPH0 load(1, XDATA, add(CFA_XSP16, literal(-1)))
          CFI (cfiCond113) CFA_SP SP+-2
          CFI (cfiCond113) CFA_XSP16 add(XSP16, 10)
          CFI Block cfiCond114 Using cfiCommon0
          CFI (cfiCond114) Function MT_ZdoRegisterForZDOMsg
          CFI (cfiCond114) Conditional ??CrossCallReturnLabel_122
          CFI (cfiCond114) R6 load(1, XDATA, add(CFA_XSP16, literal(-9)))
          CFI (cfiCond114) VB load(1, XDATA, add(CFA_XSP16, literal(-8)))
          CFI (cfiCond114) V0 load(1, XDATA, add(CFA_XSP16, literal(-7)))
          CFI (cfiCond114) R7 load(1, XDATA, add(CFA_XSP16, literal(-6)))
          CFI (cfiCond114) ?RET_LOW load(1, XDATA, add(CFA_XSP16, literal(-5)))
          CFI (cfiCond114) ?RET_HIGH load(1, XDATA, add(CFA_XSP16, literal(-4)))
          CFI (cfiCond114) ?BRET_EXT load(1, XDATA, add(CFA_XSP16, literal(-3)))
          CFI (cfiCond114) DPL0 load(1, XDATA, add(CFA_XSP16, literal(-2)))
          CFI (cfiCond114) DPH0 load(1, XDATA, add(CFA_XSP16, literal(-1)))
          CFI (cfiCond114) CFA_SP SP+-2
          CFI (cfiCond114) CFA_XSP16 add(XSP16, 10)
          CFI Block cfiCond115 Using cfiCommon0
          CFI (cfiCond115) Function MT_ZdoRemoveRegisteredCB
          CFI (cfiCond115) Conditional ??CrossCallReturnLabel_123
          CFI (cfiCond115) R6 load(1, XDATA, add(CFA_XSP16, literal(-9)))
          CFI (cfiCond115) VB load(1, XDATA, add(CFA_XSP16, literal(-8)))
          CFI (cfiCond115) V0 load(1, XDATA, add(CFA_XSP16, literal(-7)))
          CFI (cfiCond115) R7 load(1, XDATA, add(CFA_XSP16, literal(-6)))
          CFI (cfiCond115) ?RET_LOW load(1, XDATA, add(CFA_XSP16, literal(-5)))
          CFI (cfiCond115) ?RET_HIGH load(1, XDATA, add(CFA_XSP16, literal(-4)))
          CFI (cfiCond115) ?BRET_EXT load(1, XDATA, add(CFA_XSP16, literal(-3)))
          CFI (cfiCond115) DPL0 load(1, XDATA, add(CFA_XSP16, literal(-2)))
          CFI (cfiCond115) DPH0 load(1, XDATA, add(CFA_XSP16, literal(-1)))
          CFI (cfiCond115) CFA_SP SP+-2
          CFI (cfiCond115) CFA_XSP16 add(XSP16, 10)
          CFI Block cfiPicker116 Using cfiCommon1
          CFI (cfiPicker116) NoFunction
          CFI (cfiPicker116) Picker
        INC       DPTR
        INC       DPTR
        MOVX      A,@DPTR
        MOV       R6,A
        MOV       A,R2
        ADD       A,#0x3
        RET
          CFI EndBlock cfiCond110
          CFI EndBlock cfiCond111
          CFI EndBlock cfiCond112
          CFI EndBlock cfiCond113
          CFI EndBlock cfiCond114
          CFI EndBlock cfiCond115
          CFI EndBlock cfiPicker116

        RSEG BANKED_CODE:HUGECODE:NOROOT(0)
?Subroutine0:
          CFI Block cfiBlock117 Using cfiCommon0
          CFI NoFunction
          CFI CFA_SP SP+0
          CFI CFA_XSP16 add(XSP16, 20)
          CFI VB load(1, XDATA, add(CFA_XSP16, literal(-8)))
          CFI DPL0 load(1, XDATA, add(CFA_XSP16, literal(-2)))
          CFI DPH0 load(1, XDATA, add(CFA_XSP16, literal(-1)))
          CFI R6 load(1, XDATA, add(CFA_XSP16, literal(-9)))
          CFI R7 load(1, XDATA, add(CFA_XSP16, literal(-6)))
          CFI V0 load(1, XDATA, add(CFA_XSP16, literal(-7)))
          CFI ?BRET_EXT load(1, XDATA, add(CFA_XSP16, literal(-3)))
          CFI ?RET_HIGH load(1, XDATA, add(CFA_XSP16, literal(-4)))
          CFI ?RET_LOW load(1, XDATA, add(CFA_XSP16, literal(-5)))
        LCALL     ?Subroutine12 & 0xFFFF
??CrossCallReturnLabel_23:
          CFI EndBlock cfiBlock117
        REQUIRE ??Subroutine64_0
        ; // Fall through to label ??Subroutine64_0

        RSEG BANKED_CODE:HUGECODE:NOROOT(0)
??Subroutine64_0:
          CFI Block cfiBlock118 Using cfiCommon0
          CFI NoFunction
          CFI CFA_SP SP+0
          CFI CFA_XSP16 add(XSP16, 20)
          CFI VB load(1, XDATA, add(CFA_XSP16, literal(-8)))
          CFI DPL0 load(1, XDATA, add(CFA_XSP16, literal(-2)))
          CFI DPH0 load(1, XDATA, add(CFA_XSP16, literal(-1)))
          CFI R6 load(1, XDATA, add(CFA_XSP16, literal(-9)))
          CFI R7 load(1, XDATA, add(CFA_XSP16, literal(-6)))
          CFI V0 load(1, XDATA, add(CFA_XSP16, literal(-7)))
          CFI ?BRET_EXT load(1, XDATA, add(CFA_XSP16, literal(-3)))
          CFI ?RET_HIGH load(1, XDATA, add(CFA_XSP16, literal(-4)))
          CFI ?RET_LOW load(1, XDATA, add(CFA_XSP16, literal(-5)))
        LCALL     ?XSTACK_DISP101_8
        LCALL     `??ZDP_NWKAddrOfInterestReq::?relay`; Banked call to: ZDP_NWKAddrOfInterestReq
          CFI EndBlock cfiBlock118
        REQUIRE ??Subroutine65_0
        ; // Fall through to label ??Subroutine65_0

        RSEG BANKED_CODE:HUGECODE:NOROOT(0)
??Subroutine65_0:
          CFI Block cfiBlock119 Using cfiCommon0
          CFI NoFunction
          CFI CFA_SP SP+0
          CFI CFA_XSP16 add(XSP16, 20)
          CFI VB load(1, XDATA, add(CFA_XSP16, literal(-8)))
          CFI DPL0 load(1, XDATA, add(CFA_XSP16, literal(-2)))
          CFI DPH0 load(1, XDATA, add(CFA_XSP16, literal(-1)))
          CFI R6 load(1, XDATA, add(CFA_XSP16, literal(-9)))
          CFI R7 load(1, XDATA, add(CFA_XSP16, literal(-6)))
          CFI V0 load(1, XDATA, add(CFA_XSP16, literal(-7)))
          CFI ?BRET_EXT load(1, XDATA, add(CFA_XSP16, literal(-3)))
          CFI ?RET_HIGH load(1, XDATA, add(CFA_XSP16, literal(-4)))
          CFI ?RET_LOW load(1, XDATA, add(CFA_XSP16, literal(-5)))
        MOV       A,#0x1
        LCALL     ?DEALLOC_XSTACK8
          CFI CFA_XSP16 add(XSP16, 19)
        LCALL     ?Subroutine32 & 0xFFFF
??CrossCallReturnLabel_129:
        MOV       A,#0xa
          CFI EndBlock cfiBlock119
        REQUIRE ??Subroutine66_0
        ; // Fall through to label ??Subroutine66_0

        RSEG BANKED_CODE:HUGECODE:NOROOT(0)
??Subroutine66_0:
          CFI Block cfiBlock120 Using cfiCommon0
          CFI NoFunction
          CFI CFA_SP SP+0
          CFI CFA_XSP16 add(XSP16, 10)
          CFI VB load(1, XDATA, add(CFA_XSP16, literal(-8)))
          CFI DPL0 load(1, XDATA, add(CFA_XSP16, literal(-2)))
          CFI DPH0 load(1, XDATA, add(CFA_XSP16, literal(-1)))
          CFI R6 load(1, XDATA, add(CFA_XSP16, literal(-9)))
          CFI R7 load(1, XDATA, add(CFA_XSP16, literal(-6)))
          CFI V0 load(1, XDATA, add(CFA_XSP16, literal(-7)))
          CFI ?BRET_EXT load(1, XDATA, add(CFA_XSP16, literal(-3)))
          CFI ?RET_HIGH load(1, XDATA, add(CFA_XSP16, literal(-4)))
          CFI ?RET_LOW load(1, XDATA, add(CFA_XSP16, literal(-5)))
          CFI Invalid
        LCALL     ?DEALLOC_XSTACK8
          CFI EndBlock cfiBlock120
        REQUIRE ??Subroutine67_0
        ; // Fall through to label ??Subroutine67_0

        RSEG BANKED_CODE:HUGECODE:NOROOT(0)
??Subroutine67_0:
          CFI Block cfiBlock121 Using cfiCommon0
          CFI NoFunction
          CFI CFA_SP SP+0
          CFI CFA_XSP16 add(XSP16, 9)
          CFI VB load(1, XDATA, add(CFA_XSP16, literal(-8)))
          CFI DPL0 load(1, XDATA, add(CFA_XSP16, literal(-2)))
          CFI DPH0 load(1, XDATA, add(CFA_XSP16, literal(-1)))
          CFI R6 load(1, XDATA, add(CFA_XSP16, literal(-9)))
          CFI R7 load(1, XDATA, add(CFA_XSP16, literal(-6)))
          CFI V0 load(1, XDATA, add(CFA_XSP16, literal(-7)))
          CFI ?BRET_EXT load(1, XDATA, add(CFA_XSP16, literal(-3)))
          CFI ?RET_HIGH load(1, XDATA, add(CFA_XSP16, literal(-4)))
          CFI ?RET_LOW load(1, XDATA, add(CFA_XSP16, literal(-5)))
        MOV       R7,#0x1
        LJMP      ?BANKED_LEAVE_XDATA
          CFI EndBlock cfiBlock121

        RSEG BANKED_CODE:HUGECODE:NOROOT(0)
?Subroutine32:
          CFI Block cfiCond122 Using cfiCommon0
          CFI Function MT_ZdoNWKAddressRequest
          CFI Conditional ??CrossCallReturnLabel_128
          CFI R6 load(1, XDATA, add(CFA_XSP16, literal(-10)))
          CFI VB load(1, XDATA, add(CFA_XSP16, literal(-9)))
          CFI V0 load(1, XDATA, add(CFA_XSP16, literal(-8)))
          CFI V1 load(1, XDATA, add(CFA_XSP16, literal(-7)))
          CFI R7 load(1, XDATA, add(CFA_XSP16, literal(-6)))
          CFI ?RET_LOW load(1, XDATA, add(CFA_XSP16, literal(-5)))
          CFI ?RET_HIGH load(1, XDATA, add(CFA_XSP16, literal(-4)))
          CFI ?BRET_EXT load(1, XDATA, add(CFA_XSP16, literal(-3)))
          CFI DPL0 load(1, XDATA, add(CFA_XSP16, literal(-2)))
          CFI DPH0 load(1, XDATA, add(CFA_XSP16, literal(-1)))
          CFI CFA_SP SP+-2
          CFI CFA_XSP16 add(XSP16, 11)
          CFI Block cfiCond123 Using cfiCommon0
          CFI (cfiCond123) Function MT_ZdoIEEEAddrRequest
          CFI (cfiCond123) Conditional ??CrossCallReturnLabel_128
          CFI (cfiCond123) R6 load(1, XDATA, add(CFA_XSP16, literal(-10)))
          CFI (cfiCond123) VB load(1, XDATA, add(CFA_XSP16, literal(-9)))
          CFI (cfiCond123) V0 load(1, XDATA, add(CFA_XSP16, literal(-8)))
          CFI (cfiCond123) V1 load(1, XDATA, add(CFA_XSP16, literal(-7)))
          CFI (cfiCond123) R7 load(1, XDATA, add(CFA_XSP16, literal(-6)))
          CFI (cfiCond123) ?RET_LOW load(1, XDATA, add(CFA_XSP16, literal(-5)))
          CFI (cfiCond123) ?RET_HIGH load(1, XDATA, add(CFA_XSP16, literal(-4)))
          CFI (cfiCond123) ?BRET_EXT load(1, XDATA, add(CFA_XSP16, literal(-3)))
          CFI (cfiCond123) DPL0 load(1, XDATA, add(CFA_XSP16, literal(-2)))
          CFI (cfiCond123) DPH0 load(1, XDATA, add(CFA_XSP16, literal(-1)))
          CFI (cfiCond123) CFA_SP SP+-2
          CFI (cfiCond123) CFA_XSP16 add(XSP16, 11)
          CFI Block cfiCond124 Using cfiCommon0
          CFI (cfiCond124) Function MT_ZdoPowerDescRequest
          CFI (cfiCond124) Conditional ??CrossCallReturnLabel_129
          CFI (cfiCond124) R6 load(1, XDATA, add(CFA_XSP16, literal(-9)))
          CFI (cfiCond124) VB load(1, XDATA, add(CFA_XSP16, literal(-8)))
          CFI (cfiCond124) V0 load(1, XDATA, add(CFA_XSP16, literal(-7)))
          CFI (cfiCond124) R7 load(1, XDATA, add(CFA_XSP16, literal(-6)))
          CFI (cfiCond124) ?RET_LOW load(1, XDATA, add(CFA_XSP16, literal(-5)))
          CFI (cfiCond124) ?RET_HIGH load(1, XDATA, add(CFA_XSP16, literal(-4)))
          CFI (cfiCond124) ?BRET_EXT load(1, XDATA, add(CFA_XSP16, literal(-3)))
          CFI (cfiCond124) DPL0 load(1, XDATA, add(CFA_XSP16, literal(-2)))
          CFI (cfiCond124) DPH0 load(1, XDATA, add(CFA_XSP16, literal(-1)))
          CFI (cfiCond124) CFA_SP SP+-2
          CFI (cfiCond124) CFA_XSP16 add(XSP16, 19)
          CFI Block cfiCond125 Using cfiCommon0
          CFI (cfiCond125) Function MT_ZdoActiveEpRequest
          CFI (cfiCond125) Conditional ??CrossCallReturnLabel_129
          CFI (cfiCond125) R6 load(1, XDATA, add(CFA_XSP16, literal(-9)))
          CFI (cfiCond125) VB load(1, XDATA, add(CFA_XSP16, literal(-8)))
          CFI (cfiCond125) V0 load(1, XDATA, add(CFA_XSP16, literal(-7)))
          CFI (cfiCond125) R7 load(1, XDATA, add(CFA_XSP16, literal(-6)))
          CFI (cfiCond125) ?RET_LOW load(1, XDATA, add(CFA_XSP16, literal(-5)))
          CFI (cfiCond125) ?RET_HIGH load(1, XDATA, add(CFA_XSP16, literal(-4)))
          CFI (cfiCond125) ?BRET_EXT load(1, XDATA, add(CFA_XSP16, literal(-3)))
          CFI (cfiCond125) DPL0 load(1, XDATA, add(CFA_XSP16, literal(-2)))
          CFI (cfiCond125) DPH0 load(1, XDATA, add(CFA_XSP16, literal(-1)))
          CFI (cfiCond125) CFA_SP SP+-2
          CFI (cfiCond125) CFA_XSP16 add(XSP16, 19)
          CFI Block cfiCond126 Using cfiCommon0
          CFI (cfiCond126) Function MT_ZdoComplexDescRequest
          CFI (cfiCond126) Conditional ??CrossCallReturnLabel_129
          CFI (cfiCond126) R6 load(1, XDATA, add(CFA_XSP16, literal(-9)))
          CFI (cfiCond126) VB load(1, XDATA, add(CFA_XSP16, literal(-8)))
          CFI (cfiCond126) V0 load(1, XDATA, add(CFA_XSP16, literal(-7)))
          CFI (cfiCond126) R7 load(1, XDATA, add(CFA_XSP16, literal(-6)))
          CFI (cfiCond126) ?RET_LOW load(1, XDATA, add(CFA_XSP16, literal(-5)))
          CFI (cfiCond126) ?RET_HIGH load(1, XDATA, add(CFA_XSP16, literal(-4)))
          CFI (cfiCond126) ?BRET_EXT load(1, XDATA, add(CFA_XSP16, literal(-3)))
          CFI (cfiCond126) DPL0 load(1, XDATA, add(CFA_XSP16, literal(-2)))
          CFI (cfiCond126) DPH0 load(1, XDATA, add(CFA_XSP16, literal(-1)))
          CFI (cfiCond126) CFA_SP SP+-2
          CFI (cfiCond126) CFA_XSP16 add(XSP16, 19)
          CFI Block cfiCond127 Using cfiCommon0
          CFI (cfiCond127) Function MT_ZdoUserDescRequest
          CFI (cfiCond127) Conditional ??CrossCallReturnLabel_129
          CFI (cfiCond127) R6 load(1, XDATA, add(CFA_XSP16, literal(-9)))
          CFI (cfiCond127) VB load(1, XDATA, add(CFA_XSP16, literal(-8)))
          CFI (cfiCond127) V0 load(1, XDATA, add(CFA_XSP16, literal(-7)))
          CFI (cfiCond127) R7 load(1, XDATA, add(CFA_XSP16, literal(-6)))
          CFI (cfiCond127) ?RET_LOW load(1, XDATA, add(CFA_XSP16, literal(-5)))
          CFI (cfiCond127) ?RET_HIGH load(1, XDATA, add(CFA_XSP16, literal(-4)))
          CFI (cfiCond127) ?BRET_EXT load(1, XDATA, add(CFA_XSP16, literal(-3)))
          CFI (cfiCond127) DPL0 load(1, XDATA, add(CFA_XSP16, literal(-2)))
          CFI (cfiCond127) DPH0 load(1, XDATA, add(CFA_XSP16, literal(-1)))
          CFI (cfiCond127) CFA_SP SP+-2
          CFI (cfiCond127) CFA_XSP16 add(XSP16, 19)
          CFI Block cfiCond128 Using cfiCommon0
          CFI (cfiCond128) Function MT_ZdoNodeDescRequest
          CFI (cfiCond128) Conditional ??CrossCallReturnLabel_129
          CFI (cfiCond128) R6 load(1, XDATA, add(CFA_XSP16, literal(-9)))
          CFI (cfiCond128) VB load(1, XDATA, add(CFA_XSP16, literal(-8)))
          CFI (cfiCond128) V0 load(1, XDATA, add(CFA_XSP16, literal(-7)))
          CFI (cfiCond128) R7 load(1, XDATA, add(CFA_XSP16, literal(-6)))
          CFI (cfiCond128) ?RET_LOW load(1, XDATA, add(CFA_XSP16, literal(-5)))
          CFI (cfiCond128) ?RET_HIGH load(1, XDATA, add(CFA_XSP16, literal(-4)))
          CFI (cfiCond128) ?BRET_EXT load(1, XDATA, add(CFA_XSP16, literal(-3)))
          CFI (cfiCond128) DPL0 load(1, XDATA, add(CFA_XSP16, literal(-2)))
          CFI (cfiCond128) DPH0 load(1, XDATA, add(CFA_XSP16, literal(-1)))
          CFI (cfiCond128) CFA_SP SP+-2
          CFI (cfiCond128) CFA_XSP16 add(XSP16, 19)
          CFI Block cfiCond129 Using cfiCommon0
          CFI (cfiCond129) Function MT_ZdoSimpleDescRequest
          CFI (cfiCond129) Conditional ??CrossCallReturnLabel_129
          CFI (cfiCond129) R6 load(1, XDATA, add(CFA_XSP16, literal(-9)))
          CFI (cfiCond129) VB load(1, XDATA, add(CFA_XSP16, literal(-8)))
          CFI (cfiCond129) V0 load(1, XDATA, add(CFA_XSP16, literal(-7)))
          CFI (cfiCond129) R7 load(1, XDATA, add(CFA_XSP16, literal(-6)))
          CFI (cfiCond129) ?RET_LOW load(1, XDATA, add(CFA_XSP16, literal(-5)))
          CFI (cfiCond129) ?RET_HIGH load(1, XDATA, add(CFA_XSP16, literal(-4)))
          CFI (cfiCond129) ?BRET_EXT load(1, XDATA, add(CFA_XSP16, literal(-3)))
          CFI (cfiCond129) DPL0 load(1, XDATA, add(CFA_XSP16, literal(-2)))
          CFI (cfiCond129) DPH0 load(1, XDATA, add(CFA_XSP16, literal(-1)))
          CFI (cfiCond129) CFA_SP SP+-2
          CFI (cfiCond129) CFA_XSP16 add(XSP16, 19)
          CFI Block cfiCond130 Using cfiCommon0
          CFI (cfiCond130) Function MT_ZdoEndDevAnnce
          CFI (cfiCond130) Conditional ??CrossCallReturnLabel_130
          CFI (cfiCond130) R6 load(1, XDATA, add(CFA_XSP16, literal(-9)))
          CFI (cfiCond130) VB load(1, XDATA, add(CFA_XSP16, literal(-8)))
          CFI (cfiCond130) V0 load(1, XDATA, add(CFA_XSP16, literal(-7)))
          CFI (cfiCond130) R7 load(1, XDATA, add(CFA_XSP16, literal(-6)))
          CFI (cfiCond130) ?RET_LOW load(1, XDATA, add(CFA_XSP16, literal(-5)))
          CFI (cfiCond130) ?RET_HIGH load(1, XDATA, add(CFA_XSP16, literal(-4)))
          CFI (cfiCond130) ?BRET_EXT load(1, XDATA, add(CFA_XSP16, literal(-3)))
          CFI (cfiCond130) DPL0 load(1, XDATA, add(CFA_XSP16, literal(-2)))
          CFI (cfiCond130) DPH0 load(1, XDATA, add(CFA_XSP16, literal(-1)))
          CFI (cfiCond130) CFA_SP SP+-2
          CFI (cfiCond130) CFA_XSP16 add(XSP16, 10)
          CFI Block cfiCond131 Using cfiCommon0
          CFI (cfiCond131) Function MT_ZdoServiceDiscRequest
          CFI (cfiCond131) Conditional ??CrossCallReturnLabel_130
          CFI (cfiCond131) R6 load(1, XDATA, add(CFA_XSP16, literal(-9)))
          CFI (cfiCond131) VB load(1, XDATA, add(CFA_XSP16, literal(-8)))
          CFI (cfiCond131) V0 load(1, XDATA, add(CFA_XSP16, literal(-7)))
          CFI (cfiCond131) R7 load(1, XDATA, add(CFA_XSP16, literal(-6)))
          CFI (cfiCond131) ?RET_LOW load(1, XDATA, add(CFA_XSP16, literal(-5)))
          CFI (cfiCond131) ?RET_HIGH load(1, XDATA, add(CFA_XSP16, literal(-4)))
          CFI (cfiCond131) ?BRET_EXT load(1, XDATA, add(CFA_XSP16, literal(-3)))
          CFI (cfiCond131) DPL0 load(1, XDATA, add(CFA_XSP16, literal(-2)))
          CFI (cfiCond131) DPH0 load(1, XDATA, add(CFA_XSP16, literal(-1)))
          CFI (cfiCond131) CFA_SP SP+-2
          CFI (cfiCond131) CFA_XSP16 add(XSP16, 10)
          CFI Block cfiPicker132 Using cfiCommon1
          CFI (cfiPicker132) NoFunction
          CFI (cfiPicker132) Picker
        MOV       A,R1
        MOV       DPL,?XSP + 0
        MOV       DPH,?XSP + 1
        MOVX      @DPTR,A
        ; Setup parameters for call to function MT_BuildAndSendZToolResponse
        ; Setup parameters for call to function MT_BuildAndSendZToolResponse
        ; Setup parameters for call to function MT_BuildAndSendZToolResponse
        ; Setup parameters for call to function MT_BuildAndSendZToolResponse
        ; Setup parameters for call to function MT_BuildAndSendZToolResponse
        ; Setup parameters for call to function MT_BuildAndSendZToolResponse
        ; Setup parameters for call to function MT_BuildAndSendZToolResponse
        ; Setup parameters for call to function MT_BuildAndSendZToolResponse
        ; Setup parameters for call to function MT_BuildAndSendZToolResponse
        ; Setup parameters for call to function MT_BuildAndSendZToolResponse
        MOV       R4,?XSP + 0
        MOV       R5,?XSP + 1
        MOV       R3,#0x1
        MOV       A,R6
        MOV       R2,A
        MOV       R1,#0x65
        LCALL     `??MT_BuildAndSendZToolResponse::?relay`; Banked call to: MT_BuildAndSendZToolResponse
        RET
          CFI EndBlock cfiCond122
          CFI EndBlock cfiCond123
          CFI EndBlock cfiCond124
          CFI EndBlock cfiCond125
          CFI EndBlock cfiCond126
          CFI EndBlock cfiCond127
          CFI EndBlock cfiCond128
          CFI EndBlock cfiCond129
          CFI EndBlock cfiCond130
          CFI EndBlock cfiCond131
          CFI EndBlock cfiPicker132

        RSEG BANKED_CODE:HUGECODE:NOROOT(0)
?Subroutine12:
          CFI Block cfiCond133 Using cfiCommon0
          CFI Function MT_ZdoSimpleDescRequest
          CFI Conditional ??CrossCallReturnLabel_22
          CFI R6 load(1, XDATA, add(CFA_XSP16, literal(-9)))
          CFI VB load(1, XDATA, add(CFA_XSP16, literal(-8)))
          CFI V0 load(1, XDATA, add(CFA_XSP16, literal(-7)))
          CFI R7 load(1, XDATA, add(CFA_XSP16, literal(-6)))
          CFI ?RET_LOW load(1, XDATA, add(CFA_XSP16, literal(-5)))
          CFI ?RET_HIGH load(1, XDATA, add(CFA_XSP16, literal(-4)))
          CFI ?BRET_EXT load(1, XDATA, add(CFA_XSP16, literal(-3)))
          CFI DPL0 load(1, XDATA, add(CFA_XSP16, literal(-2)))
          CFI DPH0 load(1, XDATA, add(CFA_XSP16, literal(-1)))
          CFI CFA_SP SP+-2
          CFI CFA_XSP16 add(XSP16, 20)
          CFI Block cfiCond134 Using cfiCommon0
          CFI (cfiCond134) Function MT_ZdoPowerDescRequest
          CFI (cfiCond134) Conditional ??CrossCallReturnLabel_23
          CFI (cfiCond134) R6 load(1, XDATA, add(CFA_XSP16, literal(-9)))
          CFI (cfiCond134) VB load(1, XDATA, add(CFA_XSP16, literal(-8)))
          CFI (cfiCond134) V0 load(1, XDATA, add(CFA_XSP16, literal(-7)))
          CFI (cfiCond134) R7 load(1, XDATA, add(CFA_XSP16, literal(-6)))
          CFI (cfiCond134) ?RET_LOW load(1, XDATA, add(CFA_XSP16, literal(-5)))
          CFI (cfiCond134) ?RET_HIGH load(1, XDATA, add(CFA_XSP16, literal(-4)))
          CFI (cfiCond134) ?BRET_EXT load(1, XDATA, add(CFA_XSP16, literal(-3)))
          CFI (cfiCond134) DPL0 load(1, XDATA, add(CFA_XSP16, literal(-2)))
          CFI (cfiCond134) DPH0 load(1, XDATA, add(CFA_XSP16, literal(-1)))
          CFI (cfiCond134) CFA_SP SP+-2
          CFI (cfiCond134) CFA_XSP16 add(XSP16, 20)
          CFI Block cfiCond135 Using cfiCommon0
          CFI (cfiCond135) Function MT_ZdoActiveEpRequest
          CFI (cfiCond135) Conditional ??CrossCallReturnLabel_23
          CFI (cfiCond135) R6 load(1, XDATA, add(CFA_XSP16, literal(-9)))
          CFI (cfiCond135) VB load(1, XDATA, add(CFA_XSP16, literal(-8)))
          CFI (cfiCond135) V0 load(1, XDATA, add(CFA_XSP16, literal(-7)))
          CFI (cfiCond135) R7 load(1, XDATA, add(CFA_XSP16, literal(-6)))
          CFI (cfiCond135) ?RET_LOW load(1, XDATA, add(CFA_XSP16, literal(-5)))
          CFI (cfiCond135) ?RET_HIGH load(1, XDATA, add(CFA_XSP16, literal(-4)))
          CFI (cfiCond135) ?BRET_EXT load(1, XDATA, add(CFA_XSP16, literal(-3)))
          CFI (cfiCond135) DPL0 load(1, XDATA, add(CFA_XSP16, literal(-2)))
          CFI (cfiCond135) DPH0 load(1, XDATA, add(CFA_XSP16, literal(-1)))
          CFI (cfiCond135) CFA_SP SP+-2
          CFI (cfiCond135) CFA_XSP16 add(XSP16, 20)
          CFI Block cfiCond136 Using cfiCommon0
          CFI (cfiCond136) Function MT_ZdoComplexDescRequest
          CFI (cfiCond136) Conditional ??CrossCallReturnLabel_23
          CFI (cfiCond136) R6 load(1, XDATA, add(CFA_XSP16, literal(-9)))
          CFI (cfiCond136) VB load(1, XDATA, add(CFA_XSP16, literal(-8)))
          CFI (cfiCond136) V0 load(1, XDATA, add(CFA_XSP16, literal(-7)))
          CFI (cfiCond136) R7 load(1, XDATA, add(CFA_XSP16, literal(-6)))
          CFI (cfiCond136) ?RET_LOW load(1, XDATA, add(CFA_XSP16, literal(-5)))
          CFI (cfiCond136) ?RET_HIGH load(1, XDATA, add(CFA_XSP16, literal(-4)))
          CFI (cfiCond136) ?BRET_EXT load(1, XDATA, add(CFA_XSP16, literal(-3)))
          CFI (cfiCond136) DPL0 load(1, XDATA, add(CFA_XSP16, literal(-2)))
          CFI (cfiCond136) DPH0 load(1, XDATA, add(CFA_XSP16, literal(-1)))
          CFI (cfiCond136) CFA_SP SP+-2
          CFI (cfiCond136) CFA_XSP16 add(XSP16, 20)
          CFI Block cfiCond137 Using cfiCommon0
          CFI (cfiCond137) Function MT_ZdoUserDescRequest
          CFI (cfiCond137) Conditional ??CrossCallReturnLabel_23
          CFI (cfiCond137) R6 load(1, XDATA, add(CFA_XSP16, literal(-9)))
          CFI (cfiCond137) VB load(1, XDATA, add(CFA_XSP16, literal(-8)))
          CFI (cfiCond137) V0 load(1, XDATA, add(CFA_XSP16, literal(-7)))
          CFI (cfiCond137) R7 load(1, XDATA, add(CFA_XSP16, literal(-6)))
          CFI (cfiCond137) ?RET_LOW load(1, XDATA, add(CFA_XSP16, literal(-5)))
          CFI (cfiCond137) ?RET_HIGH load(1, XDATA, add(CFA_XSP16, literal(-4)))
          CFI (cfiCond137) ?BRET_EXT load(1, XDATA, add(CFA_XSP16, literal(-3)))
          CFI (cfiCond137) DPL0 load(1, XDATA, add(CFA_XSP16, literal(-2)))
          CFI (cfiCond137) DPH0 load(1, XDATA, add(CFA_XSP16, literal(-1)))
          CFI (cfiCond137) CFA_SP SP+-2
          CFI (cfiCond137) CFA_XSP16 add(XSP16, 20)
          CFI Block cfiPicker138 Using cfiCommon1
          CFI (cfiPicker138) NoFunction
          CFI (cfiPicker138) Picker
        MOV       DPL,R2
        MOV       DPH,R3
        LCALL     ?Subroutine46 & 0xFFFF
??CrossCallReturnLabel_92:
        MOV       A,#0x2
        RET
          CFI EndBlock cfiCond133
          CFI EndBlock cfiCond134
          CFI EndBlock cfiCond135
          CFI EndBlock cfiCond136
          CFI EndBlock cfiCond137
          CFI EndBlock cfiPicker138
//  835 
//  836 /***************************************************************************************************
//  837  * @fn      MT_ZdoEndDevBindRequest
//  838  *
//  839  * @brief   Handle a End Device Bind request.
//  840  *
//  841  * @param   pBuf  - MT message data
//  842  *
//  843  * @return  void
//  844  ***************************************************************************************************/

        RSEG BANKED_CODE:HUGECODE:NOROOT(0)
//  845 void MT_ZdoEndDevBindRequest(uint8 *pBuf)
MT_ZdoEndDevBindRequest:
          CFI Block cfiBlock139 Using cfiCommon0
          CFI Function MT_ZdoEndDevBindRequest
        CODE
//  846 {
        FUNCALL MT_ZdoEndDevBindRequest, ZDP_EndDeviceBindReq
        LOCFRAME ISTACK, 0, STACK
        LOCFRAME PSTACK, 0, STACK
        LOCFRAME XSTACK, 94, STACK
        LOCFRAME IOVERLAY, 0, STATIC
        LOCFRAME DOVERLAY, 0, STATIC
        ARGFRAME ISTACK, 0, STACK
        ARGFRAME PSTACK, 0, STACK
        ARGFRAME XSTACK, 94, STACK
        ARGFRAME IOVERLAY, 0, STATIC
        ARGFRAME DOVERLAY, 0, STATIC
        FUNCALL MT_ZdoEndDevBindRequest, MT_BuildAndSendZToolResponse
        LOCFRAME ISTACK, 0, STACK
        LOCFRAME PSTACK, 0, STACK
        LOCFRAME XSTACK, 85, STACK
        LOCFRAME IOVERLAY, 0, STATIC
        LOCFRAME DOVERLAY, 0, STATIC
        ARGFRAME ISTACK, 0, STACK
        ARGFRAME PSTACK, 0, STACK
        ARGFRAME XSTACK, 85, STACK
        ARGFRAME IOVERLAY, 0, STATIC
        ARGFRAME DOVERLAY, 0, STATIC
        REQUIRE ?V0
        REQUIRE ?V1
        REQUIRE ?V2
        REQUIRE ?V3
        REQUIRE ?V4
        REQUIRE ?V5
        REQUIRE ?V6
        MOV       A,#-0xf
        LCALL     ?BANKED_ENTER_XDATA
          CFI DPH0 load(1, XDATA, add(CFA_XSP16, literal(-1)))
          CFI DPL0 load(1, XDATA, add(CFA_XSP16, literal(-2)))
          CFI ?BRET_EXT load(1, XDATA, add(CFA_XSP16, literal(-3)))
          CFI ?RET_HIGH load(1, XDATA, add(CFA_XSP16, literal(-4)))
          CFI ?RET_LOW load(1, XDATA, add(CFA_XSP16, literal(-5)))
          CFI R7 load(1, XDATA, add(CFA_XSP16, literal(-6)))
          CFI V6 load(1, XDATA, add(CFA_XSP16, literal(-7)))
          CFI V5 load(1, XDATA, add(CFA_XSP16, literal(-8)))
          CFI V4 load(1, XDATA, add(CFA_XSP16, literal(-9)))
          CFI V3 load(1, XDATA, add(CFA_XSP16, literal(-10)))
          CFI V2 load(1, XDATA, add(CFA_XSP16, literal(-11)))
          CFI V1 load(1, XDATA, add(CFA_XSP16, literal(-12)))
          CFI V0 load(1, XDATA, add(CFA_XSP16, literal(-13)))
          CFI VB load(1, XDATA, add(CFA_XSP16, literal(-14)))
          CFI R6 load(1, XDATA, add(CFA_XSP16, literal(-15)))
          CFI CFA_SP SP+0
          CFI CFA_XSP16 add(XSP16, 15)
        ; Saved register size: 15
        ; Auto size: 70
        MOV       A,#-0x46
        LCALL     ?ALLOC_XSTACK8
          CFI CFA_XSP16 add(XSP16, 85)
        MOV       A,R3
        MOV       R7,A
//  847   uint8 cmdId;
//  848   uint8 retValue = 0;
        MOV       DPL,?XSP + 0
        MOV       DPH,?XSP + 1
        CLR       A
        LCALL     ??Subroutine71_0 & 0xFFFF
//  849   uint8 i, epInt, numInClusters, numOutClusters;
//  850   zAddrType_t destAddr;
//  851   uint16 shortAddr;
//  852   uint16 profileID, inClusters[MTZDO_MAX_ED_BIND_CLUSTERS], outClusters[MTZDO_MAX_ED_BIND_CLUSTERS];
//  853 
//  854   /* parse header */
//  855   cmdId = pBuf[MT_RPC_POS_CMD1];
??CrossCallReturnLabel_139:
        MOV       ?V6,A
//  856   pBuf += MT_RPC_FRAME_HDR_SZ;
        MOV       A,R2
        ADD       A,#0x3
        MOV       R6,A
        JNC       ??MT_ZdoEndDevBindRequest_0
        INC       R7
//  857 
//  858   /* Dev address */
//  859   destAddr.addrMode = Addr16Bit;
??MT_ZdoEndDevBindRequest_0:
        MOV       A,#0x9
        LCALL     ?XSTACK_DISP0_8
        MOV       A,#0x2
        LCALL     ?Subroutine37 & 0xFFFF
//  860   destAddr.addr.shortAddr = BUILD_UINT16( pBuf[0], pBuf[1] );
??CrossCallReturnLabel_70:
        LCALL     ??Subroutine69_0 & 0xFFFF
??CrossCallReturnLabel_134:
        LCALL     ?XSTACK_DISP0_8
        MOV       A,R2
        MOVX      @DPTR,A
        INC       DPTR
        MOV       A,R1
        MOVX      @DPTR,A
//  861   pBuf += 2;
        MOV       A,R6
        ADD       A,#0x2
        MOV       R6,A
        JNC       ??MT_ZdoEndDevBindRequest_1
        INC       R7
//  862 
//  863   /* Local coordinator of the binding */
//  864   shortAddr = BUILD_UINT16( pBuf[0], pBuf[1] );
??MT_ZdoEndDevBindRequest_1:
        MOV       DPL,A
        MOV       DPH,R7
        LCALL     ?Subroutine23 & 0xFFFF
??CrossCallReturnLabel_42:
        MOV       R4,A
        CLR       A
        ADDC      A,R1
        MOV       R5,A
//  865   pBuf += 2;
//  866 
//  867   /* For now, skip past the extended address */
//  868   pBuf += Z_EXTADDR_LEN;
//  869 
//  870   /* Endpoint */
//  871   epInt = *pBuf++;
        MOV       DPL,R6
        MOV       DPH,R7
        INC       DPTR
        INC       DPTR
        INC       DPTR
        INC       DPTR
        INC       DPTR
        INC       DPTR
        INC       DPTR
        INC       DPTR
        INC       DPTR
        INC       DPTR
        MOVX      A,@DPTR
        MOV       R1,A
        MOV       A,R6
        ADD       A,#0xb
        MOV       R6,A
        JNC       ??MT_ZdoEndDevBindRequest_2
        INC       R7
//  872 
//  873   /* Profile ID */
//  874   profileID = BUILD_UINT16( pBuf[0], pBuf[1] );
??MT_ZdoEndDevBindRequest_2:
        MOV       DPL,A
        MOV       DPH,R7
        LCALL     ?Subroutine17 & 0xFFFF
//  875   pBuf += 2;
//  876 
//  877   /* NumInClusters */
//  878   numInClusters = *pBuf++;
??CrossCallReturnLabel_32:
        MOV       DPL,R6
        MOV       DPH,R7
        INC       DPTR
        INC       DPTR
        MOVX      A,@DPTR
        MOV       ?V2,A
        MOV       A,R6
        ADD       A,#0x3
        MOV       R6,A
        JNC       ??MT_ZdoEndDevBindRequest_3
        INC       R7
//  879   if ( numInClusters <= MTZDO_MAX_ED_BIND_CLUSTERS )
??MT_ZdoEndDevBindRequest_3:
        MOV       A,?V2
        CLR       C
        SUBB      A,#0x10
        JNC       ??MT_ZdoEndDevBindRequest_4
//  880   {
//  881     for ( i = 0; i < numInClusters; i++ )
        MOV       R0,#0x0
??MT_ZdoEndDevBindRequest_5:
        MOV       A,R0
        CLR       C
        SUBB      A,?V2
        JNC       ??MT_ZdoEndDevBindRequest_6
//  882     {
//  883       inClusters[i] = BUILD_UINT16(pBuf[0], pBuf[1]);
        LCALL     ?Subroutine10 & 0xFFFF
//  884       pBuf += 2;
//  885     }
??CrossCallReturnLabel_18:
        MOV       A,#0x28
        LCALL     ?XSTACK_DISP0_8
        LCALL     ?Subroutine30 & 0xFFFF
??CrossCallReturnLabel_53:
        JNC       ??MT_ZdoEndDevBindRequest_7
        INC       R7
??MT_ZdoEndDevBindRequest_7:
        INC       R0
        SJMP      ??MT_ZdoEndDevBindRequest_5
//  886   }
//  887   else
//  888   {
//  889     retValue = ZDP_INVALID_REQTYPE;
??MT_ZdoEndDevBindRequest_4:
        MOV       DPL,?XSP + 0
        MOV       DPH,?XSP + 1
        MOV       A,#-0x80
        MOVX      @DPTR,A
//  890   }
//  891 
//  892   /* NumOutClusters */
//  893   numOutClusters = *pBuf++;
??MT_ZdoEndDevBindRequest_6:
        MOV       DPL,R6
        MOV       DPH,R7
        MOVX      A,@DPTR
        MOV       ?V3,A
        INC       DPTR
        MOV       R6,DPL
        MOV       R7,DPH
//  894   if ( numOutClusters <= MTZDO_MAX_ED_BIND_CLUSTERS )
        CLR       C
        SUBB      A,#0x10
        JNC       ??MT_ZdoEndDevBindRequest_8
//  895   {
//  896     for ( i = 0; i < numOutClusters; i++ )
        MOV       R0,#0x0
??MT_ZdoEndDevBindRequest_9:
        MOV       A,R0
        CLR       C
        SUBB      A,?V3
        JNC       ??MT_ZdoEndDevBindRequest_10
//  897     {
//  898       outClusters[i] = BUILD_UINT16(pBuf[0], pBuf[1]);
        LCALL     ?Subroutine10 & 0xFFFF
//  899       pBuf += 2;
//  900     }
??CrossCallReturnLabel_19:
        MOV       A,#0xa
        LCALL     ?XSTACK_DISP0_8
        LCALL     ?Subroutine30 & 0xFFFF
??CrossCallReturnLabel_54:
        JNC       ??MT_ZdoEndDevBindRequest_11
        INC       R7
??MT_ZdoEndDevBindRequest_11:
        INC       R0
        SJMP      ??MT_ZdoEndDevBindRequest_9
//  901   }
//  902   else
//  903   {
//  904     retValue = ZDP_INVALID_REQTYPE;
??MT_ZdoEndDevBindRequest_8:
        MOV       DPL,?XSP + 0
        MOV       DPH,?XSP + 1
        MOV       A,#-0x80
        SJMP      ??MT_ZdoEndDevBindRequest_12
//  905   }
//  906 
//  907   if ( retValue == 0 )
??MT_ZdoEndDevBindRequest_10:
        MOV       DPL,?XSP + 0
        MOV       DPH,?XSP + 1
        MOVX      A,@DPTR
        JNZ       ??MT_ZdoEndDevBindRequest_13
//  908   {
//  909     retValue = (uint8)ZDP_EndDeviceBindReq( &destAddr, shortAddr, epInt, profileID,
//  910                                           numInClusters, inClusters, numOutClusters, outClusters, 0);
        ; Setup parameters for call to function ZDP_EndDeviceBindReq
        MOV       ?V0,#0x0
        MOV       R0,#?V0
        LCALL     ?PUSH_XSTACK_I_ONE
          CFI CFA_XSP16 add(XSP16, 86)
        MOV       A,#0xb
        LCALL     ?XSTACK_DISP103_8
        MOV       ?V0,R6
        MOV       ?V1,R7
        MOV       R0,#?V0
        LCALL     ?PUSH_XSTACK_I_TWO
          CFI CFA_XSP16 add(XSP16, 88)
        MOV       A,?V3
        MOV       ?V0,A
        MOV       R0,#?V0
        LCALL     ?PUSH_XSTACK_I_ONE
          CFI CFA_XSP16 add(XSP16, 89)
        MOV       A,#0x2c
        LCALL     ?XSTACK_DISP103_8
        MOV       ?V0,R6
        MOV       ?V1,R7
        MOV       R0,#?V0
        LCALL     ?PUSH_XSTACK_I_TWO
          CFI CFA_XSP16 add(XSP16, 91)
        MOV       A,?V2
        MOV       ?V0,A
        MOV       R0,#?V0
        LCALL     ?PUSH_XSTACK_I_ONE
          CFI CFA_XSP16 add(XSP16, 92)
        MOV       ?V0,R2
        MOV       ?V1,R3
        MOV       R0,#?V0
        LCALL     ?PUSH_XSTACK_I_TWO
          CFI CFA_XSP16 add(XSP16, 94)
        MOV       A,#0xa
        LCALL     ?XSTACK_DISP101_8
        LCALL     `??ZDP_EndDeviceBindReq::?relay`; Banked call to: ZDP_EndDeviceBindReq
        MOV       A,#0x9
        LCALL     ?DEALLOC_XSTACK8
          CFI CFA_XSP16 add(XSP16, 85)
        MOV       A,R1
        MOV       DPL,?XSP + 0
        MOV       DPH,?XSP + 1
??MT_ZdoEndDevBindRequest_12:
        MOVX      @DPTR,A
//  911   }
//  912 
//  913   MT_BuildAndSendZToolResponse(((uint8)MT_RPC_CMD_SRSP | (uint8)MT_RPC_SYS_ZDO), cmdId, 1, &retValue);
??MT_ZdoEndDevBindRequest_13:
        ; Setup parameters for call to function MT_BuildAndSendZToolResponse
        MOV       R4,?XSP + 0
        MOV       R5,?XSP + 1
        MOV       R3,#0x1
        MOV       R2,?V6
        MOV       R1,#0x65
        LCALL     `??MT_BuildAndSendZToolResponse::?relay`; Banked call to: MT_BuildAndSendZToolResponse
//  914 }
        MOV       A,#0x46
        LCALL     ?DEALLOC_XSTACK8
          CFI CFA_XSP16 add(XSP16, 15)
        MOV       R7,#0x7
        LJMP      ?BANKED_LEAVE_XDATA
          CFI EndBlock cfiBlock139

        RSEG BANKED_CODE:HUGECODE:NOROOT(0)
?Subroutine30:
          CFI Block cfiCond140 Using cfiCommon0
          CFI Function MT_ZdoEndDevBindRequest
          CFI Conditional ??CrossCallReturnLabel_53
          CFI R6 load(1, XDATA, add(CFA_XSP16, literal(-15)))
          CFI VB load(1, XDATA, add(CFA_XSP16, literal(-14)))
          CFI V0 load(1, XDATA, add(CFA_XSP16, literal(-13)))
          CFI V1 load(1, XDATA, add(CFA_XSP16, literal(-12)))
          CFI V2 load(1, XDATA, add(CFA_XSP16, literal(-11)))
          CFI V3 load(1, XDATA, add(CFA_XSP16, literal(-10)))
          CFI V4 load(1, XDATA, add(CFA_XSP16, literal(-9)))
          CFI V5 load(1, XDATA, add(CFA_XSP16, literal(-8)))
          CFI V6 load(1, XDATA, add(CFA_XSP16, literal(-7)))
          CFI R7 load(1, XDATA, add(CFA_XSP16, literal(-6)))
          CFI ?RET_LOW load(1, XDATA, add(CFA_XSP16, literal(-5)))
          CFI ?RET_HIGH load(1, XDATA, add(CFA_XSP16, literal(-4)))
          CFI ?BRET_EXT load(1, XDATA, add(CFA_XSP16, literal(-3)))
          CFI DPL0 load(1, XDATA, add(CFA_XSP16, literal(-2)))
          CFI DPH0 load(1, XDATA, add(CFA_XSP16, literal(-1)))
          CFI CFA_SP SP+-2
          CFI CFA_XSP16 add(XSP16, 85)
          CFI Block cfiCond141 Using cfiCommon0
          CFI (cfiCond141) Function MT_ZdoEndDevBindRequest
          CFI (cfiCond141) Conditional ??CrossCallReturnLabel_54
          CFI (cfiCond141) R6 load(1, XDATA, add(CFA_XSP16, literal(-15)))
          CFI (cfiCond141) VB load(1, XDATA, add(CFA_XSP16, literal(-14)))
          CFI (cfiCond141) V0 load(1, XDATA, add(CFA_XSP16, literal(-13)))
          CFI (cfiCond141) V1 load(1, XDATA, add(CFA_XSP16, literal(-12)))
          CFI (cfiCond141) V2 load(1, XDATA, add(CFA_XSP16, literal(-11)))
          CFI (cfiCond141) V3 load(1, XDATA, add(CFA_XSP16, literal(-10)))
          CFI (cfiCond141) V4 load(1, XDATA, add(CFA_XSP16, literal(-9)))
          CFI (cfiCond141) V5 load(1, XDATA, add(CFA_XSP16, literal(-8)))
          CFI (cfiCond141) V6 load(1, XDATA, add(CFA_XSP16, literal(-7)))
          CFI (cfiCond141) R7 load(1, XDATA, add(CFA_XSP16, literal(-6)))
          CFI (cfiCond141) ?RET_LOW load(1, XDATA, add(CFA_XSP16, literal(-5)))
          CFI (cfiCond141) ?RET_HIGH load(1, XDATA, add(CFA_XSP16, literal(-4)))
          CFI (cfiCond141) ?BRET_EXT load(1, XDATA, add(CFA_XSP16, literal(-3)))
          CFI (cfiCond141) DPL0 load(1, XDATA, add(CFA_XSP16, literal(-2)))
          CFI (cfiCond141) DPH0 load(1, XDATA, add(CFA_XSP16, literal(-1)))
          CFI (cfiCond141) CFA_SP SP+-2
          CFI (cfiCond141) CFA_XSP16 add(XSP16, 85)
          CFI Block cfiPicker142 Using cfiCommon1
          CFI (cfiPicker142) NoFunction
          CFI (cfiPicker142) Picker
        LCALL     ?Subroutine54 & 0xFFFF
??CrossCallReturnLabel_107:
        MOV       A,R6
        ADD       A,#0x2
        MOV       R6,A
        RET
          CFI EndBlock cfiCond140
          CFI EndBlock cfiCond141
          CFI EndBlock cfiPicker142

        RSEG BANKED_CODE:HUGECODE:NOROOT(0)
?Subroutine54:
          CFI Block cfiCond143 Using cfiCommon0
          CFI Function MT_ZdoMatchDescRequest
          CFI Conditional ??CrossCallReturnLabel_106, ??CrossCallReturnLabel_51
          CFI R6 load(1, XDATA, add(CFA_XSP16, literal(-14)))
          CFI VB load(1, XDATA, add(CFA_XSP16, literal(-13)))
          CFI V0 load(1, XDATA, add(CFA_XSP16, literal(-12)))
          CFI V1 load(1, XDATA, add(CFA_XSP16, literal(-11)))
          CFI V2 load(1, XDATA, add(CFA_XSP16, literal(-10)))
          CFI V3 load(1, XDATA, add(CFA_XSP16, literal(-9)))
          CFI V4 load(1, XDATA, add(CFA_XSP16, literal(-8)))
          CFI V5 load(1, XDATA, add(CFA_XSP16, literal(-7)))
          CFI R7 load(1, XDATA, add(CFA_XSP16, literal(-6)))
          CFI ?RET_LOW load(1, XDATA, add(CFA_XSP16, literal(-5)))
          CFI ?RET_HIGH load(1, XDATA, add(CFA_XSP16, literal(-4)))
          CFI ?BRET_EXT load(1, XDATA, add(CFA_XSP16, literal(-3)))
          CFI DPL0 load(1, XDATA, add(CFA_XSP16, literal(-2)))
          CFI DPH0 load(1, XDATA, add(CFA_XSP16, literal(-1)))
          CFI CFA_SP SP+-4
          CFI CFA_XSP16 add(XSP16, 88)
          CFI Block cfiCond144 Using cfiCommon0
          CFI (cfiCond144) Function MT_ZdoMatchDescRequest
          CFI (cfiCond144) Conditional ??CrossCallReturnLabel_106, ??CrossCallReturnLabel_52
          CFI (cfiCond144) R6 load(1, XDATA, add(CFA_XSP16, literal(-14)))
          CFI (cfiCond144) VB load(1, XDATA, add(CFA_XSP16, literal(-13)))
          CFI (cfiCond144) V0 load(1, XDATA, add(CFA_XSP16, literal(-12)))
          CFI (cfiCond144) V1 load(1, XDATA, add(CFA_XSP16, literal(-11)))
          CFI (cfiCond144) V2 load(1, XDATA, add(CFA_XSP16, literal(-10)))
          CFI (cfiCond144) V3 load(1, XDATA, add(CFA_XSP16, literal(-9)))
          CFI (cfiCond144) V4 load(1, XDATA, add(CFA_XSP16, literal(-8)))
          CFI (cfiCond144) V5 load(1, XDATA, add(CFA_XSP16, literal(-7)))
          CFI (cfiCond144) R7 load(1, XDATA, add(CFA_XSP16, literal(-6)))
          CFI (cfiCond144) ?RET_LOW load(1, XDATA, add(CFA_XSP16, literal(-5)))
          CFI (cfiCond144) ?RET_HIGH load(1, XDATA, add(CFA_XSP16, literal(-4)))
          CFI (cfiCond144) ?BRET_EXT load(1, XDATA, add(CFA_XSP16, literal(-3)))
          CFI (cfiCond144) DPL0 load(1, XDATA, add(CFA_XSP16, literal(-2)))
          CFI (cfiCond144) DPH0 load(1, XDATA, add(CFA_XSP16, literal(-1)))
          CFI (cfiCond144) CFA_SP SP+-4
          CFI (cfiCond144) CFA_XSP16 add(XSP16, 88)
          CFI Block cfiCond145 Using cfiCommon0
          CFI (cfiCond145) Function MT_ZdoEndDevBindRequest
          CFI (cfiCond145) Conditional ??CrossCallReturnLabel_107, ??CrossCallReturnLabel_53
          CFI (cfiCond145) R6 load(1, XDATA, add(CFA_XSP16, literal(-15)))
          CFI (cfiCond145) VB load(1, XDATA, add(CFA_XSP16, literal(-14)))
          CFI (cfiCond145) V0 load(1, XDATA, add(CFA_XSP16, literal(-13)))
          CFI (cfiCond145) V1 load(1, XDATA, add(CFA_XSP16, literal(-12)))
          CFI (cfiCond145) V2 load(1, XDATA, add(CFA_XSP16, literal(-11)))
          CFI (cfiCond145) V3 load(1, XDATA, add(CFA_XSP16, literal(-10)))
          CFI (cfiCond145) V4 load(1, XDATA, add(CFA_XSP16, literal(-9)))
          CFI (cfiCond145) V5 load(1, XDATA, add(CFA_XSP16, literal(-8)))
          CFI (cfiCond145) V6 load(1, XDATA, add(CFA_XSP16, literal(-7)))
          CFI (cfiCond145) R7 load(1, XDATA, add(CFA_XSP16, literal(-6)))
          CFI (cfiCond145) ?RET_LOW load(1, XDATA, add(CFA_XSP16, literal(-5)))
          CFI (cfiCond145) ?RET_HIGH load(1, XDATA, add(CFA_XSP16, literal(-4)))
          CFI (cfiCond145) ?BRET_EXT load(1, XDATA, add(CFA_XSP16, literal(-3)))
          CFI (cfiCond145) DPL0 load(1, XDATA, add(CFA_XSP16, literal(-2)))
          CFI (cfiCond145) DPH0 load(1, XDATA, add(CFA_XSP16, literal(-1)))
          CFI (cfiCond145) CFA_SP SP+-4
          CFI (cfiCond145) CFA_XSP16 add(XSP16, 85)
          CFI Block cfiCond146 Using cfiCommon0
          CFI (cfiCond146) Function MT_ZdoEndDevBindRequest
          CFI (cfiCond146) Conditional ??CrossCallReturnLabel_107, ??CrossCallReturnLabel_54
          CFI (cfiCond146) R6 load(1, XDATA, add(CFA_XSP16, literal(-15)))
          CFI (cfiCond146) VB load(1, XDATA, add(CFA_XSP16, literal(-14)))
          CFI (cfiCond146) V0 load(1, XDATA, add(CFA_XSP16, literal(-13)))
          CFI (cfiCond146) V1 load(1, XDATA, add(CFA_XSP16, literal(-12)))
          CFI (cfiCond146) V2 load(1, XDATA, add(CFA_XSP16, literal(-11)))
          CFI (cfiCond146) V3 load(1, XDATA, add(CFA_XSP16, literal(-10)))
          CFI (cfiCond146) V4 load(1, XDATA, add(CFA_XSP16, literal(-9)))
          CFI (cfiCond146) V5 load(1, XDATA, add(CFA_XSP16, literal(-8)))
          CFI (cfiCond146) V6 load(1, XDATA, add(CFA_XSP16, literal(-7)))
          CFI (cfiCond146) R7 load(1, XDATA, add(CFA_XSP16, literal(-6)))
          CFI (cfiCond146) ?RET_LOW load(1, XDATA, add(CFA_XSP16, literal(-5)))
          CFI (cfiCond146) ?RET_HIGH load(1, XDATA, add(CFA_XSP16, literal(-4)))
          CFI (cfiCond146) ?BRET_EXT load(1, XDATA, add(CFA_XSP16, literal(-3)))
          CFI (cfiCond146) DPL0 load(1, XDATA, add(CFA_XSP16, literal(-2)))
          CFI (cfiCond146) DPH0 load(1, XDATA, add(CFA_XSP16, literal(-1)))
          CFI (cfiCond146) CFA_SP SP+-4
          CFI (cfiCond146) CFA_XSP16 add(XSP16, 85)
          CFI Block cfiPicker147 Using cfiCommon1
          CFI (cfiPicker147) NoFunction
          CFI (cfiPicker147) Picker
        MOV       A,DPL
        ADD       A,?V0
        MOV       DPL,A
        MOV       A,DPH
        ADDC      A,?V1
        MOV       DPH,A
        MOV       A,?V4
        MOVX      @DPTR,A
        INC       DPTR
        MOV       A,?V5
        MOVX      @DPTR,A
        RET
          CFI EndBlock cfiCond143
          CFI EndBlock cfiCond144
          CFI EndBlock cfiCond145
          CFI EndBlock cfiCond146
          CFI EndBlock cfiPicker147

        RSEG BANKED_CODE:HUGECODE:NOROOT(0)
?Subroutine23:
          CFI Block cfiCond148 Using cfiCommon0
          CFI Function MT_ZdoEndDevAnnce
          CFI Conditional ??CrossCallReturnLabel_41
          CFI R6 load(1, XDATA, add(CFA_XSP16, literal(-9)))
          CFI VB load(1, XDATA, add(CFA_XSP16, literal(-8)))
          CFI V0 load(1, XDATA, add(CFA_XSP16, literal(-7)))
          CFI R7 load(1, XDATA, add(CFA_XSP16, literal(-6)))
          CFI ?RET_LOW load(1, XDATA, add(CFA_XSP16, literal(-5)))
          CFI ?RET_HIGH load(1, XDATA, add(CFA_XSP16, literal(-4)))
          CFI ?BRET_EXT load(1, XDATA, add(CFA_XSP16, literal(-3)))
          CFI DPL0 load(1, XDATA, add(CFA_XSP16, literal(-2)))
          CFI DPH0 load(1, XDATA, add(CFA_XSP16, literal(-1)))
          CFI CFA_SP SP+-2
          CFI CFA_XSP16 add(XSP16, 10)
          CFI Block cfiCond149 Using cfiCommon0
          CFI (cfiCond149) Function MT_ZdoEndDevBindRequest
          CFI (cfiCond149) Conditional ??CrossCallReturnLabel_42
          CFI (cfiCond149) R6 load(1, XDATA, add(CFA_XSP16, literal(-15)))
          CFI (cfiCond149) VB load(1, XDATA, add(CFA_XSP16, literal(-14)))
          CFI (cfiCond149) V0 load(1, XDATA, add(CFA_XSP16, literal(-13)))
          CFI (cfiCond149) V1 load(1, XDATA, add(CFA_XSP16, literal(-12)))
          CFI (cfiCond149) V2 load(1, XDATA, add(CFA_XSP16, literal(-11)))
          CFI (cfiCond149) V3 load(1, XDATA, add(CFA_XSP16, literal(-10)))
          CFI (cfiCond149) V4 load(1, XDATA, add(CFA_XSP16, literal(-9)))
          CFI (cfiCond149) V5 load(1, XDATA, add(CFA_XSP16, literal(-8)))
          CFI (cfiCond149) V6 load(1, XDATA, add(CFA_XSP16, literal(-7)))
          CFI (cfiCond149) R7 load(1, XDATA, add(CFA_XSP16, literal(-6)))
          CFI (cfiCond149) ?RET_LOW load(1, XDATA, add(CFA_XSP16, literal(-5)))
          CFI (cfiCond149) ?RET_HIGH load(1, XDATA, add(CFA_XSP16, literal(-4)))
          CFI (cfiCond149) ?BRET_EXT load(1, XDATA, add(CFA_XSP16, literal(-3)))
          CFI (cfiCond149) DPL0 load(1, XDATA, add(CFA_XSP16, literal(-2)))
          CFI (cfiCond149) DPH0 load(1, XDATA, add(CFA_XSP16, literal(-1)))
          CFI (cfiCond149) CFA_SP SP+-2
          CFI (cfiCond149) CFA_XSP16 add(XSP16, 85)
          CFI Block cfiPicker150 Using cfiCommon1
          CFI (cfiPicker150) NoFunction
          CFI (cfiPicker150) Picker
        LCALL     ?Subroutine49 & 0xFFFF
??CrossCallReturnLabel_133:
        RET
          CFI EndBlock cfiCond148
          CFI EndBlock cfiCond149
          CFI EndBlock cfiPicker150

        RSEG BANKED_CODE:HUGECODE:NOROOT(0)
?Subroutine49:
          CFI Block cfiCond151 Using cfiCommon0
          CFI Function MT_ZdoEndDevAnnce
          CFI Conditional ??CrossCallReturnLabel_133, ??CrossCallReturnLabel_41
          CFI R6 load(1, XDATA, add(CFA_XSP16, literal(-9)))
          CFI VB load(1, XDATA, add(CFA_XSP16, literal(-8)))
          CFI V0 load(1, XDATA, add(CFA_XSP16, literal(-7)))
          CFI R7 load(1, XDATA, add(CFA_XSP16, literal(-6)))
          CFI ?RET_LOW load(1, XDATA, add(CFA_XSP16, literal(-5)))
          CFI ?RET_HIGH load(1, XDATA, add(CFA_XSP16, literal(-4)))
          CFI ?BRET_EXT load(1, XDATA, add(CFA_XSP16, literal(-3)))
          CFI DPL0 load(1, XDATA, add(CFA_XSP16, literal(-2)))
          CFI DPH0 load(1, XDATA, add(CFA_XSP16, literal(-1)))
          CFI CFA_SP SP+-4
          CFI CFA_XSP16 add(XSP16, 10)
          CFI Block cfiCond152 Using cfiCommon0
          CFI (cfiCond152) Function MT_ZdoEndDevBindRequest
          CFI (cfiCond152) Conditional ??CrossCallReturnLabel_133, ??CrossCallReturnLabel_42
          CFI (cfiCond152) R6 load(1, XDATA, add(CFA_XSP16, literal(-15)))
          CFI (cfiCond152) VB load(1, XDATA, add(CFA_XSP16, literal(-14)))
          CFI (cfiCond152) V0 load(1, XDATA, add(CFA_XSP16, literal(-13)))
          CFI (cfiCond152) V1 load(1, XDATA, add(CFA_XSP16, literal(-12)))
          CFI (cfiCond152) V2 load(1, XDATA, add(CFA_XSP16, literal(-11)))
          CFI (cfiCond152) V3 load(1, XDATA, add(CFA_XSP16, literal(-10)))
          CFI (cfiCond152) V4 load(1, XDATA, add(CFA_XSP16, literal(-9)))
          CFI (cfiCond152) V5 load(1, XDATA, add(CFA_XSP16, literal(-8)))
          CFI (cfiCond152) V6 load(1, XDATA, add(CFA_XSP16, literal(-7)))
          CFI (cfiCond152) R7 load(1, XDATA, add(CFA_XSP16, literal(-6)))
          CFI (cfiCond152) ?RET_LOW load(1, XDATA, add(CFA_XSP16, literal(-5)))
          CFI (cfiCond152) ?RET_HIGH load(1, XDATA, add(CFA_XSP16, literal(-4)))
          CFI (cfiCond152) ?BRET_EXT load(1, XDATA, add(CFA_XSP16, literal(-3)))
          CFI (cfiCond152) DPL0 load(1, XDATA, add(CFA_XSP16, literal(-2)))
          CFI (cfiCond152) DPH0 load(1, XDATA, add(CFA_XSP16, literal(-1)))
          CFI (cfiCond152) CFA_SP SP+-4
          CFI (cfiCond152) CFA_XSP16 add(XSP16, 85)
          CFI Block cfiCond153 Using cfiCommon0
          CFI (cfiCond153) Function MT_ZdoBindRequest
          CFI (cfiCond153) Conditional ??CrossCallReturnLabel_132, ??CrossCallReturnLabel_0
          CFI (cfiCond153) R6 load(1, XDATA, add(CFA_XSP16, literal(-16)))
          CFI (cfiCond153) VB load(1, XDATA, add(CFA_XSP16, literal(-15)))
          CFI (cfiCond153) V0 load(1, XDATA, add(CFA_XSP16, literal(-14)))
          CFI (cfiCond153) V1 load(1, XDATA, add(CFA_XSP16, literal(-13)))
          CFI (cfiCond153) V2 load(1, XDATA, add(CFA_XSP16, literal(-12)))
          CFI (cfiCond153) V3 load(1, XDATA, add(CFA_XSP16, literal(-11)))
          CFI (cfiCond153) V4 load(1, XDATA, add(CFA_XSP16, literal(-10)))
          CFI (cfiCond153) V5 load(1, XDATA, add(CFA_XSP16, literal(-9)))
          CFI (cfiCond153) V6 load(1, XDATA, add(CFA_XSP16, literal(-8)))
          CFI (cfiCond153) V7 load(1, XDATA, add(CFA_XSP16, literal(-7)))
          CFI (cfiCond153) R7 load(1, XDATA, add(CFA_XSP16, literal(-6)))
          CFI (cfiCond153) ?RET_LOW load(1, XDATA, add(CFA_XSP16, literal(-5)))
          CFI (cfiCond153) ?RET_HIGH load(1, XDATA, add(CFA_XSP16, literal(-4)))
          CFI (cfiCond153) ?BRET_EXT load(1, XDATA, add(CFA_XSP16, literal(-3)))
          CFI (cfiCond153) DPL0 load(1, XDATA, add(CFA_XSP16, literal(-2)))
          CFI (cfiCond153) DPH0 load(1, XDATA, add(CFA_XSP16, literal(-1)))
          CFI (cfiCond153) CFA_SP SP+-4
          CFI (cfiCond153) CFA_XSP16 add(XSP16, 35)
          CFI Block cfiCond154 Using cfiCommon0
          CFI (cfiCond154) Function MT_ZdoUnbindRequest
          CFI (cfiCond154) Conditional ??CrossCallReturnLabel_132, ??CrossCallReturnLabel_1
          CFI (cfiCond154) R6 load(1, XDATA, add(CFA_XSP16, literal(-16)))
          CFI (cfiCond154) VB load(1, XDATA, add(CFA_XSP16, literal(-15)))
          CFI (cfiCond154) V0 load(1, XDATA, add(CFA_XSP16, literal(-14)))
          CFI (cfiCond154) V1 load(1, XDATA, add(CFA_XSP16, literal(-13)))
          CFI (cfiCond154) V2 load(1, XDATA, add(CFA_XSP16, literal(-12)))
          CFI (cfiCond154) V3 load(1, XDATA, add(CFA_XSP16, literal(-11)))
          CFI (cfiCond154) V4 load(1, XDATA, add(CFA_XSP16, literal(-10)))
          CFI (cfiCond154) V5 load(1, XDATA, add(CFA_XSP16, literal(-9)))
          CFI (cfiCond154) V6 load(1, XDATA, add(CFA_XSP16, literal(-8)))
          CFI (cfiCond154) V7 load(1, XDATA, add(CFA_XSP16, literal(-7)))
          CFI (cfiCond154) R7 load(1, XDATA, add(CFA_XSP16, literal(-6)))
          CFI (cfiCond154) ?RET_LOW load(1, XDATA, add(CFA_XSP16, literal(-5)))
          CFI (cfiCond154) ?RET_HIGH load(1, XDATA, add(CFA_XSP16, literal(-4)))
          CFI (cfiCond154) ?BRET_EXT load(1, XDATA, add(CFA_XSP16, literal(-3)))
          CFI (cfiCond154) DPL0 load(1, XDATA, add(CFA_XSP16, literal(-2)))
          CFI (cfiCond154) DPH0 load(1, XDATA, add(CFA_XSP16, literal(-1)))
          CFI (cfiCond154) CFA_SP SP+-4
          CFI (cfiCond154) CFA_XSP16 add(XSP16, 35)
          CFI Block cfiPicker155 Using cfiCommon1
          CFI (cfiPicker155) NoFunction
          CFI (cfiPicker155) Picker
        MOVX      A,@DPTR
        MOV       R2,A
          CFI EndBlock cfiCond151
          CFI EndBlock cfiCond152
          CFI EndBlock cfiCond153
          CFI EndBlock cfiCond154
          CFI EndBlock cfiPicker155
        REQUIRE ??Subroutine68_0
        ; // Fall through to label ??Subroutine68_0

        RSEG BANKED_CODE:HUGECODE:NOROOT(0)
??Subroutine68_0:
          CFI Block cfiCond156 Using cfiCommon0
          CFI Function MT_ZdoJoinReq
          CFI Conditional ??CrossCallReturnLabel_131
          CFI R6 load(1, XDATA, add(CFA_XSP16, literal(-12)))
          CFI VB load(1, XDATA, add(CFA_XSP16, literal(-11)))
          CFI V0 load(1, XDATA, add(CFA_XSP16, literal(-10)))
          CFI V1 load(1, XDATA, add(CFA_XSP16, literal(-9)))
          CFI V2 load(1, XDATA, add(CFA_XSP16, literal(-8)))
          CFI V3 load(1, XDATA, add(CFA_XSP16, literal(-7)))
          CFI R7 load(1, XDATA, add(CFA_XSP16, literal(-6)))
          CFI ?RET_LOW load(1, XDATA, add(CFA_XSP16, literal(-5)))
          CFI ?RET_HIGH load(1, XDATA, add(CFA_XSP16, literal(-4)))
          CFI ?BRET_EXT load(1, XDATA, add(CFA_XSP16, literal(-3)))
          CFI DPL0 load(1, XDATA, add(CFA_XSP16, literal(-2)))
          CFI DPH0 load(1, XDATA, add(CFA_XSP16, literal(-1)))
          CFI CFA_SP SP+-2
          CFI CFA_XSP16 add(XSP16, 17)
          CFI Block cfiCond157 Using cfiCommon0
          CFI (cfiCond157) Function MT_ZdoEndDevAnnce
          CFI (cfiCond157) Conditional ??CrossCallReturnLabel_133, ??CrossCallReturnLabel_41
          CFI (cfiCond157) R6 load(1, XDATA, add(CFA_XSP16, literal(-9)))
          CFI (cfiCond157) VB load(1, XDATA, add(CFA_XSP16, literal(-8)))
          CFI (cfiCond157) V0 load(1, XDATA, add(CFA_XSP16, literal(-7)))
          CFI (cfiCond157) R7 load(1, XDATA, add(CFA_XSP16, literal(-6)))
          CFI (cfiCond157) ?RET_LOW load(1, XDATA, add(CFA_XSP16, literal(-5)))
          CFI (cfiCond157) ?RET_HIGH load(1, XDATA, add(CFA_XSP16, literal(-4)))
          CFI (cfiCond157) ?BRET_EXT load(1, XDATA, add(CFA_XSP16, literal(-3)))
          CFI (cfiCond157) DPL0 load(1, XDATA, add(CFA_XSP16, literal(-2)))
          CFI (cfiCond157) DPH0 load(1, XDATA, add(CFA_XSP16, literal(-1)))
          CFI (cfiCond157) CFA_SP SP+-4
          CFI (cfiCond157) CFA_XSP16 add(XSP16, 10)
          CFI Block cfiCond158 Using cfiCommon0
          CFI (cfiCond158) Function MT_ZdoEndDevBindRequest
          CFI (cfiCond158) Conditional ??CrossCallReturnLabel_133, ??CrossCallReturnLabel_42
          CFI (cfiCond158) R6 load(1, XDATA, add(CFA_XSP16, literal(-15)))
          CFI (cfiCond158) VB load(1, XDATA, add(CFA_XSP16, literal(-14)))
          CFI (cfiCond158) V0 load(1, XDATA, add(CFA_XSP16, literal(-13)))
          CFI (cfiCond158) V1 load(1, XDATA, add(CFA_XSP16, literal(-12)))
          CFI (cfiCond158) V2 load(1, XDATA, add(CFA_XSP16, literal(-11)))
          CFI (cfiCond158) V3 load(1, XDATA, add(CFA_XSP16, literal(-10)))
          CFI (cfiCond158) V4 load(1, XDATA, add(CFA_XSP16, literal(-9)))
          CFI (cfiCond158) V5 load(1, XDATA, add(CFA_XSP16, literal(-8)))
          CFI (cfiCond158) V6 load(1, XDATA, add(CFA_XSP16, literal(-7)))
          CFI (cfiCond158) R7 load(1, XDATA, add(CFA_XSP16, literal(-6)))
          CFI (cfiCond158) ?RET_LOW load(1, XDATA, add(CFA_XSP16, literal(-5)))
          CFI (cfiCond158) ?RET_HIGH load(1, XDATA, add(CFA_XSP16, literal(-4)))
          CFI (cfiCond158) ?BRET_EXT load(1, XDATA, add(CFA_XSP16, literal(-3)))
          CFI (cfiCond158) DPL0 load(1, XDATA, add(CFA_XSP16, literal(-2)))
          CFI (cfiCond158) DPH0 load(1, XDATA, add(CFA_XSP16, literal(-1)))
          CFI (cfiCond158) CFA_SP SP+-4
          CFI (cfiCond158) CFA_XSP16 add(XSP16, 85)
          CFI Block cfiCond159 Using cfiCommon0
          CFI (cfiCond159) Function MT_ZdoBindRequest
          CFI (cfiCond159) Conditional ??CrossCallReturnLabel_132, ??CrossCallReturnLabel_0
          CFI (cfiCond159) R6 load(1, XDATA, add(CFA_XSP16, literal(-16)))
          CFI (cfiCond159) VB load(1, XDATA, add(CFA_XSP16, literal(-15)))
          CFI (cfiCond159) V0 load(1, XDATA, add(CFA_XSP16, literal(-14)))
          CFI (cfiCond159) V1 load(1, XDATA, add(CFA_XSP16, literal(-13)))
          CFI (cfiCond159) V2 load(1, XDATA, add(CFA_XSP16, literal(-12)))
          CFI (cfiCond159) V3 load(1, XDATA, add(CFA_XSP16, literal(-11)))
          CFI (cfiCond159) V4 load(1, XDATA, add(CFA_XSP16, literal(-10)))
          CFI (cfiCond159) V5 load(1, XDATA, add(CFA_XSP16, literal(-9)))
          CFI (cfiCond159) V6 load(1, XDATA, add(CFA_XSP16, literal(-8)))
          CFI (cfiCond159) V7 load(1, XDATA, add(CFA_XSP16, literal(-7)))
          CFI (cfiCond159) R7 load(1, XDATA, add(CFA_XSP16, literal(-6)))
          CFI (cfiCond159) ?RET_LOW load(1, XDATA, add(CFA_XSP16, literal(-5)))
          CFI (cfiCond159) ?RET_HIGH load(1, XDATA, add(CFA_XSP16, literal(-4)))
          CFI (cfiCond159) ?BRET_EXT load(1, XDATA, add(CFA_XSP16, literal(-3)))
          CFI (cfiCond159) DPL0 load(1, XDATA, add(CFA_XSP16, literal(-2)))
          CFI (cfiCond159) DPH0 load(1, XDATA, add(CFA_XSP16, literal(-1)))
          CFI (cfiCond159) CFA_SP SP+-4
          CFI (cfiCond159) CFA_XSP16 add(XSP16, 35)
          CFI Block cfiCond160 Using cfiCommon0
          CFI (cfiCond160) Function MT_ZdoUnbindRequest
          CFI (cfiCond160) Conditional ??CrossCallReturnLabel_132, ??CrossCallReturnLabel_1
          CFI (cfiCond160) R6 load(1, XDATA, add(CFA_XSP16, literal(-16)))
          CFI (cfiCond160) VB load(1, XDATA, add(CFA_XSP16, literal(-15)))
          CFI (cfiCond160) V0 load(1, XDATA, add(CFA_XSP16, literal(-14)))
          CFI (cfiCond160) V1 load(1, XDATA, add(CFA_XSP16, literal(-13)))
          CFI (cfiCond160) V2 load(1, XDATA, add(CFA_XSP16, literal(-12)))
          CFI (cfiCond160) V3 load(1, XDATA, add(CFA_XSP16, literal(-11)))
          CFI (cfiCond160) V4 load(1, XDATA, add(CFA_XSP16, literal(-10)))
          CFI (cfiCond160) V5 load(1, XDATA, add(CFA_XSP16, literal(-9)))
          CFI (cfiCond160) V6 load(1, XDATA, add(CFA_XSP16, literal(-8)))
          CFI (cfiCond160) V7 load(1, XDATA, add(CFA_XSP16, literal(-7)))
          CFI (cfiCond160) R7 load(1, XDATA, add(CFA_XSP16, literal(-6)))
          CFI (cfiCond160) ?RET_LOW load(1, XDATA, add(CFA_XSP16, literal(-5)))
          CFI (cfiCond160) ?RET_HIGH load(1, XDATA, add(CFA_XSP16, literal(-4)))
          CFI (cfiCond160) ?BRET_EXT load(1, XDATA, add(CFA_XSP16, literal(-3)))
          CFI (cfiCond160) DPL0 load(1, XDATA, add(CFA_XSP16, literal(-2)))
          CFI (cfiCond160) DPH0 load(1, XDATA, add(CFA_XSP16, literal(-1)))
          CFI (cfiCond160) CFA_SP SP+-4
          CFI (cfiCond160) CFA_XSP16 add(XSP16, 35)
          CFI Block cfiPicker161 Using cfiCommon1
          CFI (cfiPicker161) NoFunction
          CFI (cfiPicker161) Picker
        INC       DPTR
        MOVX      A,@DPTR
        MOV       R0,A
        CLR       A
        XCH       A,R0
        MOV       R1,A
        MOV       A,R2
        ADD       A,R0
        RET
          CFI EndBlock cfiCond156
          CFI EndBlock cfiCond157
          CFI EndBlock cfiCond158
          CFI EndBlock cfiCond159
          CFI EndBlock cfiCond160
          CFI EndBlock cfiPicker161

        RSEG BANKED_CODE:HUGECODE:NOROOT(0)
?Subroutine10:
          CFI Block cfiCond162 Using cfiCommon0
          CFI Function MT_ZdoEndDevBindRequest
          CFI Conditional ??CrossCallReturnLabel_18
          CFI R6 load(1, XDATA, add(CFA_XSP16, literal(-15)))
          CFI VB load(1, XDATA, add(CFA_XSP16, literal(-14)))
          CFI V0 load(1, XDATA, add(CFA_XSP16, literal(-13)))
          CFI V1 load(1, XDATA, add(CFA_XSP16, literal(-12)))
          CFI V2 load(1, XDATA, add(CFA_XSP16, literal(-11)))
          CFI V3 load(1, XDATA, add(CFA_XSP16, literal(-10)))
          CFI V4 load(1, XDATA, add(CFA_XSP16, literal(-9)))
          CFI V5 load(1, XDATA, add(CFA_XSP16, literal(-8)))
          CFI V6 load(1, XDATA, add(CFA_XSP16, literal(-7)))
          CFI R7 load(1, XDATA, add(CFA_XSP16, literal(-6)))
          CFI ?RET_LOW load(1, XDATA, add(CFA_XSP16, literal(-5)))
          CFI ?RET_HIGH load(1, XDATA, add(CFA_XSP16, literal(-4)))
          CFI ?BRET_EXT load(1, XDATA, add(CFA_XSP16, literal(-3)))
          CFI DPL0 load(1, XDATA, add(CFA_XSP16, literal(-2)))
          CFI DPH0 load(1, XDATA, add(CFA_XSP16, literal(-1)))
          CFI CFA_SP SP+-2
          CFI CFA_XSP16 add(XSP16, 85)
          CFI Block cfiCond163 Using cfiCommon0
          CFI (cfiCond163) Function MT_ZdoEndDevBindRequest
          CFI (cfiCond163) Conditional ??CrossCallReturnLabel_19
          CFI (cfiCond163) R6 load(1, XDATA, add(CFA_XSP16, literal(-15)))
          CFI (cfiCond163) VB load(1, XDATA, add(CFA_XSP16, literal(-14)))
          CFI (cfiCond163) V0 load(1, XDATA, add(CFA_XSP16, literal(-13)))
          CFI (cfiCond163) V1 load(1, XDATA, add(CFA_XSP16, literal(-12)))
          CFI (cfiCond163) V2 load(1, XDATA, add(CFA_XSP16, literal(-11)))
          CFI (cfiCond163) V3 load(1, XDATA, add(CFA_XSP16, literal(-10)))
          CFI (cfiCond163) V4 load(1, XDATA, add(CFA_XSP16, literal(-9)))
          CFI (cfiCond163) V5 load(1, XDATA, add(CFA_XSP16, literal(-8)))
          CFI (cfiCond163) V6 load(1, XDATA, add(CFA_XSP16, literal(-7)))
          CFI (cfiCond163) R7 load(1, XDATA, add(CFA_XSP16, literal(-6)))
          CFI (cfiCond163) ?RET_LOW load(1, XDATA, add(CFA_XSP16, literal(-5)))
          CFI (cfiCond163) ?RET_HIGH load(1, XDATA, add(CFA_XSP16, literal(-4)))
          CFI (cfiCond163) ?BRET_EXT load(1, XDATA, add(CFA_XSP16, literal(-3)))
          CFI (cfiCond163) DPL0 load(1, XDATA, add(CFA_XSP16, literal(-2)))
          CFI (cfiCond163) DPH0 load(1, XDATA, add(CFA_XSP16, literal(-1)))
          CFI (cfiCond163) CFA_SP SP+-2
          CFI (cfiCond163) CFA_XSP16 add(XSP16, 85)
          CFI Block cfiPicker164 Using cfiCommon1
          CFI (cfiPicker164) NoFunction
          CFI (cfiPicker164) Picker
        MOV       DPL,R6
        MOV       DPH,R7
        LCALL     ?Subroutine48 & 0xFFFF
??CrossCallReturnLabel_97:
        MOV       A,R0
        LCALL     ?Subroutine55 & 0xFFFF
??CrossCallReturnLabel_108:
        RET
          CFI EndBlock cfiCond162
          CFI EndBlock cfiCond163
          CFI EndBlock cfiPicker164

        RSEG BANKED_CODE:HUGECODE:NOROOT(0)
?Subroutine55:
          CFI Block cfiCond165 Using cfiCommon0
          CFI Function MT_ZdoMatchDescRequest
          CFI Conditional ??CrossCallReturnLabel_109, ??CrossCallReturnLabel_81
          CFI R6 load(1, XDATA, add(CFA_XSP16, literal(-14)))
          CFI VB load(1, XDATA, add(CFA_XSP16, literal(-13)))
          CFI V0 load(1, XDATA, add(CFA_XSP16, literal(-12)))
          CFI V1 load(1, XDATA, add(CFA_XSP16, literal(-11)))
          CFI V2 load(1, XDATA, add(CFA_XSP16, literal(-10)))
          CFI V3 load(1, XDATA, add(CFA_XSP16, literal(-9)))
          CFI V4 load(1, XDATA, add(CFA_XSP16, literal(-8)))
          CFI V5 load(1, XDATA, add(CFA_XSP16, literal(-7)))
          CFI R7 load(1, XDATA, add(CFA_XSP16, literal(-6)))
          CFI ?RET_LOW load(1, XDATA, add(CFA_XSP16, literal(-5)))
          CFI ?RET_HIGH load(1, XDATA, add(CFA_XSP16, literal(-4)))
          CFI ?BRET_EXT load(1, XDATA, add(CFA_XSP16, literal(-3)))
          CFI DPL0 load(1, XDATA, add(CFA_XSP16, literal(-2)))
          CFI DPH0 load(1, XDATA, add(CFA_XSP16, literal(-1)))
          CFI CFA_SP SP+-4
          CFI CFA_XSP16 add(XSP16, 88)
          CFI Block cfiCond166 Using cfiCommon0
          CFI (cfiCond166) Function MT_ZdoMatchDescRequest
          CFI (cfiCond166) Conditional ??CrossCallReturnLabel_109, ??CrossCallReturnLabel_82
          CFI (cfiCond166) R6 load(1, XDATA, add(CFA_XSP16, literal(-14)))
          CFI (cfiCond166) VB load(1, XDATA, add(CFA_XSP16, literal(-13)))
          CFI (cfiCond166) V0 load(1, XDATA, add(CFA_XSP16, literal(-12)))
          CFI (cfiCond166) V1 load(1, XDATA, add(CFA_XSP16, literal(-11)))
          CFI (cfiCond166) V2 load(1, XDATA, add(CFA_XSP16, literal(-10)))
          CFI (cfiCond166) V3 load(1, XDATA, add(CFA_XSP16, literal(-9)))
          CFI (cfiCond166) V4 load(1, XDATA, add(CFA_XSP16, literal(-8)))
          CFI (cfiCond166) V5 load(1, XDATA, add(CFA_XSP16, literal(-7)))
          CFI (cfiCond166) R7 load(1, XDATA, add(CFA_XSP16, literal(-6)))
          CFI (cfiCond166) ?RET_LOW load(1, XDATA, add(CFA_XSP16, literal(-5)))
          CFI (cfiCond166) ?RET_HIGH load(1, XDATA, add(CFA_XSP16, literal(-4)))
          CFI (cfiCond166) ?BRET_EXT load(1, XDATA, add(CFA_XSP16, literal(-3)))
          CFI (cfiCond166) DPL0 load(1, XDATA, add(CFA_XSP16, literal(-2)))
          CFI (cfiCond166) DPH0 load(1, XDATA, add(CFA_XSP16, literal(-1)))
          CFI (cfiCond166) CFA_SP SP+-4
          CFI (cfiCond166) CFA_XSP16 add(XSP16, 88)
          CFI Block cfiCond167 Using cfiCommon0
          CFI (cfiCond167) Function MT_ZdoEndDevBindRequest
          CFI (cfiCond167) Conditional ??CrossCallReturnLabel_108, ??CrossCallReturnLabel_18
          CFI (cfiCond167) R6 load(1, XDATA, add(CFA_XSP16, literal(-15)))
          CFI (cfiCond167) VB load(1, XDATA, add(CFA_XSP16, literal(-14)))
          CFI (cfiCond167) V0 load(1, XDATA, add(CFA_XSP16, literal(-13)))
          CFI (cfiCond167) V1 load(1, XDATA, add(CFA_XSP16, literal(-12)))
          CFI (cfiCond167) V2 load(1, XDATA, add(CFA_XSP16, literal(-11)))
          CFI (cfiCond167) V3 load(1, XDATA, add(CFA_XSP16, literal(-10)))
          CFI (cfiCond167) V4 load(1, XDATA, add(CFA_XSP16, literal(-9)))
          CFI (cfiCond167) V5 load(1, XDATA, add(CFA_XSP16, literal(-8)))
          CFI (cfiCond167) V6 load(1, XDATA, add(CFA_XSP16, literal(-7)))
          CFI (cfiCond167) R7 load(1, XDATA, add(CFA_XSP16, literal(-6)))
          CFI (cfiCond167) ?RET_LOW load(1, XDATA, add(CFA_XSP16, literal(-5)))
          CFI (cfiCond167) ?RET_HIGH load(1, XDATA, add(CFA_XSP16, literal(-4)))
          CFI (cfiCond167) ?BRET_EXT load(1, XDATA, add(CFA_XSP16, literal(-3)))
          CFI (cfiCond167) DPL0 load(1, XDATA, add(CFA_XSP16, literal(-2)))
          CFI (cfiCond167) DPH0 load(1, XDATA, add(CFA_XSP16, literal(-1)))
          CFI (cfiCond167) CFA_SP SP+-4
          CFI (cfiCond167) CFA_XSP16 add(XSP16, 85)
          CFI Block cfiCond168 Using cfiCommon0
          CFI (cfiCond168) Function MT_ZdoEndDevBindRequest
          CFI (cfiCond168) Conditional ??CrossCallReturnLabel_108, ??CrossCallReturnLabel_19
          CFI (cfiCond168) R6 load(1, XDATA, add(CFA_XSP16, literal(-15)))
          CFI (cfiCond168) VB load(1, XDATA, add(CFA_XSP16, literal(-14)))
          CFI (cfiCond168) V0 load(1, XDATA, add(CFA_XSP16, literal(-13)))
          CFI (cfiCond168) V1 load(1, XDATA, add(CFA_XSP16, literal(-12)))
          CFI (cfiCond168) V2 load(1, XDATA, add(CFA_XSP16, literal(-11)))
          CFI (cfiCond168) V3 load(1, XDATA, add(CFA_XSP16, literal(-10)))
          CFI (cfiCond168) V4 load(1, XDATA, add(CFA_XSP16, literal(-9)))
          CFI (cfiCond168) V5 load(1, XDATA, add(CFA_XSP16, literal(-8)))
          CFI (cfiCond168) V6 load(1, XDATA, add(CFA_XSP16, literal(-7)))
          CFI (cfiCond168) R7 load(1, XDATA, add(CFA_XSP16, literal(-6)))
          CFI (cfiCond168) ?RET_LOW load(1, XDATA, add(CFA_XSP16, literal(-5)))
          CFI (cfiCond168) ?RET_HIGH load(1, XDATA, add(CFA_XSP16, literal(-4)))
          CFI (cfiCond168) ?BRET_EXT load(1, XDATA, add(CFA_XSP16, literal(-3)))
          CFI (cfiCond168) DPL0 load(1, XDATA, add(CFA_XSP16, literal(-2)))
          CFI (cfiCond168) DPH0 load(1, XDATA, add(CFA_XSP16, literal(-1)))
          CFI (cfiCond168) CFA_SP SP+-4
          CFI (cfiCond168) CFA_XSP16 add(XSP16, 85)
          CFI Block cfiPicker169 Using cfiCommon1
          CFI (cfiPicker169) NoFunction
          CFI (cfiPicker169) Picker
        ADD       A,0xE0 /* A   */
        MOV       ?V0,A
        CLR       A
        RLC       A
        MOV       ?V1,A
        RET
          CFI EndBlock cfiCond165
          CFI EndBlock cfiCond166
          CFI EndBlock cfiCond167
          CFI EndBlock cfiCond168
          CFI EndBlock cfiPicker169

        RSEG BANKED_CODE:HUGECODE:NOROOT(0)
?Subroutine48:
          CFI Block cfiCond170 Using cfiCommon0
          CFI Function MT_ZdoMatchDescRequest
          CFI Conditional ??CrossCallReturnLabel_96
          CFI R6 load(1, XDATA, add(CFA_XSP16, literal(-14)))
          CFI VB load(1, XDATA, add(CFA_XSP16, literal(-13)))
          CFI V0 load(1, XDATA, add(CFA_XSP16, literal(-12)))
          CFI V1 load(1, XDATA, add(CFA_XSP16, literal(-11)))
          CFI V2 load(1, XDATA, add(CFA_XSP16, literal(-10)))
          CFI V3 load(1, XDATA, add(CFA_XSP16, literal(-9)))
          CFI V4 load(1, XDATA, add(CFA_XSP16, literal(-8)))
          CFI V5 load(1, XDATA, add(CFA_XSP16, literal(-7)))
          CFI R7 load(1, XDATA, add(CFA_XSP16, literal(-6)))
          CFI ?RET_LOW load(1, XDATA, add(CFA_XSP16, literal(-5)))
          CFI ?RET_HIGH load(1, XDATA, add(CFA_XSP16, literal(-4)))
          CFI ?BRET_EXT load(1, XDATA, add(CFA_XSP16, literal(-3)))
          CFI DPL0 load(1, XDATA, add(CFA_XSP16, literal(-2)))
          CFI DPH0 load(1, XDATA, add(CFA_XSP16, literal(-1)))
          CFI CFA_SP SP+-2
          CFI CFA_XSP16 add(XSP16, 88)
          CFI Block cfiCond171 Using cfiCommon0
          CFI (cfiCond171) Function MT_ZdoEndDevBindRequest
          CFI (cfiCond171) Conditional ??CrossCallReturnLabel_97, ??CrossCallReturnLabel_18
          CFI (cfiCond171) R6 load(1, XDATA, add(CFA_XSP16, literal(-15)))
          CFI (cfiCond171) VB load(1, XDATA, add(CFA_XSP16, literal(-14)))
          CFI (cfiCond171) V0 load(1, XDATA, add(CFA_XSP16, literal(-13)))
          CFI (cfiCond171) V1 load(1, XDATA, add(CFA_XSP16, literal(-12)))
          CFI (cfiCond171) V2 load(1, XDATA, add(CFA_XSP16, literal(-11)))
          CFI (cfiCond171) V3 load(1, XDATA, add(CFA_XSP16, literal(-10)))
          CFI (cfiCond171) V4 load(1, XDATA, add(CFA_XSP16, literal(-9)))
          CFI (cfiCond171) V5 load(1, XDATA, add(CFA_XSP16, literal(-8)))
          CFI (cfiCond171) V6 load(1, XDATA, add(CFA_XSP16, literal(-7)))
          CFI (cfiCond171) R7 load(1, XDATA, add(CFA_XSP16, literal(-6)))
          CFI (cfiCond171) ?RET_LOW load(1, XDATA, add(CFA_XSP16, literal(-5)))
          CFI (cfiCond171) ?RET_HIGH load(1, XDATA, add(CFA_XSP16, literal(-4)))
          CFI (cfiCond171) ?BRET_EXT load(1, XDATA, add(CFA_XSP16, literal(-3)))
          CFI (cfiCond171) DPL0 load(1, XDATA, add(CFA_XSP16, literal(-2)))
          CFI (cfiCond171) DPH0 load(1, XDATA, add(CFA_XSP16, literal(-1)))
          CFI (cfiCond171) CFA_SP SP+-4
          CFI (cfiCond171) CFA_XSP16 add(XSP16, 85)
          CFI Block cfiCond172 Using cfiCommon0
          CFI (cfiCond172) Function MT_ZdoEndDevBindRequest
          CFI (cfiCond172) Conditional ??CrossCallReturnLabel_97, ??CrossCallReturnLabel_19
          CFI (cfiCond172) R6 load(1, XDATA, add(CFA_XSP16, literal(-15)))
          CFI (cfiCond172) VB load(1, XDATA, add(CFA_XSP16, literal(-14)))
          CFI (cfiCond172) V0 load(1, XDATA, add(CFA_XSP16, literal(-13)))
          CFI (cfiCond172) V1 load(1, XDATA, add(CFA_XSP16, literal(-12)))
          CFI (cfiCond172) V2 load(1, XDATA, add(CFA_XSP16, literal(-11)))
          CFI (cfiCond172) V3 load(1, XDATA, add(CFA_XSP16, literal(-10)))
          CFI (cfiCond172) V4 load(1, XDATA, add(CFA_XSP16, literal(-9)))
          CFI (cfiCond172) V5 load(1, XDATA, add(CFA_XSP16, literal(-8)))
          CFI (cfiCond172) V6 load(1, XDATA, add(CFA_XSP16, literal(-7)))
          CFI (cfiCond172) R7 load(1, XDATA, add(CFA_XSP16, literal(-6)))
          CFI (cfiCond172) ?RET_LOW load(1, XDATA, add(CFA_XSP16, literal(-5)))
          CFI (cfiCond172) ?RET_HIGH load(1, XDATA, add(CFA_XSP16, literal(-4)))
          CFI (cfiCond172) ?BRET_EXT load(1, XDATA, add(CFA_XSP16, literal(-3)))
          CFI (cfiCond172) DPL0 load(1, XDATA, add(CFA_XSP16, literal(-2)))
          CFI (cfiCond172) DPH0 load(1, XDATA, add(CFA_XSP16, literal(-1)))
          CFI (cfiCond172) CFA_SP SP+-4
          CFI (cfiCond172) CFA_XSP16 add(XSP16, 85)
          CFI Block cfiPicker173 Using cfiCommon1
          CFI (cfiPicker173) NoFunction
          CFI (cfiPicker173) Picker
        MOVX      A,@DPTR
        MOV       ?V0,A
        INC       DPTR
        MOVX      A,@DPTR
        MOV       ?V5,A
        MOV       A,?V0
        MOV       ?V4,A
        RET
          CFI EndBlock cfiCond170
          CFI EndBlock cfiCond171
          CFI EndBlock cfiCond172
          CFI EndBlock cfiPicker173
//  915 
//  916 /***************************************************************************************************
//  917  * @fn      MT_ZdoBindRequest
//  918  *
//  919  * @brief   Handle a Bind request.
//  920  *
//  921  * @param   pBuf  - MT message data
//  922  *
//  923  * @return  void
//  924  ***************************************************************************************************/

        RSEG BANKED_CODE:HUGECODE:NOROOT(0)
//  925 void MT_ZdoBindRequest(uint8 *pBuf)
MT_ZdoBindRequest:
          CFI Block cfiBlock174 Using cfiCommon0
          CFI Function MT_ZdoBindRequest
        CODE
//  926 {
        FUNCALL MT_ZdoBindRequest, sAddrExtCpy
        LOCFRAME ISTACK, 0, STACK
        LOCFRAME PSTACK, 0, STACK
        LOCFRAME XSTACK, 35, STACK
        LOCFRAME IOVERLAY, 0, STATIC
        LOCFRAME DOVERLAY, 0, STATIC
        ARGFRAME ISTACK, 0, STACK
        ARGFRAME PSTACK, 0, STACK
        ARGFRAME XSTACK, 35, STACK
        ARGFRAME IOVERLAY, 0, STATIC
        ARGFRAME DOVERLAY, 0, STATIC
        FUNCALL MT_ZdoBindRequest, ZDP_BindUnbindReq
        LOCFRAME ISTACK, 0, STACK
        LOCFRAME PSTACK, 0, STACK
        LOCFRAME XSTACK, 43, STACK
        LOCFRAME IOVERLAY, 0, STATIC
        LOCFRAME DOVERLAY, 0, STATIC
        ARGFRAME ISTACK, 0, STACK
        ARGFRAME PSTACK, 0, STACK
        ARGFRAME XSTACK, 43, STACK
        ARGFRAME IOVERLAY, 0, STATIC
        ARGFRAME DOVERLAY, 0, STATIC
        FUNCALL MT_ZdoBindRequest, MT_BuildAndSendZToolResponse
        LOCFRAME ISTACK, 0, STACK
        LOCFRAME PSTACK, 0, STACK
        LOCFRAME XSTACK, 35, STACK
        LOCFRAME IOVERLAY, 0, STATIC
        LOCFRAME DOVERLAY, 0, STATIC
        ARGFRAME ISTACK, 0, STACK
        ARGFRAME PSTACK, 0, STACK
        ARGFRAME XSTACK, 35, STACK
        ARGFRAME IOVERLAY, 0, STATIC
        ARGFRAME DOVERLAY, 0, STATIC
        REQUIRE ?V0
        REQUIRE ?V1
        REQUIRE ?V2
        REQUIRE ?V3
        REQUIRE ?V4
        REQUIRE ?V6
        REQUIRE ?V7
        MOV       A,#-0x10
        LCALL     ?BANKED_ENTER_XDATA
          CFI DPH0 load(1, XDATA, add(CFA_XSP16, literal(-1)))
          CFI DPL0 load(1, XDATA, add(CFA_XSP16, literal(-2)))
          CFI ?BRET_EXT load(1, XDATA, add(CFA_XSP16, literal(-3)))
          CFI ?RET_HIGH load(1, XDATA, add(CFA_XSP16, literal(-4)))
          CFI ?RET_LOW load(1, XDATA, add(CFA_XSP16, literal(-5)))
          CFI R7 load(1, XDATA, add(CFA_XSP16, literal(-6)))
          CFI V7 load(1, XDATA, add(CFA_XSP16, literal(-7)))
          CFI V6 load(1, XDATA, add(CFA_XSP16, literal(-8)))
          CFI V5 load(1, XDATA, add(CFA_XSP16, literal(-9)))
          CFI V4 load(1, XDATA, add(CFA_XSP16, literal(-10)))
          CFI V3 load(1, XDATA, add(CFA_XSP16, literal(-11)))
          CFI V2 load(1, XDATA, add(CFA_XSP16, literal(-12)))
          CFI V1 load(1, XDATA, add(CFA_XSP16, literal(-13)))
          CFI V0 load(1, XDATA, add(CFA_XSP16, literal(-14)))
          CFI VB load(1, XDATA, add(CFA_XSP16, literal(-15)))
          CFI R6 load(1, XDATA, add(CFA_XSP16, literal(-16)))
          CFI CFA_SP SP+0
          CFI CFA_XSP16 add(XSP16, 16)
        ; Saved register size: 16
        ; Auto size: 19
        MOV       A,#-0x13
        LCALL     ?ALLOC_XSTACK8
          CFI CFA_XSP16 add(XSP16, 35)
        LCALL     ?Subroutine26 & 0xFFFF
//  927   uint8 cmdId;
//  928   uint8 retValue;
//  929   zAddrType_t destAddr, devAddr;
//  930   uint8 *pSrcAddr, *ptr;
//  931   uint8 srcEPInt, dstEPInt;
//  932   uint16 clusterID;
//  933 
//  934   /* parse header */
//  935   cmdId = pBuf[MT_RPC_POS_CMD1];
//  936   pBuf += MT_RPC_FRAME_HDR_SZ;
??CrossCallReturnLabel_47:
        JNC       ??MT_ZdoBindRequest_0
        INC       ?V1
//  937 
//  938   /* Dev address */
//  939   destAddr.addrMode = Addr16Bit;
??MT_ZdoBindRequest_0:
        MOV       A,#0x12
        LCALL     ?XSTACK_DISP0_8
        LCALL     ?Subroutine34 & 0xFFFF
//  940   destAddr.addr.shortAddr = BUILD_UINT16( pBuf[0], pBuf[1] );
??CrossCallReturnLabel_64:
        LCALL     ?XSTACK_DISP0_8
        LCALL     ?Subroutine6 & 0xFFFF
//  941   pBuf += 2;
//  942 
//  943   /* SrcAddress */
//  944   pSrcAddr = pBuf;
//  945   pBuf += Z_EXTADDR_LEN;
//  946 
//  947   /* SrcEPInt */
//  948   srcEPInt = *pBuf++;
//  949 
//  950   /* ClusterID */
//  951   clusterID = BUILD_UINT16( pBuf[0], pBuf[1]);
//  952   pBuf += 2;
//  953 
//  954   /* Destination Address mode */
//  955   devAddr.addrMode = *pBuf++;
??CrossCallReturnLabel_0:
        LCALL     ?XSTACK_DISP0_8
        MOV       A,R0
        MOVX      @DPTR,A
        MOV       A,?V0
        ADD       A,#0x3
        MOV       ?V0,A
        JNC       ??MT_ZdoBindRequest_1
        INC       ?V1
//  956 
//  957   /* Destination Address */
//  958   if ( devAddr.addrMode == Addr64Bit )
??MT_ZdoBindRequest_1:
        MOV       A,#0x3
        XRL       A,R0
        JNZ       ??MT_ZdoBindRequest_2
//  959   {
//  960     ptr = pBuf;
//  961     osal_cpyExtAddr( devAddr.addr.extAddr, ptr );
        ; Setup parameters for call to function sAddrExtCpy
        MOV       R4,?V0
        MOV       R5,?V1
        MOV       A,#0x1
        LCALL     ?XSTACK_DISP101_8
        LCALL     `??sAddrExtCpy::?relay`; Banked call to: sAddrExtCpy
        SJMP      ??MT_ZdoBindRequest_3
//  962   }
//  963   else
//  964   {
//  965     devAddr.addr.shortAddr = BUILD_UINT16( pBuf[0], pBuf[1] );
??MT_ZdoBindRequest_2:
        LCALL     ?Subroutine21 & 0xFFFF
//  966   }
??CrossCallReturnLabel_135:
        LCALL     ?XSTACK_DISP0_8
        MOV       A,R2
        MOVX      @DPTR,A
        INC       DPTR
        MOV       A,R1
        MOVX      @DPTR,A
//  967   /* The short address occupies LSB two bytes */
//  968   pBuf += Z_EXTADDR_LEN;
//  969 
//  970   /* DstEPInt */
//  971   dstEPInt = *pBuf;
//  972 
//  973   retValue = (uint8)ZDP_BindReq( &destAddr, pSrcAddr, srcEPInt, clusterID, &devAddr, dstEPInt, 0);
??MT_ZdoBindRequest_3:
        ; Setup parameters for call to function ZDP_BindUnbindReq
        MOV       ?V4,#0x0
        MOV       R0,#?V4
        LCALL     ?PUSH_XSTACK_I_ONE
          CFI CFA_XSP16 add(XSP16, 36)
        MOV       DPL,?V0
        MOV       DPH,?V1
        INC       DPTR
        INC       DPTR
        INC       DPTR
        INC       DPTR
        INC       DPTR
        INC       DPTR
        INC       DPTR
        INC       DPTR
        MOVX      A,@DPTR
        MOV       ?V0,A
        MOV       R0,#?V0
        LCALL     ?PUSH_XSTACK_I_ONE
          CFI CFA_XSP16 add(XSP16, 37)
        MOV       A,#0x3
        LCALL     ?XSTACK_DISP100_8
        MOV       ?V0,R0
        MOV       ?V1,R1
        MOV       R0,#?V0
        LCALL     ?PUSH_XSTACK_I_TWO
          CFI CFA_XSP16 add(XSP16, 39)
        MOV       ?V0,R6
        MOV       ?V1,R7
        MOV       R0,#?V0
        LCALL     ?PUSH_XSTACK_I_TWO
          CFI CFA_XSP16 add(XSP16, 41)
        MOV       R0,#?V6
        LCALL     ?PUSH_XSTACK_I_TWO
          CFI CFA_XSP16 add(XSP16, 43)
        MOV       R1,?V2
        MOV       A,#0x12
        LCALL     ?XSTACK_DISP102_8
        MOV       R2,#0x21
          CFI EndBlock cfiBlock174
        REQUIRE ?Subroutine4
        ; // Fall through to label ?Subroutine4
//  974 
//  975   MT_BuildAndSendZToolResponse(((uint8)MT_RPC_CMD_SRSP | (uint8)MT_RPC_SYS_ZDO), cmdId, 1, &retValue);
//  976 }

        RSEG BANKED_CODE:HUGECODE:NOROOT(0)
?Subroutine4:
          CFI Block cfiBlock175 Using cfiCommon0
          CFI NoFunction
          CFI CFA_SP SP+0
          CFI CFA_XSP16 add(XSP16, 43)
          CFI VB load(1, XDATA, add(CFA_XSP16, literal(-15)))
          CFI DPL0 load(1, XDATA, add(CFA_XSP16, literal(-2)))
          CFI DPH0 load(1, XDATA, add(CFA_XSP16, literal(-1)))
          CFI R6 load(1, XDATA, add(CFA_XSP16, literal(-16)))
          CFI R7 load(1, XDATA, add(CFA_XSP16, literal(-6)))
          CFI V0 load(1, XDATA, add(CFA_XSP16, literal(-14)))
          CFI V1 load(1, XDATA, add(CFA_XSP16, literal(-13)))
          CFI V2 load(1, XDATA, add(CFA_XSP16, literal(-12)))
          CFI V3 load(1, XDATA, add(CFA_XSP16, literal(-11)))
          CFI V4 load(1, XDATA, add(CFA_XSP16, literal(-10)))
          CFI V5 load(1, XDATA, add(CFA_XSP16, literal(-9)))
          CFI V6 load(1, XDATA, add(CFA_XSP16, literal(-8)))
          CFI V7 load(1, XDATA, add(CFA_XSP16, literal(-7)))
          CFI ?BRET_EXT load(1, XDATA, add(CFA_XSP16, literal(-3)))
          CFI ?RET_HIGH load(1, XDATA, add(CFA_XSP16, literal(-4)))
          CFI ?RET_LOW load(1, XDATA, add(CFA_XSP16, literal(-5)))
        MOV       R3,#0x0
        LCALL     `??ZDP_BindUnbindReq::?relay`; Banked call to: ZDP_BindUnbindReq
        MOV       A,#0x8
        LCALL     ?DEALLOC_XSTACK8
          CFI CFA_XSP16 add(XSP16, 35)
        LCALL     ?Subroutine33 & 0xFFFF
??CrossCallReturnLabel_63:
        MOV       A,#0x13
        LCALL     ?DEALLOC_XSTACK8
          CFI CFA_XSP16 add(XSP16, 16)
        MOV       R7,#0x8
        LJMP      ?BANKED_LEAVE_XDATA
          CFI EndBlock cfiBlock175

        RSEG BANKED_CODE:HUGECODE:NOROOT(0)
?Subroutine33:
          CFI Block cfiCond176 Using cfiCommon0
          CFI Function MT_ZdoUserDescSet
          CFI Conditional ??CrossCallReturnLabel_62
          CFI R6 load(1, XDATA, add(CFA_XSP16, literal(-12)))
          CFI VB load(1, XDATA, add(CFA_XSP16, literal(-11)))
          CFI V0 load(1, XDATA, add(CFA_XSP16, literal(-10)))
          CFI V1 load(1, XDATA, add(CFA_XSP16, literal(-9)))
          CFI V2 load(1, XDATA, add(CFA_XSP16, literal(-8)))
          CFI V3 load(1, XDATA, add(CFA_XSP16, literal(-7)))
          CFI R7 load(1, XDATA, add(CFA_XSP16, literal(-6)))
          CFI ?RET_LOW load(1, XDATA, add(CFA_XSP16, literal(-5)))
          CFI ?RET_HIGH load(1, XDATA, add(CFA_XSP16, literal(-4)))
          CFI ?BRET_EXT load(1, XDATA, add(CFA_XSP16, literal(-3)))
          CFI DPL0 load(1, XDATA, add(CFA_XSP16, literal(-2)))
          CFI DPH0 load(1, XDATA, add(CFA_XSP16, literal(-1)))
          CFI CFA_SP SP+-2
          CFI CFA_XSP16 add(XSP16, 39)
          CFI Block cfiCond177 Using cfiCommon0
          CFI (cfiCond177) Function MT_ZdoBindRequest
          CFI (cfiCond177) Conditional ??CrossCallReturnLabel_63
          CFI (cfiCond177) R6 load(1, XDATA, add(CFA_XSP16, literal(-16)))
          CFI (cfiCond177) VB load(1, XDATA, add(CFA_XSP16, literal(-15)))
          CFI (cfiCond177) V0 load(1, XDATA, add(CFA_XSP16, literal(-14)))
          CFI (cfiCond177) V1 load(1, XDATA, add(CFA_XSP16, literal(-13)))
          CFI (cfiCond177) V2 load(1, XDATA, add(CFA_XSP16, literal(-12)))
          CFI (cfiCond177) V3 load(1, XDATA, add(CFA_XSP16, literal(-11)))
          CFI (cfiCond177) V4 load(1, XDATA, add(CFA_XSP16, literal(-10)))
          CFI (cfiCond177) V5 load(1, XDATA, add(CFA_XSP16, literal(-9)))
          CFI (cfiCond177) V6 load(1, XDATA, add(CFA_XSP16, literal(-8)))
          CFI (cfiCond177) V7 load(1, XDATA, add(CFA_XSP16, literal(-7)))
          CFI (cfiCond177) R7 load(1, XDATA, add(CFA_XSP16, literal(-6)))
          CFI (cfiCond177) ?RET_LOW load(1, XDATA, add(CFA_XSP16, literal(-5)))
          CFI (cfiCond177) ?RET_HIGH load(1, XDATA, add(CFA_XSP16, literal(-4)))
          CFI (cfiCond177) ?BRET_EXT load(1, XDATA, add(CFA_XSP16, literal(-3)))
          CFI (cfiCond177) DPL0 load(1, XDATA, add(CFA_XSP16, literal(-2)))
          CFI (cfiCond177) DPH0 load(1, XDATA, add(CFA_XSP16, literal(-1)))
          CFI (cfiCond177) CFA_SP SP+-2
          CFI (cfiCond177) CFA_XSP16 add(XSP16, 35)
          CFI Block cfiCond178 Using cfiCommon0
          CFI (cfiCond178) Function MT_ZdoUnbindRequest
          CFI (cfiCond178) Conditional ??CrossCallReturnLabel_63
          CFI (cfiCond178) R6 load(1, XDATA, add(CFA_XSP16, literal(-16)))
          CFI (cfiCond178) VB load(1, XDATA, add(CFA_XSP16, literal(-15)))
          CFI (cfiCond178) V0 load(1, XDATA, add(CFA_XSP16, literal(-14)))
          CFI (cfiCond178) V1 load(1, XDATA, add(CFA_XSP16, literal(-13)))
          CFI (cfiCond178) V2 load(1, XDATA, add(CFA_XSP16, literal(-12)))
          CFI (cfiCond178) V3 load(1, XDATA, add(CFA_XSP16, literal(-11)))
          CFI (cfiCond178) V4 load(1, XDATA, add(CFA_XSP16, literal(-10)))
          CFI (cfiCond178) V5 load(1, XDATA, add(CFA_XSP16, literal(-9)))
          CFI (cfiCond178) V6 load(1, XDATA, add(CFA_XSP16, literal(-8)))
          CFI (cfiCond178) V7 load(1, XDATA, add(CFA_XSP16, literal(-7)))
          CFI (cfiCond178) R7 load(1, XDATA, add(CFA_XSP16, literal(-6)))
          CFI (cfiCond178) ?RET_LOW load(1, XDATA, add(CFA_XSP16, literal(-5)))
          CFI (cfiCond178) ?RET_HIGH load(1, XDATA, add(CFA_XSP16, literal(-4)))
          CFI (cfiCond178) ?BRET_EXT load(1, XDATA, add(CFA_XSP16, literal(-3)))
          CFI (cfiCond178) DPL0 load(1, XDATA, add(CFA_XSP16, literal(-2)))
          CFI (cfiCond178) DPH0 load(1, XDATA, add(CFA_XSP16, literal(-1)))
          CFI (cfiCond178) CFA_SP SP+-2
          CFI (cfiCond178) CFA_XSP16 add(XSP16, 35)
          CFI Block cfiPicker179 Using cfiCommon1
          CFI (cfiPicker179) NoFunction
          CFI (cfiPicker179) Picker
        MOV       A,R1
        MOV       DPL,?XSP + 0
        MOV       DPH,?XSP + 1
        MOVX      @DPTR,A
        ; Setup parameters for call to function MT_BuildAndSendZToolResponse
        ; Setup parameters for call to function MT_BuildAndSendZToolResponse
        ; Setup parameters for call to function MT_BuildAndSendZToolResponse
        MOV       R4,?XSP + 0
        MOV       R5,?XSP + 1
        MOV       R3,#0x1
        MOV       R2,?V3
        MOV       R1,#0x65
        LCALL     `??MT_BuildAndSendZToolResponse::?relay`; Banked call to: MT_BuildAndSendZToolResponse
        RET
          CFI EndBlock cfiCond176
          CFI EndBlock cfiCond177
          CFI EndBlock cfiCond178
          CFI EndBlock cfiPicker179

        RSEG BANKED_CODE:HUGECODE:NOROOT(0)
?Subroutine21:
          CFI Block cfiCond180 Using cfiCommon0
          CFI Function MT_ZdoBindRequest
          CFI Conditional ??CrossCallReturnLabel_135
          CFI R6 load(1, XDATA, add(CFA_XSP16, literal(-16)))
          CFI VB load(1, XDATA, add(CFA_XSP16, literal(-15)))
          CFI V0 load(1, XDATA, add(CFA_XSP16, literal(-14)))
          CFI V1 load(1, XDATA, add(CFA_XSP16, literal(-13)))
          CFI V2 load(1, XDATA, add(CFA_XSP16, literal(-12)))
          CFI V3 load(1, XDATA, add(CFA_XSP16, literal(-11)))
          CFI V4 load(1, XDATA, add(CFA_XSP16, literal(-10)))
          CFI V5 load(1, XDATA, add(CFA_XSP16, literal(-9)))
          CFI V6 load(1, XDATA, add(CFA_XSP16, literal(-8)))
          CFI V7 load(1, XDATA, add(CFA_XSP16, literal(-7)))
          CFI R7 load(1, XDATA, add(CFA_XSP16, literal(-6)))
          CFI ?RET_LOW load(1, XDATA, add(CFA_XSP16, literal(-5)))
          CFI ?RET_HIGH load(1, XDATA, add(CFA_XSP16, literal(-4)))
          CFI ?BRET_EXT load(1, XDATA, add(CFA_XSP16, literal(-3)))
          CFI DPL0 load(1, XDATA, add(CFA_XSP16, literal(-2)))
          CFI DPH0 load(1, XDATA, add(CFA_XSP16, literal(-1)))
          CFI CFA_SP SP+-2
          CFI CFA_XSP16 add(XSP16, 35)
          CFI Block cfiCond181 Using cfiCommon0
          CFI (cfiCond181) Function MT_ZdoUnbindRequest
          CFI (cfiCond181) Conditional ??CrossCallReturnLabel_136
          CFI (cfiCond181) R6 load(1, XDATA, add(CFA_XSP16, literal(-16)))
          CFI (cfiCond181) VB load(1, XDATA, add(CFA_XSP16, literal(-15)))
          CFI (cfiCond181) V0 load(1, XDATA, add(CFA_XSP16, literal(-14)))
          CFI (cfiCond181) V1 load(1, XDATA, add(CFA_XSP16, literal(-13)))
          CFI (cfiCond181) V2 load(1, XDATA, add(CFA_XSP16, literal(-12)))
          CFI (cfiCond181) V3 load(1, XDATA, add(CFA_XSP16, literal(-11)))
          CFI (cfiCond181) V4 load(1, XDATA, add(CFA_XSP16, literal(-10)))
          CFI (cfiCond181) V5 load(1, XDATA, add(CFA_XSP16, literal(-9)))
          CFI (cfiCond181) V6 load(1, XDATA, add(CFA_XSP16, literal(-8)))
          CFI (cfiCond181) V7 load(1, XDATA, add(CFA_XSP16, literal(-7)))
          CFI (cfiCond181) R7 load(1, XDATA, add(CFA_XSP16, literal(-6)))
          CFI (cfiCond181) ?RET_LOW load(1, XDATA, add(CFA_XSP16, literal(-5)))
          CFI (cfiCond181) ?RET_HIGH load(1, XDATA, add(CFA_XSP16, literal(-4)))
          CFI (cfiCond181) ?BRET_EXT load(1, XDATA, add(CFA_XSP16, literal(-3)))
          CFI (cfiCond181) DPL0 load(1, XDATA, add(CFA_XSP16, literal(-2)))
          CFI (cfiCond181) DPH0 load(1, XDATA, add(CFA_XSP16, literal(-1)))
          CFI (cfiCond181) CFA_SP SP+-2
          CFI (cfiCond181) CFA_XSP16 add(XSP16, 35)
          CFI Block cfiPicker182 Using cfiCommon1
          CFI (cfiPicker182) NoFunction
          CFI (cfiPicker182) Picker
        MOV       DPL,?V0
        MOV       DPH,?V1
          CFI EndBlock cfiCond180
          CFI EndBlock cfiCond181
          CFI EndBlock cfiPicker182
        REQUIRE ??Subroutine69_0
        ; // Fall through to label ??Subroutine69_0

        RSEG BANKED_CODE:HUGECODE:NOROOT(0)
??Subroutine69_0:
          CFI Block cfiCond183 Using cfiCommon0
          CFI Function MT_ZdoEndDevBindRequest
          CFI Conditional ??CrossCallReturnLabel_134
          CFI R6 load(1, XDATA, add(CFA_XSP16, literal(-15)))
          CFI VB load(1, XDATA, add(CFA_XSP16, literal(-14)))
          CFI V0 load(1, XDATA, add(CFA_XSP16, literal(-13)))
          CFI V1 load(1, XDATA, add(CFA_XSP16, literal(-12)))
          CFI V2 load(1, XDATA, add(CFA_XSP16, literal(-11)))
          CFI V3 load(1, XDATA, add(CFA_XSP16, literal(-10)))
          CFI V4 load(1, XDATA, add(CFA_XSP16, literal(-9)))
          CFI V5 load(1, XDATA, add(CFA_XSP16, literal(-8)))
          CFI V6 load(1, XDATA, add(CFA_XSP16, literal(-7)))
          CFI R7 load(1, XDATA, add(CFA_XSP16, literal(-6)))
          CFI ?RET_LOW load(1, XDATA, add(CFA_XSP16, literal(-5)))
          CFI ?RET_HIGH load(1, XDATA, add(CFA_XSP16, literal(-4)))
          CFI ?BRET_EXT load(1, XDATA, add(CFA_XSP16, literal(-3)))
          CFI DPL0 load(1, XDATA, add(CFA_XSP16, literal(-2)))
          CFI DPH0 load(1, XDATA, add(CFA_XSP16, literal(-1)))
          CFI CFA_SP SP+-2
          CFI CFA_XSP16 add(XSP16, 85)
          CFI Block cfiCond184 Using cfiCommon0
          CFI (cfiCond184) Function MT_ZdoBindRequest
          CFI (cfiCond184) Conditional ??CrossCallReturnLabel_135
          CFI (cfiCond184) R6 load(1, XDATA, add(CFA_XSP16, literal(-16)))
          CFI (cfiCond184) VB load(1, XDATA, add(CFA_XSP16, literal(-15)))
          CFI (cfiCond184) V0 load(1, XDATA, add(CFA_XSP16, literal(-14)))
          CFI (cfiCond184) V1 load(1, XDATA, add(CFA_XSP16, literal(-13)))
          CFI (cfiCond184) V2 load(1, XDATA, add(CFA_XSP16, literal(-12)))
          CFI (cfiCond184) V3 load(1, XDATA, add(CFA_XSP16, literal(-11)))
          CFI (cfiCond184) V4 load(1, XDATA, add(CFA_XSP16, literal(-10)))
          CFI (cfiCond184) V5 load(1, XDATA, add(CFA_XSP16, literal(-9)))
          CFI (cfiCond184) V6 load(1, XDATA, add(CFA_XSP16, literal(-8)))
          CFI (cfiCond184) V7 load(1, XDATA, add(CFA_XSP16, literal(-7)))
          CFI (cfiCond184) R7 load(1, XDATA, add(CFA_XSP16, literal(-6)))
          CFI (cfiCond184) ?RET_LOW load(1, XDATA, add(CFA_XSP16, literal(-5)))
          CFI (cfiCond184) ?RET_HIGH load(1, XDATA, add(CFA_XSP16, literal(-4)))
          CFI (cfiCond184) ?BRET_EXT load(1, XDATA, add(CFA_XSP16, literal(-3)))
          CFI (cfiCond184) DPL0 load(1, XDATA, add(CFA_XSP16, literal(-2)))
          CFI (cfiCond184) DPH0 load(1, XDATA, add(CFA_XSP16, literal(-1)))
          CFI (cfiCond184) CFA_SP SP+-2
          CFI (cfiCond184) CFA_XSP16 add(XSP16, 35)
          CFI Block cfiCond185 Using cfiCommon0
          CFI (cfiCond185) Function MT_ZdoUnbindRequest
          CFI (cfiCond185) Conditional ??CrossCallReturnLabel_136
          CFI (cfiCond185) R6 load(1, XDATA, add(CFA_XSP16, literal(-16)))
          CFI (cfiCond185) VB load(1, XDATA, add(CFA_XSP16, literal(-15)))
          CFI (cfiCond185) V0 load(1, XDATA, add(CFA_XSP16, literal(-14)))
          CFI (cfiCond185) V1 load(1, XDATA, add(CFA_XSP16, literal(-13)))
          CFI (cfiCond185) V2 load(1, XDATA, add(CFA_XSP16, literal(-12)))
          CFI (cfiCond185) V3 load(1, XDATA, add(CFA_XSP16, literal(-11)))
          CFI (cfiCond185) V4 load(1, XDATA, add(CFA_XSP16, literal(-10)))
          CFI (cfiCond185) V5 load(1, XDATA, add(CFA_XSP16, literal(-9)))
          CFI (cfiCond185) V6 load(1, XDATA, add(CFA_XSP16, literal(-8)))
          CFI (cfiCond185) V7 load(1, XDATA, add(CFA_XSP16, literal(-7)))
          CFI (cfiCond185) R7 load(1, XDATA, add(CFA_XSP16, literal(-6)))
          CFI (cfiCond185) ?RET_LOW load(1, XDATA, add(CFA_XSP16, literal(-5)))
          CFI (cfiCond185) ?RET_HIGH load(1, XDATA, add(CFA_XSP16, literal(-4)))
          CFI (cfiCond185) ?BRET_EXT load(1, XDATA, add(CFA_XSP16, literal(-3)))
          CFI (cfiCond185) DPL0 load(1, XDATA, add(CFA_XSP16, literal(-2)))
          CFI (cfiCond185) DPH0 load(1, XDATA, add(CFA_XSP16, literal(-1)))
          CFI (cfiCond185) CFA_SP SP+-2
          CFI (cfiCond185) CFA_XSP16 add(XSP16, 35)
          CFI Block cfiPicker186 Using cfiCommon1
          CFI (cfiPicker186) NoFunction
          CFI (cfiPicker186) Picker
        MOVX      A,@DPTR
        MOV       R2,A
        INC       DPTR
        MOVX      A,@DPTR
        MOV       R1,A
        MOV       A,#0x1
        RET
          CFI EndBlock cfiCond183
          CFI EndBlock cfiCond184
          CFI EndBlock cfiCond185
          CFI EndBlock cfiPicker186
//  977 
//  978 /***************************************************************************************************
//  979  * @fn      MT_ZdoUnbindRequest
//  980  *
//  981  * @brief   Handle a Unbind request.
//  982  *
//  983  * @param   pBuf  - MT message data
//  984  *
//  985  * @return  void
//  986  ***************************************************************************************************/

        RSEG BANKED_CODE:HUGECODE:NOROOT(0)
//  987 void MT_ZdoUnbindRequest(uint8 *pBuf)
MT_ZdoUnbindRequest:
          CFI Block cfiBlock187 Using cfiCommon0
          CFI Function MT_ZdoUnbindRequest
        CODE
//  988 {
        FUNCALL MT_ZdoUnbindRequest, sAddrExtCpy
        LOCFRAME ISTACK, 0, STACK
        LOCFRAME PSTACK, 0, STACK
        LOCFRAME XSTACK, 35, STACK
        LOCFRAME IOVERLAY, 0, STATIC
        LOCFRAME DOVERLAY, 0, STATIC
        ARGFRAME ISTACK, 0, STACK
        ARGFRAME PSTACK, 0, STACK
        ARGFRAME XSTACK, 35, STACK
        ARGFRAME IOVERLAY, 0, STATIC
        ARGFRAME DOVERLAY, 0, STATIC
        FUNCALL MT_ZdoUnbindRequest, ZDP_BindUnbindReq
        LOCFRAME ISTACK, 0, STACK
        LOCFRAME PSTACK, 0, STACK
        LOCFRAME XSTACK, 43, STACK
        LOCFRAME IOVERLAY, 0, STATIC
        LOCFRAME DOVERLAY, 0, STATIC
        ARGFRAME ISTACK, 0, STACK
        ARGFRAME PSTACK, 0, STACK
        ARGFRAME XSTACK, 43, STACK
        ARGFRAME IOVERLAY, 0, STATIC
        ARGFRAME DOVERLAY, 0, STATIC
        FUNCALL MT_ZdoUnbindRequest, MT_BuildAndSendZToolResponse
        LOCFRAME ISTACK, 0, STACK
        LOCFRAME PSTACK, 0, STACK
        LOCFRAME XSTACK, 35, STACK
        LOCFRAME IOVERLAY, 0, STATIC
        LOCFRAME DOVERLAY, 0, STATIC
        ARGFRAME ISTACK, 0, STACK
        ARGFRAME PSTACK, 0, STACK
        ARGFRAME XSTACK, 35, STACK
        ARGFRAME IOVERLAY, 0, STATIC
        ARGFRAME DOVERLAY, 0, STATIC
        REQUIRE ?V0
        REQUIRE ?V1
        REQUIRE ?V2
        REQUIRE ?V3
        REQUIRE ?V4
        REQUIRE ?V6
        REQUIRE ?V7
        MOV       A,#-0x10
        LCALL     ?BANKED_ENTER_XDATA
          CFI DPH0 load(1, XDATA, add(CFA_XSP16, literal(-1)))
          CFI DPL0 load(1, XDATA, add(CFA_XSP16, literal(-2)))
          CFI ?BRET_EXT load(1, XDATA, add(CFA_XSP16, literal(-3)))
          CFI ?RET_HIGH load(1, XDATA, add(CFA_XSP16, literal(-4)))
          CFI ?RET_LOW load(1, XDATA, add(CFA_XSP16, literal(-5)))
          CFI R7 load(1, XDATA, add(CFA_XSP16, literal(-6)))
          CFI V7 load(1, XDATA, add(CFA_XSP16, literal(-7)))
          CFI V6 load(1, XDATA, add(CFA_XSP16, literal(-8)))
          CFI V5 load(1, XDATA, add(CFA_XSP16, literal(-9)))
          CFI V4 load(1, XDATA, add(CFA_XSP16, literal(-10)))
          CFI V3 load(1, XDATA, add(CFA_XSP16, literal(-11)))
          CFI V2 load(1, XDATA, add(CFA_XSP16, literal(-12)))
          CFI V1 load(1, XDATA, add(CFA_XSP16, literal(-13)))
          CFI V0 load(1, XDATA, add(CFA_XSP16, literal(-14)))
          CFI VB load(1, XDATA, add(CFA_XSP16, literal(-15)))
          CFI R6 load(1, XDATA, add(CFA_XSP16, literal(-16)))
          CFI CFA_SP SP+0
          CFI CFA_XSP16 add(XSP16, 16)
        ; Saved register size: 16
        ; Auto size: 19
        MOV       A,#-0x13
        LCALL     ?ALLOC_XSTACK8
          CFI CFA_XSP16 add(XSP16, 35)
        LCALL     ?Subroutine26 & 0xFFFF
//  989   uint8 cmdId;
//  990   uint8 retValue;
//  991   zAddrType_t destAddr, devAddr;
//  992   uint8 *pSrcAddr, *ptr;
//  993   uint8 srcEPInt, dstEPInt;
//  994   uint16 clusterID;
//  995 
//  996   /* parse header */
//  997   cmdId = pBuf[MT_RPC_POS_CMD1];
//  998   pBuf += MT_RPC_FRAME_HDR_SZ;
??CrossCallReturnLabel_48:
        JNC       ??MT_ZdoUnbindRequest_0
        INC       ?V1
//  999 
// 1000   /* dev address */
// 1001   destAddr.addrMode = Addr16Bit;
??MT_ZdoUnbindRequest_0:
        MOV       A,#0x12
        LCALL     ?XSTACK_DISP0_8
        LCALL     ?Subroutine34 & 0xFFFF
// 1002   destAddr.addr.shortAddr = BUILD_UINT16( pBuf[0], pBuf[1] );
??CrossCallReturnLabel_65:
        LCALL     ?XSTACK_DISP0_8
        LCALL     ?Subroutine6 & 0xFFFF
// 1003   pBuf += 2;
// 1004 
// 1005   /* SrcAddress */
// 1006   pSrcAddr = pBuf;
// 1007   pBuf += Z_EXTADDR_LEN;
// 1008 
// 1009   /* SrcEPInt */
// 1010   srcEPInt = *pBuf++;
// 1011 
// 1012   /* ClusterID */
// 1013   clusterID = BUILD_UINT16( pBuf[0], pBuf[1]);
// 1014   pBuf += 2;
// 1015 
// 1016   /* Destination Address mode */
// 1017   devAddr.addrMode = *pBuf++;
??CrossCallReturnLabel_1:
        LCALL     ?XSTACK_DISP0_8
        MOV       A,R0
        MOVX      @DPTR,A
        MOV       A,?V0
        ADD       A,#0x3
        MOV       ?V0,A
        JNC       ??MT_ZdoUnbindRequest_1
        INC       ?V1
// 1018 
// 1019   /* Destination Address */
// 1020   if ( devAddr.addrMode == Addr64Bit )
??MT_ZdoUnbindRequest_1:
        MOV       A,#0x3
        XRL       A,R0
        JNZ       ??MT_ZdoUnbindRequest_2
// 1021   {
// 1022     ptr = pBuf;
// 1023     osal_cpyExtAddr( devAddr.addr.extAddr, ptr );
        ; Setup parameters for call to function sAddrExtCpy
        MOV       R4,?V0
        MOV       R5,?V1
        MOV       A,#0x1
        LCALL     ?XSTACK_DISP101_8
        LCALL     `??sAddrExtCpy::?relay`; Banked call to: sAddrExtCpy
        SJMP      ??MT_ZdoUnbindRequest_3
// 1024   }
// 1025   else
// 1026   {
// 1027     devAddr.addr.shortAddr = BUILD_UINT16( pBuf[0], pBuf[1] );
??MT_ZdoUnbindRequest_2:
        LCALL     ?Subroutine21 & 0xFFFF
// 1028   }
??CrossCallReturnLabel_136:
        LCALL     ?XSTACK_DISP0_8
        MOV       A,R2
        MOVX      @DPTR,A
        INC       DPTR
        MOV       A,R1
        MOVX      @DPTR,A
// 1029   /* The short address occupies LSB two bytes */
// 1030   pBuf += Z_EXTADDR_LEN;
// 1031 
// 1032   /* dstEPInt */
// 1033   dstEPInt = *pBuf;
// 1034 
// 1035   retValue = (uint8)ZDP_UnbindReq( &destAddr, pSrcAddr, srcEPInt, clusterID, &devAddr, dstEPInt, 0);
??MT_ZdoUnbindRequest_3:
        ; Setup parameters for call to function ZDP_BindUnbindReq
        MOV       ?V4,#0x0
        MOV       R0,#?V4
        LCALL     ?PUSH_XSTACK_I_ONE
          CFI CFA_XSP16 add(XSP16, 36)
        MOV       DPL,?V0
        MOV       DPH,?V1
        INC       DPTR
        INC       DPTR
        INC       DPTR
        INC       DPTR
        INC       DPTR
        INC       DPTR
        INC       DPTR
        INC       DPTR
        MOVX      A,@DPTR
        MOV       ?V0,A
        MOV       R0,#?V0
        LCALL     ?PUSH_XSTACK_I_ONE
          CFI CFA_XSP16 add(XSP16, 37)
        MOV       A,#0x3
        LCALL     ?XSTACK_DISP100_8
        MOV       ?V0,R0
        MOV       ?V1,R1
        MOV       R0,#?V0
        LCALL     ?PUSH_XSTACK_I_TWO
          CFI CFA_XSP16 add(XSP16, 39)
        MOV       ?V0,R6
        MOV       ?V1,R7
        MOV       R0,#?V0
        LCALL     ?PUSH_XSTACK_I_TWO
          CFI CFA_XSP16 add(XSP16, 41)
        MOV       R0,#?V6
        LCALL     ?PUSH_XSTACK_I_TWO
          CFI CFA_XSP16 add(XSP16, 43)
        MOV       R1,?V2
        MOV       A,#0x12
        LCALL     ?XSTACK_DISP102_8
        MOV       R2,#0x22
        LJMP      ?Subroutine4 & 0xFFFF
// 1036 
// 1037   MT_BuildAndSendZToolResponse(((uint8)MT_RPC_CMD_SRSP | (uint8)MT_RPC_SYS_ZDO), cmdId, 1, &retValue);
// 1038 }
          CFI EndBlock cfiBlock187

        RSEG BANKED_CODE:HUGECODE:NOROOT(0)
?Subroutine34:
          CFI Block cfiCond188 Using cfiCommon0
          CFI Function MT_ZdoBindRequest
          CFI Conditional ??CrossCallReturnLabel_64
          CFI R6 load(1, XDATA, add(CFA_XSP16, literal(-16)))
          CFI VB load(1, XDATA, add(CFA_XSP16, literal(-15)))
          CFI V0 load(1, XDATA, add(CFA_XSP16, literal(-14)))
          CFI V1 load(1, XDATA, add(CFA_XSP16, literal(-13)))
          CFI V2 load(1, XDATA, add(CFA_XSP16, literal(-12)))
          CFI V3 load(1, XDATA, add(CFA_XSP16, literal(-11)))
          CFI V4 load(1, XDATA, add(CFA_XSP16, literal(-10)))
          CFI V5 load(1, XDATA, add(CFA_XSP16, literal(-9)))
          CFI V6 load(1, XDATA, add(CFA_XSP16, literal(-8)))
          CFI V7 load(1, XDATA, add(CFA_XSP16, literal(-7)))
          CFI R7 load(1, XDATA, add(CFA_XSP16, literal(-6)))
          CFI ?RET_LOW load(1, XDATA, add(CFA_XSP16, literal(-5)))
          CFI ?RET_HIGH load(1, XDATA, add(CFA_XSP16, literal(-4)))
          CFI ?BRET_EXT load(1, XDATA, add(CFA_XSP16, literal(-3)))
          CFI DPL0 load(1, XDATA, add(CFA_XSP16, literal(-2)))
          CFI DPH0 load(1, XDATA, add(CFA_XSP16, literal(-1)))
          CFI CFA_SP SP+-2
          CFI CFA_XSP16 add(XSP16, 35)
          CFI Block cfiCond189 Using cfiCommon0
          CFI (cfiCond189) Function MT_ZdoUnbindRequest
          CFI (cfiCond189) Conditional ??CrossCallReturnLabel_65
          CFI (cfiCond189) R6 load(1, XDATA, add(CFA_XSP16, literal(-16)))
          CFI (cfiCond189) VB load(1, XDATA, add(CFA_XSP16, literal(-15)))
          CFI (cfiCond189) V0 load(1, XDATA, add(CFA_XSP16, literal(-14)))
          CFI (cfiCond189) V1 load(1, XDATA, add(CFA_XSP16, literal(-13)))
          CFI (cfiCond189) V2 load(1, XDATA, add(CFA_XSP16, literal(-12)))
          CFI (cfiCond189) V3 load(1, XDATA, add(CFA_XSP16, literal(-11)))
          CFI (cfiCond189) V4 load(1, XDATA, add(CFA_XSP16, literal(-10)))
          CFI (cfiCond189) V5 load(1, XDATA, add(CFA_XSP16, literal(-9)))
          CFI (cfiCond189) V6 load(1, XDATA, add(CFA_XSP16, literal(-8)))
          CFI (cfiCond189) V7 load(1, XDATA, add(CFA_XSP16, literal(-7)))
          CFI (cfiCond189) R7 load(1, XDATA, add(CFA_XSP16, literal(-6)))
          CFI (cfiCond189) ?RET_LOW load(1, XDATA, add(CFA_XSP16, literal(-5)))
          CFI (cfiCond189) ?RET_HIGH load(1, XDATA, add(CFA_XSP16, literal(-4)))
          CFI (cfiCond189) ?BRET_EXT load(1, XDATA, add(CFA_XSP16, literal(-3)))
          CFI (cfiCond189) DPL0 load(1, XDATA, add(CFA_XSP16, literal(-2)))
          CFI (cfiCond189) DPH0 load(1, XDATA, add(CFA_XSP16, literal(-1)))
          CFI (cfiCond189) CFA_SP SP+-2
          CFI (cfiCond189) CFA_XSP16 add(XSP16, 35)
          CFI Block cfiPicker190 Using cfiCommon1
          CFI (cfiPicker190) NoFunction
          CFI (cfiPicker190) Picker
        MOV       A,#0x2
        MOVX      @DPTR,A
        MOV       DPL,?V0
        MOV       DPH,?V1
        MOVX      A,@DPTR
        MOV       R2,A
        INC       DPTR
        MOVX      A,@DPTR
        MOV       R1,A
        MOV       A,#0xa
        RET
          CFI EndBlock cfiCond188
          CFI EndBlock cfiCond189
          CFI EndBlock cfiPicker190

        RSEG BANKED_CODE:HUGECODE:NOROOT(0)
?Subroutine26:
          CFI Block cfiCond191 Using cfiCommon0
          CFI Function MT_ZdoBindRequest
          CFI Conditional ??CrossCallReturnLabel_47
          CFI R6 load(1, XDATA, add(CFA_XSP16, literal(-16)))
          CFI VB load(1, XDATA, add(CFA_XSP16, literal(-15)))
          CFI V0 load(1, XDATA, add(CFA_XSP16, literal(-14)))
          CFI V1 load(1, XDATA, add(CFA_XSP16, literal(-13)))
          CFI V2 load(1, XDATA, add(CFA_XSP16, literal(-12)))
          CFI V3 load(1, XDATA, add(CFA_XSP16, literal(-11)))
          CFI V4 load(1, XDATA, add(CFA_XSP16, literal(-10)))
          CFI V5 load(1, XDATA, add(CFA_XSP16, literal(-9)))
          CFI V6 load(1, XDATA, add(CFA_XSP16, literal(-8)))
          CFI V7 load(1, XDATA, add(CFA_XSP16, literal(-7)))
          CFI R7 load(1, XDATA, add(CFA_XSP16, literal(-6)))
          CFI ?RET_LOW load(1, XDATA, add(CFA_XSP16, literal(-5)))
          CFI ?RET_HIGH load(1, XDATA, add(CFA_XSP16, literal(-4)))
          CFI ?BRET_EXT load(1, XDATA, add(CFA_XSP16, literal(-3)))
          CFI DPL0 load(1, XDATA, add(CFA_XSP16, literal(-2)))
          CFI DPH0 load(1, XDATA, add(CFA_XSP16, literal(-1)))
          CFI CFA_SP SP+-2
          CFI CFA_XSP16 add(XSP16, 35)
          CFI Block cfiCond192 Using cfiCommon0
          CFI (cfiCond192) Function MT_ZdoUnbindRequest
          CFI (cfiCond192) Conditional ??CrossCallReturnLabel_48
          CFI (cfiCond192) R6 load(1, XDATA, add(CFA_XSP16, literal(-16)))
          CFI (cfiCond192) VB load(1, XDATA, add(CFA_XSP16, literal(-15)))
          CFI (cfiCond192) V0 load(1, XDATA, add(CFA_XSP16, literal(-14)))
          CFI (cfiCond192) V1 load(1, XDATA, add(CFA_XSP16, literal(-13)))
          CFI (cfiCond192) V2 load(1, XDATA, add(CFA_XSP16, literal(-12)))
          CFI (cfiCond192) V3 load(1, XDATA, add(CFA_XSP16, literal(-11)))
          CFI (cfiCond192) V4 load(1, XDATA, add(CFA_XSP16, literal(-10)))
          CFI (cfiCond192) V5 load(1, XDATA, add(CFA_XSP16, literal(-9)))
          CFI (cfiCond192) V6 load(1, XDATA, add(CFA_XSP16, literal(-8)))
          CFI (cfiCond192) V7 load(1, XDATA, add(CFA_XSP16, literal(-7)))
          CFI (cfiCond192) R7 load(1, XDATA, add(CFA_XSP16, literal(-6)))
          CFI (cfiCond192) ?RET_LOW load(1, XDATA, add(CFA_XSP16, literal(-5)))
          CFI (cfiCond192) ?RET_HIGH load(1, XDATA, add(CFA_XSP16, literal(-4)))
          CFI (cfiCond192) ?BRET_EXT load(1, XDATA, add(CFA_XSP16, literal(-3)))
          CFI (cfiCond192) DPL0 load(1, XDATA, add(CFA_XSP16, literal(-2)))
          CFI (cfiCond192) DPH0 load(1, XDATA, add(CFA_XSP16, literal(-1)))
          CFI (cfiCond192) CFA_SP SP+-2
          CFI (cfiCond192) CFA_XSP16 add(XSP16, 35)
          CFI Block cfiPicker193 Using cfiCommon1
          CFI (cfiPicker193) NoFunction
          CFI (cfiPicker193) Picker
        MOV       ?V1,R3
        MOV       DPL,R2
        MOV       DPH,R3
        INC       DPTR
        INC       DPTR
        MOVX      A,@DPTR
        MOV       ?V3,A
        MOV       A,R2
        ADD       A,#0x3
        MOV       ?V0,A
        RET
          CFI EndBlock cfiCond191
          CFI EndBlock cfiCond192
          CFI EndBlock cfiPicker193

        RSEG BANKED_CODE:HUGECODE:NOROOT(0)
?Subroutine6:
          CFI Block cfiCond194 Using cfiCommon0
          CFI Function MT_ZdoBindRequest
          CFI Conditional ??CrossCallReturnLabel_0
          CFI R6 load(1, XDATA, add(CFA_XSP16, literal(-16)))
          CFI VB load(1, XDATA, add(CFA_XSP16, literal(-15)))
          CFI V0 load(1, XDATA, add(CFA_XSP16, literal(-14)))
          CFI V1 load(1, XDATA, add(CFA_XSP16, literal(-13)))
          CFI V2 load(1, XDATA, add(CFA_XSP16, literal(-12)))
          CFI V3 load(1, XDATA, add(CFA_XSP16, literal(-11)))
          CFI V4 load(1, XDATA, add(CFA_XSP16, literal(-10)))
          CFI V5 load(1, XDATA, add(CFA_XSP16, literal(-9)))
          CFI V6 load(1, XDATA, add(CFA_XSP16, literal(-8)))
          CFI V7 load(1, XDATA, add(CFA_XSP16, literal(-7)))
          CFI R7 load(1, XDATA, add(CFA_XSP16, literal(-6)))
          CFI ?RET_LOW load(1, XDATA, add(CFA_XSP16, literal(-5)))
          CFI ?RET_HIGH load(1, XDATA, add(CFA_XSP16, literal(-4)))
          CFI ?BRET_EXT load(1, XDATA, add(CFA_XSP16, literal(-3)))
          CFI DPL0 load(1, XDATA, add(CFA_XSP16, literal(-2)))
          CFI DPH0 load(1, XDATA, add(CFA_XSP16, literal(-1)))
          CFI CFA_SP SP+-2
          CFI CFA_XSP16 add(XSP16, 35)
          CFI Block cfiCond195 Using cfiCommon0
          CFI (cfiCond195) Function MT_ZdoUnbindRequest
          CFI (cfiCond195) Conditional ??CrossCallReturnLabel_1
          CFI (cfiCond195) R6 load(1, XDATA, add(CFA_XSP16, literal(-16)))
          CFI (cfiCond195) VB load(1, XDATA, add(CFA_XSP16, literal(-15)))
          CFI (cfiCond195) V0 load(1, XDATA, add(CFA_XSP16, literal(-14)))
          CFI (cfiCond195) V1 load(1, XDATA, add(CFA_XSP16, literal(-13)))
          CFI (cfiCond195) V2 load(1, XDATA, add(CFA_XSP16, literal(-12)))
          CFI (cfiCond195) V3 load(1, XDATA, add(CFA_XSP16, literal(-11)))
          CFI (cfiCond195) V4 load(1, XDATA, add(CFA_XSP16, literal(-10)))
          CFI (cfiCond195) V5 load(1, XDATA, add(CFA_XSP16, literal(-9)))
          CFI (cfiCond195) V6 load(1, XDATA, add(CFA_XSP16, literal(-8)))
          CFI (cfiCond195) V7 load(1, XDATA, add(CFA_XSP16, literal(-7)))
          CFI (cfiCond195) R7 load(1, XDATA, add(CFA_XSP16, literal(-6)))
          CFI (cfiCond195) ?RET_LOW load(1, XDATA, add(CFA_XSP16, literal(-5)))
          CFI (cfiCond195) ?RET_HIGH load(1, XDATA, add(CFA_XSP16, literal(-4)))
          CFI (cfiCond195) ?BRET_EXT load(1, XDATA, add(CFA_XSP16, literal(-3)))
          CFI (cfiCond195) DPL0 load(1, XDATA, add(CFA_XSP16, literal(-2)))
          CFI (cfiCond195) DPH0 load(1, XDATA, add(CFA_XSP16, literal(-1)))
          CFI (cfiCond195) CFA_SP SP+-2
          CFI (cfiCond195) CFA_XSP16 add(XSP16, 35)
          CFI Block cfiPicker196 Using cfiCommon1
          CFI (cfiPicker196) NoFunction
          CFI (cfiPicker196) Picker
        MOV       A,R2
        MOVX      @DPTR,A
        INC       DPTR
        MOV       A,R1
        MOVX      @DPTR,A
        MOV       A,?V0
        ADD       A,#0x2
        MOV       ?V6,A
        CLR       A
        ADDC      A,?V1
        MOV       ?V7,A
        MOV       A,?V6
        ADD       A,#0x8
        MOV       ?V0,A
        CLR       A
        ADDC      A,?V7
        MOV       DPL,?V0
        MOV       DPH,A
        MOVX      A,@DPTR
        MOV       ?V2,A
        INC       DPTR
        MOV       ?V0,DPL
        MOV       ?V1,DPH
        LCALL     ?Subroutine49 & 0xFFFF
??CrossCallReturnLabel_132:
        MOV       R6,A
        CLR       A
        ADDC      A,R1
        MOV       R7,A
        MOV       DPL,?V0
        MOV       DPH,?V1
        INC       DPTR
        INC       DPTR
        MOVX      A,@DPTR
        MOV       R0,A
        MOV       A,#0x9
        RET
          CFI EndBlock cfiCond194
          CFI EndBlock cfiCond195
          CFI EndBlock cfiPicker196
// 1039 
// 1040 #if defined (MT_SYS_KEY_MANAGEMENT)
// 1041 /***************************************************************************************************
// 1042  * @fn      MT_ZdoSetLinkKey
// 1043  *
// 1044  * @brief   Set an application or trust center link key.
// 1045  *
// 1046  * @param   pBuf  - MT message data
// 1047  *
// 1048  * @return  void
// 1049  ***************************************************************************************************/
// 1050 void MT_ZdoSetLinkKey(uint8 *pBuf)
// 1051 {
// 1052   uint8 cmdId;
// 1053   uint8 retValue;
// 1054   uint8 *pExtAddr;
// 1055   uint8 *pKey;
// 1056   uint16 shortAddr;
// 1057 
// 1058   /* parse header */
// 1059   cmdId = pBuf[MT_RPC_POS_CMD1];
// 1060   pBuf += MT_RPC_FRAME_HDR_SZ;
// 1061 
// 1062   /* ShortAddr */
// 1063   shortAddr = BUILD_UINT16( pBuf[0], pBuf[1] );
// 1064   pBuf += 2;
// 1065 
// 1066   /* Extended Addr */
// 1067   pExtAddr = pBuf;
// 1068   pBuf += Z_EXTADDR_LEN;
// 1069 
// 1070   /* Key data */
// 1071   pKey = pBuf;
// 1072 
// 1073   retValue = (uint8)ZDSecMgrAddLinkKey( shortAddr, pExtAddr, pKey);
// 1074 
// 1075   MT_BuildAndSendZToolResponse(((uint8)MT_RPC_CMD_SRSP | (uint8)MT_RPC_SYS_ZDO), cmdId, 1, &retValue);
// 1076 }
// 1077 
// 1078 /***************************************************************************************************
// 1079  * @fn      MT_ZdoRemoveLinkKey
// 1080  *
// 1081  * @brief   Remove an application or trust center link key.
// 1082  *
// 1083  * @param   pBuf  - MT message data
// 1084  *
// 1085  * @return  void
// 1086  ***************************************************************************************************/
// 1087 void MT_ZdoRemoveLinkKey(uint8 *pBuf)
// 1088 {
// 1089   uint8 cmdId;
// 1090   uint8 retValue;
// 1091   uint8 *pExtAddr;
// 1092 
// 1093   /* parse header */
// 1094   cmdId = pBuf[MT_RPC_POS_CMD1];
// 1095   pBuf += MT_RPC_FRAME_HDR_SZ;
// 1096 
// 1097   /* ShortAddr */
// 1098   pExtAddr = pBuf;
// 1099 
// 1100   retValue = ZDSecMgrDeviceRemoveByExtAddr( pExtAddr );
// 1101 
// 1102   MT_BuildAndSendZToolResponse(((uint8)MT_RPC_CMD_SRSP | (uint8)MT_RPC_SYS_ZDO), cmdId, 1, &retValue);
// 1103 }
// 1104 
// 1105 /***************************************************************************************************
// 1106  * @fn      MT_ZdoGetLinkKey
// 1107  *
// 1108  * @brief   Get the application link key.
// 1109  *
// 1110  * @param   pBuf  - MT message data
// 1111  *
// 1112  * @return  void
// 1113  ***************************************************************************************************/
// 1114 void MT_ZdoGetLinkKey(uint8 *pBuf)
// 1115 {
// 1116   uint8 cmdId;
// 1117   uint8 retValue;
// 1118   uint8 *pExtAddr;
// 1119   uint8 *retBuf = NULL;
// 1120   uint8 len;
// 1121   APSME_LinkKeyData_t *pApsLinkKey = NULL;
// 1122   uint16 apsLinkKeyNvId;
// 1123 
// 1124   // parse header
// 1125   cmdId = pBuf[MT_RPC_POS_CMD1];
// 1126   pBuf += MT_RPC_FRAME_HDR_SZ;
// 1127 
// 1128   // Extended Address
// 1129   pExtAddr = pBuf;
// 1130 
// 1131   // Fetch the key NV ID
// 1132   retValue = APSME_LinkKeyNVIdGet( pExtAddr, &apsLinkKeyNvId );
// 1133 
// 1134   if (retValue == ZSuccess)
// 1135   {
// 1136     if ((pApsLinkKey = (APSME_LinkKeyData_t *)osal_mem_alloc(sizeof(APSME_LinkKeyData_t))) != NULL)
// 1137     {
// 1138       // retrieve key from NV
// 1139       if (osal_nv_read( apsLinkKeyNvId, 0,
// 1140                        sizeof(APSME_LinkKeyData_t), pApsLinkKey) != SUCCESS)
// 1141       {
// 1142         retValue = ZNwkUnknownDevice;
// 1143       }
// 1144     }
// 1145     else
// 1146     {
// 1147       retValue = ZNwkUnknownDevice;
// 1148     }
// 1149   }
// 1150 
// 1151   // Construct the response message
// 1152   len = MT_ZDO_STATUS_LEN + Z_EXTADDR_LEN + SEC_KEY_LEN; // status + extAddr + key
// 1153   if ((retBuf = (uint8 *)osal_mem_alloc(len)) != NULL)
// 1154   {
// 1155     if (retValue == ZSuccess)
// 1156     {
// 1157       // Extended Address
// 1158       osal_memcpy( &(retBuf[1]), pExtAddr, Z_EXTADDR_LEN );
// 1159 
// 1160       // Key data
// 1161       osal_memcpy( &(retBuf[1 + Z_EXTADDR_LEN]), pApsLinkKey->key, SEC_KEY_LEN );
// 1162     }
// 1163     else
// 1164     {
// 1165       // Failed case - set the rest fields to all FF
// 1166       osal_memset( &(retBuf[1]), 0xFF, Z_EXTADDR_LEN + SEC_KEY_LEN );
// 1167     }
// 1168 
// 1169     retBuf[0] = retValue;  // Status
// 1170 
// 1171     MT_BuildAndSendZToolResponse(((uint8)MT_RPC_CMD_SRSP | (uint8)MT_RPC_SYS_ZDO), cmdId, len, retBuf);
// 1172 
// 1173     // clear retBuf because it contains key data and free allocated memory
// 1174     osal_memset(retBuf, 0x00, len);
// 1175 
// 1176     osal_mem_free(retBuf);
// 1177   }
// 1178 
// 1179   // clear copy of key in RAM
// 1180   if (pApsLinkKey != NULL)
// 1181   {
// 1182     osal_memset(pApsLinkKey, 0x00, sizeof(APSME_LinkKeyData_t));
// 1183 
// 1184     osal_mem_free(pApsLinkKey);
// 1185   }
// 1186 
// 1187   return;
// 1188 }
// 1189 #endif // MT_SYS_KEY_MANAGEMENT
// 1190 
// 1191 #if defined (MT_ZDO_MGMT)
// 1192 /***************************************************************************************************
// 1193  * @fn      MT_ZdoMgmtNwkDiscRequest
// 1194  *
// 1195  * @brief   Handle a Mgmt Nwk Discovery request.
// 1196  *
// 1197  * @param   pBuf  - MT message data
// 1198  *
// 1199  * @return  void
// 1200  ***************************************************************************************************/
// 1201 void MT_ZdoMgmtNwkDiscRequest(uint8 *pBuf)
// 1202 {
// 1203   uint8 cmdId;
// 1204   uint8 retValue;
// 1205   zAddrType_t destAddr;
// 1206   uint32 scanChannels;
// 1207   uint8 scanDuration, startIndex;
// 1208 
// 1209   /* parse header */
// 1210   cmdId = pBuf[MT_RPC_POS_CMD1];
// 1211   pBuf += MT_RPC_FRAME_HDR_SZ;
// 1212 
// 1213   /* Dev address */
// 1214   destAddr.addrMode = Addr16Bit;
// 1215   destAddr.addr.shortAddr = BUILD_UINT16( pBuf[0], pBuf[1] );
// 1216   pBuf += 2;
// 1217 
// 1218   /* Scan Channels */
// 1219   scanChannels = BUILD_UINT32( pBuf[0], pBuf[1], pBuf[2], pBuf[3] );
// 1220   pBuf += 4;
// 1221 
// 1222   /* Scan Duration */
// 1223   scanDuration = *pBuf++;
// 1224 
// 1225   /* Start Index */
// 1226   startIndex = *pBuf;
// 1227 
// 1228   retValue = (uint8)ZDP_MgmtNwkDiscReq( &destAddr, scanChannels, scanDuration, startIndex, 0);
// 1229 
// 1230   MT_BuildAndSendZToolResponse(((uint8)MT_RPC_CMD_SRSP | (uint8)MT_RPC_SYS_ZDO), cmdId, 1, &retValue);
// 1231 }
// 1232 
// 1233 /***************************************************************************************************
// 1234  * @fn      MT_ZdoMgmtLqiRequest
// 1235  *
// 1236  * @brief   Handle a Mgmt Lqi request.
// 1237  *
// 1238  * @param   pBuf  - MT message data
// 1239  *
// 1240  * @return  void
// 1241  ***************************************************************************************************/
// 1242 void MT_ZdoMgmtLqiRequest(uint8 *pBuf)
// 1243 {
// 1244   uint8 cmdId;
// 1245   uint8 retValue;
// 1246   zAddrType_t destAddr;
// 1247   uint8 startIndex;
// 1248 
// 1249   /* parse header */
// 1250   cmdId = pBuf[MT_RPC_POS_CMD1];
// 1251   pBuf += MT_RPC_FRAME_HDR_SZ;
// 1252 
// 1253   /* Dev address */
// 1254   destAddr.addrMode = Addr16Bit;
// 1255   destAddr.addr.shortAddr = BUILD_UINT16( pBuf[0], pBuf[1] );
// 1256   pBuf += 2;
// 1257 
// 1258   /* Start Index */
// 1259   startIndex = *pBuf;
// 1260 
// 1261   retValue = (uint8)ZDP_MgmtLqiReq( &destAddr, startIndex, 0);
// 1262 
// 1263   MT_BuildAndSendZToolResponse(((uint8)MT_RPC_CMD_SRSP | (uint8)MT_RPC_SYS_ZDO), cmdId, 1, &retValue);
// 1264 }
// 1265 
// 1266 /***************************************************************************************************
// 1267  * @fn      MT_ZdoMgmtRtgRequest
// 1268  *
// 1269  * @brief   Handle a Mgmt Rtg request.
// 1270  *
// 1271  * @param   pBuf  - MT message data
// 1272  *
// 1273  * @return  void
// 1274  ***************************************************************************************************/
// 1275 void MT_ZdoMgmtRtgRequest(uint8 *pBuf)
// 1276 {
// 1277   uint8 cmdId;
// 1278   uint8 retValue;
// 1279   zAddrType_t destAddr;
// 1280   uint8 startIndex;
// 1281 
// 1282   /* parse header */
// 1283   cmdId = pBuf[MT_RPC_POS_CMD1];
// 1284   pBuf += MT_RPC_FRAME_HDR_SZ;
// 1285 
// 1286   /* Dev Address */
// 1287   destAddr.addrMode = Addr16Bit;
// 1288   destAddr.addr.shortAddr = BUILD_UINT16( pBuf[0], pBuf[1]);
// 1289   pBuf += 2;
// 1290 
// 1291   /* Start Index */
// 1292   startIndex = *pBuf;
// 1293 
// 1294   retValue = (byte)ZDP_MgmtRtgReq( &destAddr, startIndex, 0);
// 1295 
// 1296   MT_BuildAndSendZToolResponse(((uint8)MT_RPC_CMD_SRSP | (uint8)MT_RPC_SYS_ZDO), cmdId, 1, &retValue);
// 1297 }
// 1298 
// 1299 /***************************************************************************************************
// 1300  * @fn      MT_ZdoMgmtBindRequest
// 1301  *
// 1302  * @brief   Handle a Mgmt Bind request.
// 1303  *
// 1304  * @param   pBuf  - MT message data
// 1305  *
// 1306  * @return  void
// 1307  ***************************************************************************************************/
// 1308 void MT_ZdoMgmtBindRequest(uint8 *pBuf)
// 1309 {
// 1310   uint8 cmdId;
// 1311   uint8 retValue;
// 1312   zAddrType_t destAddr;
// 1313   uint8 startIndex;
// 1314 
// 1315   /* parse header */
// 1316   cmdId = pBuf[MT_RPC_POS_CMD1];
// 1317   pBuf += MT_RPC_FRAME_HDR_SZ;
// 1318 
// 1319   /* Dev Address */
// 1320   destAddr.addrMode = Addr16Bit;
// 1321   destAddr.addr.shortAddr = BUILD_UINT16( pBuf[0], pBuf[1] );
// 1322   pBuf += 2;
// 1323 
// 1324   /* Start Index */
// 1325   startIndex = *pBuf;
// 1326 
// 1327   retValue = (uint8)ZDP_MgmtBindReq( &destAddr, startIndex, 0);
// 1328 
// 1329   MT_BuildAndSendZToolResponse(((uint8)MT_RPC_CMD_SRSP | (uint8)MT_RPC_SYS_ZDO), cmdId, 1, &retValue);
// 1330 }
// 1331 
// 1332 /***************************************************************************************************
// 1333  * @fn      MT_ZdoMgmtLeaveRequest
// 1334  *
// 1335  * @brief   Handle a Mgmt Leave request.
// 1336  *
// 1337  * @param   pBuf  - MT message data
// 1338  *
// 1339  * @return  void
// 1340  ***************************************************************************************************/
// 1341 void MT_ZdoMgmtLeaveRequest(uint8 *pBuf)
// 1342 {
// 1343   uint8 cmdId;
// 1344   uint8 retValue;
// 1345   zAddrType_t destAddr;
// 1346   uint8 *pIEEEAddr;
// 1347   uint8 removeChildren, rejoin;
// 1348 
// 1349   /* parse header */
// 1350   cmdId = pBuf[MT_RPC_POS_CMD1];
// 1351   pBuf += MT_RPC_FRAME_HDR_SZ;
// 1352 
// 1353   /* Destination Address */
// 1354   destAddr.addrMode = Addr16Bit;
// 1355   destAddr.addr.shortAddr = BUILD_UINT16( pBuf[0], pBuf[1] );
// 1356   pBuf += 2;
// 1357 
// 1358   /* IEEE address */
// 1359   pIEEEAddr = pBuf;
// 1360   pBuf += Z_EXTADDR_LEN;
// 1361 
// 1362   /* Remove Children */
// 1363   removeChildren = *pBuf++;
// 1364 
// 1365   /* Rejoin */
// 1366   rejoin = *pBuf;
// 1367 
// 1368   retValue = (byte)ZDP_MgmtLeaveReq( &destAddr, pIEEEAddr, removeChildren, rejoin, 0);
// 1369 
// 1370   MT_BuildAndSendZToolResponse(((uint8)MT_RPC_CMD_SRSP | (uint8)MT_RPC_SYS_ZDO), cmdId, 1, &retValue);
// 1371 }
// 1372 
// 1373 
// 1374 /***************************************************************************************************
// 1375  * @fn      MT_ZdoMgmtDirectJoinRequest
// 1376  *
// 1377  * @brief   Handle a Mgmt Direct Join request.
// 1378  *
// 1379  * @param   pBuf  - MT message data
// 1380  *
// 1381  * @return  void
// 1382  ***************************************************************************************************/
// 1383 void MT_ZdoMgmtDirectJoinRequest(uint8 *pBuf)
// 1384 {
// 1385   uint8 cmdId;
// 1386   uint8 retValue;
// 1387   zAddrType_t destAddr;
// 1388   uint8 *deviceAddr;
// 1389   uint8 capInfo;
// 1390 
// 1391   /* parse header */
// 1392   cmdId = pBuf[MT_RPC_POS_CMD1];
// 1393   pBuf += MT_RPC_FRAME_HDR_SZ;
// 1394 
// 1395   /* Destination Address */
// 1396   destAddr.addrMode = Addr16Bit;
// 1397   destAddr.addr.shortAddr = BUILD_UINT16( pBuf[0], pBuf[1] );
// 1398   pBuf += 2;
// 1399 
// 1400   /* Device Address */
// 1401   deviceAddr = pBuf;
// 1402   pBuf += Z_EXTADDR_LEN;
// 1403 
// 1404   /* Capability information */
// 1405   capInfo = *pBuf;
// 1406 
// 1407   retValue = (uint8)ZDP_MgmtDirectJoinReq( &destAddr, deviceAddr, capInfo, 0);
// 1408 
// 1409   MT_BuildAndSendZToolResponse(((uint8)MT_RPC_CMD_SRSP | (uint8)MT_RPC_SYS_ZDO), cmdId, 1, &retValue);
// 1410 }
// 1411 
// 1412 /***************************************************************************************************
// 1413  * @fn      MT_ZdoMgmtPermitJoinRequest
// 1414  *
// 1415  * @brief   Handle a Mgmt Permit Join request.
// 1416  *
// 1417  * @param   pBuf  - MT message data
// 1418  *
// 1419  * @return  void
// 1420  ***************************************************************************************************/
// 1421 void MT_ZdoMgmtPermitJoinRequest(uint8 *pBuf)
// 1422 {
// 1423   uint8 cmdId;
// 1424   uint8 retValue;
// 1425   zAddrType_t destAddr;
// 1426   uint8 duration, tcSignificance;
// 1427 
// 1428   /* parse header */
// 1429   cmdId = pBuf[MT_RPC_POS_CMD1];
// 1430   pBuf += MT_RPC_FRAME_HDR_SZ;
// 1431 
// 1432   /* Destination Address */
// 1433   destAddr.addrMode = Addr16Bit;
// 1434   destAddr.addr.shortAddr = BUILD_UINT16( pBuf[0], pBuf[1] );
// 1435   pBuf += 2;
// 1436 
// 1437   /* Duration */
// 1438   duration = *pBuf++;
// 1439 
// 1440   /* Trust center significance */
// 1441   tcSignificance = *pBuf;
// 1442 
// 1443   retValue = (byte)ZDP_MgmtPermitJoinReq( &destAddr, duration, tcSignificance, 0);
// 1444 
// 1445   MT_BuildAndSendZToolResponse(((uint8)MT_RPC_CMD_SRSP | (uint8)MT_RPC_SYS_ZDO), cmdId, 1, &retValue);
// 1446 }
// 1447 
// 1448 /***************************************************************************************************
// 1449  * @fn      MT_ZdoMgmtNwkUpdateRequest
// 1450  *
// 1451  * @brief   Handle a Mgmt Nwk Update request.
// 1452  *
// 1453  * @param   pBuf  - MT message data
// 1454  *
// 1455  * @return  void
// 1456  ***************************************************************************************************/
// 1457 void MT_ZdoMgmtNwkUpdateRequest(uint8 *pBuf)
// 1458 {
// 1459   uint8 cmdId;
// 1460   uint8 retValue;
// 1461   zAddrType_t destAddr;
// 1462   uint32 channelMask;
// 1463   uint8 scanDuration, scanCount;
// 1464   uint16 nwkManagerAddr;
// 1465 
// 1466     /* parse header */
// 1467   cmdId = pBuf[MT_RPC_POS_CMD1];
// 1468   pBuf += MT_RPC_FRAME_HDR_SZ;
// 1469 
// 1470   /* Destination address */
// 1471   destAddr.addr.shortAddr = BUILD_UINT16( pBuf[0], pBuf[1] );
// 1472   pBuf += 2;
// 1473 
// 1474   /* Destination address mode */
// 1475   destAddr.addrMode = *pBuf++;
// 1476 
// 1477   channelMask = BUILD_UINT32( pBuf[0], pBuf[1], pBuf[2], pBuf[3]);
// 1478   pBuf += 4;
// 1479 
// 1480   /* Scan duration */
// 1481   scanDuration = *pBuf++;
// 1482 
// 1483   /* Scan count */
// 1484   scanCount = *pBuf++;
// 1485 
// 1486   /* NWK manager address */
// 1487   nwkManagerAddr = BUILD_UINT16( pBuf[0], pBuf[1] );
// 1488 
// 1489   /* Send the Management Network Update request */
// 1490   retValue = (uint8)ZDP_MgmtNwkUpdateReq( &destAddr, channelMask, scanDuration,
// 1491                                           scanCount, _NIB.nwkUpdateId+1, nwkManagerAddr );
// 1492 
// 1493   /*
// 1494     Since we don't recevied our own broadcast messages, we should
// 1495     send a unicast copy of the message to ourself.
// 1496   */
// 1497   if ( destAddr.addrMode == AddrBroadcast )
// 1498   {
// 1499     destAddr.addrMode = Addr16Bit;
// 1500     destAddr.addr.shortAddr = _NIB.nwkDevAddress;
// 1501     retValue = (uint8) ZDP_MgmtNwkUpdateReq( &destAddr, channelMask, scanDuration,
// 1502                                              scanCount, _NIB.nwkUpdateId+1, nwkManagerAddr );
// 1503   }
// 1504 
// 1505   MT_BuildAndSendZToolResponse(((uint8)MT_RPC_CMD_SRSP | (uint8)MT_RPC_SYS_ZDO), cmdId, 1, &retValue);
// 1506 }
// 1507 #endif /* MT_ZDO_MGMT */
// 1508 
// 1509 /***************************************************************************************************
// 1510  * @fn      MT_ZdoStartupFromApp
// 1511  *
// 1512  * @brief   Handle a Startup from App request.
// 1513  *
// 1514  * @param   pBuf  - MT message data
// 1515  *
// 1516  * @return  void
// 1517  ***************************************************************************************************/

        RSEG BANKED_CODE:HUGECODE:NOROOT(0)
// 1518 void MT_ZdoStartupFromApp(uint8 *pBuf)
MT_ZdoStartupFromApp:
          CFI Block cfiBlock197 Using cfiCommon0
          CFI Function MT_ZdoStartupFromApp
        CODE
// 1519 {
        FUNCALL MT_ZdoStartupFromApp, ZDOInitDevice
        LOCFRAME ISTACK, 0, STACK
        LOCFRAME PSTACK, 0, STACK
        LOCFRAME XSTACK, 10, STACK
        LOCFRAME IOVERLAY, 0, STATIC
        LOCFRAME DOVERLAY, 0, STATIC
        ARGFRAME ISTACK, 0, STACK
        ARGFRAME PSTACK, 0, STACK
        ARGFRAME XSTACK, 10, STACK
        ARGFRAME IOVERLAY, 0, STATIC
        ARGFRAME DOVERLAY, 0, STATIC
        FUNCALL MT_ZdoStartupFromApp, MT_BuildAndSendZToolResponse
        LOCFRAME ISTACK, 0, STACK
        LOCFRAME PSTACK, 0, STACK
        LOCFRAME XSTACK, 10, STACK
        LOCFRAME IOVERLAY, 0, STATIC
        LOCFRAME DOVERLAY, 0, STATIC
        ARGFRAME ISTACK, 0, STACK
        ARGFRAME PSTACK, 0, STACK
        ARGFRAME XSTACK, 10, STACK
        ARGFRAME IOVERLAY, 0, STATIC
        ARGFRAME DOVERLAY, 0, STATIC
        MOV       A,#-0x9
        LCALL     ?BANKED_ENTER_XDATA
          CFI DPH0 load(1, XDATA, add(CFA_XSP16, literal(-1)))
          CFI DPL0 load(1, XDATA, add(CFA_XSP16, literal(-2)))
          CFI ?BRET_EXT load(1, XDATA, add(CFA_XSP16, literal(-3)))
          CFI ?RET_HIGH load(1, XDATA, add(CFA_XSP16, literal(-4)))
          CFI ?RET_LOW load(1, XDATA, add(CFA_XSP16, literal(-5)))
          CFI R7 load(1, XDATA, add(CFA_XSP16, literal(-6)))
          CFI V0 load(1, XDATA, add(CFA_XSP16, literal(-7)))
          CFI VB load(1, XDATA, add(CFA_XSP16, literal(-8)))
          CFI R6 load(1, XDATA, add(CFA_XSP16, literal(-9)))
          CFI CFA_SP SP+0
          CFI CFA_XSP16 add(XSP16, 9)
        ; Saved register size: 9
        ; Auto size: 1
        MOV       A,#-0x1
        LCALL     ?ALLOC_XSTACK8
          CFI CFA_XSP16 add(XSP16, 10)
// 1520   uint8 cmd0, cmd1, retValue;
// 1521 
// 1522   /* parse header */
// 1523   cmd0 = pBuf[MT_RPC_POS_CMD0];
        MOV       DPL,R2
        MOV       DPH,R3
        INC       DPTR
        MOVX      A,@DPTR
        MOV       R7,A
// 1524   cmd1 = pBuf[MT_RPC_POS_CMD1];
        MOV       DPL,R2
        MOV       DPH,R3
        INC       DPTR
        INC       DPTR
        MOVX      A,@DPTR
        MOV       R6,A
// 1525   pBuf += MT_RPC_FRAME_HDR_SZ;
// 1526 
// 1527   retValue = ZDOInitDevice(100);
        ; Setup parameters for call to function ZDOInitDevice
        MOV       R2,#0x64
        MOV       R3,#0x0
        LCALL     `??ZDOInitDevice::?relay`; Banked call to: ZDOInitDevice
        LCALL     ?Subroutine38 & 0xFFFF
// 1528 
// 1529   if (MT_RPC_CMD_SREQ == (cmd0 & MT_RPC_CMD_TYPE_MASK))
??CrossCallReturnLabel_74:
        JNZ       ??MT_ZdoStartupFromApp_0
// 1530   {
// 1531     MT_BuildAndSendZToolResponse(((uint8)MT_RPC_CMD_SRSP|(uint8)MT_RPC_SYS_ZDO), cmd1,1, &retValue);
        ; Setup parameters for call to function MT_BuildAndSendZToolResponse
        MOV       R4,?XSP + 0
        MOV       R5,?XSP + 1
        MOV       R3,#0x1
        MOV       A,R6
        MOV       R2,A
        MOV       R1,#0x65
        LCALL     `??MT_BuildAndSendZToolResponse::?relay`; Banked call to: MT_BuildAndSendZToolResponse
// 1532   }
// 1533 }
??MT_ZdoStartupFromApp_0:
        SJMP      ??Subroutine70_0
          CFI EndBlock cfiBlock197

        RSEG BANKED_CODE:HUGECODE:NOROOT(0)
?Subroutine5:
          CFI Block cfiBlock198 Using cfiCommon0
          CFI NoFunction
          CFI CFA_SP SP+0
          CFI CFA_XSP16 add(XSP16, 10)
          CFI VB load(1, XDATA, add(CFA_XSP16, literal(-8)))
          CFI DPL0 load(1, XDATA, add(CFA_XSP16, literal(-2)))
          CFI DPH0 load(1, XDATA, add(CFA_XSP16, literal(-1)))
          CFI R6 load(1, XDATA, add(CFA_XSP16, literal(-9)))
          CFI R7 load(1, XDATA, add(CFA_XSP16, literal(-6)))
          CFI V0 load(1, XDATA, add(CFA_XSP16, literal(-7)))
          CFI ?BRET_EXT load(1, XDATA, add(CFA_XSP16, literal(-3)))
          CFI ?RET_HIGH load(1, XDATA, add(CFA_XSP16, literal(-4)))
          CFI ?RET_LOW load(1, XDATA, add(CFA_XSP16, literal(-5)))
        LCALL     ?Subroutine32 & 0xFFFF
??CrossCallReturnLabel_130:
          CFI EndBlock cfiBlock198
        REQUIRE ??Subroutine70_0
        ; // Fall through to label ??Subroutine70_0

        RSEG BANKED_CODE:HUGECODE:NOROOT(0)
??Subroutine70_0:
          CFI Block cfiBlock199 Using cfiCommon0
          CFI NoFunction
          CFI CFA_SP SP+0
          CFI CFA_XSP16 add(XSP16, 10)
          CFI VB load(1, XDATA, add(CFA_XSP16, literal(-8)))
          CFI DPL0 load(1, XDATA, add(CFA_XSP16, literal(-2)))
          CFI DPH0 load(1, XDATA, add(CFA_XSP16, literal(-1)))
          CFI R6 load(1, XDATA, add(CFA_XSP16, literal(-9)))
          CFI R7 load(1, XDATA, add(CFA_XSP16, literal(-6)))
          CFI V0 load(1, XDATA, add(CFA_XSP16, literal(-7)))
          CFI ?BRET_EXT load(1, XDATA, add(CFA_XSP16, literal(-3)))
          CFI ?RET_HIGH load(1, XDATA, add(CFA_XSP16, literal(-4)))
          CFI ?RET_LOW load(1, XDATA, add(CFA_XSP16, literal(-5)))
        MOV       A,#0x1
        LJMP      ??Subroutine66_0 & 0xFFFF
          CFI EndBlock cfiBlock199
// 1534 
// 1535 
// 1536 /***************************************************************************************************
// 1537  * @fn      MT_ZdoNetworkDiscoveryReq
// 1538  *
// 1539  * @brief   Handle a ZDO Network Discovery request.
// 1540  *
// 1541  * @param   pBuf  - MT message data
// 1542  *
// 1543  * @return  void
// 1544  ***************************************************************************************************/

        RSEG BANKED_CODE:HUGECODE:NOROOT(0)
// 1545 void MT_ZdoNetworkDiscoveryReq(uint8 *pBuf)
MT_ZdoNetworkDiscoveryReq:
          CFI Block cfiBlock200 Using cfiCommon0
          CFI Function MT_ZdoNetworkDiscoveryReq
        CODE
// 1546 {
        FUNCALL MT_ZdoNetworkDiscoveryReq, osal_build_uint32
        LOCFRAME ISTACK, 0, STACK
        LOCFRAME PSTACK, 0, STACK
        LOCFRAME XSTACK, 14, STACK
        LOCFRAME IOVERLAY, 0, STATIC
        LOCFRAME DOVERLAY, 0, STATIC
        ARGFRAME ISTACK, 0, STACK
        ARGFRAME PSTACK, 0, STACK
        ARGFRAME XSTACK, 14, STACK
        ARGFRAME IOVERLAY, 0, STATIC
        ARGFRAME DOVERLAY, 0, STATIC
        FUNCALL MT_ZdoNetworkDiscoveryReq, ZDApp_NetworkDiscoveryReq
        LOCFRAME ISTACK, 0, STACK
        LOCFRAME PSTACK, 0, STACK
        LOCFRAME XSTACK, 14, STACK
        LOCFRAME IOVERLAY, 0, STATIC
        LOCFRAME DOVERLAY, 0, STATIC
        ARGFRAME ISTACK, 0, STACK
        ARGFRAME PSTACK, 0, STACK
        ARGFRAME XSTACK, 14, STACK
        ARGFRAME IOVERLAY, 0, STATIC
        ARGFRAME DOVERLAY, 0, STATIC
        FUNCALL MT_ZdoNetworkDiscoveryReq, ZDO_RegisterForZdoCB
        LOCFRAME ISTACK, 0, STACK
        LOCFRAME PSTACK, 0, STACK
        LOCFRAME XSTACK, 14, STACK
        LOCFRAME IOVERLAY, 0, STATIC
        LOCFRAME DOVERLAY, 0, STATIC
        ARGFRAME ISTACK, 0, STACK
        ARGFRAME PSTACK, 0, STACK
        ARGFRAME XSTACK, 14, STACK
        ARGFRAME IOVERLAY, 0, STATIC
        ARGFRAME DOVERLAY, 0, STATIC
        FUNCALL MT_ZdoNetworkDiscoveryReq, ZDO_RegisterForZdoCB
        LOCFRAME ISTACK, 0, STACK
        LOCFRAME PSTACK, 0, STACK
        LOCFRAME XSTACK, 14, STACK
        LOCFRAME IOVERLAY, 0, STATIC
        LOCFRAME DOVERLAY, 0, STATIC
        ARGFRAME ISTACK, 0, STACK
        ARGFRAME PSTACK, 0, STACK
        ARGFRAME XSTACK, 14, STACK
        ARGFRAME IOVERLAY, 0, STATIC
        ARGFRAME DOVERLAY, 0, STATIC
        FUNCALL MT_ZdoNetworkDiscoveryReq, MT_BuildAndSendZToolResponse
        LOCFRAME ISTACK, 0, STACK
        LOCFRAME PSTACK, 0, STACK
        LOCFRAME XSTACK, 14, STACK
        LOCFRAME IOVERLAY, 0, STATIC
        LOCFRAME DOVERLAY, 0, STATIC
        ARGFRAME ISTACK, 0, STACK
        ARGFRAME PSTACK, 0, STACK
        ARGFRAME XSTACK, 14, STACK
        ARGFRAME IOVERLAY, 0, STATIC
        ARGFRAME DOVERLAY, 0, STATIC
        REQUIRE ?V0
        REQUIRE ?V1
        REQUIRE ?V2
        REQUIRE ?V3
        REQUIRE ?V4
        MOV       A,#-0xd
        LCALL     ?BANKED_ENTER_XDATA
          CFI DPH0 load(1, XDATA, add(CFA_XSP16, literal(-1)))
          CFI DPL0 load(1, XDATA, add(CFA_XSP16, literal(-2)))
          CFI ?BRET_EXT load(1, XDATA, add(CFA_XSP16, literal(-3)))
          CFI ?RET_HIGH load(1, XDATA, add(CFA_XSP16, literal(-4)))
          CFI ?RET_LOW load(1, XDATA, add(CFA_XSP16, literal(-5)))
          CFI R7 load(1, XDATA, add(CFA_XSP16, literal(-6)))
          CFI V4 load(1, XDATA, add(CFA_XSP16, literal(-7)))
          CFI V3 load(1, XDATA, add(CFA_XSP16, literal(-8)))
          CFI V2 load(1, XDATA, add(CFA_XSP16, literal(-9)))
          CFI V1 load(1, XDATA, add(CFA_XSP16, literal(-10)))
          CFI V0 load(1, XDATA, add(CFA_XSP16, literal(-11)))
          CFI VB load(1, XDATA, add(CFA_XSP16, literal(-12)))
          CFI R6 load(1, XDATA, add(CFA_XSP16, literal(-13)))
          CFI CFA_SP SP+0
          CFI CFA_XSP16 add(XSP16, 13)
        ; Saved register size: 13
        ; Auto size: 1
        MOV       A,#-0x1
        LCALL     ?ALLOC_XSTACK8
          CFI CFA_XSP16 add(XSP16, 14)
        LCALL     ?Subroutine35 & 0xFFFF
// 1547   uint8  retValue = ZFailure;
// 1548   uint8  cmdId;
// 1549   uint32 scanChannels;
// 1550 
// 1551   /* parse header */
// 1552   cmdId = pBuf[MT_RPC_POS_CMD1];
??CrossCallReturnLabel_137:
        MOV       ?V4,A
// 1553   pBuf += MT_RPC_FRAME_HDR_SZ;
        MOV       A,R2
        ADD       A,#0x3
        MOV       R6,A
        JNC       ??MT_ZdoNetworkDiscoveryReq_0
        INC       R7
// 1554 
// 1555   /* Packet format */
// 1556   /* scan channels (4) | scan duration (1) */
// 1557 
// 1558   /* Scan channels */
// 1559   scanChannels = osal_build_uint32(pBuf, 4);
??MT_ZdoNetworkDiscoveryReq_0:
        ; Setup parameters for call to function osal_build_uint32
        MOV       R1,#0x4
        MOV       R2,A
        MOV       A,R7
        MOV       R3,A
        LCALL     `??osal_build_uint32::?relay`; Banked call to: osal_build_uint32
// 1560   pBuf += 4;
// 1561 
// 1562   retValue = ZDApp_NetworkDiscoveryReq(scanChannels, *pBuf);
        ; Setup parameters for call to function ZDApp_NetworkDiscoveryReq
        MOV       DPL,R6
        MOV       DPH,R7
        INC       DPTR
        INC       DPTR
        INC       DPTR
        INC       DPTR
        MOVX      A,@DPTR
        MOV       R1,A
        LCALL     `??ZDApp_NetworkDiscoveryReq::?relay`; Banked call to: ZDApp_NetworkDiscoveryReq
        MOV       A,R1
        MOV       DPL,?XSP + 0
        MOV       DPH,?XSP + 1
        MOVX      @DPTR,A
// 1563 
// 1564   // Register ZDO callback for MT to handle the network discovery confirm
// 1565   // and beacon notification confirm
// 1566   ZDO_RegisterForZdoCB( ZDO_NWK_DISCOVERY_CNF_CBID, &MT_ZdoNwkDiscoveryCnfCB );
        ; Setup parameters for call to function ZDO_RegisterForZdoCB
        MOV       R2,#`??MT_ZdoNwkDiscoveryCnfCB::?relay` & 0xff
        MOV       R3,#(`??MT_ZdoNwkDiscoveryCnfCB::?relay` >> 8) & 0xff
        MOV       R1,#0x2
        LCALL     `??ZDO_RegisterForZdoCB::?relay`; Banked call to: ZDO_RegisterForZdoCB
// 1567   ZDO_RegisterForZdoCB( ZDO_BEACON_NOTIFY_IND_CBID, &MT_ZdoBeaconIndCB );
        ; Setup parameters for call to function ZDO_RegisterForZdoCB
        MOV       R2,#`??MT_ZdoBeaconIndCB::?relay` & 0xff
        MOV       R3,#(`??MT_ZdoBeaconIndCB::?relay` >> 8) & 0xff
        MOV       R1,#0x3
        LCALL     ?Subroutine40 & 0xFFFF
// 1568 
// 1569   /* Build and send back the response */
// 1570   MT_BuildAndSendZToolResponse(((uint8)MT_RPC_CMD_SRSP | (uint8)MT_RPC_SYS_ZDO), cmdId, 1, &retValue );
??CrossCallReturnLabel_79:
        MOV       R2,?V4
        MOV       R1,#0x65
        LCALL     `??MT_BuildAndSendZToolResponse::?relay`; Banked call to: MT_BuildAndSendZToolResponse
// 1571 }
        MOV       A,#0x1
        LCALL     ?DEALLOC_XSTACK8
          CFI CFA_XSP16 add(XSP16, 13)
        MOV       R7,#0x5
        LJMP      ?BANKED_LEAVE_XDATA
          CFI EndBlock cfiBlock200

        RSEG BANKED_CODE:HUGECODE:NOROOT(0)
?Subroutine35:
          CFI Block cfiCond201 Using cfiCommon0
          CFI Function MT_ZdoNetworkDiscoveryReq
          CFI Conditional ??CrossCallReturnLabel_137
          CFI R6 load(1, XDATA, add(CFA_XSP16, literal(-13)))
          CFI VB load(1, XDATA, add(CFA_XSP16, literal(-12)))
          CFI V0 load(1, XDATA, add(CFA_XSP16, literal(-11)))
          CFI V1 load(1, XDATA, add(CFA_XSP16, literal(-10)))
          CFI V2 load(1, XDATA, add(CFA_XSP16, literal(-9)))
          CFI V3 load(1, XDATA, add(CFA_XSP16, literal(-8)))
          CFI V4 load(1, XDATA, add(CFA_XSP16, literal(-7)))
          CFI R7 load(1, XDATA, add(CFA_XSP16, literal(-6)))
          CFI ?RET_LOW load(1, XDATA, add(CFA_XSP16, literal(-5)))
          CFI ?RET_HIGH load(1, XDATA, add(CFA_XSP16, literal(-4)))
          CFI ?BRET_EXT load(1, XDATA, add(CFA_XSP16, literal(-3)))
          CFI DPL0 load(1, XDATA, add(CFA_XSP16, literal(-2)))
          CFI DPH0 load(1, XDATA, add(CFA_XSP16, literal(-1)))
          CFI CFA_SP SP+-2
          CFI CFA_XSP16 add(XSP16, 14)
          CFI Block cfiCond202 Using cfiCommon0
          CFI (cfiCond202) Function MT_ZdoJoinReq
          CFI (cfiCond202) Conditional ??CrossCallReturnLabel_138
          CFI (cfiCond202) R6 load(1, XDATA, add(CFA_XSP16, literal(-12)))
          CFI (cfiCond202) VB load(1, XDATA, add(CFA_XSP16, literal(-11)))
          CFI (cfiCond202) V0 load(1, XDATA, add(CFA_XSP16, literal(-10)))
          CFI (cfiCond202) V1 load(1, XDATA, add(CFA_XSP16, literal(-9)))
          CFI (cfiCond202) V2 load(1, XDATA, add(CFA_XSP16, literal(-8)))
          CFI (cfiCond202) V3 load(1, XDATA, add(CFA_XSP16, literal(-7)))
          CFI (cfiCond202) R7 load(1, XDATA, add(CFA_XSP16, literal(-6)))
          CFI (cfiCond202) ?RET_LOW load(1, XDATA, add(CFA_XSP16, literal(-5)))
          CFI (cfiCond202) ?RET_HIGH load(1, XDATA, add(CFA_XSP16, literal(-4)))
          CFI (cfiCond202) ?BRET_EXT load(1, XDATA, add(CFA_XSP16, literal(-3)))
          CFI (cfiCond202) DPL0 load(1, XDATA, add(CFA_XSP16, literal(-2)))
          CFI (cfiCond202) DPH0 load(1, XDATA, add(CFA_XSP16, literal(-1)))
          CFI (cfiCond202) CFA_SP SP+-2
          CFI (cfiCond202) CFA_XSP16 add(XSP16, 13)
          CFI Block cfiPicker203 Using cfiCommon1
          CFI (cfiPicker203) NoFunction
          CFI (cfiPicker203) Picker
        MOV       A,R3
        MOV       R7,A
        MOV       DPL,?XSP + 0
        MOV       DPH,?XSP + 1
        MOV       A,#0x1
          CFI EndBlock cfiCond201
          CFI EndBlock cfiCond202
          CFI EndBlock cfiPicker203
        REQUIRE ??Subroutine71_0
        ; // Fall through to label ??Subroutine71_0

        RSEG BANKED_CODE:HUGECODE:NOROOT(0)
??Subroutine71_0:
          CFI Block cfiCond204 Using cfiCommon0
          CFI Function MT_ZdoEndDevBindRequest
          CFI Conditional ??CrossCallReturnLabel_139
          CFI R6 load(1, XDATA, add(CFA_XSP16, literal(-15)))
          CFI VB load(1, XDATA, add(CFA_XSP16, literal(-14)))
          CFI V0 load(1, XDATA, add(CFA_XSP16, literal(-13)))
          CFI V1 load(1, XDATA, add(CFA_XSP16, literal(-12)))
          CFI V2 load(1, XDATA, add(CFA_XSP16, literal(-11)))
          CFI V3 load(1, XDATA, add(CFA_XSP16, literal(-10)))
          CFI V4 load(1, XDATA, add(CFA_XSP16, literal(-9)))
          CFI V5 load(1, XDATA, add(CFA_XSP16, literal(-8)))
          CFI V6 load(1, XDATA, add(CFA_XSP16, literal(-7)))
          CFI R7 load(1, XDATA, add(CFA_XSP16, literal(-6)))
          CFI ?RET_LOW load(1, XDATA, add(CFA_XSP16, literal(-5)))
          CFI ?RET_HIGH load(1, XDATA, add(CFA_XSP16, literal(-4)))
          CFI ?BRET_EXT load(1, XDATA, add(CFA_XSP16, literal(-3)))
          CFI DPL0 load(1, XDATA, add(CFA_XSP16, literal(-2)))
          CFI DPH0 load(1, XDATA, add(CFA_XSP16, literal(-1)))
          CFI CFA_SP SP+-2
          CFI CFA_XSP16 add(XSP16, 85)
          CFI Block cfiCond205 Using cfiCommon0
          CFI (cfiCond205) Function MT_ZdoNetworkDiscoveryReq
          CFI (cfiCond205) Conditional ??CrossCallReturnLabel_137
          CFI (cfiCond205) R6 load(1, XDATA, add(CFA_XSP16, literal(-13)))
          CFI (cfiCond205) VB load(1, XDATA, add(CFA_XSP16, literal(-12)))
          CFI (cfiCond205) V0 load(1, XDATA, add(CFA_XSP16, literal(-11)))
          CFI (cfiCond205) V1 load(1, XDATA, add(CFA_XSP16, literal(-10)))
          CFI (cfiCond205) V2 load(1, XDATA, add(CFA_XSP16, literal(-9)))
          CFI (cfiCond205) V3 load(1, XDATA, add(CFA_XSP16, literal(-8)))
          CFI (cfiCond205) V4 load(1, XDATA, add(CFA_XSP16, literal(-7)))
          CFI (cfiCond205) R7 load(1, XDATA, add(CFA_XSP16, literal(-6)))
          CFI (cfiCond205) ?RET_LOW load(1, XDATA, add(CFA_XSP16, literal(-5)))
          CFI (cfiCond205) ?RET_HIGH load(1, XDATA, add(CFA_XSP16, literal(-4)))
          CFI (cfiCond205) ?BRET_EXT load(1, XDATA, add(CFA_XSP16, literal(-3)))
          CFI (cfiCond205) DPL0 load(1, XDATA, add(CFA_XSP16, literal(-2)))
          CFI (cfiCond205) DPH0 load(1, XDATA, add(CFA_XSP16, literal(-1)))
          CFI (cfiCond205) CFA_SP SP+-2
          CFI (cfiCond205) CFA_XSP16 add(XSP16, 14)
          CFI Block cfiCond206 Using cfiCommon0
          CFI (cfiCond206) Function MT_ZdoJoinReq
          CFI (cfiCond206) Conditional ??CrossCallReturnLabel_138
          CFI (cfiCond206) R6 load(1, XDATA, add(CFA_XSP16, literal(-12)))
          CFI (cfiCond206) VB load(1, XDATA, add(CFA_XSP16, literal(-11)))
          CFI (cfiCond206) V0 load(1, XDATA, add(CFA_XSP16, literal(-10)))
          CFI (cfiCond206) V1 load(1, XDATA, add(CFA_XSP16, literal(-9)))
          CFI (cfiCond206) V2 load(1, XDATA, add(CFA_XSP16, literal(-8)))
          CFI (cfiCond206) V3 load(1, XDATA, add(CFA_XSP16, literal(-7)))
          CFI (cfiCond206) R7 load(1, XDATA, add(CFA_XSP16, literal(-6)))
          CFI (cfiCond206) ?RET_LOW load(1, XDATA, add(CFA_XSP16, literal(-5)))
          CFI (cfiCond206) ?RET_HIGH load(1, XDATA, add(CFA_XSP16, literal(-4)))
          CFI (cfiCond206) ?BRET_EXT load(1, XDATA, add(CFA_XSP16, literal(-3)))
          CFI (cfiCond206) DPL0 load(1, XDATA, add(CFA_XSP16, literal(-2)))
          CFI (cfiCond206) DPH0 load(1, XDATA, add(CFA_XSP16, literal(-1)))
          CFI (cfiCond206) CFA_SP SP+-2
          CFI (cfiCond206) CFA_XSP16 add(XSP16, 13)
          CFI Block cfiPicker207 Using cfiCommon1
          CFI (cfiPicker207) NoFunction
          CFI (cfiPicker207) Picker
        MOVX      @DPTR,A
        MOV       DPL,R2
        MOV       DPH,R3
        INC       DPTR
        INC       DPTR
        MOVX      A,@DPTR
        RET
          CFI EndBlock cfiCond204
          CFI EndBlock cfiCond205
          CFI EndBlock cfiCond206
          CFI EndBlock cfiPicker207
// 1572 
// 1573 
// 1574 /***************************************************************************************************
// 1575  * @fn      MT_ZdoJoinReq
// 1576  *
// 1577  * @brief   Handle a ZDO Join request.
// 1578  *
// 1579  * @param   pBuf  - MT message data
// 1580  *
// 1581  * @return  void
// 1582  ***************************************************************************************************/

        RSEG BANKED_CODE:HUGECODE:NOROOT(0)
// 1583 void MT_ZdoJoinReq(uint8 *pBuf)
MT_ZdoJoinReq:
          CFI Block cfiBlock208 Using cfiCommon0
          CFI Function MT_ZdoJoinReq
        CODE
// 1584 {
        FUNCALL MT_ZdoJoinReq, ZDApp_JoinReq
        LOCFRAME ISTACK, 0, STACK
        LOCFRAME PSTACK, 0, STACK
        LOCFRAME XSTACK, 17, STACK
        LOCFRAME IOVERLAY, 0, STATIC
        LOCFRAME DOVERLAY, 0, STATIC
        ARGFRAME ISTACK, 0, STACK
        ARGFRAME PSTACK, 0, STACK
        ARGFRAME XSTACK, 17, STACK
        ARGFRAME IOVERLAY, 0, STATIC
        ARGFRAME DOVERLAY, 0, STATIC
        FUNCALL MT_ZdoJoinReq, ZDO_RegisterForZdoCB
        LOCFRAME ISTACK, 0, STACK
        LOCFRAME PSTACK, 0, STACK
        LOCFRAME XSTACK, 13, STACK
        LOCFRAME IOVERLAY, 0, STATIC
        LOCFRAME DOVERLAY, 0, STATIC
        ARGFRAME ISTACK, 0, STACK
        ARGFRAME PSTACK, 0, STACK
        ARGFRAME XSTACK, 13, STACK
        ARGFRAME IOVERLAY, 0, STATIC
        ARGFRAME DOVERLAY, 0, STATIC
        FUNCALL MT_ZdoJoinReq, MT_BuildAndSendZToolResponse
        LOCFRAME ISTACK, 0, STACK
        LOCFRAME PSTACK, 0, STACK
        LOCFRAME XSTACK, 13, STACK
        LOCFRAME IOVERLAY, 0, STATIC
        LOCFRAME DOVERLAY, 0, STATIC
        ARGFRAME ISTACK, 0, STACK
        ARGFRAME PSTACK, 0, STACK
        ARGFRAME XSTACK, 13, STACK
        ARGFRAME IOVERLAY, 0, STATIC
        ARGFRAME DOVERLAY, 0, STATIC
        REQUIRE ?V0
        REQUIRE ?V1
        REQUIRE ?V2
        REQUIRE ?V3
        MOV       A,#-0xc
        LCALL     ?BANKED_ENTER_XDATA
          CFI DPH0 load(1, XDATA, add(CFA_XSP16, literal(-1)))
          CFI DPL0 load(1, XDATA, add(CFA_XSP16, literal(-2)))
          CFI ?BRET_EXT load(1, XDATA, add(CFA_XSP16, literal(-3)))
          CFI ?RET_HIGH load(1, XDATA, add(CFA_XSP16, literal(-4)))
          CFI ?RET_LOW load(1, XDATA, add(CFA_XSP16, literal(-5)))
          CFI R7 load(1, XDATA, add(CFA_XSP16, literal(-6)))
          CFI V3 load(1, XDATA, add(CFA_XSP16, literal(-7)))
          CFI V2 load(1, XDATA, add(CFA_XSP16, literal(-8)))
          CFI V1 load(1, XDATA, add(CFA_XSP16, literal(-9)))
          CFI V0 load(1, XDATA, add(CFA_XSP16, literal(-10)))
          CFI VB load(1, XDATA, add(CFA_XSP16, literal(-11)))
          CFI R6 load(1, XDATA, add(CFA_XSP16, literal(-12)))
          CFI CFA_SP SP+0
          CFI CFA_XSP16 add(XSP16, 12)
        ; Saved register size: 12
        ; Auto size: 1
        MOV       A,#-0x1
        LCALL     ?ALLOC_XSTACK8
          CFI CFA_XSP16 add(XSP16, 13)
        LCALL     ?Subroutine35 & 0xFFFF
// 1585   uint8  retValue = ZFailure;
// 1586   uint8  cmdId;
// 1587   uint16 panId;
// 1588   uint16 chosenParent;
// 1589 
// 1590   /* parse header */
// 1591   cmdId = pBuf[MT_RPC_POS_CMD1];
??CrossCallReturnLabel_138:
        MOV       ?V0,A
// 1592   pBuf += MT_RPC_FRAME_HDR_SZ;
        MOV       A,R2
        ADD       A,#0x3
        MOV       R6,A
        JNC       ??MT_ZdoJoinReq_0
        INC       R7
// 1593 
// 1594   /* Packet format */
// 1595   /* channel     (1) | panID (2) | extendedPanID (8) | chosenParent (2) |
// 1596    * parentDepth (1) | stackProfile  (1)
// 1597    */
// 1598 
// 1599   panId        = BUILD_UINT16(pBuf[1], pBuf[2]);
// 1600   chosenParent = BUILD_UINT16(pBuf[11], pBuf[12]);
// 1601 
// 1602   retValue = ZDApp_JoinReq(pBuf[0], panId, &(pBuf[3]), chosenParent, pBuf[13], pBuf[14]);
??MT_ZdoJoinReq_0:
        ; Setup parameters for call to function ZDApp_JoinReq
        ADD       A,#0xe
        LCALL     ?Subroutine45 & 0xFFFF
??CrossCallReturnLabel_90:
        LCALL     ?PUSH_XSTACK_I_ONE
          CFI CFA_XSP16 add(XSP16, 14)
        MOV       A,R6
        ADD       A,#0xd
        LCALL     ?Subroutine45 & 0xFFFF
??CrossCallReturnLabel_91:
        LCALL     ?PUSH_XSTACK_I_ONE
          CFI CFA_XSP16 add(XSP16, 15)
        LCALL     ?Subroutine39 & 0xFFFF
??CrossCallReturnLabel_77:
        MOV       R2,A
        LCALL     ?Subroutine44 & 0xFFFF
??CrossCallReturnLabel_88:
        MOV       R0,A
        CLR       A
        XCH       A,R0
        MOV       R1,A
        MOV       A,R2
        ADD       A,R0
        MOV       ?V2,A
        CLR       A
        ADDC      A,R1
        MOV       ?V3,A
        MOV       R0,#?V2
        LCALL     ?PUSH_XSTACK_I_TWO
          CFI CFA_XSP16 add(XSP16, 17)
        MOV       A,R6
        ADD       A,#0x3
        MOV       R4,A
        CLR       A
        ADDC      A,R7
        MOV       R5,A
        MOV       DPL,R6
        MOV       DPH,R7
        INC       DPTR
        MOVX      A,@DPTR
        MOV       R2,A
        MOV       DPL,R6
        MOV       DPH,R7
        INC       DPTR
        LCALL     ??Subroutine68_0 & 0xFFFF
??CrossCallReturnLabel_131:
        CLR       A
        ADDC      A,R1
        MOV       R3,A
        MOV       DPL,R6
        MOV       DPH,R7
        MOVX      A,@DPTR
        MOV       R1,A
        LCALL     `??ZDApp_JoinReq::?relay`; Banked call to: ZDApp_JoinReq
        MOV       A,#0x4
        LCALL     ?DEALLOC_XSTACK8
          CFI CFA_XSP16 add(XSP16, 13)
        MOV       A,R1
        MOV       DPL,?XSP + 0
        MOV       DPH,?XSP + 1
        MOVX      @DPTR,A
// 1603 
// 1604   /* Register for MT to receive Join Confirm */
// 1605   ZDO_RegisterForZdoCB( ZDO_JOIN_CNF_CBID, &MT_ZdoJoinCnfCB );
        ; Setup parameters for call to function ZDO_RegisterForZdoCB
        MOV       R2,#`??MT_ZdoJoinCnfCB::?relay` & 0xff
        MOV       R3,#(`??MT_ZdoJoinCnfCB::?relay` >> 8) & 0xff
        MOV       R1,#0x4
        LCALL     ?Subroutine40 & 0xFFFF
// 1606 
// 1607   /* Build and send back the response */
// 1608   MT_BuildAndSendZToolResponse(((uint8)MT_RPC_CMD_SRSP | (uint8)MT_RPC_SYS_ZDO), cmdId, 1, &retValue );
??CrossCallReturnLabel_80:
        MOV       R2,?V0
        MOV       R1,#0x65
        LCALL     `??MT_BuildAndSendZToolResponse::?relay`; Banked call to: MT_BuildAndSendZToolResponse
// 1609 
// 1610 }
        MOV       A,#0x1
        LJMP      ?Subroutine3 & 0xFFFF
          CFI EndBlock cfiBlock208

        RSEG BANKED_CODE:HUGECODE:NOROOT(0)
?Subroutine45:
          CFI Block cfiCond209 Using cfiCommon0
          CFI Function MT_ZdoJoinReq
          CFI Conditional ??CrossCallReturnLabel_90
          CFI R6 load(1, XDATA, add(CFA_XSP16, literal(-12)))
          CFI VB load(1, XDATA, add(CFA_XSP16, literal(-11)))
          CFI V0 load(1, XDATA, add(CFA_XSP16, literal(-10)))
          CFI V1 load(1, XDATA, add(CFA_XSP16, literal(-9)))
          CFI V2 load(1, XDATA, add(CFA_XSP16, literal(-8)))
          CFI V3 load(1, XDATA, add(CFA_XSP16, literal(-7)))
          CFI R7 load(1, XDATA, add(CFA_XSP16, literal(-6)))
          CFI ?RET_LOW load(1, XDATA, add(CFA_XSP16, literal(-5)))
          CFI ?RET_HIGH load(1, XDATA, add(CFA_XSP16, literal(-4)))
          CFI ?BRET_EXT load(1, XDATA, add(CFA_XSP16, literal(-3)))
          CFI DPL0 load(1, XDATA, add(CFA_XSP16, literal(-2)))
          CFI DPH0 load(1, XDATA, add(CFA_XSP16, literal(-1)))
          CFI CFA_SP SP+-2
          CFI CFA_XSP16 add(XSP16, 13)
          CFI Block cfiCond210 Using cfiCommon0
          CFI (cfiCond210) Function MT_ZdoJoinReq
          CFI (cfiCond210) Conditional ??CrossCallReturnLabel_91
          CFI (cfiCond210) R6 load(1, XDATA, add(CFA_XSP16, literal(-12)))
          CFI (cfiCond210) VB load(1, XDATA, add(CFA_XSP16, literal(-11)))
          CFI (cfiCond210) V0 load(1, XDATA, add(CFA_XSP16, literal(-10)))
          CFI (cfiCond210) V1 load(1, XDATA, add(CFA_XSP16, literal(-9)))
          CFI (cfiCond210) V2 load(1, XDATA, add(CFA_XSP16, literal(-8)))
          CFI (cfiCond210) V3 load(1, XDATA, add(CFA_XSP16, literal(-7)))
          CFI (cfiCond210) R7 load(1, XDATA, add(CFA_XSP16, literal(-6)))
          CFI (cfiCond210) ?RET_LOW load(1, XDATA, add(CFA_XSP16, literal(-5)))
          CFI (cfiCond210) ?RET_HIGH load(1, XDATA, add(CFA_XSP16, literal(-4)))
          CFI (cfiCond210) ?BRET_EXT load(1, XDATA, add(CFA_XSP16, literal(-3)))
          CFI (cfiCond210) DPL0 load(1, XDATA, add(CFA_XSP16, literal(-2)))
          CFI (cfiCond210) DPH0 load(1, XDATA, add(CFA_XSP16, literal(-1)))
          CFI (cfiCond210) CFA_SP SP+-2
          CFI (cfiCond210) CFA_XSP16 add(XSP16, 14)
          CFI Block cfiPicker211 Using cfiCommon1
          CFI (cfiPicker211) NoFunction
          CFI (cfiPicker211) Picker
        MOV       DPL,A
        CLR       A
        ADDC      A,R7
        MOV       DPH,A
        MOVX      A,@DPTR
        MOV       ?V1,A
        MOV       R0,#?V1
        RET
          CFI EndBlock cfiCond209
          CFI EndBlock cfiCond210
          CFI EndBlock cfiPicker211

        RSEG BANKED_CODE:HUGECODE:NOROOT(0)
?Subroutine40:
          CFI Block cfiCond212 Using cfiCommon0
          CFI Function MT_ZdoNetworkDiscoveryReq
          CFI Conditional ??CrossCallReturnLabel_79
          CFI R6 load(1, XDATA, add(CFA_XSP16, literal(-13)))
          CFI VB load(1, XDATA, add(CFA_XSP16, literal(-12)))
          CFI V0 load(1, XDATA, add(CFA_XSP16, literal(-11)))
          CFI V1 load(1, XDATA, add(CFA_XSP16, literal(-10)))
          CFI V2 load(1, XDATA, add(CFA_XSP16, literal(-9)))
          CFI V3 load(1, XDATA, add(CFA_XSP16, literal(-8)))
          CFI V4 load(1, XDATA, add(CFA_XSP16, literal(-7)))
          CFI R7 load(1, XDATA, add(CFA_XSP16, literal(-6)))
          CFI ?RET_LOW load(1, XDATA, add(CFA_XSP16, literal(-5)))
          CFI ?RET_HIGH load(1, XDATA, add(CFA_XSP16, literal(-4)))
          CFI ?BRET_EXT load(1, XDATA, add(CFA_XSP16, literal(-3)))
          CFI DPL0 load(1, XDATA, add(CFA_XSP16, literal(-2)))
          CFI DPH0 load(1, XDATA, add(CFA_XSP16, literal(-1)))
          CFI CFA_SP SP+-2
          CFI CFA_XSP16 add(XSP16, 14)
          CFI Block cfiCond213 Using cfiCommon0
          CFI (cfiCond213) Function MT_ZdoJoinReq
          CFI (cfiCond213) Conditional ??CrossCallReturnLabel_80
          CFI (cfiCond213) R6 load(1, XDATA, add(CFA_XSP16, literal(-12)))
          CFI (cfiCond213) VB load(1, XDATA, add(CFA_XSP16, literal(-11)))
          CFI (cfiCond213) V0 load(1, XDATA, add(CFA_XSP16, literal(-10)))
          CFI (cfiCond213) V1 load(1, XDATA, add(CFA_XSP16, literal(-9)))
          CFI (cfiCond213) V2 load(1, XDATA, add(CFA_XSP16, literal(-8)))
          CFI (cfiCond213) V3 load(1, XDATA, add(CFA_XSP16, literal(-7)))
          CFI (cfiCond213) R7 load(1, XDATA, add(CFA_XSP16, literal(-6)))
          CFI (cfiCond213) ?RET_LOW load(1, XDATA, add(CFA_XSP16, literal(-5)))
          CFI (cfiCond213) ?RET_HIGH load(1, XDATA, add(CFA_XSP16, literal(-4)))
          CFI (cfiCond213) ?BRET_EXT load(1, XDATA, add(CFA_XSP16, literal(-3)))
          CFI (cfiCond213) DPL0 load(1, XDATA, add(CFA_XSP16, literal(-2)))
          CFI (cfiCond213) DPH0 load(1, XDATA, add(CFA_XSP16, literal(-1)))
          CFI (cfiCond213) CFA_SP SP+-2
          CFI (cfiCond213) CFA_XSP16 add(XSP16, 13)
          CFI Block cfiPicker214 Using cfiCommon1
          CFI (cfiPicker214) NoFunction
          CFI (cfiPicker214) Picker
        LCALL     `??ZDO_RegisterForZdoCB::?relay`; Banked call to: ZDO_RegisterForZdoCB
        ; Setup parameters for call to function MT_BuildAndSendZToolResponse
        ; Setup parameters for call to function MT_BuildAndSendZToolResponse
        MOV       R4,?XSP + 0
        MOV       R5,?XSP + 1
        MOV       R3,#0x1
        RET
          CFI EndBlock cfiCond212
          CFI EndBlock cfiCond213
          CFI EndBlock cfiPicker214
// 1611 
// 1612 /***************************************************************************************************
// 1613  * @fn          MT_ZdoNwkDiscoveryCnfCB
// 1614  *
// 1615  * @brief       Send an indication to inform host device the completion of
// 1616  *              network discovery scan
// 1617  *
// 1618  * @param       pStr - pointer to a parameter and a structure of parameters
// 1619  *
// 1620  * @return      void
// 1621  ***************************************************************************************************/

        RSEG BANKED_CODE:HUGECODE:NOROOT(0)
// 1622 void *MT_ZdoNwkDiscoveryCnfCB ( void *pStr )
MT_ZdoNwkDiscoveryCnfCB:
          CFI Block cfiBlock215 Using cfiCommon0
          CFI Function MT_ZdoNwkDiscoveryCnfCB
        CODE
// 1623 {
        FUNCALL MT_ZdoNwkDiscoveryCnfCB, ZDO_DeregisterForZdoCB
        LOCFRAME ISTACK, 0, STACK
        LOCFRAME PSTACK, 0, STACK
        LOCFRAME XSTACK, 9, STACK
        LOCFRAME IOVERLAY, 0, STATIC
        LOCFRAME DOVERLAY, 0, STATIC
        ARGFRAME ISTACK, 0, STACK
        ARGFRAME PSTACK, 0, STACK
        ARGFRAME XSTACK, 9, STACK
        ARGFRAME IOVERLAY, 0, STATIC
        ARGFRAME DOVERLAY, 0, STATIC
        FUNCALL MT_ZdoNwkDiscoveryCnfCB, ZDO_DeregisterForZdoCB
        LOCFRAME ISTACK, 0, STACK
        LOCFRAME PSTACK, 0, STACK
        LOCFRAME XSTACK, 9, STACK
        LOCFRAME IOVERLAY, 0, STATIC
        LOCFRAME DOVERLAY, 0, STATIC
        ARGFRAME ISTACK, 0, STACK
        ARGFRAME PSTACK, 0, STACK
        ARGFRAME XSTACK, 9, STACK
        ARGFRAME IOVERLAY, 0, STATIC
        ARGFRAME DOVERLAY, 0, STATIC
        FUNCALL MT_ZdoNwkDiscoveryCnfCB, MT_ZdoBeaconIndCB
        LOCFRAME ISTACK, 0, STACK
        LOCFRAME PSTACK, 0, STACK
        LOCFRAME XSTACK, 9, STACK
        LOCFRAME IOVERLAY, 0, STATIC
        LOCFRAME DOVERLAY, 0, STATIC
        ARGFRAME ISTACK, 0, STACK
        ARGFRAME PSTACK, 0, STACK
        ARGFRAME XSTACK, 9, STACK
        ARGFRAME IOVERLAY, 0, STATIC
        ARGFRAME DOVERLAY, 0, STATIC
        FUNCALL MT_ZdoNwkDiscoveryCnfCB, MT_BuildAndSendZToolResponse
        LOCFRAME ISTACK, 0, STACK
        LOCFRAME PSTACK, 0, STACK
        LOCFRAME XSTACK, 9, STACK
        LOCFRAME IOVERLAY, 0, STATIC
        LOCFRAME DOVERLAY, 0, STATIC
        ARGFRAME ISTACK, 0, STACK
        ARGFRAME PSTACK, 0, STACK
        ARGFRAME XSTACK, 9, STACK
        ARGFRAME IOVERLAY, 0, STATIC
        ARGFRAME DOVERLAY, 0, STATIC
        MOV       A,#-0x9
        LCALL     ?BANKED_ENTER_XDATA
          CFI DPH0 load(1, XDATA, add(CFA_XSP16, literal(-1)))
          CFI DPL0 load(1, XDATA, add(CFA_XSP16, literal(-2)))
          CFI ?BRET_EXT load(1, XDATA, add(CFA_XSP16, literal(-3)))
          CFI ?RET_HIGH load(1, XDATA, add(CFA_XSP16, literal(-4)))
          CFI ?RET_LOW load(1, XDATA, add(CFA_XSP16, literal(-5)))
          CFI R7 load(1, XDATA, add(CFA_XSP16, literal(-6)))
          CFI V0 load(1, XDATA, add(CFA_XSP16, literal(-7)))
          CFI VB load(1, XDATA, add(CFA_XSP16, literal(-8)))
          CFI R6 load(1, XDATA, add(CFA_XSP16, literal(-9)))
          CFI CFA_SP SP+0
          CFI CFA_XSP16 add(XSP16, 9)
        ; Saved register size: 9
        ; Auto size: 0
        MOV       A,R2
        MOV       R6,A
        MOV       A,R3
        MOV       R7,A
// 1624   /* pStr: status (uint8) */
// 1625   /* Packet Format */
// 1626   /* Status (1) */
// 1627 
// 1628   // Scan completed. De-register the callback with ZDO
// 1629   ZDO_DeregisterForZdoCB( ZDO_NWK_DISCOVERY_CNF_CBID );
        ; Setup parameters for call to function ZDO_DeregisterForZdoCB
        MOV       R1,#0x2
        LCALL     `??ZDO_DeregisterForZdoCB::?relay`; Banked call to: ZDO_DeregisterForZdoCB
// 1630   ZDO_DeregisterForZdoCB( ZDO_BEACON_NOTIFY_IND_CBID );
        ; Setup parameters for call to function ZDO_DeregisterForZdoCB
        MOV       R1,#0x3
        LCALL     `??ZDO_DeregisterForZdoCB::?relay`; Banked call to: ZDO_DeregisterForZdoCB
// 1631 
// 1632   // Send the buffered beacon indication
// 1633   MT_ZdoBeaconIndCB ( NULL );
        ; Setup parameters for call to function MT_ZdoBeaconIndCB
        MOV       R2,#0x0
        MOV       R3,#0x0
        LCALL     `??MT_ZdoBeaconIndCB::?relay`; Banked call to: MT_ZdoBeaconIndCB
// 1634 
// 1635   MT_BuildAndSendZToolResponse(((uint8)MT_RPC_CMD_AREQ | (uint8)MT_RPC_SYS_ZDO),
// 1636                                          MT_ZDO_NWK_DISCOVERY_CNF, 1, pStr);
        ; Setup parameters for call to function MT_BuildAndSendZToolResponse
        MOV       A,R6
        MOV       R4,A
        MOV       A,R7
        MOV       R5,A
        MOV       R3,#0x1
        MOV       R2,#-0x39
        MOV       R1,#0x45
        LCALL     `??MT_BuildAndSendZToolResponse::?relay`; Banked call to: MT_BuildAndSendZToolResponse
// 1637   return NULL;
        MOV       R2,#0x0
        MOV       R3,#0x0
        LJMP      ??Subroutine67_0 & 0xFFFF
// 1638 }
          CFI EndBlock cfiBlock215
// 1639 
// 1640 
// 1641 
// 1642 /***************************************************************************************************
// 1643  * @fn          MT_ZdoBeaconIndCB
// 1644  *
// 1645  * @brief       Send an indication to host device of a beacon notification
// 1646  *
// 1647  * @param       pStr -  pointer to a parameter and a structure of parameters
// 1648  *
// 1649  * @return      void
// 1650  ***************************************************************************************************/

        RSEG BANKED_CODE:HUGECODE:NOROOT(0)
// 1651 void *MT_ZdoBeaconIndCB ( void *pStr )
MT_ZdoBeaconIndCB:
          CFI Block cfiBlock216 Using cfiCommon0
          CFI Function MT_ZdoBeaconIndCB
        CODE
// 1652 {
        FUNCALL MT_ZdoBeaconIndCB, osal_mem_alloc
        LOCFRAME ISTACK, 0, STACK
        LOCFRAME PSTACK, 0, STACK
        LOCFRAME XSTACK, 11, STACK
        LOCFRAME IOVERLAY, 0, STATIC
        LOCFRAME DOVERLAY, 0, STATIC
        ARGFRAME ISTACK, 0, STACK
        ARGFRAME PSTACK, 0, STACK
        ARGFRAME XSTACK, 11, STACK
        ARGFRAME IOVERLAY, 0, STATIC
        ARGFRAME DOVERLAY, 0, STATIC
        FUNCALL MT_ZdoBeaconIndCB, osal_memcpy
        LOCFRAME ISTACK, 0, STACK
        LOCFRAME PSTACK, 0, STACK
        LOCFRAME XSTACK, 14, STACK
        LOCFRAME IOVERLAY, 0, STATIC
        LOCFRAME DOVERLAY, 0, STATIC
        ARGFRAME ISTACK, 0, STACK
        ARGFRAME PSTACK, 0, STACK
        ARGFRAME XSTACK, 14, STACK
        ARGFRAME IOVERLAY, 0, STATIC
        ARGFRAME DOVERLAY, 0, STATIC
        FUNCALL MT_ZdoBeaconIndCB, MT_BuildAndSendZToolResponse
        LOCFRAME ISTACK, 0, STACK
        LOCFRAME PSTACK, 0, STACK
        LOCFRAME XSTACK, 11, STACK
        LOCFRAME IOVERLAY, 0, STATIC
        LOCFRAME DOVERLAY, 0, STATIC
        ARGFRAME ISTACK, 0, STACK
        ARGFRAME PSTACK, 0, STACK
        ARGFRAME XSTACK, 11, STACK
        ARGFRAME IOVERLAY, 0, STATIC
        ARGFRAME DOVERLAY, 0, STATIC
        FUNCALL MT_ZdoBeaconIndCB, MT_BuildAndSendZToolResponse
        LOCFRAME ISTACK, 0, STACK
        LOCFRAME PSTACK, 0, STACK
        LOCFRAME XSTACK, 11, STACK
        LOCFRAME IOVERLAY, 0, STATIC
        LOCFRAME DOVERLAY, 0, STATIC
        ARGFRAME ISTACK, 0, STACK
        ARGFRAME PSTACK, 0, STACK
        ARGFRAME XSTACK, 11, STACK
        ARGFRAME IOVERLAY, 0, STATIC
        ARGFRAME DOVERLAY, 0, STATIC
        FUNCALL MT_ZdoBeaconIndCB, osal_mem_free
        LOCFRAME ISTACK, 0, STACK
        LOCFRAME PSTACK, 0, STACK
        LOCFRAME XSTACK, 11, STACK
        LOCFRAME IOVERLAY, 0, STATIC
        LOCFRAME DOVERLAY, 0, STATIC
        ARGFRAME ISTACK, 0, STACK
        ARGFRAME PSTACK, 0, STACK
        ARGFRAME XSTACK, 11, STACK
        ARGFRAME IOVERLAY, 0, STATIC
        ARGFRAME DOVERLAY, 0, STATIC
        REQUIRE ?V0
        REQUIRE ?V1
        REQUIRE ?V2
        MOV       A,#-0xb
        LCALL     ?BANKED_ENTER_XDATA
          CFI DPH0 load(1, XDATA, add(CFA_XSP16, literal(-1)))
          CFI DPL0 load(1, XDATA, add(CFA_XSP16, literal(-2)))
          CFI ?BRET_EXT load(1, XDATA, add(CFA_XSP16, literal(-3)))
          CFI ?RET_HIGH load(1, XDATA, add(CFA_XSP16, literal(-4)))
          CFI ?RET_LOW load(1, XDATA, add(CFA_XSP16, literal(-5)))
          CFI R7 load(1, XDATA, add(CFA_XSP16, literal(-6)))
          CFI V2 load(1, XDATA, add(CFA_XSP16, literal(-7)))
          CFI V1 load(1, XDATA, add(CFA_XSP16, literal(-8)))
          CFI V0 load(1, XDATA, add(CFA_XSP16, literal(-9)))
          CFI VB load(1, XDATA, add(CFA_XSP16, literal(-10)))
          CFI R6 load(1, XDATA, add(CFA_XSP16, literal(-11)))
          CFI CFA_SP SP+0
          CFI CFA_XSP16 add(XSP16, 11)
        ; Saved register size: 11
        ; Auto size: 0
        MOV       A,R2
        MOV       R6,A
        MOV       A,R3
        MOV       R7,A
// 1653   zdoBeaconInd_t *pBeacon = pStr;
// 1654   uint8 *pTmp;
// 1655 
// 1656   /* Packet Format */
// 1657   /* devCnt (1) | device #1 (21) | device #2 (21) |... | device #n (21) */
// 1658 
// 1659   if( pStr != NULL)
        MOV       A,R2
        ORL       A,R7
        MOV       DPTR,#pBeaconIndBuf
        JNZ       $+5
        LJMP      ??MT_ZdoBeaconIndCB_0 & 0xFFFF
// 1660   {
// 1661     if( pBeaconIndBuf == NULL )
        MOVX      A,@DPTR
        MOV       R0,A
        INC       DPTR
        MOVX      A,@DPTR
        MOV       R1,A
        MOV       A,R0
        ORL       A,R1
        JNZ       ??MT_ZdoBeaconIndCB_1
// 1662     {
// 1663       // If pBeaconIndBuf has not been allocated yet
// 1664       // allocate memory now with MAX_UART_TX_BUFF
// 1665       if( NULL == (pBeaconIndBuf = (uint8 *)osal_mem_alloc(MT_ZDO_BEACON_IND_PACK_LEN)))
        ; Setup parameters for call to function osal_mem_alloc
        MOV       R2,#0x7b
        MOV       R3,#0x0
        LCALL     `??osal_mem_alloc::?relay`; Banked call to: osal_mem_alloc
        MOV       DPTR,#pBeaconIndBuf
        MOV       A,R2
        MOVX      @DPTR,A
        INC       DPTR
        MOV       A,R3
        MOVX      @DPTR,A
        MOV       R1,A
        MOV       A,R2
        ORL       A,R1
        JNZ       $+5
        LJMP      ??MT_ZdoBeaconIndCB_2 & 0xFFFF
// 1666       {
// 1667         // Memory failure
// 1668         return NULL;
// 1669       }
// 1670       pBeaconIndBuf[0] = 0; // First byte is devCnt. Initialize to 0.
        MOVX      A,@DPTR
        MOV       DPH,A
        MOV       DPL,R2
        CLR       A
        MOVX      @DPTR,A
// 1671     }
// 1672 
// 1673     // Fill in the buffer with the beacon indication
// 1674     pTmp = pBeaconIndBuf + (1 + pBeaconIndBuf[0] * MT_ZDO_BEACON_IND_LEN);
??MT_ZdoBeaconIndCB_1:
        LCALL     ?Subroutine18 & 0xFFFF
??CrossCallReturnLabel_33:
        MOV       R0,A
        MOV       R1,B
        MOV       DPTR,#pBeaconIndBuf
        MOVX      A,@DPTR
        ADD       A,R0
        MOV       R2,A
        INC       DPTR
        MOVX      A,@DPTR
        ADDC      A,R1
        MOV       DPL,R2
        MOV       DPH,A
        INC       DPTR
        MOV       R2,DPL
        MOV       R3,DPH
// 1675     *pTmp++ = LO_UINT16(pBeacon->sourceAddr);
        MOV       DPL,R6
        MOV       DPH,R7
        LCALL     ??Subroutine72_0 & 0xFFFF
??CrossCallReturnLabel_140:
        LCALL     ?Subroutine37 & 0xFFFF
// 1676     *pTmp++ = HI_UINT16(pBeacon->sourceAddr);
??CrossCallReturnLabel_71:
        LCALL     ?Subroutine28 & 0xFFFF
??CrossCallReturnLabel_142:
        INC       DPTR
        MOVX      @DPTR,A
// 1677     *pTmp++ = LO_UINT16(pBeacon->panID);
        MOV       A,R6
        ADD       A,#0x2
        MOV       R0,A
        CLR       A
        ADDC      A,R7
        MOV       R1,A
        MOV       DPL,R0
        LCALL     ?Subroutine27 & 0xFFFF
// 1678     *pTmp++ = HI_UINT16(pBeacon->panID);
??CrossCallReturnLabel_49:
        MOV       DPL,R0
        MOV       DPH,R1
        INC       DPTR
        LCALL     ?Subroutine25 & 0xFFFF
// 1679     *pTmp++ = pBeacon->logicalChannel;
??CrossCallReturnLabel_45:
        MOV       DPL,R6
        MOV       DPH,R7
        INC       DPTR
        INC       DPTR
        INC       DPTR
        LCALL     ?Subroutine24 & 0xFFFF
// 1680     *pTmp++ = pBeacon->permitJoining;
??CrossCallReturnLabel_43:
        MOV       DPL,R6
        MOV       DPH,R7
        INC       DPTR
        INC       DPTR
        INC       DPTR
        INC       DPTR
        INC       DPTR
        LCALL     ?Subroutine22 & 0xFFFF
// 1681     *pTmp++ = pBeacon->routerCapacity;
??CrossCallReturnLabel_39:
        MOV       DPL,R6
        MOV       DPH,R7
        INC       DPTR
        INC       DPTR
        INC       DPTR
        INC       DPTR
        INC       DPTR
        INC       DPTR
        LCALL     ?Subroutine20 & 0xFFFF
// 1682     *pTmp++ = pBeacon->deviceCapacity;
??CrossCallReturnLabel_37:
        MOV       DPL,R6
        MOV       DPH,R7
        INC       DPTR
        INC       DPTR
        INC       DPTR
        INC       DPTR
        INC       DPTR
        INC       DPTR
        INC       DPTR
        LCALL     ?Subroutine19 & 0xFFFF
// 1683     *pTmp++ = pBeacon->protocolVersion;
??CrossCallReturnLabel_35:
        MOV       DPL,R6
        MOV       DPH,R7
        INC       DPTR
        INC       DPTR
        INC       DPTR
        INC       DPTR
        INC       DPTR
        INC       DPTR
        INC       DPTR
        LCALL     ?Subroutine13 & 0xFFFF
// 1684     *pTmp++ = pBeacon->stackProfile;
??CrossCallReturnLabel_24:
        MOV       DPL,R6
        MOV       DPH,R7
        LCALL     ?Subroutine14 & 0xFFFF
??CrossCallReturnLabel_26:
        LCALL     ?Subroutine37 & 0xFFFF
// 1685     *pTmp++ = pBeacon->LQI;
??CrossCallReturnLabel_72:
        INC       DPTR
        LCALL     ?Subroutine14 & 0xFFFF
??CrossCallReturnLabel_27:
        INC       DPTR
        MOVX      @DPTR,A
// 1686     *pTmp++ = pBeacon->depth;
        LCALL     ?Subroutine39 & 0xFFFF
??CrossCallReturnLabel_78:
        PUSH      A
          CFI CFA_SP SP+-1
        MOV       A,R2
        ADD       A,#0xb
        MOV       DPL,A
        CLR       A
        ADDC      A,R3
        MOV       DPH,A
        POP       A
          CFI CFA_SP SP+0
        MOVX      @DPTR,A
// 1687     *pTmp++ = pBeacon->updateID;
        LCALL     ?Subroutine44 & 0xFFFF
??CrossCallReturnLabel_89:
        PUSH      A
          CFI CFA_SP SP+-1
        MOV       A,R2
        ADD       A,#0xc
        MOV       DPL,A
        CLR       A
        ADDC      A,R3
        MOV       DPH,A
        POP       A
          CFI CFA_SP SP+0
        MOVX      @DPTR,A
// 1688     osal_memcpy( pTmp, pBeacon->extendedPanID, Z_EXTADDR_LEN);
        ; Setup parameters for call to function osal_memcpy
        MOV       A,R6
        ADD       A,#0xd
        MOV       ?V0,A
        CLR       A
        ADDC      A,R7
        MOV       ?V1,A
        MOV       ?V2,#0x0
        MOV       R0,#?V0
        LCALL     ?PUSH_XSTACK_I_THREE
          CFI CFA_XSP16 add(XSP16, 14)
        MOV       R4,#0x8
        MOV       R5,#0x0
        MOV       A,R2
        ADD       A,#0xd
        MOV       R2,A
        JNC       ??MT_ZdoBeaconIndCB_3
        INC       R3
??MT_ZdoBeaconIndCB_3:
        LCALL     `??osal_memcpy::?relay`; Banked call to: osal_memcpy
        MOV       A,#0x3
        LCALL     ?DEALLOC_XSTACK8
          CFI CFA_XSP16 add(XSP16, 11)
// 1689 
// 1690     pBeaconIndBuf[0] += 1; // Increment the devCnt
        LCALL     ?Subroutine52 & 0xFFFF
??CrossCallReturnLabel_102:
        INC       A
        MOVX      @DPTR,A
// 1691 
// 1692     // Check if the buffer can fit in another beacon
// 1693     if( ((pBeaconIndBuf[0] + 1) * MT_ZDO_BEACON_IND_LEN + 1) > MT_ZDO_BEACON_IND_PACK_LEN )
        LCALL     ?Subroutine18 & 0xFFFF
??CrossCallReturnLabel_34:
        MOV       R1,B
        ADD       A,#0x16
        JNC       ??MT_ZdoBeaconIndCB_4
        INC       R1
??MT_ZdoBeaconIndCB_4:
        CLR       C
        SUBB      A,#0x7c
        MOV       A,R1
        SUBB      A,#0x0
        MOV       C,0xD0 /* PSW */.2
        XRL       A,PSW
        RLC       A
        JC        ??MT_ZdoBeaconIndCB_2
// 1694     {
// 1695       // Packet full, send the packet over MT
// 1696       MT_BuildAndSendZToolResponse(((uint8)MT_RPC_CMD_AREQ | (uint8)MT_RPC_SYS_ZDO),
// 1697                                    MT_ZDO_BEACON_NOTIFY_IND,
// 1698                                    (pBeaconIndBuf[0] * MT_ZDO_BEACON_IND_LEN + 1), pBeaconIndBuf);
        ; Setup parameters for call to function MT_BuildAndSendZToolResponse
        LCALL     ?Subroutine7 & 0xFFFF
// 1699       pBeaconIndBuf[0] = 0; // Reset the devCnt back to zero
// 1700     }
// 1701   }
??CrossCallReturnLabel_2:
        MOV       DPH,A
        MOV       DPL,R0
        CLR       A
        SJMP      ??MT_ZdoBeaconIndCB_5
// 1702   else
// 1703   {
// 1704     if( (pBeaconIndBuf != NULL) && (pBeaconIndBuf[0] != 0) )
??MT_ZdoBeaconIndCB_0:
        MOVX      A,@DPTR
        MOV       R0,A
        INC       DPTR
        MOVX      A,@DPTR
        MOV       R1,A
        MOV       A,R0
        ORL       A,R1
        JZ        ??MT_ZdoBeaconIndCB_2
        MOVX      A,@DPTR
        MOV       DPH,A
        MOV       DPL,R0
        MOVX      A,@DPTR
        JZ        ??MT_ZdoBeaconIndCB_6
// 1705     {
// 1706       // End of beacon indication, send the packet over MT
// 1707       MT_BuildAndSendZToolResponse(((uint8)MT_RPC_CMD_AREQ | (uint8)MT_RPC_SYS_ZDO),
// 1708                                    MT_ZDO_BEACON_NOTIFY_IND,
// 1709                                    (pBeaconIndBuf[0] * MT_ZDO_BEACON_IND_LEN + 1), pBeaconIndBuf);
        ; Setup parameters for call to function MT_BuildAndSendZToolResponse
        LCALL     ?Subroutine7 & 0xFFFF
// 1710     }
// 1711     // Free the allocated memory
// 1712     if(pBeaconIndBuf != NULL)
??CrossCallReturnLabel_3:
        MOV       R1,A
        MOV       A,R0
        ORL       A,R1
        JZ        ??MT_ZdoBeaconIndCB_2
// 1713     {
// 1714       osal_mem_free(pBeaconIndBuf);
??MT_ZdoBeaconIndCB_6:
        ; Setup parameters for call to function osal_mem_free
        MOV       DPTR,#pBeaconIndBuf
        MOVX      A,@DPTR
        MOV       R2,A
        INC       DPTR
        MOVX      A,@DPTR
        MOV       R3,A
        LCALL     `??osal_mem_free::?relay`; Banked call to: osal_mem_free
// 1715       pBeaconIndBuf = NULL;
        MOV       DPTR,#pBeaconIndBuf
        CLR       A
        MOVX      @DPTR,A
        INC       DPTR
??MT_ZdoBeaconIndCB_5:
        MOVX      @DPTR,A
// 1716     }
// 1717   }
// 1718 
// 1719   return NULL;
??MT_ZdoBeaconIndCB_2:
        MOV       R2,#0x0
        MOV       R3,#0x0
        MOV       R7,#0x3
        LJMP      ?BANKED_LEAVE_XDATA
// 1720 }
          CFI EndBlock cfiBlock216

        RSEG BANKED_CODE:HUGECODE:NOROOT(0)
?Subroutine44:
          CFI Block cfiCond217 Using cfiCommon0
          CFI Function MT_ZdoJoinReq
          CFI Conditional ??CrossCallReturnLabel_88
          CFI R6 load(1, XDATA, add(CFA_XSP16, literal(-12)))
          CFI VB load(1, XDATA, add(CFA_XSP16, literal(-11)))
          CFI V0 load(1, XDATA, add(CFA_XSP16, literal(-10)))
          CFI V1 load(1, XDATA, add(CFA_XSP16, literal(-9)))
          CFI V2 load(1, XDATA, add(CFA_XSP16, literal(-8)))
          CFI V3 load(1, XDATA, add(CFA_XSP16, literal(-7)))
          CFI R7 load(1, XDATA, add(CFA_XSP16, literal(-6)))
          CFI ?RET_LOW load(1, XDATA, add(CFA_XSP16, literal(-5)))
          CFI ?RET_HIGH load(1, XDATA, add(CFA_XSP16, literal(-4)))
          CFI ?BRET_EXT load(1, XDATA, add(CFA_XSP16, literal(-3)))
          CFI DPL0 load(1, XDATA, add(CFA_XSP16, literal(-2)))
          CFI DPH0 load(1, XDATA, add(CFA_XSP16, literal(-1)))
          CFI CFA_SP SP+-2
          CFI CFA_XSP16 add(XSP16, 15)
          CFI Block cfiCond218 Using cfiCommon0
          CFI (cfiCond218) Function MT_ZdoBeaconIndCB
          CFI (cfiCond218) Conditional ??CrossCallReturnLabel_89
          CFI (cfiCond218) R6 load(1, XDATA, add(CFA_XSP16, literal(-11)))
          CFI (cfiCond218) VB load(1, XDATA, add(CFA_XSP16, literal(-10)))
          CFI (cfiCond218) V0 load(1, XDATA, add(CFA_XSP16, literal(-9)))
          CFI (cfiCond218) V1 load(1, XDATA, add(CFA_XSP16, literal(-8)))
          CFI (cfiCond218) V2 load(1, XDATA, add(CFA_XSP16, literal(-7)))
          CFI (cfiCond218) R7 load(1, XDATA, add(CFA_XSP16, literal(-6)))
          CFI (cfiCond218) ?RET_LOW load(1, XDATA, add(CFA_XSP16, literal(-5)))
          CFI (cfiCond218) ?RET_HIGH load(1, XDATA, add(CFA_XSP16, literal(-4)))
          CFI (cfiCond218) ?BRET_EXT load(1, XDATA, add(CFA_XSP16, literal(-3)))
          CFI (cfiCond218) DPL0 load(1, XDATA, add(CFA_XSP16, literal(-2)))
          CFI (cfiCond218) DPH0 load(1, XDATA, add(CFA_XSP16, literal(-1)))
          CFI (cfiCond218) CFA_SP SP+-2
          CFI (cfiCond218) CFA_XSP16 add(XSP16, 11)
          CFI Block cfiPicker219 Using cfiCommon1
          CFI (cfiPicker219) NoFunction
          CFI (cfiPicker219) Picker
        MOV       A,R6
        ADD       A,#0xc
        MOV       DPL,A
        CLR       A
        ADDC      A,R7
        MOV       DPH,A
        MOVX      A,@DPTR
        RET
          CFI EndBlock cfiCond217
          CFI EndBlock cfiCond218
          CFI EndBlock cfiPicker219

        RSEG BANKED_CODE:HUGECODE:NOROOT(0)
?Subroutine39:
          CFI Block cfiCond220 Using cfiCommon0
          CFI Function MT_ZdoJoinReq
          CFI Conditional ??CrossCallReturnLabel_77
          CFI R6 load(1, XDATA, add(CFA_XSP16, literal(-12)))
          CFI VB load(1, XDATA, add(CFA_XSP16, literal(-11)))
          CFI V0 load(1, XDATA, add(CFA_XSP16, literal(-10)))
          CFI V1 load(1, XDATA, add(CFA_XSP16, literal(-9)))
          CFI V2 load(1, XDATA, add(CFA_XSP16, literal(-8)))
          CFI V3 load(1, XDATA, add(CFA_XSP16, literal(-7)))
          CFI R7 load(1, XDATA, add(CFA_XSP16, literal(-6)))
          CFI ?RET_LOW load(1, XDATA, add(CFA_XSP16, literal(-5)))
          CFI ?RET_HIGH load(1, XDATA, add(CFA_XSP16, literal(-4)))
          CFI ?BRET_EXT load(1, XDATA, add(CFA_XSP16, literal(-3)))
          CFI DPL0 load(1, XDATA, add(CFA_XSP16, literal(-2)))
          CFI DPH0 load(1, XDATA, add(CFA_XSP16, literal(-1)))
          CFI CFA_SP SP+-2
          CFI CFA_XSP16 add(XSP16, 15)
          CFI Block cfiCond221 Using cfiCommon0
          CFI (cfiCond221) Function MT_ZdoBeaconIndCB
          CFI (cfiCond221) Conditional ??CrossCallReturnLabel_78
          CFI (cfiCond221) R6 load(1, XDATA, add(CFA_XSP16, literal(-11)))
          CFI (cfiCond221) VB load(1, XDATA, add(CFA_XSP16, literal(-10)))
          CFI (cfiCond221) V0 load(1, XDATA, add(CFA_XSP16, literal(-9)))
          CFI (cfiCond221) V1 load(1, XDATA, add(CFA_XSP16, literal(-8)))
          CFI (cfiCond221) V2 load(1, XDATA, add(CFA_XSP16, literal(-7)))
          CFI (cfiCond221) R7 load(1, XDATA, add(CFA_XSP16, literal(-6)))
          CFI (cfiCond221) ?RET_LOW load(1, XDATA, add(CFA_XSP16, literal(-5)))
          CFI (cfiCond221) ?RET_HIGH load(1, XDATA, add(CFA_XSP16, literal(-4)))
          CFI (cfiCond221) ?BRET_EXT load(1, XDATA, add(CFA_XSP16, literal(-3)))
          CFI (cfiCond221) DPL0 load(1, XDATA, add(CFA_XSP16, literal(-2)))
          CFI (cfiCond221) DPH0 load(1, XDATA, add(CFA_XSP16, literal(-1)))
          CFI (cfiCond221) CFA_SP SP+-2
          CFI (cfiCond221) CFA_XSP16 add(XSP16, 11)
          CFI Block cfiPicker222 Using cfiCommon1
          CFI (cfiPicker222) NoFunction
          CFI (cfiPicker222) Picker
        MOV       A,R6
        ADD       A,#0xb
        MOV       DPL,A
        CLR       A
        ADDC      A,R7
        MOV       DPH,A
        MOVX      A,@DPTR
        RET
          CFI EndBlock cfiCond220
          CFI EndBlock cfiCond221
          CFI EndBlock cfiPicker222

        RSEG BANKED_CODE:HUGECODE:NOROOT(0)
?Subroutine37:
          CFI Block cfiCond223 Using cfiCommon0
          CFI Function MT_ZdoEndDevBindRequest
          CFI Conditional ??CrossCallReturnLabel_70
          CFI R6 load(1, XDATA, add(CFA_XSP16, literal(-15)))
          CFI VB load(1, XDATA, add(CFA_XSP16, literal(-14)))
          CFI V0 load(1, XDATA, add(CFA_XSP16, literal(-13)))
          CFI V1 load(1, XDATA, add(CFA_XSP16, literal(-12)))
          CFI V2 load(1, XDATA, add(CFA_XSP16, literal(-11)))
          CFI V3 load(1, XDATA, add(CFA_XSP16, literal(-10)))
          CFI V4 load(1, XDATA, add(CFA_XSP16, literal(-9)))
          CFI V5 load(1, XDATA, add(CFA_XSP16, literal(-8)))
          CFI V6 load(1, XDATA, add(CFA_XSP16, literal(-7)))
          CFI R7 load(1, XDATA, add(CFA_XSP16, literal(-6)))
          CFI ?RET_LOW load(1, XDATA, add(CFA_XSP16, literal(-5)))
          CFI ?RET_HIGH load(1, XDATA, add(CFA_XSP16, literal(-4)))
          CFI ?BRET_EXT load(1, XDATA, add(CFA_XSP16, literal(-3)))
          CFI DPL0 load(1, XDATA, add(CFA_XSP16, literal(-2)))
          CFI DPH0 load(1, XDATA, add(CFA_XSP16, literal(-1)))
          CFI CFA_SP SP+-2
          CFI CFA_XSP16 add(XSP16, 85)
          CFI Block cfiCond224 Using cfiCommon0
          CFI (cfiCond224) Function MT_ZdoBeaconIndCB
          CFI (cfiCond224) Conditional ??CrossCallReturnLabel_71
          CFI (cfiCond224) R6 load(1, XDATA, add(CFA_XSP16, literal(-11)))
          CFI (cfiCond224) VB load(1, XDATA, add(CFA_XSP16, literal(-10)))
          CFI (cfiCond224) V0 load(1, XDATA, add(CFA_XSP16, literal(-9)))
          CFI (cfiCond224) V1 load(1, XDATA, add(CFA_XSP16, literal(-8)))
          CFI (cfiCond224) V2 load(1, XDATA, add(CFA_XSP16, literal(-7)))
          CFI (cfiCond224) R7 load(1, XDATA, add(CFA_XSP16, literal(-6)))
          CFI (cfiCond224) ?RET_LOW load(1, XDATA, add(CFA_XSP16, literal(-5)))
          CFI (cfiCond224) ?RET_HIGH load(1, XDATA, add(CFA_XSP16, literal(-4)))
          CFI (cfiCond224) ?BRET_EXT load(1, XDATA, add(CFA_XSP16, literal(-3)))
          CFI (cfiCond224) DPL0 load(1, XDATA, add(CFA_XSP16, literal(-2)))
          CFI (cfiCond224) DPH0 load(1, XDATA, add(CFA_XSP16, literal(-1)))
          CFI (cfiCond224) CFA_SP SP+-2
          CFI (cfiCond224) CFA_XSP16 add(XSP16, 11)
          CFI Block cfiCond225 Using cfiCommon0
          CFI (cfiCond225) Function MT_ZdoBeaconIndCB
          CFI (cfiCond225) Conditional ??CrossCallReturnLabel_72
          CFI (cfiCond225) R6 load(1, XDATA, add(CFA_XSP16, literal(-11)))
          CFI (cfiCond225) VB load(1, XDATA, add(CFA_XSP16, literal(-10)))
          CFI (cfiCond225) V0 load(1, XDATA, add(CFA_XSP16, literal(-9)))
          CFI (cfiCond225) V1 load(1, XDATA, add(CFA_XSP16, literal(-8)))
          CFI (cfiCond225) V2 load(1, XDATA, add(CFA_XSP16, literal(-7)))
          CFI (cfiCond225) R7 load(1, XDATA, add(CFA_XSP16, literal(-6)))
          CFI (cfiCond225) ?RET_LOW load(1, XDATA, add(CFA_XSP16, literal(-5)))
          CFI (cfiCond225) ?RET_HIGH load(1, XDATA, add(CFA_XSP16, literal(-4)))
          CFI (cfiCond225) ?BRET_EXT load(1, XDATA, add(CFA_XSP16, literal(-3)))
          CFI (cfiCond225) DPL0 load(1, XDATA, add(CFA_XSP16, literal(-2)))
          CFI (cfiCond225) DPH0 load(1, XDATA, add(CFA_XSP16, literal(-1)))
          CFI (cfiCond225) CFA_SP SP+-2
          CFI (cfiCond225) CFA_XSP16 add(XSP16, 11)
          CFI Block cfiCond226 Using cfiCommon0
          CFI (cfiCond226) Function MT_ZdoJoinCnfCB
          CFI (cfiCond226) Conditional ??CrossCallReturnLabel_73
          CFI (cfiCond226) R6 load(1, XDATA, add(CFA_XSP16, literal(-9)))
          CFI (cfiCond226) VB load(1, XDATA, add(CFA_XSP16, literal(-8)))
          CFI (cfiCond226) V0 load(1, XDATA, add(CFA_XSP16, literal(-7)))
          CFI (cfiCond226) R7 load(1, XDATA, add(CFA_XSP16, literal(-6)))
          CFI (cfiCond226) ?RET_LOW load(1, XDATA, add(CFA_XSP16, literal(-5)))
          CFI (cfiCond226) ?RET_HIGH load(1, XDATA, add(CFA_XSP16, literal(-4)))
          CFI (cfiCond226) ?BRET_EXT load(1, XDATA, add(CFA_XSP16, literal(-3)))
          CFI (cfiCond226) DPL0 load(1, XDATA, add(CFA_XSP16, literal(-2)))
          CFI (cfiCond226) DPH0 load(1, XDATA, add(CFA_XSP16, literal(-1)))
          CFI (cfiCond226) CFA_SP SP+-2
          CFI (cfiCond226) CFA_XSP16 add(XSP16, 14)
          CFI Block cfiPicker227 Using cfiCommon1
          CFI (cfiPicker227) NoFunction
          CFI (cfiPicker227) Picker
        MOVX      @DPTR,A
        MOV       DPL,R6
        MOV       DPH,R7
        RET
          CFI EndBlock cfiCond223
          CFI EndBlock cfiCond224
          CFI EndBlock cfiCond225
          CFI EndBlock cfiCond226
          CFI EndBlock cfiPicker227

        RSEG BANKED_CODE:HUGECODE:NOROOT(0)
?Subroutine18:
          CFI Block cfiCond228 Using cfiCommon0
          CFI Function MT_ZdoBeaconIndCB
          CFI Conditional ??CrossCallReturnLabel_33
          CFI R6 load(1, XDATA, add(CFA_XSP16, literal(-11)))
          CFI VB load(1, XDATA, add(CFA_XSP16, literal(-10)))
          CFI V0 load(1, XDATA, add(CFA_XSP16, literal(-9)))
          CFI V1 load(1, XDATA, add(CFA_XSP16, literal(-8)))
          CFI V2 load(1, XDATA, add(CFA_XSP16, literal(-7)))
          CFI R7 load(1, XDATA, add(CFA_XSP16, literal(-6)))
          CFI ?RET_LOW load(1, XDATA, add(CFA_XSP16, literal(-5)))
          CFI ?RET_HIGH load(1, XDATA, add(CFA_XSP16, literal(-4)))
          CFI ?BRET_EXT load(1, XDATA, add(CFA_XSP16, literal(-3)))
          CFI DPL0 load(1, XDATA, add(CFA_XSP16, literal(-2)))
          CFI DPH0 load(1, XDATA, add(CFA_XSP16, literal(-1)))
          CFI CFA_SP SP+-2
          CFI CFA_XSP16 add(XSP16, 11)
          CFI Block cfiCond229 Using cfiCommon0
          CFI (cfiCond229) Function MT_ZdoBeaconIndCB
          CFI (cfiCond229) Conditional ??CrossCallReturnLabel_34
          CFI (cfiCond229) R6 load(1, XDATA, add(CFA_XSP16, literal(-11)))
          CFI (cfiCond229) VB load(1, XDATA, add(CFA_XSP16, literal(-10)))
          CFI (cfiCond229) V0 load(1, XDATA, add(CFA_XSP16, literal(-9)))
          CFI (cfiCond229) V1 load(1, XDATA, add(CFA_XSP16, literal(-8)))
          CFI (cfiCond229) V2 load(1, XDATA, add(CFA_XSP16, literal(-7)))
          CFI (cfiCond229) R7 load(1, XDATA, add(CFA_XSP16, literal(-6)))
          CFI (cfiCond229) ?RET_LOW load(1, XDATA, add(CFA_XSP16, literal(-5)))
          CFI (cfiCond229) ?RET_HIGH load(1, XDATA, add(CFA_XSP16, literal(-4)))
          CFI (cfiCond229) ?BRET_EXT load(1, XDATA, add(CFA_XSP16, literal(-3)))
          CFI (cfiCond229) DPL0 load(1, XDATA, add(CFA_XSP16, literal(-2)))
          CFI (cfiCond229) DPH0 load(1, XDATA, add(CFA_XSP16, literal(-1)))
          CFI (cfiCond229) CFA_SP SP+-2
          CFI (cfiCond229) CFA_XSP16 add(XSP16, 11)
          CFI Block cfiPicker230 Using cfiCommon1
          CFI (cfiPicker230) NoFunction
          CFI (cfiPicker230) Picker
        LCALL     ?Subroutine52 & 0xFFFF
??CrossCallReturnLabel_103:
        MOV       B,#0x15
        MUL       AB
        RET
          CFI EndBlock cfiCond228
          CFI EndBlock cfiCond229
          CFI EndBlock cfiPicker230

        RSEG BANKED_CODE:HUGECODE:NOROOT(0)
?Subroutine52:
          CFI Block cfiCond231 Using cfiCommon0
          CFI Function MT_ZdoBeaconIndCB
          CFI Conditional ??CrossCallReturnLabel_102
          CFI R6 load(1, XDATA, add(CFA_XSP16, literal(-11)))
          CFI VB load(1, XDATA, add(CFA_XSP16, literal(-10)))
          CFI V0 load(1, XDATA, add(CFA_XSP16, literal(-9)))
          CFI V1 load(1, XDATA, add(CFA_XSP16, literal(-8)))
          CFI V2 load(1, XDATA, add(CFA_XSP16, literal(-7)))
          CFI R7 load(1, XDATA, add(CFA_XSP16, literal(-6)))
          CFI ?RET_LOW load(1, XDATA, add(CFA_XSP16, literal(-5)))
          CFI ?RET_HIGH load(1, XDATA, add(CFA_XSP16, literal(-4)))
          CFI ?BRET_EXT load(1, XDATA, add(CFA_XSP16, literal(-3)))
          CFI DPL0 load(1, XDATA, add(CFA_XSP16, literal(-2)))
          CFI DPH0 load(1, XDATA, add(CFA_XSP16, literal(-1)))
          CFI CFA_SP SP+-2
          CFI CFA_XSP16 add(XSP16, 11)
          CFI Block cfiCond232 Using cfiCommon0
          CFI (cfiCond232) Function MT_ZdoBeaconIndCB
          CFI (cfiCond232) Conditional ??CrossCallReturnLabel_103, ??CrossCallReturnLabel_33
          CFI (cfiCond232) R6 load(1, XDATA, add(CFA_XSP16, literal(-11)))
          CFI (cfiCond232) VB load(1, XDATA, add(CFA_XSP16, literal(-10)))
          CFI (cfiCond232) V0 load(1, XDATA, add(CFA_XSP16, literal(-9)))
          CFI (cfiCond232) V1 load(1, XDATA, add(CFA_XSP16, literal(-8)))
          CFI (cfiCond232) V2 load(1, XDATA, add(CFA_XSP16, literal(-7)))
          CFI (cfiCond232) R7 load(1, XDATA, add(CFA_XSP16, literal(-6)))
          CFI (cfiCond232) ?RET_LOW load(1, XDATA, add(CFA_XSP16, literal(-5)))
          CFI (cfiCond232) ?RET_HIGH load(1, XDATA, add(CFA_XSP16, literal(-4)))
          CFI (cfiCond232) ?BRET_EXT load(1, XDATA, add(CFA_XSP16, literal(-3)))
          CFI (cfiCond232) DPL0 load(1, XDATA, add(CFA_XSP16, literal(-2)))
          CFI (cfiCond232) DPH0 load(1, XDATA, add(CFA_XSP16, literal(-1)))
          CFI (cfiCond232) CFA_SP SP+-4
          CFI (cfiCond232) CFA_XSP16 add(XSP16, 11)
          CFI Block cfiCond233 Using cfiCommon0
          CFI (cfiCond233) Function MT_ZdoBeaconIndCB
          CFI (cfiCond233) Conditional ??CrossCallReturnLabel_103, ??CrossCallReturnLabel_34
          CFI (cfiCond233) R6 load(1, XDATA, add(CFA_XSP16, literal(-11)))
          CFI (cfiCond233) VB load(1, XDATA, add(CFA_XSP16, literal(-10)))
          CFI (cfiCond233) V0 load(1, XDATA, add(CFA_XSP16, literal(-9)))
          CFI (cfiCond233) V1 load(1, XDATA, add(CFA_XSP16, literal(-8)))
          CFI (cfiCond233) V2 load(1, XDATA, add(CFA_XSP16, literal(-7)))
          CFI (cfiCond233) R7 load(1, XDATA, add(CFA_XSP16, literal(-6)))
          CFI (cfiCond233) ?RET_LOW load(1, XDATA, add(CFA_XSP16, literal(-5)))
          CFI (cfiCond233) ?RET_HIGH load(1, XDATA, add(CFA_XSP16, literal(-4)))
          CFI (cfiCond233) ?BRET_EXT load(1, XDATA, add(CFA_XSP16, literal(-3)))
          CFI (cfiCond233) DPL0 load(1, XDATA, add(CFA_XSP16, literal(-2)))
          CFI (cfiCond233) DPH0 load(1, XDATA, add(CFA_XSP16, literal(-1)))
          CFI (cfiCond233) CFA_SP SP+-4
          CFI (cfiCond233) CFA_XSP16 add(XSP16, 11)
          CFI Block cfiPicker234 Using cfiCommon1
          CFI (cfiPicker234) NoFunction
          CFI (cfiPicker234) Picker
        MOV       DPTR,#pBeaconIndBuf
        MOVX      A,@DPTR
        MOV       R0,A
        INC       DPTR
        MOVX      A,@DPTR
        MOV       DPH,A
        MOV       DPL,R0
        MOVX      A,@DPTR
        RET
          CFI EndBlock cfiCond231
          CFI EndBlock cfiCond232
          CFI EndBlock cfiCond233
          CFI EndBlock cfiPicker234

        RSEG BANKED_CODE:HUGECODE:NOROOT(0)
?Subroutine14:
          CFI Block cfiCond235 Using cfiCommon0
          CFI Function MT_ZdoBeaconIndCB
          CFI Conditional ??CrossCallReturnLabel_26
          CFI R6 load(1, XDATA, add(CFA_XSP16, literal(-11)))
          CFI VB load(1, XDATA, add(CFA_XSP16, literal(-10)))
          CFI V0 load(1, XDATA, add(CFA_XSP16, literal(-9)))
          CFI V1 load(1, XDATA, add(CFA_XSP16, literal(-8)))
          CFI V2 load(1, XDATA, add(CFA_XSP16, literal(-7)))
          CFI R7 load(1, XDATA, add(CFA_XSP16, literal(-6)))
          CFI ?RET_LOW load(1, XDATA, add(CFA_XSP16, literal(-5)))
          CFI ?RET_HIGH load(1, XDATA, add(CFA_XSP16, literal(-4)))
          CFI ?BRET_EXT load(1, XDATA, add(CFA_XSP16, literal(-3)))
          CFI DPL0 load(1, XDATA, add(CFA_XSP16, literal(-2)))
          CFI DPH0 load(1, XDATA, add(CFA_XSP16, literal(-1)))
          CFI CFA_SP SP+-2
          CFI CFA_XSP16 add(XSP16, 11)
          CFI Block cfiCond236 Using cfiCommon0
          CFI (cfiCond236) Function MT_ZdoBeaconIndCB
          CFI (cfiCond236) Conditional ??CrossCallReturnLabel_27
          CFI (cfiCond236) R6 load(1, XDATA, add(CFA_XSP16, literal(-11)))
          CFI (cfiCond236) VB load(1, XDATA, add(CFA_XSP16, literal(-10)))
          CFI (cfiCond236) V0 load(1, XDATA, add(CFA_XSP16, literal(-9)))
          CFI (cfiCond236) V1 load(1, XDATA, add(CFA_XSP16, literal(-8)))
          CFI (cfiCond236) V2 load(1, XDATA, add(CFA_XSP16, literal(-7)))
          CFI (cfiCond236) R7 load(1, XDATA, add(CFA_XSP16, literal(-6)))
          CFI (cfiCond236) ?RET_LOW load(1, XDATA, add(CFA_XSP16, literal(-5)))
          CFI (cfiCond236) ?RET_HIGH load(1, XDATA, add(CFA_XSP16, literal(-4)))
          CFI (cfiCond236) ?BRET_EXT load(1, XDATA, add(CFA_XSP16, literal(-3)))
          CFI (cfiCond236) DPL0 load(1, XDATA, add(CFA_XSP16, literal(-2)))
          CFI (cfiCond236) DPH0 load(1, XDATA, add(CFA_XSP16, literal(-1)))
          CFI (cfiCond236) CFA_SP SP+-2
          CFI (cfiCond236) CFA_XSP16 add(XSP16, 11)
          CFI Block cfiPicker237 Using cfiCommon1
          CFI (cfiPicker237) NoFunction
          CFI (cfiPicker237) Picker
        INC       DPTR
        INC       DPTR
        INC       DPTR
        INC       DPTR
        INC       DPTR
        INC       DPTR
        INC       DPTR
        INC       DPTR
        LCALL     ?Subroutine47 & 0xFFFF
??CrossCallReturnLabel_95:
        INC       DPTR
        RET
          CFI EndBlock cfiCond235
          CFI EndBlock cfiCond236
          CFI EndBlock cfiPicker237

        RSEG BANKED_CODE:HUGECODE:NOROOT(0)
?Subroutine7:
          CFI Block cfiCond238 Using cfiCommon0
          CFI Function MT_ZdoBeaconIndCB
          CFI Conditional ??CrossCallReturnLabel_2
          CFI R6 load(1, XDATA, add(CFA_XSP16, literal(-11)))
          CFI VB load(1, XDATA, add(CFA_XSP16, literal(-10)))
          CFI V0 load(1, XDATA, add(CFA_XSP16, literal(-9)))
          CFI V1 load(1, XDATA, add(CFA_XSP16, literal(-8)))
          CFI V2 load(1, XDATA, add(CFA_XSP16, literal(-7)))
          CFI R7 load(1, XDATA, add(CFA_XSP16, literal(-6)))
          CFI ?RET_LOW load(1, XDATA, add(CFA_XSP16, literal(-5)))
          CFI ?RET_HIGH load(1, XDATA, add(CFA_XSP16, literal(-4)))
          CFI ?BRET_EXT load(1, XDATA, add(CFA_XSP16, literal(-3)))
          CFI DPL0 load(1, XDATA, add(CFA_XSP16, literal(-2)))
          CFI DPH0 load(1, XDATA, add(CFA_XSP16, literal(-1)))
          CFI CFA_SP SP+-2
          CFI CFA_XSP16 add(XSP16, 11)
          CFI Block cfiCond239 Using cfiCommon0
          CFI (cfiCond239) Function MT_ZdoBeaconIndCB
          CFI (cfiCond239) Conditional ??CrossCallReturnLabel_3
          CFI (cfiCond239) R6 load(1, XDATA, add(CFA_XSP16, literal(-11)))
          CFI (cfiCond239) VB load(1, XDATA, add(CFA_XSP16, literal(-10)))
          CFI (cfiCond239) V0 load(1, XDATA, add(CFA_XSP16, literal(-9)))
          CFI (cfiCond239) V1 load(1, XDATA, add(CFA_XSP16, literal(-8)))
          CFI (cfiCond239) V2 load(1, XDATA, add(CFA_XSP16, literal(-7)))
          CFI (cfiCond239) R7 load(1, XDATA, add(CFA_XSP16, literal(-6)))
          CFI (cfiCond239) ?RET_LOW load(1, XDATA, add(CFA_XSP16, literal(-5)))
          CFI (cfiCond239) ?RET_HIGH load(1, XDATA, add(CFA_XSP16, literal(-4)))
          CFI (cfiCond239) ?BRET_EXT load(1, XDATA, add(CFA_XSP16, literal(-3)))
          CFI (cfiCond239) DPL0 load(1, XDATA, add(CFA_XSP16, literal(-2)))
          CFI (cfiCond239) DPH0 load(1, XDATA, add(CFA_XSP16, literal(-1)))
          CFI (cfiCond239) CFA_SP SP+-2
          CFI (cfiCond239) CFA_XSP16 add(XSP16, 11)
          CFI Block cfiPicker240 Using cfiCommon1
          CFI (cfiPicker240) NoFunction
          CFI (cfiPicker240) Picker
        MOV       DPTR,#pBeaconIndBuf
        LCALL     ??Subroutine61_0 & 0xFFFF
??CrossCallReturnLabel_117:
        MOV       R5,A
        MOV       B,#0x15
        MOV       DPH,A
        MOV       DPL,R0
        MOVX      A,@DPTR
        MUL       AB
        INC       A
        MOV       R3,A
        MOV       R2,#-0x3b
        MOV       R1,#0x45
        LCALL     `??MT_BuildAndSendZToolResponse::?relay`; Banked call to: MT_BuildAndSendZToolResponse
        MOV       DPTR,#pBeaconIndBuf
        MOVX      A,@DPTR
        MOV       R0,A
        INC       DPTR
        MOVX      A,@DPTR
        RET
          CFI EndBlock cfiCond238
          CFI EndBlock cfiCond239
          CFI EndBlock cfiPicker240
// 1721 
// 1722 
// 1723 
// 1724 /***************************************************************************************************
// 1725  * @fn          MT_ZdoJoinCnfCB
// 1726  *
// 1727  * @brief       Handle the ZDO Join Confirm from ZDO
// 1728  *
// 1729  * @param       pStr - pointer to a parameter and a structure of parameters
// 1730  *
// 1731  * @return      void
// 1732  ***************************************************************************************************/

        RSEG BANKED_CODE:HUGECODE:NOROOT(0)
// 1733 void *MT_ZdoJoinCnfCB ( void *pStr )
MT_ZdoJoinCnfCB:
          CFI Block cfiBlock241 Using cfiCommon0
          CFI Function MT_ZdoJoinCnfCB
        CODE
// 1734 {
        FUNCALL MT_ZdoJoinCnfCB, ZDO_DeregisterForZdoCB
        LOCFRAME ISTACK, 0, STACK
        LOCFRAME PSTACK, 0, STACK
        LOCFRAME XSTACK, 14, STACK
        LOCFRAME IOVERLAY, 0, STATIC
        LOCFRAME DOVERLAY, 0, STATIC
        ARGFRAME ISTACK, 0, STACK
        ARGFRAME PSTACK, 0, STACK
        ARGFRAME XSTACK, 14, STACK
        ARGFRAME IOVERLAY, 0, STATIC
        ARGFRAME DOVERLAY, 0, STATIC
        FUNCALL MT_ZdoJoinCnfCB, MT_BuildAndSendZToolResponse
        LOCFRAME ISTACK, 0, STACK
        LOCFRAME PSTACK, 0, STACK
        LOCFRAME XSTACK, 14, STACK
        LOCFRAME IOVERLAY, 0, STATIC
        LOCFRAME DOVERLAY, 0, STATIC
        ARGFRAME ISTACK, 0, STACK
        ARGFRAME PSTACK, 0, STACK
        ARGFRAME XSTACK, 14, STACK
        ARGFRAME IOVERLAY, 0, STATIC
        ARGFRAME DOVERLAY, 0, STATIC
        MOV       A,#-0x9
        LCALL     ?BANKED_ENTER_XDATA
          CFI DPH0 load(1, XDATA, add(CFA_XSP16, literal(-1)))
          CFI DPL0 load(1, XDATA, add(CFA_XSP16, literal(-2)))
          CFI ?BRET_EXT load(1, XDATA, add(CFA_XSP16, literal(-3)))
          CFI ?RET_HIGH load(1, XDATA, add(CFA_XSP16, literal(-4)))
          CFI ?RET_LOW load(1, XDATA, add(CFA_XSP16, literal(-5)))
          CFI R7 load(1, XDATA, add(CFA_XSP16, literal(-6)))
          CFI V0 load(1, XDATA, add(CFA_XSP16, literal(-7)))
          CFI VB load(1, XDATA, add(CFA_XSP16, literal(-8)))
          CFI R6 load(1, XDATA, add(CFA_XSP16, literal(-9)))
          CFI CFA_SP SP+0
          CFI CFA_XSP16 add(XSP16, 9)
        ; Saved register size: 9
        ; Auto size: 5
        MOV       A,#-0x5
        LCALL     ?ALLOC_XSTACK8
          CFI CFA_XSP16 add(XSP16, 14)
        MOV       A,R2
        MOV       R6,A
        MOV       A,R3
        MOV       R7,A
// 1735   /* pStr: zdoJoinCnf_t* */
// 1736   /* Packet Format */
// 1737   /* Status (1) | device addr (2) | parent addr (2) */
// 1738 
// 1739   uint8 buf[MT_ZDO_JOIN_CNF_LEN];
// 1740   zdoJoinCnf_t *joinCnf = pStr;
// 1741 
// 1742   /* Join Complete. De-register the callback with ZDO */
// 1743   ZDO_DeregisterForZdoCB( ZDO_JOIN_CNF_CBID );
        ; Setup parameters for call to function ZDO_DeregisterForZdoCB
        MOV       R1,#0x4
        LCALL     `??ZDO_DeregisterForZdoCB::?relay`; Banked call to: ZDO_DeregisterForZdoCB
// 1744 
// 1745   buf[0] = joinCnf->status;
        MOV       DPL,R6
        MOV       DPH,R7
        MOVX      A,@DPTR
        MOV       DPL,?XSP + 0
        MOV       DPH,?XSP + 1
        LCALL     ?Subroutine37 & 0xFFFF
// 1746   buf[1] = LO_UINT16( joinCnf->deviceAddr );
??CrossCallReturnLabel_73:
        INC       DPTR
        MOV       R0,DPL
        MOV       R1,DPH
        MOVX      A,@DPTR
        PUSH      A
          CFI CFA_SP SP+-1
        MOV       A,#0x1
        LCALL     ?XSTACK_DISP0_8
        POP       A
          CFI CFA_SP SP+0
        LCALL     ?Subroutine36 & 0xFFFF
// 1747   buf[2] = HI_UINT16( joinCnf->deviceAddr );
??CrossCallReturnLabel_67:
        INC       DPTR
        MOVX      A,@DPTR
        PUSH      A
          CFI CFA_SP SP+-1
        MOV       A,#0x2
        LCALL     ?XSTACK_DISP0_8
        POP       A
          CFI CFA_SP SP+0
        MOVX      @DPTR,A
// 1748   buf[3] = LO_UINT16( joinCnf->parentAddr );
        MOV       A,R6
        ADD       A,#0x3
        MOV       R0,A
        CLR       A
        ADDC      A,R7
        MOV       R1,A
        MOV       DPL,R0
        MOV       DPH,A
        MOVX      A,@DPTR
        PUSH      A
          CFI CFA_SP SP+-1
        MOV       A,#0x3
        LCALL     ?XSTACK_DISP0_8
        POP       A
          CFI CFA_SP SP+0
        LCALL     ?Subroutine36 & 0xFFFF
// 1749   buf[4] = HI_UINT16( joinCnf->parentAddr );
??CrossCallReturnLabel_68:
        INC       DPTR
        MOVX      A,@DPTR
        PUSH      A
          CFI CFA_SP SP+-1
        MOV       A,#0x4
        LCALL     ?XSTACK_DISP0_8
        POP       A
          CFI CFA_SP SP+0
        MOVX      @DPTR,A
// 1750 
// 1751   MT_BuildAndSendZToolResponse(((uint8)MT_RPC_CMD_AREQ | (uint8)MT_RPC_SYS_ZDO),
// 1752                                MT_ZDO_JOIN_CNF, MT_ZDO_JOIN_CNF_LEN, buf);
        ; Setup parameters for call to function MT_BuildAndSendZToolResponse
        MOV       R4,?XSP + 0
        MOV       R5,?XSP + 1
        MOV       R3,#0x5
        MOV       R2,#-0x3a
        MOV       R1,#0x45
        LCALL     `??MT_BuildAndSendZToolResponse::?relay`; Banked call to: MT_BuildAndSendZToolResponse
// 1753 
// 1754   return NULL;
        MOV       R2,#0x0
        MOV       R3,#0x0
        MOV       A,#0x5
        LJMP      ??Subroutine66_0 & 0xFFFF
// 1755 }
          CFI EndBlock cfiBlock241

        RSEG BANKED_CODE:HUGECODE:NOROOT(0)
?Subroutine36:
          CFI Block cfiCond242 Using cfiCommon0
          CFI Function MT_ZdoMatchDescRequest
          CFI Conditional ??CrossCallReturnLabel_66
          CFI R6 load(1, XDATA, add(CFA_XSP16, literal(-14)))
          CFI VB load(1, XDATA, add(CFA_XSP16, literal(-13)))
          CFI V0 load(1, XDATA, add(CFA_XSP16, literal(-12)))
          CFI V1 load(1, XDATA, add(CFA_XSP16, literal(-11)))
          CFI V2 load(1, XDATA, add(CFA_XSP16, literal(-10)))
          CFI V3 load(1, XDATA, add(CFA_XSP16, literal(-9)))
          CFI V4 load(1, XDATA, add(CFA_XSP16, literal(-8)))
          CFI V5 load(1, XDATA, add(CFA_XSP16, literal(-7)))
          CFI R7 load(1, XDATA, add(CFA_XSP16, literal(-6)))
          CFI ?RET_LOW load(1, XDATA, add(CFA_XSP16, literal(-5)))
          CFI ?RET_HIGH load(1, XDATA, add(CFA_XSP16, literal(-4)))
          CFI ?BRET_EXT load(1, XDATA, add(CFA_XSP16, literal(-3)))
          CFI DPL0 load(1, XDATA, add(CFA_XSP16, literal(-2)))
          CFI DPH0 load(1, XDATA, add(CFA_XSP16, literal(-1)))
          CFI CFA_SP SP+-2
          CFI CFA_XSP16 add(XSP16, 88)
          CFI Block cfiCond243 Using cfiCommon0
          CFI (cfiCond243) Function MT_ZdoJoinCnfCB
          CFI (cfiCond243) Conditional ??CrossCallReturnLabel_67
          CFI (cfiCond243) R6 load(1, XDATA, add(CFA_XSP16, literal(-9)))
          CFI (cfiCond243) VB load(1, XDATA, add(CFA_XSP16, literal(-8)))
          CFI (cfiCond243) V0 load(1, XDATA, add(CFA_XSP16, literal(-7)))
          CFI (cfiCond243) R7 load(1, XDATA, add(CFA_XSP16, literal(-6)))
          CFI (cfiCond243) ?RET_LOW load(1, XDATA, add(CFA_XSP16, literal(-5)))
          CFI (cfiCond243) ?RET_HIGH load(1, XDATA, add(CFA_XSP16, literal(-4)))
          CFI (cfiCond243) ?BRET_EXT load(1, XDATA, add(CFA_XSP16, literal(-3)))
          CFI (cfiCond243) DPL0 load(1, XDATA, add(CFA_XSP16, literal(-2)))
          CFI (cfiCond243) DPH0 load(1, XDATA, add(CFA_XSP16, literal(-1)))
          CFI (cfiCond243) CFA_SP SP+-2
          CFI (cfiCond243) CFA_XSP16 add(XSP16, 14)
          CFI Block cfiCond244 Using cfiCommon0
          CFI (cfiCond244) Function MT_ZdoJoinCnfCB
          CFI (cfiCond244) Conditional ??CrossCallReturnLabel_68
          CFI (cfiCond244) R6 load(1, XDATA, add(CFA_XSP16, literal(-9)))
          CFI (cfiCond244) VB load(1, XDATA, add(CFA_XSP16, literal(-8)))
          CFI (cfiCond244) V0 load(1, XDATA, add(CFA_XSP16, literal(-7)))
          CFI (cfiCond244) R7 load(1, XDATA, add(CFA_XSP16, literal(-6)))
          CFI (cfiCond244) ?RET_LOW load(1, XDATA, add(CFA_XSP16, literal(-5)))
          CFI (cfiCond244) ?RET_HIGH load(1, XDATA, add(CFA_XSP16, literal(-4)))
          CFI (cfiCond244) ?BRET_EXT load(1, XDATA, add(CFA_XSP16, literal(-3)))
          CFI (cfiCond244) DPL0 load(1, XDATA, add(CFA_XSP16, literal(-2)))
          CFI (cfiCond244) DPH0 load(1, XDATA, add(CFA_XSP16, literal(-1)))
          CFI (cfiCond244) CFA_SP SP+-2
          CFI (cfiCond244) CFA_XSP16 add(XSP16, 14)
          CFI Block cfiCond245 Using cfiCommon0
          CFI (cfiCond245) Function MT_ZdoSendMsgCB
          CFI (cfiCond245) Conditional ??CrossCallReturnLabel_69
          CFI (cfiCond245) R6 load(1, XDATA, add(CFA_XSP16, literal(-14)))
          CFI (cfiCond245) VB load(1, XDATA, add(CFA_XSP16, literal(-13)))
          CFI (cfiCond245) V0 load(1, XDATA, add(CFA_XSP16, literal(-12)))
          CFI (cfiCond245) V1 load(1, XDATA, add(CFA_XSP16, literal(-11)))
          CFI (cfiCond245) V2 load(1, XDATA, add(CFA_XSP16, literal(-10)))
          CFI (cfiCond245) V3 load(1, XDATA, add(CFA_XSP16, literal(-9)))
          CFI (cfiCond245) V4 load(1, XDATA, add(CFA_XSP16, literal(-8)))
          CFI (cfiCond245) V5 load(1, XDATA, add(CFA_XSP16, literal(-7)))
          CFI (cfiCond245) R7 load(1, XDATA, add(CFA_XSP16, literal(-6)))
          CFI (cfiCond245) ?RET_LOW load(1, XDATA, add(CFA_XSP16, literal(-5)))
          CFI (cfiCond245) ?RET_HIGH load(1, XDATA, add(CFA_XSP16, literal(-4)))
          CFI (cfiCond245) ?BRET_EXT load(1, XDATA, add(CFA_XSP16, literal(-3)))
          CFI (cfiCond245) DPL0 load(1, XDATA, add(CFA_XSP16, literal(-2)))
          CFI (cfiCond245) DPH0 load(1, XDATA, add(CFA_XSP16, literal(-1)))
          CFI (cfiCond245) CFA_SP SP+-2
          CFI (cfiCond245) CFA_XSP16 add(XSP16, 14)
          CFI Block cfiPicker246 Using cfiCommon1
          CFI (cfiPicker246) NoFunction
          CFI (cfiPicker246) Picker
        MOVX      @DPTR,A
        MOV       DPL,R0
        MOV       DPH,R1
        RET
          CFI EndBlock cfiCond242
          CFI EndBlock cfiCond243
          CFI EndBlock cfiCond244
          CFI EndBlock cfiCond245
          CFI EndBlock cfiPicker246
// 1756 
// 1757 /*************************************************************************************************
// 1758  * @fn      MT_ZdoRegisterForZDOMsg(pBuf);
// 1759  *
// 1760  * @brief   MT proxy for ZDO_RegisterForZDOMsg.
// 1761  *
// 1762  * @param   pBuf  - MT message data
// 1763  *
// 1764  * @return  void
// 1765  *************************************************************************************************/

        RSEG BANKED_CODE:HUGECODE:NOROOT(0)
// 1766 void MT_ZdoRegisterForZDOMsg(uint8 *pBuf)
MT_ZdoRegisterForZDOMsg:
          CFI Block cfiBlock247 Using cfiCommon0
          CFI Function MT_ZdoRegisterForZDOMsg
        CODE
// 1767 {
        FUNCALL MT_ZdoRegisterForZDOMsg, ZDO_RegisterForZDOMsg
        LOCFRAME ISTACK, 0, STACK
        LOCFRAME PSTACK, 0, STACK
        LOCFRAME XSTACK, 10, STACK
        LOCFRAME IOVERLAY, 0, STATIC
        LOCFRAME DOVERLAY, 0, STATIC
        ARGFRAME ISTACK, 0, STACK
        ARGFRAME PSTACK, 0, STACK
        ARGFRAME XSTACK, 10, STACK
        ARGFRAME IOVERLAY, 0, STATIC
        ARGFRAME DOVERLAY, 0, STATIC
        FUNCALL MT_ZdoRegisterForZDOMsg, MT_BuildAndSendZToolResponse
        LOCFRAME ISTACK, 0, STACK
        LOCFRAME PSTACK, 0, STACK
        LOCFRAME XSTACK, 10, STACK
        LOCFRAME IOVERLAY, 0, STATIC
        LOCFRAME DOVERLAY, 0, STATIC
        ARGFRAME ISTACK, 0, STACK
        ARGFRAME PSTACK, 0, STACK
        ARGFRAME XSTACK, 10, STACK
        ARGFRAME IOVERLAY, 0, STATIC
        ARGFRAME DOVERLAY, 0, STATIC
        MOV       A,#-0x9
        LCALL     ?BANKED_ENTER_XDATA
          CFI DPH0 load(1, XDATA, add(CFA_XSP16, literal(-1)))
          CFI DPL0 load(1, XDATA, add(CFA_XSP16, literal(-2)))
          CFI ?BRET_EXT load(1, XDATA, add(CFA_XSP16, literal(-3)))
          CFI ?RET_HIGH load(1, XDATA, add(CFA_XSP16, literal(-4)))
          CFI ?RET_LOW load(1, XDATA, add(CFA_XSP16, literal(-5)))
          CFI R7 load(1, XDATA, add(CFA_XSP16, literal(-6)))
          CFI V0 load(1, XDATA, add(CFA_XSP16, literal(-7)))
          CFI VB load(1, XDATA, add(CFA_XSP16, literal(-8)))
          CFI R6 load(1, XDATA, add(CFA_XSP16, literal(-9)))
          CFI CFA_SP SP+0
          CFI CFA_XSP16 add(XSP16, 9)
        ; Saved register size: 9
        ; Auto size: 1
        MOV       A,#-0x1
        LCALL     ?ALLOC_XSTACK8
          CFI CFA_XSP16 add(XSP16, 10)
// 1768   uint8 cmd0, cmd1, tmp;
// 1769   uint16 cId;
// 1770 
// 1771   /* parse header */
// 1772   cmd0 = pBuf[MT_RPC_POS_CMD0];
        LCALL     ?Subroutine15 & 0xFFFF
// 1773   cmd1 = pBuf[MT_RPC_POS_CMD1];
// 1774   pBuf += MT_RPC_FRAME_HDR_SZ;
??CrossCallReturnLabel_122:
        JNC       ??MT_ZdoRegisterForZDOMsg_0
        INC       R3
// 1775 
// 1776   cId = BUILD_UINT16(pBuf[0], pBuf[1]);
// 1777   tmp = ZDO_RegisterForZDOMsg(MT_TaskID, cId);
??MT_ZdoRegisterForZDOMsg_0:
        ; Setup parameters for call to function ZDO_RegisterForZDOMsg
        LCALL     ?Subroutine11 & 0xFFFF
??CrossCallReturnLabel_20:
        LCALL     `??ZDO_RegisterForZDOMsg::?relay`; Banked call to: ZDO_RegisterForZDOMsg
        LCALL     ?Subroutine38 & 0xFFFF
// 1778 
// 1779   if (MT_RPC_CMD_SREQ == (cmd0 & MT_RPC_CMD_TYPE_MASK))
??CrossCallReturnLabel_75:
        JNZ       ??MT_ZdoRegisterForZDOMsg_1
// 1780   {
// 1781     MT_BuildAndSendZToolResponse(((uint8)MT_RPC_CMD_SRSP|(uint8)MT_RPC_SYS_ZDO), cmd1, 1, &tmp);
        ; Setup parameters for call to function MT_BuildAndSendZToolResponse
        MOV       R4,?XSP + 0
        MOV       R5,?XSP + 1
        MOV       R3,#0x1
        MOV       A,R6
        MOV       R2,A
        MOV       R1,#0x65
        LCALL     `??MT_BuildAndSendZToolResponse::?relay`; Banked call to: MT_BuildAndSendZToolResponse
// 1782   }
// 1783 }
??MT_ZdoRegisterForZDOMsg_1:
        LJMP      ??Subroutine70_0 & 0xFFFF
          CFI EndBlock cfiBlock247

        RSEG BANKED_CODE:HUGECODE:NOROOT(0)
?Subroutine38:
          CFI Block cfiCond248 Using cfiCommon0
          CFI Function MT_ZdoStartupFromApp
          CFI Conditional ??CrossCallReturnLabel_74
          CFI R6 load(1, XDATA, add(CFA_XSP16, literal(-9)))
          CFI VB load(1, XDATA, add(CFA_XSP16, literal(-8)))
          CFI V0 load(1, XDATA, add(CFA_XSP16, literal(-7)))
          CFI R7 load(1, XDATA, add(CFA_XSP16, literal(-6)))
          CFI ?RET_LOW load(1, XDATA, add(CFA_XSP16, literal(-5)))
          CFI ?RET_HIGH load(1, XDATA, add(CFA_XSP16, literal(-4)))
          CFI ?BRET_EXT load(1, XDATA, add(CFA_XSP16, literal(-3)))
          CFI DPL0 load(1, XDATA, add(CFA_XSP16, literal(-2)))
          CFI DPH0 load(1, XDATA, add(CFA_XSP16, literal(-1)))
          CFI CFA_SP SP+-2
          CFI CFA_XSP16 add(XSP16, 10)
          CFI Block cfiCond249 Using cfiCommon0
          CFI (cfiCond249) Function MT_ZdoRegisterForZDOMsg
          CFI (cfiCond249) Conditional ??CrossCallReturnLabel_75
          CFI (cfiCond249) R6 load(1, XDATA, add(CFA_XSP16, literal(-9)))
          CFI (cfiCond249) VB load(1, XDATA, add(CFA_XSP16, literal(-8)))
          CFI (cfiCond249) V0 load(1, XDATA, add(CFA_XSP16, literal(-7)))
          CFI (cfiCond249) R7 load(1, XDATA, add(CFA_XSP16, literal(-6)))
          CFI (cfiCond249) ?RET_LOW load(1, XDATA, add(CFA_XSP16, literal(-5)))
          CFI (cfiCond249) ?RET_HIGH load(1, XDATA, add(CFA_XSP16, literal(-4)))
          CFI (cfiCond249) ?BRET_EXT load(1, XDATA, add(CFA_XSP16, literal(-3)))
          CFI (cfiCond249) DPL0 load(1, XDATA, add(CFA_XSP16, literal(-2)))
          CFI (cfiCond249) DPH0 load(1, XDATA, add(CFA_XSP16, literal(-1)))
          CFI (cfiCond249) CFA_SP SP+-2
          CFI (cfiCond249) CFA_XSP16 add(XSP16, 10)
          CFI Block cfiCond250 Using cfiCommon0
          CFI (cfiCond250) Function MT_ZdoRemoveRegisteredCB
          CFI (cfiCond250) Conditional ??CrossCallReturnLabel_76
          CFI (cfiCond250) R6 load(1, XDATA, add(CFA_XSP16, literal(-9)))
          CFI (cfiCond250) VB load(1, XDATA, add(CFA_XSP16, literal(-8)))
          CFI (cfiCond250) V0 load(1, XDATA, add(CFA_XSP16, literal(-7)))
          CFI (cfiCond250) R7 load(1, XDATA, add(CFA_XSP16, literal(-6)))
          CFI (cfiCond250) ?RET_LOW load(1, XDATA, add(CFA_XSP16, literal(-5)))
          CFI (cfiCond250) ?RET_HIGH load(1, XDATA, add(CFA_XSP16, literal(-4)))
          CFI (cfiCond250) ?BRET_EXT load(1, XDATA, add(CFA_XSP16, literal(-3)))
          CFI (cfiCond250) DPL0 load(1, XDATA, add(CFA_XSP16, literal(-2)))
          CFI (cfiCond250) DPH0 load(1, XDATA, add(CFA_XSP16, literal(-1)))
          CFI (cfiCond250) CFA_SP SP+-2
          CFI (cfiCond250) CFA_XSP16 add(XSP16, 10)
          CFI Block cfiPicker251 Using cfiCommon1
          CFI (cfiPicker251) NoFunction
          CFI (cfiPicker251) Picker
        MOV       A,R1
        MOV       DPL,?XSP + 0
        MOV       DPH,?XSP + 1
        MOVX      @DPTR,A
        MOV       A,#-0x20
        ANL       A,R7
        XRL       A,#0x20
        RET
          CFI EndBlock cfiCond248
          CFI EndBlock cfiCond249
          CFI EndBlock cfiCond250
          CFI EndBlock cfiPicker251
// 1784 
// 1785 /*************************************************************************************************
// 1786  * @fn      MT_ZdoRemoveRegisteredCB(pBuf);
// 1787  *
// 1788  * @brief   MT proxy for ZDO_RemoveRegisteredCB.
// 1789  *
// 1790  * @param   pBuf  - MT message data
// 1791  *
// 1792  * @return  void
// 1793  *************************************************************************************************/

        RSEG BANKED_CODE:HUGECODE:NOROOT(0)
// 1794 void MT_ZdoRemoveRegisteredCB(uint8 *pBuf)
MT_ZdoRemoveRegisteredCB:
          CFI Block cfiBlock252 Using cfiCommon0
          CFI Function MT_ZdoRemoveRegisteredCB
        CODE
// 1795 {
        FUNCALL MT_ZdoRemoveRegisteredCB, ZDO_RemoveRegisteredCB
        LOCFRAME ISTACK, 0, STACK
        LOCFRAME PSTACK, 0, STACK
        LOCFRAME XSTACK, 10, STACK
        LOCFRAME IOVERLAY, 0, STATIC
        LOCFRAME DOVERLAY, 0, STATIC
        ARGFRAME ISTACK, 0, STACK
        ARGFRAME PSTACK, 0, STACK
        ARGFRAME XSTACK, 10, STACK
        ARGFRAME IOVERLAY, 0, STATIC
        ARGFRAME DOVERLAY, 0, STATIC
        FUNCALL MT_ZdoRemoveRegisteredCB, MT_BuildAndSendZToolResponse
        LOCFRAME ISTACK, 0, STACK
        LOCFRAME PSTACK, 0, STACK
        LOCFRAME XSTACK, 10, STACK
        LOCFRAME IOVERLAY, 0, STATIC
        LOCFRAME DOVERLAY, 0, STATIC
        ARGFRAME ISTACK, 0, STACK
        ARGFRAME PSTACK, 0, STACK
        ARGFRAME XSTACK, 10, STACK
        ARGFRAME IOVERLAY, 0, STATIC
        ARGFRAME DOVERLAY, 0, STATIC
        MOV       A,#-0x9
        LCALL     ?BANKED_ENTER_XDATA
          CFI DPH0 load(1, XDATA, add(CFA_XSP16, literal(-1)))
          CFI DPL0 load(1, XDATA, add(CFA_XSP16, literal(-2)))
          CFI ?BRET_EXT load(1, XDATA, add(CFA_XSP16, literal(-3)))
          CFI ?RET_HIGH load(1, XDATA, add(CFA_XSP16, literal(-4)))
          CFI ?RET_LOW load(1, XDATA, add(CFA_XSP16, literal(-5)))
          CFI R7 load(1, XDATA, add(CFA_XSP16, literal(-6)))
          CFI V0 load(1, XDATA, add(CFA_XSP16, literal(-7)))
          CFI VB load(1, XDATA, add(CFA_XSP16, literal(-8)))
          CFI R6 load(1, XDATA, add(CFA_XSP16, literal(-9)))
          CFI CFA_SP SP+0
          CFI CFA_XSP16 add(XSP16, 9)
        ; Saved register size: 9
        ; Auto size: 1
        MOV       A,#-0x1
        LCALL     ?ALLOC_XSTACK8
          CFI CFA_XSP16 add(XSP16, 10)
// 1796   uint8 cmd0, cmd1, tmp;
// 1797   uint16 cId;
// 1798 
// 1799   /* parse header */
// 1800   cmd0 = pBuf[MT_RPC_POS_CMD0];
        LCALL     ?Subroutine15 & 0xFFFF
// 1801   cmd1 = pBuf[MT_RPC_POS_CMD1];
// 1802   pBuf += MT_RPC_FRAME_HDR_SZ;
??CrossCallReturnLabel_123:
        JNC       ??MT_ZdoRemoveRegisteredCB_0
        INC       R3
// 1803 
// 1804   cId = BUILD_UINT16(pBuf[0], pBuf[1]);
// 1805   tmp = ZDO_RemoveRegisteredCB(MT_TaskID, cId);
??MT_ZdoRemoveRegisteredCB_0:
        ; Setup parameters for call to function ZDO_RemoveRegisteredCB
        LCALL     ?Subroutine11 & 0xFFFF
??CrossCallReturnLabel_21:
        LCALL     `??ZDO_RemoveRegisteredCB::?relay`; Banked call to: ZDO_RemoveRegisteredCB
        LCALL     ?Subroutine38 & 0xFFFF
// 1806 
// 1807   if (MT_RPC_CMD_SREQ == (cmd0 & MT_RPC_CMD_TYPE_MASK))
??CrossCallReturnLabel_76:
        JNZ       ??MT_ZdoRemoveRegisteredCB_1
// 1808   {
// 1809     MT_BuildAndSendZToolResponse(((uint8)MT_RPC_CMD_SRSP|(uint8)MT_RPC_SYS_ZDO), cmd1, 1, &tmp);
        ; Setup parameters for call to function MT_BuildAndSendZToolResponse
        MOV       R4,?XSP + 0
        MOV       R5,?XSP + 1
        MOV       R3,#0x1
        MOV       A,R6
        MOV       R2,A
        MOV       R1,#0x65
        LCALL     `??MT_BuildAndSendZToolResponse::?relay`; Banked call to: MT_BuildAndSendZToolResponse
// 1810   }
// 1811 }
??MT_ZdoRemoveRegisteredCB_1:
        LJMP      ??Subroutine70_0 & 0xFFFF
          CFI EndBlock cfiBlock252

        RSEG BANKED_CODE:HUGECODE:NOROOT(0)
?Subroutine11:
          CFI Block cfiCond253 Using cfiCommon0
          CFI Function MT_ZdoRegisterForZDOMsg
          CFI Conditional ??CrossCallReturnLabel_20
          CFI R6 load(1, XDATA, add(CFA_XSP16, literal(-9)))
          CFI VB load(1, XDATA, add(CFA_XSP16, literal(-8)))
          CFI V0 load(1, XDATA, add(CFA_XSP16, literal(-7)))
          CFI R7 load(1, XDATA, add(CFA_XSP16, literal(-6)))
          CFI ?RET_LOW load(1, XDATA, add(CFA_XSP16, literal(-5)))
          CFI ?RET_HIGH load(1, XDATA, add(CFA_XSP16, literal(-4)))
          CFI ?BRET_EXT load(1, XDATA, add(CFA_XSP16, literal(-3)))
          CFI DPL0 load(1, XDATA, add(CFA_XSP16, literal(-2)))
          CFI DPH0 load(1, XDATA, add(CFA_XSP16, literal(-1)))
          CFI CFA_SP SP+-2
          CFI CFA_XSP16 add(XSP16, 10)
          CFI Block cfiCond254 Using cfiCommon0
          CFI (cfiCond254) Function MT_ZdoRemoveRegisteredCB
          CFI (cfiCond254) Conditional ??CrossCallReturnLabel_21
          CFI (cfiCond254) R6 load(1, XDATA, add(CFA_XSP16, literal(-9)))
          CFI (cfiCond254) VB load(1, XDATA, add(CFA_XSP16, literal(-8)))
          CFI (cfiCond254) V0 load(1, XDATA, add(CFA_XSP16, literal(-7)))
          CFI (cfiCond254) R7 load(1, XDATA, add(CFA_XSP16, literal(-6)))
          CFI (cfiCond254) ?RET_LOW load(1, XDATA, add(CFA_XSP16, literal(-5)))
          CFI (cfiCond254) ?RET_HIGH load(1, XDATA, add(CFA_XSP16, literal(-4)))
          CFI (cfiCond254) ?BRET_EXT load(1, XDATA, add(CFA_XSP16, literal(-3)))
          CFI (cfiCond254) DPL0 load(1, XDATA, add(CFA_XSP16, literal(-2)))
          CFI (cfiCond254) DPH0 load(1, XDATA, add(CFA_XSP16, literal(-1)))
          CFI (cfiCond254) CFA_SP SP+-2
          CFI (cfiCond254) CFA_XSP16 add(XSP16, 10)
          CFI Block cfiPicker255 Using cfiCommon1
          CFI (cfiPicker255) NoFunction
          CFI (cfiPicker255) Picker
        LCALL     ?Subroutine51 & 0xFFFF
??CrossCallReturnLabel_101:
        MOV       R2,A
        CLR       A
        ADDC      A,R1
        MOV       R3,A
        MOV       DPTR,#MT_TaskID
        MOVX      A,@DPTR
        MOV       R1,A
        RET
          CFI EndBlock cfiCond253
          CFI EndBlock cfiCond254
          CFI EndBlock cfiPicker255

        RSEG BANKED_CODE:HUGECODE:NOROOT(0)
?Subroutine51:
          CFI Block cfiCond256 Using cfiCommon0
          CFI Function MT_ZdoUserDescSet
          CFI Conditional ??CrossCallReturnLabel_100
          CFI R6 load(1, XDATA, add(CFA_XSP16, literal(-12)))
          CFI VB load(1, XDATA, add(CFA_XSP16, literal(-11)))
          CFI V0 load(1, XDATA, add(CFA_XSP16, literal(-10)))
          CFI V1 load(1, XDATA, add(CFA_XSP16, literal(-9)))
          CFI V2 load(1, XDATA, add(CFA_XSP16, literal(-8)))
          CFI V3 load(1, XDATA, add(CFA_XSP16, literal(-7)))
          CFI R7 load(1, XDATA, add(CFA_XSP16, literal(-6)))
          CFI ?RET_LOW load(1, XDATA, add(CFA_XSP16, literal(-5)))
          CFI ?RET_HIGH load(1, XDATA, add(CFA_XSP16, literal(-4)))
          CFI ?BRET_EXT load(1, XDATA, add(CFA_XSP16, literal(-3)))
          CFI DPL0 load(1, XDATA, add(CFA_XSP16, literal(-2)))
          CFI DPH0 load(1, XDATA, add(CFA_XSP16, literal(-1)))
          CFI CFA_SP SP+-2
          CFI CFA_XSP16 add(XSP16, 39)
          CFI Block cfiCond257 Using cfiCommon0
          CFI (cfiCond257) Function MT_ZdoRegisterForZDOMsg
          CFI (cfiCond257) Conditional ??CrossCallReturnLabel_101, ??CrossCallReturnLabel_20
          CFI (cfiCond257) R6 load(1, XDATA, add(CFA_XSP16, literal(-9)))
          CFI (cfiCond257) VB load(1, XDATA, add(CFA_XSP16, literal(-8)))
          CFI (cfiCond257) V0 load(1, XDATA, add(CFA_XSP16, literal(-7)))
          CFI (cfiCond257) R7 load(1, XDATA, add(CFA_XSP16, literal(-6)))
          CFI (cfiCond257) ?RET_LOW load(1, XDATA, add(CFA_XSP16, literal(-5)))
          CFI (cfiCond257) ?RET_HIGH load(1, XDATA, add(CFA_XSP16, literal(-4)))
          CFI (cfiCond257) ?BRET_EXT load(1, XDATA, add(CFA_XSP16, literal(-3)))
          CFI (cfiCond257) DPL0 load(1, XDATA, add(CFA_XSP16, literal(-2)))
          CFI (cfiCond257) DPH0 load(1, XDATA, add(CFA_XSP16, literal(-1)))
          CFI (cfiCond257) CFA_SP SP+-4
          CFI (cfiCond257) CFA_XSP16 add(XSP16, 10)
          CFI Block cfiCond258 Using cfiCommon0
          CFI (cfiCond258) Function MT_ZdoRemoveRegisteredCB
          CFI (cfiCond258) Conditional ??CrossCallReturnLabel_101, ??CrossCallReturnLabel_21
          CFI (cfiCond258) R6 load(1, XDATA, add(CFA_XSP16, literal(-9)))
          CFI (cfiCond258) VB load(1, XDATA, add(CFA_XSP16, literal(-8)))
          CFI (cfiCond258) V0 load(1, XDATA, add(CFA_XSP16, literal(-7)))
          CFI (cfiCond258) R7 load(1, XDATA, add(CFA_XSP16, literal(-6)))
          CFI (cfiCond258) ?RET_LOW load(1, XDATA, add(CFA_XSP16, literal(-5)))
          CFI (cfiCond258) ?RET_HIGH load(1, XDATA, add(CFA_XSP16, literal(-4)))
          CFI (cfiCond258) ?BRET_EXT load(1, XDATA, add(CFA_XSP16, literal(-3)))
          CFI (cfiCond258) DPL0 load(1, XDATA, add(CFA_XSP16, literal(-2)))
          CFI (cfiCond258) DPH0 load(1, XDATA, add(CFA_XSP16, literal(-1)))
          CFI (cfiCond258) CFA_SP SP+-4
          CFI (cfiCond258) CFA_XSP16 add(XSP16, 10)
          CFI Block cfiPicker259 Using cfiCommon1
          CFI (cfiPicker259) NoFunction
          CFI (cfiPicker259) Picker
        LCALL     ?Subroutine57 & 0xFFFF
??CrossCallReturnLabel_121:
        MOV       R0,A
        CLR       A
        XCH       A,R0
        MOV       R1,A
        MOV       A,R4
        ADD       A,R0
        RET
          CFI EndBlock cfiCond256
          CFI EndBlock cfiCond257
          CFI EndBlock cfiCond258
          CFI EndBlock cfiPicker259
// 1812 
// 1813 #endif /* MT_ZDO_FUNC */
// 1814 
// 1815 
// 1816 /***************************************************************************************************
// 1817  * Callback handling function
// 1818  ***************************************************************************************************/
// 1819 
// 1820 #if defined (MT_ZDO_CB_FUNC)
// 1821 
// 1822 /***************************************************************************************************
// 1823  * @fn      MT_ZdoStateChangeCB
// 1824  *
// 1825  * @brief   Handle state change OSAL message from ZDO.
// 1826  *
// 1827  * @param   pMsg  - Message data
// 1828  *
// 1829  * @return  void
// 1830  */
// 1831 void MT_ZdoStateChangeCB(osal_event_hdr_t *pMsg)
// 1832 {
// 1833   MT_BuildAndSendZToolResponse(((uint8)MT_RPC_CMD_AREQ | (uint8)MT_RPC_SYS_ZDO),
// 1834                                        MT_ZDO_STATE_CHANGE_IND, 1, &pMsg->status);
// 1835 }
// 1836 
// 1837 /***************************************************************************************************
// 1838  * @fn     MT_ZdoDirectCB()
// 1839  *
// 1840  * @brief  ZDO direct callback.  Build an MT message directly from the
// 1841  *         over-the-air ZDO message.
// 1842  *
// 1843  * @param  pData - Incoming AF frame.
// 1844  *
// 1845  * @return  none
// 1846  ***************************************************************************************************/
// 1847 void MT_ZdoDirectCB( afIncomingMSGPacket_t *pData,  zdoIncomingMsg_t *inMsg )
// 1848 {
// 1849   uint8 len, *pBuf;
// 1850   uint16 origClusterId;
// 1851 
// 1852   // save original value because MT_ZdoHandleExceptions() function could modify pData->clusterId
// 1853   origClusterId = pData->clusterId;
// 1854 
// 1855   // Is the message an exception or not a response?
// 1856   if ( MT_ZdoHandleExceptions( pData, inMsg ) || ( (origClusterId & ZDO_RESPONSE_BIT) == 0 ) )
// 1857   {
// 1858     return;  // Handled somewhere else or not needed.
// 1859   }
// 1860 
// 1861   /* ZDO data starts after one-byte sequence number and the msg buffer length includes
// 1862    * two bytes for srcAddr.
// 1863    */
// 1864   len = pData->cmd.DataLength - 1 + sizeof(uint16);
// 1865 
// 1866   if (NULL != (pBuf = (uint8 *)osal_mem_alloc(len)))
// 1867   {
// 1868     uint8 id = MT_ZDO_CID_TO_AREQ_ID(pData->clusterId);
// 1869 
// 1870     pBuf[0] = LO_UINT16(pData->srcAddr.addr.shortAddr);
// 1871     pBuf[1] = HI_UINT16(pData->srcAddr.addr.shortAddr);
// 1872 
// 1873     /* copy ZDO data, skipping one-byte sequence number */
// 1874     osal_memcpy(pBuf+2, (pData->cmd.Data + 1), pData->cmd.DataLength-1);
// 1875 
// 1876     MT_BuildAndSendZToolResponse(((uint8)MT_RPC_CMD_AREQ | (uint8)MT_RPC_SYS_ZDO), id, len, pBuf);
// 1877     osal_mem_free(pBuf);
// 1878   }
// 1879 }
// 1880 
// 1881 /***************************************************************************************************
// 1882  * @fn     MT_ZdoHandleExceptions()
// 1883  *
// 1884  * @brief  Handles all messages that are an exception to the generic MT ZDO Response.
// 1885  *
// 1886  * @param  pData - Incoming AF frame.
// 1887  *
// 1888  * @return  TRUE if handled by this function, FALSE if not
// 1889  ***************************************************************************************************/
// 1890 uint8 MT_ZdoHandleExceptions( afIncomingMSGPacket_t *pData, zdoIncomingMsg_t *inMsg )
// 1891 {
// 1892   uint8 ret = TRUE;
// 1893   ZDO_NwkIEEEAddrResp_t *nwkRsp = NULL;
// 1894   ZDO_DeviceAnnce_t devAnnce;
// 1895   uint8 doDefault = FALSE;
// 1896 
// 1897   switch ( inMsg->clusterID )
// 1898   {
// 1899     case NWK_addr_rsp:
// 1900     case IEEE_addr_rsp:
// 1901       nwkRsp = ZDO_ParseAddrRsp( inMsg );
// 1902       MT_ZdoAddrRspCB( nwkRsp, inMsg->clusterID );
// 1903       if ( nwkRsp )
// 1904       {
// 1905         osal_mem_free( nwkRsp );
// 1906       }
// 1907       break;
// 1908 
// 1909     case Device_annce:
// 1910       ZDO_ParseDeviceAnnce( inMsg, &devAnnce );
// 1911       MT_ZdoEndDevAnnceCB( &devAnnce, inMsg->srcAddr.addr.shortAddr );
// 1912       break;
// 1913 
// 1914     case Simple_Desc_rsp:
// 1915       if ( pData->cmd.DataLength > 5 )
// 1916       {
// 1917         ret = FALSE;
// 1918       }
// 1919       else
// 1920       {
// 1921         doDefault = TRUE;
// 1922       }
// 1923       break;
// 1924 
// 1925     default:
// 1926       ret = FALSE;
// 1927       break;
// 1928   }
// 1929 
// 1930   if ( doDefault )
// 1931   {
// 1932     ret = FALSE;
// 1933     pData->clusterId = MtZdoDef_rsp;
// 1934     pData->cmd.DataLength = 2;
// 1935   }
// 1936 
// 1937   return ( ret );
// 1938 }
// 1939 
// 1940 /***************************************************************************************************
// 1941  * @fn      MT_ZdoAddrRspCB
// 1942  *
// 1943  * @brief   Handle IEEE or nwk address response OSAL message from ZDO.
// 1944  *
// 1945  * @param   pMsg  - Message data
// 1946  *
// 1947  * @return  void
// 1948  */
// 1949 void MT_ZdoAddrRspCB( ZDO_NwkIEEEAddrResp_t *pMsg, uint16 clusterID )
// 1950 {
// 1951   uint8   listLen, len, *pBuf;
// 1952 
// 1953   /* both ZDO_NwkAddrResp_t and ZDO_IEEEAddrResp_t must be the same */
// 1954 
// 1955   /* get length, sanity check length */
// 1956   listLen = pMsg->numAssocDevs;
// 1957 
// 1958   /* calculate msg length */
// 1959   len = MT_ZDO_ADDR_RSP_LEN + (listLen * sizeof(uint16));
// 1960 
// 1961   /* get buffer */
// 1962   if (NULL != (pBuf = (uint8 *)osal_mem_alloc(len)))
// 1963   {
// 1964     uint8 id = MT_ZDO_CID_TO_AREQ_ID(clusterID);
// 1965     uint8 *pTmp = pBuf;
// 1966 
// 1967     *pTmp++ = pMsg->status;
// 1968 
// 1969     osal_cpyExtAddr(pTmp, pMsg->extAddr);
// 1970     pTmp += Z_EXTADDR_LEN;
// 1971 
// 1972     *pTmp++ = LO_UINT16(pMsg->nwkAddr);
// 1973     *pTmp++ = HI_UINT16(pMsg->nwkAddr);
// 1974 
// 1975     *pTmp++ = pMsg->startIndex;
// 1976     *pTmp++ = listLen;
// 1977 
// 1978     MT_Word2Buf(pTmp, pMsg->devList, listLen);
// 1979 
// 1980     MT_BuildAndSendZToolResponse(((uint8)MT_RPC_CMD_AREQ | (uint8)MT_RPC_SYS_ZDO), id, len, pBuf);
// 1981     osal_mem_free(pBuf);
// 1982   }
// 1983 }
// 1984 
// 1985 /***************************************************************************************************
// 1986  * @fn      MT_ZdoEndDevAnnceCB
// 1987  *
// 1988  * @brief   Handle end device announce OSAL message from ZDO.
// 1989  *
// 1990  * @param   pMsg  - Message data
// 1991  *
// 1992  * @return  void
// 1993  */
// 1994 void MT_ZdoEndDevAnnceCB( ZDO_DeviceAnnce_t *pMsg, uint16 srcAddr )
// 1995 {
// 1996   uint8 *pBuf;
// 1997 
// 1998   if (NULL != (pBuf = (uint8 *)osal_mem_alloc(MT_ZDO_END_DEVICE_ANNCE_IND_LEN)))
// 1999   {
// 2000     uint8 *pTmp = pBuf;
// 2001 
// 2002     *pTmp++ = LO_UINT16(srcAddr);
// 2003     *pTmp++ = HI_UINT16(srcAddr);
// 2004 
// 2005     *pTmp++ = LO_UINT16(pMsg->nwkAddr);
// 2006     *pTmp++ = HI_UINT16(pMsg->nwkAddr);
// 2007 
// 2008     osal_cpyExtAddr(pTmp, pMsg->extAddr);
// 2009     pTmp += Z_EXTADDR_LEN;
// 2010 
// 2011     *pTmp = pMsg->capabilities;
// 2012 
// 2013     MT_BuildAndSendZToolResponse(((uint8)MT_RPC_CMD_AREQ | (uint8)MT_RPC_SYS_ZDO),
// 2014                                          MT_ZDO_END_DEVICE_ANNCE_IND,
// 2015                                          MT_ZDO_END_DEVICE_ANNCE_IND_LEN, pBuf);
// 2016     osal_mem_free(pBuf);
// 2017   }
// 2018 }
// 2019 
// 2020 /***************************************************************************************************
// 2021  * @fn      MT_ZdoSrcRtgCB
// 2022  *
// 2023  * @brief   Handle Src Route from ZDO.
// 2024  *
// 2025  * @param   pStr  - pointer to the data structure for the src route
// 2026  *
// 2027  * @return  void*
// 2028  */
// 2029 void* MT_ZdoSrcRtgCB( void *pStr )
// 2030 {
// 2031   uint8 len, *pBuf;
// 2032   zdoSrcRtg_t *pSrcRtg = pStr;
// 2033 
// 2034   // srcAddr (2) + relayCnt (1) + relayList( relaycnt * 2 )
// 2035   len = 2 + 1 + pSrcRtg->relayCnt * sizeof(uint16);
// 2036 
// 2037   if (NULL != (pBuf = (uint8 *)osal_mem_alloc(len)))
// 2038   {
// 2039     uint8 idx, *pTmp = pBuf;
// 2040     uint16 *pRelay;
// 2041 
// 2042     // Packet payload
// 2043     *pTmp++ = LO_UINT16(pSrcRtg->srcAddr);
// 2044     *pTmp++ = HI_UINT16(pSrcRtg->srcAddr);
// 2045     *pTmp++ = pSrcRtg->relayCnt;
// 2046 
// 2047     // Relay List
// 2048     if( ( pRelay = pSrcRtg->pRelayList ) != NULL )
// 2049     {
// 2050       for( idx = 0; idx < pSrcRtg->relayCnt; idx ++ )
// 2051       {
// 2052         *pTmp++ = LO_UINT16(*pRelay);
// 2053         *pTmp++ = HI_UINT16(*pRelay);
// 2054         pRelay++;
// 2055       }
// 2056     }
// 2057     MT_BuildAndSendZToolResponse(((uint8)MT_RPC_CMD_AREQ | (uint8)MT_RPC_SYS_ZDO),
// 2058                                          MT_ZDO_SRC_RTG_IND, len, pBuf);
// 2059     osal_mem_free(pBuf);
// 2060   }
// 2061 
// 2062   return NULL;
// 2063 }
// 2064 
// 2065 /***************************************************************************************************
// 2066  * @fn          MT_ZdoConcentratorIndCB
// 2067  *
// 2068  * @brief       Handle the ZDO Concentrator Indication callback from the ZDO.
// 2069  *
// 2070  * @param       pStr - pointer to a parameter and a structure of parameters
// 2071  *
// 2072  * @return      NULL
// 2073  ***************************************************************************************************/
// 2074 static void *MT_ZdoConcentratorIndCB(void *pStr)
// 2075 {
// 2076   uint8 buf[MT_ZDO_CONCENTRATOR_IND_LEN], *pTmp = buf;
// 2077   zdoConcentratorInd_t *pInd = (zdoConcentratorInd_t *)pStr;
// 2078 
// 2079   *pTmp++ = LO_UINT16(pInd->nwkAddr);
// 2080   *pTmp++ = HI_UINT16(pInd->nwkAddr);
// 2081   pTmp = osal_memcpy(pTmp, pInd->extAddr, Z_EXTADDR_LEN);
// 2082   *pTmp = pInd->pktCost;
// 2083 
// 2084   MT_BuildAndSendZToolResponse(((uint8)MT_RPC_CMD_AREQ | (uint8)MT_RPC_SYS_ZDO),
// 2085                                     MT_ZDO_CONCENTRATOR_IND_CB, MT_ZDO_CONCENTRATOR_IND_LEN, buf);
// 2086   return NULL;
// 2087 }
// 2088 #endif // MT_ZDO_CB_FUNC
// 2089 
// 2090 /***************************************************************************************************
// 2091  * @fn      MT_ZdoSendMsgCB
// 2092  *
// 2093  * @brief   Proxy the ZDO_SendMsgCBs one message at a time.
// 2094  *
// 2095  * @param   pMsg  - Message data
// 2096  *
// 2097  * @return  void
// 2098  */

        RSEG BANKED_CODE:HUGECODE:NOROOT(0)
// 2099 void MT_ZdoSendMsgCB(zdoIncomingMsg_t *pMsg)
MT_ZdoSendMsgCB:
          CFI Block cfiBlock260 Using cfiCommon0
          CFI Function MT_ZdoSendMsgCB
        CODE
// 2100 {
        FUNCALL MT_ZdoSendMsgCB, osal_mem_alloc
        LOCFRAME ISTACK, 0, STACK
        LOCFRAME PSTACK, 0, STACK
        LOCFRAME XSTACK, 14, STACK
        LOCFRAME IOVERLAY, 0, STATIC
        LOCFRAME DOVERLAY, 0, STATIC
        ARGFRAME ISTACK, 0, STACK
        ARGFRAME PSTACK, 0, STACK
        ARGFRAME XSTACK, 14, STACK
        ARGFRAME IOVERLAY, 0, STATIC
        ARGFRAME DOVERLAY, 0, STATIC
        FUNCALL MT_ZdoSendMsgCB, osal_memcpy
        LOCFRAME ISTACK, 0, STACK
        LOCFRAME PSTACK, 0, STACK
        LOCFRAME XSTACK, 17, STACK
        LOCFRAME IOVERLAY, 0, STATIC
        LOCFRAME DOVERLAY, 0, STATIC
        ARGFRAME ISTACK, 0, STACK
        ARGFRAME PSTACK, 0, STACK
        ARGFRAME XSTACK, 17, STACK
        ARGFRAME IOVERLAY, 0, STATIC
        ARGFRAME DOVERLAY, 0, STATIC
        FUNCALL MT_ZdoSendMsgCB, MT_BuildAndSendZToolResponse
        LOCFRAME ISTACK, 0, STACK
        LOCFRAME PSTACK, 0, STACK
        LOCFRAME XSTACK, 14, STACK
        LOCFRAME IOVERLAY, 0, STATIC
        LOCFRAME DOVERLAY, 0, STATIC
        ARGFRAME ISTACK, 0, STACK
        ARGFRAME PSTACK, 0, STACK
        ARGFRAME XSTACK, 14, STACK
        ARGFRAME IOVERLAY, 0, STATIC
        ARGFRAME DOVERLAY, 0, STATIC
        FUNCALL MT_ZdoSendMsgCB, osal_mem_free
        LOCFRAME ISTACK, 0, STACK
        LOCFRAME PSTACK, 0, STACK
        LOCFRAME XSTACK, 14, STACK
        LOCFRAME IOVERLAY, 0, STATIC
        LOCFRAME DOVERLAY, 0, STATIC
        ARGFRAME ISTACK, 0, STACK
        ARGFRAME PSTACK, 0, STACK
        ARGFRAME XSTACK, 14, STACK
        ARGFRAME IOVERLAY, 0, STATIC
        ARGFRAME DOVERLAY, 0, STATIC
        REQUIRE ?V0
        REQUIRE ?V1
        REQUIRE ?V2
        REQUIRE ?V3
        REQUIRE ?V4
        REQUIRE ?V5
        MOV       A,#-0xe
        LCALL     ?BANKED_ENTER_XDATA
          CFI DPH0 load(1, XDATA, add(CFA_XSP16, literal(-1)))
          CFI DPL0 load(1, XDATA, add(CFA_XSP16, literal(-2)))
          CFI ?BRET_EXT load(1, XDATA, add(CFA_XSP16, literal(-3)))
          CFI ?RET_HIGH load(1, XDATA, add(CFA_XSP16, literal(-4)))
          CFI ?RET_LOW load(1, XDATA, add(CFA_XSP16, literal(-5)))
          CFI R7 load(1, XDATA, add(CFA_XSP16, literal(-6)))
          CFI V5 load(1, XDATA, add(CFA_XSP16, literal(-7)))
          CFI V4 load(1, XDATA, add(CFA_XSP16, literal(-8)))
          CFI V3 load(1, XDATA, add(CFA_XSP16, literal(-9)))
          CFI V2 load(1, XDATA, add(CFA_XSP16, literal(-10)))
          CFI V1 load(1, XDATA, add(CFA_XSP16, literal(-11)))
          CFI V0 load(1, XDATA, add(CFA_XSP16, literal(-12)))
          CFI VB load(1, XDATA, add(CFA_XSP16, literal(-13)))
          CFI R6 load(1, XDATA, add(CFA_XSP16, literal(-14)))
          CFI CFA_SP SP+0
          CFI CFA_XSP16 add(XSP16, 14)
        ; Saved register size: 14
        ; Auto size: 0
        MOV       ?V4,R2
        MOV       ?V5,R3
// 2101   uint8 len = pMsg->asduLen + 9;
        MOV       A,R2
        LCALL     ?Subroutine43 & 0xFFFF
??CrossCallReturnLabel_86:
        ADD       A,#0x9
        MOV       ?V3,A
// 2102   uint8 *pBuf = (uint8 *)osal_mem_alloc(len);
        ; Setup parameters for call to function osal_mem_alloc
        MOV       R2,A
        MOV       R3,#0x0
        LCALL     `??osal_mem_alloc::?relay`; Banked call to: osal_mem_alloc
        MOV       ?V0,R2
        MOV       ?V1,R3
        MOV       R6,?V0
        MOV       R7,?V1
// 2103 
// 2104   if (pBuf != NULL)
        MOV       A,R2
        ORL       A,R7
        JNZ       $+5
        LJMP      ??MT_ZdoSendMsgCB_0 & 0xFFFF
// 2105   {
// 2106     uint8 *pTmp = pBuf;
// 2107 
// 2108     // Assuming exclusive use of network short addresses.
// 2109     *pTmp++ = LO_UINT16(pMsg->srcAddr.addr.shortAddr);
        MOV       A,?V4
        ADD       A,#0x2
        LCALL     ?Subroutine42 & 0xFFFF
??CrossCallReturnLabel_83:
        LCALL     ??Subroutine72_0 & 0xFFFF
??CrossCallReturnLabel_141:
        LCALL     ?Subroutine36 & 0xFFFF
// 2110     *pTmp++ = HI_UINT16(pMsg->srcAddr.addr.shortAddr);
??CrossCallReturnLabel_69:
        LCALL     ?Subroutine28 & 0xFFFF
??CrossCallReturnLabel_143:
        INC       DPTR
        MOVX      @DPTR,A
// 2111     *pTmp++ = pMsg->wasBroadcast;
        MOV       A,?V4
        ADD       A,#0xb
        MOV       DPL,A
        CLR       A
        ADDC      A,?V5
        LCALL     ?Subroutine27 & 0xFFFF
// 2112     *pTmp++ = LO_UINT16(pMsg->clusterID);
??CrossCallReturnLabel_50:
        MOV       A,?V4
        ADD       A,#0xc
        LCALL     ?Subroutine42 & 0xFFFF
??CrossCallReturnLabel_84:
        LCALL     ?Subroutine25 & 0xFFFF
// 2113     *pTmp++ = HI_UINT16(pMsg->clusterID);
??CrossCallReturnLabel_46:
        MOV       DPL,R0
        MOV       DPH,R1
        LCALL     ?Subroutine24 & 0xFFFF
// 2114     *pTmp++ = pMsg->SecurityUse;
??CrossCallReturnLabel_44:
        MOV       A,?V4
        ADD       A,#0xe
        MOV       DPL,A
        CLR       A
        ADDC      A,?V5
        MOV       DPH,A
        LCALL     ?Subroutine22 & 0xFFFF
// 2115     *pTmp++ = pMsg->TransSeq;
??CrossCallReturnLabel_40:
        MOV       A,?V4
        ADD       A,#0xf
        MOV       DPL,A
        CLR       A
        ADDC      A,?V5
        MOV       DPH,A
        LCALL     ?Subroutine20 & 0xFFFF
// 2116     // Skipping asduLen since it can be deduced from the RPC packet length.
// 2117     *pTmp++ = LO_UINT16(pMsg->macDestAddr);
??CrossCallReturnLabel_38:
        MOV       A,?V4
        ADD       A,#0x11
        LCALL     ?Subroutine42 & 0xFFFF
??CrossCallReturnLabel_85:
        LCALL     ?Subroutine19 & 0xFFFF
// 2118     *pTmp++ = HI_UINT16(pMsg->macDestAddr);
??CrossCallReturnLabel_36:
        MOV       DPL,R0
        MOV       DPH,R1
        LCALL     ?Subroutine13 & 0xFFFF
// 2119     (void)osal_memcpy(pTmp, pMsg->asdu, pMsg->asduLen);
??CrossCallReturnLabel_25:
        ; Setup parameters for call to function osal_memcpy
        MOV       A,?V4
        ADD       A,#0x13
        MOV       DPL,A
        CLR       A
        ADDC      A,?V5
        MOV       DPH,A
        MOVX      A,@DPTR
        MOV       ?V0,A
        INC       DPTR
        MOVX      A,@DPTR
        MOV       ?V1,A
        MOV       ?V2,#0x0
        MOV       R0,#?V0
        LCALL     ?PUSH_XSTACK_I_THREE
          CFI CFA_XSP16 add(XSP16, 17)
        MOV       A,?V4
        LCALL     ?Subroutine43 & 0xFFFF
??CrossCallReturnLabel_87:
        MOV       R4,A
        MOV       R5,#0x0
        MOV       A,R2
        ADD       A,#0x9
        MOV       R2,A
        CLR       A
        ADDC      A,R7
        MOV       R3,A
        LCALL     `??osal_memcpy::?relay`; Banked call to: osal_memcpy
        MOV       A,#0x3
        LCALL     ?DEALLOC_XSTACK8
          CFI CFA_XSP16 add(XSP16, 14)
// 2120 
// 2121     MT_BuildAndSendZToolResponse(((uint8)MT_RPC_CMD_AREQ | (uint8)MT_RPC_SYS_ZDO),
// 2122                                          MT_ZDO_MSG_CB_INCOMING, len, pBuf);
        ; Setup parameters for call to function MT_BuildAndSendZToolResponse
        MOV       A,R6
        MOV       R4,A
        MOV       A,R7
        MOV       R5,A
        MOV       R3,?V3
        MOV       R2,#-0x1
        MOV       R1,#0x45
        LCALL     `??MT_BuildAndSendZToolResponse::?relay`; Banked call to: MT_BuildAndSendZToolResponse
// 2123 
// 2124     osal_mem_free(pBuf);
        ; Setup parameters for call to function osal_mem_free
        MOV       A,R6
        MOV       R2,A
        MOV       A,R7
        MOV       R3,A
        LCALL     `??osal_mem_free::?relay`; Banked call to: osal_mem_free
// 2125   }
// 2126 }
??MT_ZdoSendMsgCB_0:
        LJMP      ?Subroutine2 & 0xFFFF
          CFI EndBlock cfiBlock260

        RSEG BANKED_CODE:HUGECODE:NOROOT(0)
?Subroutine43:
          CFI Block cfiCond261 Using cfiCommon0
          CFI Function MT_ZdoSendMsgCB
          CFI Conditional ??CrossCallReturnLabel_86
          CFI R6 load(1, XDATA, add(CFA_XSP16, literal(-14)))
          CFI VB load(1, XDATA, add(CFA_XSP16, literal(-13)))
          CFI V0 load(1, XDATA, add(CFA_XSP16, literal(-12)))
          CFI V1 load(1, XDATA, add(CFA_XSP16, literal(-11)))
          CFI V2 load(1, XDATA, add(CFA_XSP16, literal(-10)))
          CFI V3 load(1, XDATA, add(CFA_XSP16, literal(-9)))
          CFI V4 load(1, XDATA, add(CFA_XSP16, literal(-8)))
          CFI V5 load(1, XDATA, add(CFA_XSP16, literal(-7)))
          CFI R7 load(1, XDATA, add(CFA_XSP16, literal(-6)))
          CFI ?RET_LOW load(1, XDATA, add(CFA_XSP16, literal(-5)))
          CFI ?RET_HIGH load(1, XDATA, add(CFA_XSP16, literal(-4)))
          CFI ?BRET_EXT load(1, XDATA, add(CFA_XSP16, literal(-3)))
          CFI DPL0 load(1, XDATA, add(CFA_XSP16, literal(-2)))
          CFI DPH0 load(1, XDATA, add(CFA_XSP16, literal(-1)))
          CFI CFA_SP SP+-2
          CFI CFA_XSP16 add(XSP16, 14)
          CFI Block cfiCond262 Using cfiCommon0
          CFI (cfiCond262) Function MT_ZdoSendMsgCB
          CFI (cfiCond262) Conditional ??CrossCallReturnLabel_87
          CFI (cfiCond262) R6 load(1, XDATA, add(CFA_XSP16, literal(-14)))
          CFI (cfiCond262) VB load(1, XDATA, add(CFA_XSP16, literal(-13)))
          CFI (cfiCond262) V0 load(1, XDATA, add(CFA_XSP16, literal(-12)))
          CFI (cfiCond262) V1 load(1, XDATA, add(CFA_XSP16, literal(-11)))
          CFI (cfiCond262) V2 load(1, XDATA, add(CFA_XSP16, literal(-10)))
          CFI (cfiCond262) V3 load(1, XDATA, add(CFA_XSP16, literal(-9)))
          CFI (cfiCond262) V4 load(1, XDATA, add(CFA_XSP16, literal(-8)))
          CFI (cfiCond262) V5 load(1, XDATA, add(CFA_XSP16, literal(-7)))
          CFI (cfiCond262) R7 load(1, XDATA, add(CFA_XSP16, literal(-6)))
          CFI (cfiCond262) ?RET_LOW load(1, XDATA, add(CFA_XSP16, literal(-5)))
          CFI (cfiCond262) ?RET_HIGH load(1, XDATA, add(CFA_XSP16, literal(-4)))
          CFI (cfiCond262) ?BRET_EXT load(1, XDATA, add(CFA_XSP16, literal(-3)))
          CFI (cfiCond262) DPL0 load(1, XDATA, add(CFA_XSP16, literal(-2)))
          CFI (cfiCond262) DPH0 load(1, XDATA, add(CFA_XSP16, literal(-1)))
          CFI (cfiCond262) CFA_SP SP+-2
          CFI (cfiCond262) CFA_XSP16 add(XSP16, 17)
          CFI Block cfiPicker263 Using cfiCommon1
          CFI (cfiPicker263) NoFunction
          CFI (cfiPicker263) Picker
        ADD       A,#0x10
        MOV       DPL,A
        CLR       A
        ADDC      A,?V5
        MOV       DPH,A
        MOVX      A,@DPTR
        RET
          CFI EndBlock cfiCond261
          CFI EndBlock cfiCond262
          CFI EndBlock cfiPicker263

        RSEG BANKED_CODE:HUGECODE:NOROOT(0)
?Subroutine42:
          CFI Block cfiCond264 Using cfiCommon0
          CFI Function MT_ZdoSendMsgCB
          CFI Conditional ??CrossCallReturnLabel_83
          CFI R6 load(1, XDATA, add(CFA_XSP16, literal(-14)))
          CFI VB load(1, XDATA, add(CFA_XSP16, literal(-13)))
          CFI V0 load(1, XDATA, add(CFA_XSP16, literal(-12)))
          CFI V1 load(1, XDATA, add(CFA_XSP16, literal(-11)))
          CFI V2 load(1, XDATA, add(CFA_XSP16, literal(-10)))
          CFI V3 load(1, XDATA, add(CFA_XSP16, literal(-9)))
          CFI V4 load(1, XDATA, add(CFA_XSP16, literal(-8)))
          CFI V5 load(1, XDATA, add(CFA_XSP16, literal(-7)))
          CFI R7 load(1, XDATA, add(CFA_XSP16, literal(-6)))
          CFI ?RET_LOW load(1, XDATA, add(CFA_XSP16, literal(-5)))
          CFI ?RET_HIGH load(1, XDATA, add(CFA_XSP16, literal(-4)))
          CFI ?BRET_EXT load(1, XDATA, add(CFA_XSP16, literal(-3)))
          CFI DPL0 load(1, XDATA, add(CFA_XSP16, literal(-2)))
          CFI DPH0 load(1, XDATA, add(CFA_XSP16, literal(-1)))
          CFI CFA_SP SP+-2
          CFI CFA_XSP16 add(XSP16, 14)
          CFI Block cfiCond265 Using cfiCommon0
          CFI (cfiCond265) Function MT_ZdoSendMsgCB
          CFI (cfiCond265) Conditional ??CrossCallReturnLabel_84
          CFI (cfiCond265) R6 load(1, XDATA, add(CFA_XSP16, literal(-14)))
          CFI (cfiCond265) VB load(1, XDATA, add(CFA_XSP16, literal(-13)))
          CFI (cfiCond265) V0 load(1, XDATA, add(CFA_XSP16, literal(-12)))
          CFI (cfiCond265) V1 load(1, XDATA, add(CFA_XSP16, literal(-11)))
          CFI (cfiCond265) V2 load(1, XDATA, add(CFA_XSP16, literal(-10)))
          CFI (cfiCond265) V3 load(1, XDATA, add(CFA_XSP16, literal(-9)))
          CFI (cfiCond265) V4 load(1, XDATA, add(CFA_XSP16, literal(-8)))
          CFI (cfiCond265) V5 load(1, XDATA, add(CFA_XSP16, literal(-7)))
          CFI (cfiCond265) R7 load(1, XDATA, add(CFA_XSP16, literal(-6)))
          CFI (cfiCond265) ?RET_LOW load(1, XDATA, add(CFA_XSP16, literal(-5)))
          CFI (cfiCond265) ?RET_HIGH load(1, XDATA, add(CFA_XSP16, literal(-4)))
          CFI (cfiCond265) ?BRET_EXT load(1, XDATA, add(CFA_XSP16, literal(-3)))
          CFI (cfiCond265) DPL0 load(1, XDATA, add(CFA_XSP16, literal(-2)))
          CFI (cfiCond265) DPH0 load(1, XDATA, add(CFA_XSP16, literal(-1)))
          CFI (cfiCond265) CFA_SP SP+-2
          CFI (cfiCond265) CFA_XSP16 add(XSP16, 14)
          CFI Block cfiCond266 Using cfiCommon0
          CFI (cfiCond266) Function MT_ZdoSendMsgCB
          CFI (cfiCond266) Conditional ??CrossCallReturnLabel_85
          CFI (cfiCond266) R6 load(1, XDATA, add(CFA_XSP16, literal(-14)))
          CFI (cfiCond266) VB load(1, XDATA, add(CFA_XSP16, literal(-13)))
          CFI (cfiCond266) V0 load(1, XDATA, add(CFA_XSP16, literal(-12)))
          CFI (cfiCond266) V1 load(1, XDATA, add(CFA_XSP16, literal(-11)))
          CFI (cfiCond266) V2 load(1, XDATA, add(CFA_XSP16, literal(-10)))
          CFI (cfiCond266) V3 load(1, XDATA, add(CFA_XSP16, literal(-9)))
          CFI (cfiCond266) V4 load(1, XDATA, add(CFA_XSP16, literal(-8)))
          CFI (cfiCond266) V5 load(1, XDATA, add(CFA_XSP16, literal(-7)))
          CFI (cfiCond266) R7 load(1, XDATA, add(CFA_XSP16, literal(-6)))
          CFI (cfiCond266) ?RET_LOW load(1, XDATA, add(CFA_XSP16, literal(-5)))
          CFI (cfiCond266) ?RET_HIGH load(1, XDATA, add(CFA_XSP16, literal(-4)))
          CFI (cfiCond266) ?BRET_EXT load(1, XDATA, add(CFA_XSP16, literal(-3)))
          CFI (cfiCond266) DPL0 load(1, XDATA, add(CFA_XSP16, literal(-2)))
          CFI (cfiCond266) DPH0 load(1, XDATA, add(CFA_XSP16, literal(-1)))
          CFI (cfiCond266) CFA_SP SP+-2
          CFI (cfiCond266) CFA_XSP16 add(XSP16, 14)
          CFI Block cfiPicker267 Using cfiCommon1
          CFI (cfiPicker267) NoFunction
          CFI (cfiPicker267) Picker
        MOV       R0,A
        CLR       A
        ADDC      A,?V5
        MOV       R1,A
        MOV       DPL,R0
        MOV       DPH,A
        RET
          CFI EndBlock cfiCond264
          CFI EndBlock cfiCond265
          CFI EndBlock cfiCond266
          CFI EndBlock cfiPicker267

        RSEG BANKED_CODE:HUGECODE:NOROOT(0)
?Subroutine28:
          CFI Block cfiCond268 Using cfiCommon0
          CFI Function MT_ZdoBeaconIndCB
          CFI Conditional ??CrossCallReturnLabel_142
          CFI R6 load(1, XDATA, add(CFA_XSP16, literal(-11)))
          CFI VB load(1, XDATA, add(CFA_XSP16, literal(-10)))
          CFI V0 load(1, XDATA, add(CFA_XSP16, literal(-9)))
          CFI V1 load(1, XDATA, add(CFA_XSP16, literal(-8)))
          CFI V2 load(1, XDATA, add(CFA_XSP16, literal(-7)))
          CFI R7 load(1, XDATA, add(CFA_XSP16, literal(-6)))
          CFI ?RET_LOW load(1, XDATA, add(CFA_XSP16, literal(-5)))
          CFI ?RET_HIGH load(1, XDATA, add(CFA_XSP16, literal(-4)))
          CFI ?BRET_EXT load(1, XDATA, add(CFA_XSP16, literal(-3)))
          CFI DPL0 load(1, XDATA, add(CFA_XSP16, literal(-2)))
          CFI DPH0 load(1, XDATA, add(CFA_XSP16, literal(-1)))
          CFI CFA_SP SP+-2
          CFI CFA_XSP16 add(XSP16, 11)
          CFI Block cfiCond269 Using cfiCommon0
          CFI (cfiCond269) Function MT_ZdoSendMsgCB
          CFI (cfiCond269) Conditional ??CrossCallReturnLabel_143
          CFI (cfiCond269) R6 load(1, XDATA, add(CFA_XSP16, literal(-14)))
          CFI (cfiCond269) VB load(1, XDATA, add(CFA_XSP16, literal(-13)))
          CFI (cfiCond269) V0 load(1, XDATA, add(CFA_XSP16, literal(-12)))
          CFI (cfiCond269) V1 load(1, XDATA, add(CFA_XSP16, literal(-11)))
          CFI (cfiCond269) V2 load(1, XDATA, add(CFA_XSP16, literal(-10)))
          CFI (cfiCond269) V3 load(1, XDATA, add(CFA_XSP16, literal(-9)))
          CFI (cfiCond269) V4 load(1, XDATA, add(CFA_XSP16, literal(-8)))
          CFI (cfiCond269) V5 load(1, XDATA, add(CFA_XSP16, literal(-7)))
          CFI (cfiCond269) R7 load(1, XDATA, add(CFA_XSP16, literal(-6)))
          CFI (cfiCond269) ?RET_LOW load(1, XDATA, add(CFA_XSP16, literal(-5)))
          CFI (cfiCond269) ?RET_HIGH load(1, XDATA, add(CFA_XSP16, literal(-4)))
          CFI (cfiCond269) ?BRET_EXT load(1, XDATA, add(CFA_XSP16, literal(-3)))
          CFI (cfiCond269) DPL0 load(1, XDATA, add(CFA_XSP16, literal(-2)))
          CFI (cfiCond269) DPH0 load(1, XDATA, add(CFA_XSP16, literal(-1)))
          CFI (cfiCond269) CFA_SP SP+-2
          CFI (cfiCond269) CFA_XSP16 add(XSP16, 14)
          CFI Block cfiPicker270 Using cfiCommon1
          CFI (cfiPicker270) NoFunction
          CFI (cfiPicker270) Picker
        INC       DPTR
          CFI EndBlock cfiCond268
          CFI EndBlock cfiCond269
          CFI EndBlock cfiPicker270
        REQUIRE ??Subroutine72_0
        ; // Fall through to label ??Subroutine72_0

        RSEG BANKED_CODE:HUGECODE:NOROOT(0)
??Subroutine72_0:
          CFI Block cfiCond271 Using cfiCommon0
          CFI Function MT_ZdoBeaconIndCB
          CFI Conditional ??CrossCallReturnLabel_140
          CFI R6 load(1, XDATA, add(CFA_XSP16, literal(-11)))
          CFI VB load(1, XDATA, add(CFA_XSP16, literal(-10)))
          CFI V0 load(1, XDATA, add(CFA_XSP16, literal(-9)))
          CFI V1 load(1, XDATA, add(CFA_XSP16, literal(-8)))
          CFI V2 load(1, XDATA, add(CFA_XSP16, literal(-7)))
          CFI R7 load(1, XDATA, add(CFA_XSP16, literal(-6)))
          CFI ?RET_LOW load(1, XDATA, add(CFA_XSP16, literal(-5)))
          CFI ?RET_HIGH load(1, XDATA, add(CFA_XSP16, literal(-4)))
          CFI ?BRET_EXT load(1, XDATA, add(CFA_XSP16, literal(-3)))
          CFI DPL0 load(1, XDATA, add(CFA_XSP16, literal(-2)))
          CFI DPH0 load(1, XDATA, add(CFA_XSP16, literal(-1)))
          CFI CFA_SP SP+-2
          CFI CFA_XSP16 add(XSP16, 11)
          CFI Block cfiCond272 Using cfiCommon0
          CFI (cfiCond272) Function MT_ZdoSendMsgCB
          CFI (cfiCond272) Conditional ??CrossCallReturnLabel_141
          CFI (cfiCond272) R6 load(1, XDATA, add(CFA_XSP16, literal(-14)))
          CFI (cfiCond272) VB load(1, XDATA, add(CFA_XSP16, literal(-13)))
          CFI (cfiCond272) V0 load(1, XDATA, add(CFA_XSP16, literal(-12)))
          CFI (cfiCond272) V1 load(1, XDATA, add(CFA_XSP16, literal(-11)))
          CFI (cfiCond272) V2 load(1, XDATA, add(CFA_XSP16, literal(-10)))
          CFI (cfiCond272) V3 load(1, XDATA, add(CFA_XSP16, literal(-9)))
          CFI (cfiCond272) V4 load(1, XDATA, add(CFA_XSP16, literal(-8)))
          CFI (cfiCond272) V5 load(1, XDATA, add(CFA_XSP16, literal(-7)))
          CFI (cfiCond272) R7 load(1, XDATA, add(CFA_XSP16, literal(-6)))
          CFI (cfiCond272) ?RET_LOW load(1, XDATA, add(CFA_XSP16, literal(-5)))
          CFI (cfiCond272) ?RET_HIGH load(1, XDATA, add(CFA_XSP16, literal(-4)))
          CFI (cfiCond272) ?BRET_EXT load(1, XDATA, add(CFA_XSP16, literal(-3)))
          CFI (cfiCond272) DPL0 load(1, XDATA, add(CFA_XSP16, literal(-2)))
          CFI (cfiCond272) DPH0 load(1, XDATA, add(CFA_XSP16, literal(-1)))
          CFI (cfiCond272) CFA_SP SP+-2
          CFI (cfiCond272) CFA_XSP16 add(XSP16, 14)
          CFI Block cfiCond273 Using cfiCommon0
          CFI (cfiCond273) Function MT_ZdoBeaconIndCB
          CFI (cfiCond273) Conditional ??CrossCallReturnLabel_142
          CFI (cfiCond273) R6 load(1, XDATA, add(CFA_XSP16, literal(-11)))
          CFI (cfiCond273) VB load(1, XDATA, add(CFA_XSP16, literal(-10)))
          CFI (cfiCond273) V0 load(1, XDATA, add(CFA_XSP16, literal(-9)))
          CFI (cfiCond273) V1 load(1, XDATA, add(CFA_XSP16, literal(-8)))
          CFI (cfiCond273) V2 load(1, XDATA, add(CFA_XSP16, literal(-7)))
          CFI (cfiCond273) R7 load(1, XDATA, add(CFA_XSP16, literal(-6)))
          CFI (cfiCond273) ?RET_LOW load(1, XDATA, add(CFA_XSP16, literal(-5)))
          CFI (cfiCond273) ?RET_HIGH load(1, XDATA, add(CFA_XSP16, literal(-4)))
          CFI (cfiCond273) ?BRET_EXT load(1, XDATA, add(CFA_XSP16, literal(-3)))
          CFI (cfiCond273) DPL0 load(1, XDATA, add(CFA_XSP16, literal(-2)))
          CFI (cfiCond273) DPH0 load(1, XDATA, add(CFA_XSP16, literal(-1)))
          CFI (cfiCond273) CFA_SP SP+-2
          CFI (cfiCond273) CFA_XSP16 add(XSP16, 11)
          CFI Block cfiCond274 Using cfiCommon0
          CFI (cfiCond274) Function MT_ZdoSendMsgCB
          CFI (cfiCond274) Conditional ??CrossCallReturnLabel_143
          CFI (cfiCond274) R6 load(1, XDATA, add(CFA_XSP16, literal(-14)))
          CFI (cfiCond274) VB load(1, XDATA, add(CFA_XSP16, literal(-13)))
          CFI (cfiCond274) V0 load(1, XDATA, add(CFA_XSP16, literal(-12)))
          CFI (cfiCond274) V1 load(1, XDATA, add(CFA_XSP16, literal(-11)))
          CFI (cfiCond274) V2 load(1, XDATA, add(CFA_XSP16, literal(-10)))
          CFI (cfiCond274) V3 load(1, XDATA, add(CFA_XSP16, literal(-9)))
          CFI (cfiCond274) V4 load(1, XDATA, add(CFA_XSP16, literal(-8)))
          CFI (cfiCond274) V5 load(1, XDATA, add(CFA_XSP16, literal(-7)))
          CFI (cfiCond274) R7 load(1, XDATA, add(CFA_XSP16, literal(-6)))
          CFI (cfiCond274) ?RET_LOW load(1, XDATA, add(CFA_XSP16, literal(-5)))
          CFI (cfiCond274) ?RET_HIGH load(1, XDATA, add(CFA_XSP16, literal(-4)))
          CFI (cfiCond274) ?BRET_EXT load(1, XDATA, add(CFA_XSP16, literal(-3)))
          CFI (cfiCond274) DPL0 load(1, XDATA, add(CFA_XSP16, literal(-2)))
          CFI (cfiCond274) DPH0 load(1, XDATA, add(CFA_XSP16, literal(-1)))
          CFI (cfiCond274) CFA_SP SP+-2
          CFI (cfiCond274) CFA_XSP16 add(XSP16, 14)
          CFI Block cfiPicker275 Using cfiCommon1
          CFI (cfiPicker275) NoFunction
          CFI (cfiPicker275) Picker
        MOVX      A,@DPTR
        MOV       DPL,R2
        MOV       DPH,R3
        RET
          CFI EndBlock cfiCond271
          CFI EndBlock cfiCond272
          CFI EndBlock cfiCond273
          CFI EndBlock cfiCond274
          CFI EndBlock cfiPicker275

        RSEG BANKED_CODE:HUGECODE:NOROOT(0)
?Subroutine27:
          CFI Block cfiCond276 Using cfiCommon0
          CFI Function MT_ZdoBeaconIndCB
          CFI Conditional ??CrossCallReturnLabel_49
          CFI R6 load(1, XDATA, add(CFA_XSP16, literal(-11)))
          CFI VB load(1, XDATA, add(CFA_XSP16, literal(-10)))
          CFI V0 load(1, XDATA, add(CFA_XSP16, literal(-9)))
          CFI V1 load(1, XDATA, add(CFA_XSP16, literal(-8)))
          CFI V2 load(1, XDATA, add(CFA_XSP16, literal(-7)))
          CFI R7 load(1, XDATA, add(CFA_XSP16, literal(-6)))
          CFI ?RET_LOW load(1, XDATA, add(CFA_XSP16, literal(-5)))
          CFI ?RET_HIGH load(1, XDATA, add(CFA_XSP16, literal(-4)))
          CFI ?BRET_EXT load(1, XDATA, add(CFA_XSP16, literal(-3)))
          CFI DPL0 load(1, XDATA, add(CFA_XSP16, literal(-2)))
          CFI DPH0 load(1, XDATA, add(CFA_XSP16, literal(-1)))
          CFI CFA_SP SP+-2
          CFI CFA_XSP16 add(XSP16, 11)
          CFI Block cfiCond277 Using cfiCommon0
          CFI (cfiCond277) Function MT_ZdoSendMsgCB
          CFI (cfiCond277) Conditional ??CrossCallReturnLabel_50
          CFI (cfiCond277) R6 load(1, XDATA, add(CFA_XSP16, literal(-14)))
          CFI (cfiCond277) VB load(1, XDATA, add(CFA_XSP16, literal(-13)))
          CFI (cfiCond277) V0 load(1, XDATA, add(CFA_XSP16, literal(-12)))
          CFI (cfiCond277) V1 load(1, XDATA, add(CFA_XSP16, literal(-11)))
          CFI (cfiCond277) V2 load(1, XDATA, add(CFA_XSP16, literal(-10)))
          CFI (cfiCond277) V3 load(1, XDATA, add(CFA_XSP16, literal(-9)))
          CFI (cfiCond277) V4 load(1, XDATA, add(CFA_XSP16, literal(-8)))
          CFI (cfiCond277) V5 load(1, XDATA, add(CFA_XSP16, literal(-7)))
          CFI (cfiCond277) R7 load(1, XDATA, add(CFA_XSP16, literal(-6)))
          CFI (cfiCond277) ?RET_LOW load(1, XDATA, add(CFA_XSP16, literal(-5)))
          CFI (cfiCond277) ?RET_HIGH load(1, XDATA, add(CFA_XSP16, literal(-4)))
          CFI (cfiCond277) ?BRET_EXT load(1, XDATA, add(CFA_XSP16, literal(-3)))
          CFI (cfiCond277) DPL0 load(1, XDATA, add(CFA_XSP16, literal(-2)))
          CFI (cfiCond277) DPH0 load(1, XDATA, add(CFA_XSP16, literal(-1)))
          CFI (cfiCond277) CFA_SP SP+-2
          CFI (cfiCond277) CFA_XSP16 add(XSP16, 14)
          CFI Block cfiPicker278 Using cfiCommon1
          CFI (cfiPicker278) NoFunction
          CFI (cfiPicker278) Picker
        MOV       DPH,A
        MOVX      A,@DPTR
        MOV       DPL,R2
        MOV       DPH,R3
        INC       DPTR
        INC       DPTR
        MOVX      @DPTR,A
        RET
          CFI EndBlock cfiCond276
          CFI EndBlock cfiCond277
          CFI EndBlock cfiPicker278

        RSEG BANKED_CODE:HUGECODE:NOROOT(0)
?Subroutine25:
          CFI Block cfiCond279 Using cfiCommon0
          CFI Function MT_ZdoBeaconIndCB
          CFI Conditional ??CrossCallReturnLabel_45
          CFI R6 load(1, XDATA, add(CFA_XSP16, literal(-11)))
          CFI VB load(1, XDATA, add(CFA_XSP16, literal(-10)))
          CFI V0 load(1, XDATA, add(CFA_XSP16, literal(-9)))
          CFI V1 load(1, XDATA, add(CFA_XSP16, literal(-8)))
          CFI V2 load(1, XDATA, add(CFA_XSP16, literal(-7)))
          CFI R7 load(1, XDATA, add(CFA_XSP16, literal(-6)))
          CFI ?RET_LOW load(1, XDATA, add(CFA_XSP16, literal(-5)))
          CFI ?RET_HIGH load(1, XDATA, add(CFA_XSP16, literal(-4)))
          CFI ?BRET_EXT load(1, XDATA, add(CFA_XSP16, literal(-3)))
          CFI DPL0 load(1, XDATA, add(CFA_XSP16, literal(-2)))
          CFI DPH0 load(1, XDATA, add(CFA_XSP16, literal(-1)))
          CFI CFA_SP SP+-2
          CFI CFA_XSP16 add(XSP16, 11)
          CFI Block cfiCond280 Using cfiCommon0
          CFI (cfiCond280) Function MT_ZdoSendMsgCB
          CFI (cfiCond280) Conditional ??CrossCallReturnLabel_46
          CFI (cfiCond280) R6 load(1, XDATA, add(CFA_XSP16, literal(-14)))
          CFI (cfiCond280) VB load(1, XDATA, add(CFA_XSP16, literal(-13)))
          CFI (cfiCond280) V0 load(1, XDATA, add(CFA_XSP16, literal(-12)))
          CFI (cfiCond280) V1 load(1, XDATA, add(CFA_XSP16, literal(-11)))
          CFI (cfiCond280) V2 load(1, XDATA, add(CFA_XSP16, literal(-10)))
          CFI (cfiCond280) V3 load(1, XDATA, add(CFA_XSP16, literal(-9)))
          CFI (cfiCond280) V4 load(1, XDATA, add(CFA_XSP16, literal(-8)))
          CFI (cfiCond280) V5 load(1, XDATA, add(CFA_XSP16, literal(-7)))
          CFI (cfiCond280) R7 load(1, XDATA, add(CFA_XSP16, literal(-6)))
          CFI (cfiCond280) ?RET_LOW load(1, XDATA, add(CFA_XSP16, literal(-5)))
          CFI (cfiCond280) ?RET_HIGH load(1, XDATA, add(CFA_XSP16, literal(-4)))
          CFI (cfiCond280) ?BRET_EXT load(1, XDATA, add(CFA_XSP16, literal(-3)))
          CFI (cfiCond280) DPL0 load(1, XDATA, add(CFA_XSP16, literal(-2)))
          CFI (cfiCond280) DPH0 load(1, XDATA, add(CFA_XSP16, literal(-1)))
          CFI (cfiCond280) CFA_SP SP+-2
          CFI (cfiCond280) CFA_XSP16 add(XSP16, 14)
          CFI Block cfiPicker281 Using cfiCommon1
          CFI (cfiPicker281) NoFunction
          CFI (cfiPicker281) Picker
        LCALL     ?Subroutine58 & 0xFFFF
??CrossCallReturnLabel_112:
        MOVX      @DPTR,A
        RET
          CFI EndBlock cfiCond279
          CFI EndBlock cfiCond280
          CFI EndBlock cfiPicker281

        RSEG BANKED_CODE:HUGECODE:NOROOT(0)
?Subroutine24:
          CFI Block cfiCond282 Using cfiCommon0
          CFI Function MT_ZdoBeaconIndCB
          CFI Conditional ??CrossCallReturnLabel_43
          CFI R6 load(1, XDATA, add(CFA_XSP16, literal(-11)))
          CFI VB load(1, XDATA, add(CFA_XSP16, literal(-10)))
          CFI V0 load(1, XDATA, add(CFA_XSP16, literal(-9)))
          CFI V1 load(1, XDATA, add(CFA_XSP16, literal(-8)))
          CFI V2 load(1, XDATA, add(CFA_XSP16, literal(-7)))
          CFI R7 load(1, XDATA, add(CFA_XSP16, literal(-6)))
          CFI ?RET_LOW load(1, XDATA, add(CFA_XSP16, literal(-5)))
          CFI ?RET_HIGH load(1, XDATA, add(CFA_XSP16, literal(-4)))
          CFI ?BRET_EXT load(1, XDATA, add(CFA_XSP16, literal(-3)))
          CFI DPL0 load(1, XDATA, add(CFA_XSP16, literal(-2)))
          CFI DPH0 load(1, XDATA, add(CFA_XSP16, literal(-1)))
          CFI CFA_SP SP+-2
          CFI CFA_XSP16 add(XSP16, 11)
          CFI Block cfiCond283 Using cfiCommon0
          CFI (cfiCond283) Function MT_ZdoSendMsgCB
          CFI (cfiCond283) Conditional ??CrossCallReturnLabel_44
          CFI (cfiCond283) R6 load(1, XDATA, add(CFA_XSP16, literal(-14)))
          CFI (cfiCond283) VB load(1, XDATA, add(CFA_XSP16, literal(-13)))
          CFI (cfiCond283) V0 load(1, XDATA, add(CFA_XSP16, literal(-12)))
          CFI (cfiCond283) V1 load(1, XDATA, add(CFA_XSP16, literal(-11)))
          CFI (cfiCond283) V2 load(1, XDATA, add(CFA_XSP16, literal(-10)))
          CFI (cfiCond283) V3 load(1, XDATA, add(CFA_XSP16, literal(-9)))
          CFI (cfiCond283) V4 load(1, XDATA, add(CFA_XSP16, literal(-8)))
          CFI (cfiCond283) V5 load(1, XDATA, add(CFA_XSP16, literal(-7)))
          CFI (cfiCond283) R7 load(1, XDATA, add(CFA_XSP16, literal(-6)))
          CFI (cfiCond283) ?RET_LOW load(1, XDATA, add(CFA_XSP16, literal(-5)))
          CFI (cfiCond283) ?RET_HIGH load(1, XDATA, add(CFA_XSP16, literal(-4)))
          CFI (cfiCond283) ?BRET_EXT load(1, XDATA, add(CFA_XSP16, literal(-3)))
          CFI (cfiCond283) DPL0 load(1, XDATA, add(CFA_XSP16, literal(-2)))
          CFI (cfiCond283) DPH0 load(1, XDATA, add(CFA_XSP16, literal(-1)))
          CFI (cfiCond283) CFA_SP SP+-2
          CFI (cfiCond283) CFA_XSP16 add(XSP16, 14)
          CFI Block cfiPicker284 Using cfiCommon1
          CFI (cfiPicker284) NoFunction
          CFI (cfiPicker284) Picker
        INC       DPTR
        LCALL     ?Subroutine53 & 0xFFFF
??CrossCallReturnLabel_105:
        MOVX      @DPTR,A
        RET
          CFI EndBlock cfiCond282
          CFI EndBlock cfiCond283
          CFI EndBlock cfiPicker284

        RSEG BANKED_CODE:HUGECODE:NOROOT(0)
?Subroutine22:
          CFI Block cfiCond285 Using cfiCommon0
          CFI Function MT_ZdoBeaconIndCB
          CFI Conditional ??CrossCallReturnLabel_39
          CFI R6 load(1, XDATA, add(CFA_XSP16, literal(-11)))
          CFI VB load(1, XDATA, add(CFA_XSP16, literal(-10)))
          CFI V0 load(1, XDATA, add(CFA_XSP16, literal(-9)))
          CFI V1 load(1, XDATA, add(CFA_XSP16, literal(-8)))
          CFI V2 load(1, XDATA, add(CFA_XSP16, literal(-7)))
          CFI R7 load(1, XDATA, add(CFA_XSP16, literal(-6)))
          CFI ?RET_LOW load(1, XDATA, add(CFA_XSP16, literal(-5)))
          CFI ?RET_HIGH load(1, XDATA, add(CFA_XSP16, literal(-4)))
          CFI ?BRET_EXT load(1, XDATA, add(CFA_XSP16, literal(-3)))
          CFI DPL0 load(1, XDATA, add(CFA_XSP16, literal(-2)))
          CFI DPH0 load(1, XDATA, add(CFA_XSP16, literal(-1)))
          CFI CFA_SP SP+-2
          CFI CFA_XSP16 add(XSP16, 11)
          CFI Block cfiCond286 Using cfiCommon0
          CFI (cfiCond286) Function MT_ZdoSendMsgCB
          CFI (cfiCond286) Conditional ??CrossCallReturnLabel_40
          CFI (cfiCond286) R6 load(1, XDATA, add(CFA_XSP16, literal(-14)))
          CFI (cfiCond286) VB load(1, XDATA, add(CFA_XSP16, literal(-13)))
          CFI (cfiCond286) V0 load(1, XDATA, add(CFA_XSP16, literal(-12)))
          CFI (cfiCond286) V1 load(1, XDATA, add(CFA_XSP16, literal(-11)))
          CFI (cfiCond286) V2 load(1, XDATA, add(CFA_XSP16, literal(-10)))
          CFI (cfiCond286) V3 load(1, XDATA, add(CFA_XSP16, literal(-9)))
          CFI (cfiCond286) V4 load(1, XDATA, add(CFA_XSP16, literal(-8)))
          CFI (cfiCond286) V5 load(1, XDATA, add(CFA_XSP16, literal(-7)))
          CFI (cfiCond286) R7 load(1, XDATA, add(CFA_XSP16, literal(-6)))
          CFI (cfiCond286) ?RET_LOW load(1, XDATA, add(CFA_XSP16, literal(-5)))
          CFI (cfiCond286) ?RET_HIGH load(1, XDATA, add(CFA_XSP16, literal(-4)))
          CFI (cfiCond286) ?BRET_EXT load(1, XDATA, add(CFA_XSP16, literal(-3)))
          CFI (cfiCond286) DPL0 load(1, XDATA, add(CFA_XSP16, literal(-2)))
          CFI (cfiCond286) DPH0 load(1, XDATA, add(CFA_XSP16, literal(-1)))
          CFI (cfiCond286) CFA_SP SP+-2
          CFI (cfiCond286) CFA_XSP16 add(XSP16, 14)
          CFI Block cfiPicker287 Using cfiCommon1
          CFI (cfiPicker287) NoFunction
          CFI (cfiPicker287) Picker
        LCALL     ?Subroutine53 & 0xFFFF
??CrossCallReturnLabel_104:
        INC       DPTR
        MOVX      @DPTR,A
        RET
          CFI EndBlock cfiCond285
          CFI EndBlock cfiCond286
          CFI EndBlock cfiPicker287

        RSEG BANKED_CODE:HUGECODE:NOROOT(0)
?Subroutine53:
          CFI Block cfiCond288 Using cfiCommon0
          CFI Function MT_ZdoBeaconIndCB
          CFI Conditional ??CrossCallReturnLabel_105, ??CrossCallReturnLabel_43
          CFI R6 load(1, XDATA, add(CFA_XSP16, literal(-11)))
          CFI VB load(1, XDATA, add(CFA_XSP16, literal(-10)))
          CFI V0 load(1, XDATA, add(CFA_XSP16, literal(-9)))
          CFI V1 load(1, XDATA, add(CFA_XSP16, literal(-8)))
          CFI V2 load(1, XDATA, add(CFA_XSP16, literal(-7)))
          CFI R7 load(1, XDATA, add(CFA_XSP16, literal(-6)))
          CFI ?RET_LOW load(1, XDATA, add(CFA_XSP16, literal(-5)))
          CFI ?RET_HIGH load(1, XDATA, add(CFA_XSP16, literal(-4)))
          CFI ?BRET_EXT load(1, XDATA, add(CFA_XSP16, literal(-3)))
          CFI DPL0 load(1, XDATA, add(CFA_XSP16, literal(-2)))
          CFI DPH0 load(1, XDATA, add(CFA_XSP16, literal(-1)))
          CFI CFA_SP SP+-4
          CFI CFA_XSP16 add(XSP16, 11)
          CFI Block cfiCond289 Using cfiCommon0
          CFI (cfiCond289) Function MT_ZdoSendMsgCB
          CFI (cfiCond289) Conditional ??CrossCallReturnLabel_105, ??CrossCallReturnLabel_44
          CFI (cfiCond289) R6 load(1, XDATA, add(CFA_XSP16, literal(-14)))
          CFI (cfiCond289) VB load(1, XDATA, add(CFA_XSP16, literal(-13)))
          CFI (cfiCond289) V0 load(1, XDATA, add(CFA_XSP16, literal(-12)))
          CFI (cfiCond289) V1 load(1, XDATA, add(CFA_XSP16, literal(-11)))
          CFI (cfiCond289) V2 load(1, XDATA, add(CFA_XSP16, literal(-10)))
          CFI (cfiCond289) V3 load(1, XDATA, add(CFA_XSP16, literal(-9)))
          CFI (cfiCond289) V4 load(1, XDATA, add(CFA_XSP16, literal(-8)))
          CFI (cfiCond289) V5 load(1, XDATA, add(CFA_XSP16, literal(-7)))
          CFI (cfiCond289) R7 load(1, XDATA, add(CFA_XSP16, literal(-6)))
          CFI (cfiCond289) ?RET_LOW load(1, XDATA, add(CFA_XSP16, literal(-5)))
          CFI (cfiCond289) ?RET_HIGH load(1, XDATA, add(CFA_XSP16, literal(-4)))
          CFI (cfiCond289) ?BRET_EXT load(1, XDATA, add(CFA_XSP16, literal(-3)))
          CFI (cfiCond289) DPL0 load(1, XDATA, add(CFA_XSP16, literal(-2)))
          CFI (cfiCond289) DPH0 load(1, XDATA, add(CFA_XSP16, literal(-1)))
          CFI (cfiCond289) CFA_SP SP+-4
          CFI (cfiCond289) CFA_XSP16 add(XSP16, 14)
          CFI Block cfiCond290 Using cfiCommon0
          CFI (cfiCond290) Function MT_ZdoBeaconIndCB
          CFI (cfiCond290) Conditional ??CrossCallReturnLabel_104, ??CrossCallReturnLabel_39
          CFI (cfiCond290) R6 load(1, XDATA, add(CFA_XSP16, literal(-11)))
          CFI (cfiCond290) VB load(1, XDATA, add(CFA_XSP16, literal(-10)))
          CFI (cfiCond290) V0 load(1, XDATA, add(CFA_XSP16, literal(-9)))
          CFI (cfiCond290) V1 load(1, XDATA, add(CFA_XSP16, literal(-8)))
          CFI (cfiCond290) V2 load(1, XDATA, add(CFA_XSP16, literal(-7)))
          CFI (cfiCond290) R7 load(1, XDATA, add(CFA_XSP16, literal(-6)))
          CFI (cfiCond290) ?RET_LOW load(1, XDATA, add(CFA_XSP16, literal(-5)))
          CFI (cfiCond290) ?RET_HIGH load(1, XDATA, add(CFA_XSP16, literal(-4)))
          CFI (cfiCond290) ?BRET_EXT load(1, XDATA, add(CFA_XSP16, literal(-3)))
          CFI (cfiCond290) DPL0 load(1, XDATA, add(CFA_XSP16, literal(-2)))
          CFI (cfiCond290) DPH0 load(1, XDATA, add(CFA_XSP16, literal(-1)))
          CFI (cfiCond290) CFA_SP SP+-4
          CFI (cfiCond290) CFA_XSP16 add(XSP16, 11)
          CFI Block cfiCond291 Using cfiCommon0
          CFI (cfiCond291) Function MT_ZdoSendMsgCB
          CFI (cfiCond291) Conditional ??CrossCallReturnLabel_104, ??CrossCallReturnLabel_40
          CFI (cfiCond291) R6 load(1, XDATA, add(CFA_XSP16, literal(-14)))
          CFI (cfiCond291) VB load(1, XDATA, add(CFA_XSP16, literal(-13)))
          CFI (cfiCond291) V0 load(1, XDATA, add(CFA_XSP16, literal(-12)))
          CFI (cfiCond291) V1 load(1, XDATA, add(CFA_XSP16, literal(-11)))
          CFI (cfiCond291) V2 load(1, XDATA, add(CFA_XSP16, literal(-10)))
          CFI (cfiCond291) V3 load(1, XDATA, add(CFA_XSP16, literal(-9)))
          CFI (cfiCond291) V4 load(1, XDATA, add(CFA_XSP16, literal(-8)))
          CFI (cfiCond291) V5 load(1, XDATA, add(CFA_XSP16, literal(-7)))
          CFI (cfiCond291) R7 load(1, XDATA, add(CFA_XSP16, literal(-6)))
          CFI (cfiCond291) ?RET_LOW load(1, XDATA, add(CFA_XSP16, literal(-5)))
          CFI (cfiCond291) ?RET_HIGH load(1, XDATA, add(CFA_XSP16, literal(-4)))
          CFI (cfiCond291) ?BRET_EXT load(1, XDATA, add(CFA_XSP16, literal(-3)))
          CFI (cfiCond291) DPL0 load(1, XDATA, add(CFA_XSP16, literal(-2)))
          CFI (cfiCond291) DPH0 load(1, XDATA, add(CFA_XSP16, literal(-1)))
          CFI (cfiCond291) CFA_SP SP+-4
          CFI (cfiCond291) CFA_XSP16 add(XSP16, 14)
          CFI Block cfiPicker292 Using cfiCommon1
          CFI (cfiPicker292) NoFunction
          CFI (cfiPicker292) Picker
        LCALL     ?Subroutine58 & 0xFFFF
??CrossCallReturnLabel_113:
        INC       DPTR
        RET
          CFI EndBlock cfiCond288
          CFI EndBlock cfiCond289
          CFI EndBlock cfiCond290
          CFI EndBlock cfiCond291
          CFI EndBlock cfiPicker292

        RSEG BANKED_CODE:HUGECODE:NOROOT(0)
?Subroutine58:
          CFI Block cfiCond293 Using cfiCommon0
          CFI Function MT_ZdoBeaconIndCB
          CFI Conditional ??CrossCallReturnLabel_112, ??CrossCallReturnLabel_45
          CFI R6 load(1, XDATA, add(CFA_XSP16, literal(-11)))
          CFI VB load(1, XDATA, add(CFA_XSP16, literal(-10)))
          CFI V0 load(1, XDATA, add(CFA_XSP16, literal(-9)))
          CFI V1 load(1, XDATA, add(CFA_XSP16, literal(-8)))
          CFI V2 load(1, XDATA, add(CFA_XSP16, literal(-7)))
          CFI R7 load(1, XDATA, add(CFA_XSP16, literal(-6)))
          CFI ?RET_LOW load(1, XDATA, add(CFA_XSP16, literal(-5)))
          CFI ?RET_HIGH load(1, XDATA, add(CFA_XSP16, literal(-4)))
          CFI ?BRET_EXT load(1, XDATA, add(CFA_XSP16, literal(-3)))
          CFI DPL0 load(1, XDATA, add(CFA_XSP16, literal(-2)))
          CFI DPH0 load(1, XDATA, add(CFA_XSP16, literal(-1)))
          CFI CFA_SP SP+-4
          CFI CFA_XSP16 add(XSP16, 11)
          CFI Block cfiCond294 Using cfiCommon0
          CFI (cfiCond294) Function MT_ZdoSendMsgCB
          CFI (cfiCond294) Conditional ??CrossCallReturnLabel_112, ??CrossCallReturnLabel_46
          CFI (cfiCond294) R6 load(1, XDATA, add(CFA_XSP16, literal(-14)))
          CFI (cfiCond294) VB load(1, XDATA, add(CFA_XSP16, literal(-13)))
          CFI (cfiCond294) V0 load(1, XDATA, add(CFA_XSP16, literal(-12)))
          CFI (cfiCond294) V1 load(1, XDATA, add(CFA_XSP16, literal(-11)))
          CFI (cfiCond294) V2 load(1, XDATA, add(CFA_XSP16, literal(-10)))
          CFI (cfiCond294) V3 load(1, XDATA, add(CFA_XSP16, literal(-9)))
          CFI (cfiCond294) V4 load(1, XDATA, add(CFA_XSP16, literal(-8)))
          CFI (cfiCond294) V5 load(1, XDATA, add(CFA_XSP16, literal(-7)))
          CFI (cfiCond294) R7 load(1, XDATA, add(CFA_XSP16, literal(-6)))
          CFI (cfiCond294) ?RET_LOW load(1, XDATA, add(CFA_XSP16, literal(-5)))
          CFI (cfiCond294) ?RET_HIGH load(1, XDATA, add(CFA_XSP16, literal(-4)))
          CFI (cfiCond294) ?BRET_EXT load(1, XDATA, add(CFA_XSP16, literal(-3)))
          CFI (cfiCond294) DPL0 load(1, XDATA, add(CFA_XSP16, literal(-2)))
          CFI (cfiCond294) DPH0 load(1, XDATA, add(CFA_XSP16, literal(-1)))
          CFI (cfiCond294) CFA_SP SP+-4
          CFI (cfiCond294) CFA_XSP16 add(XSP16, 14)
          CFI Block cfiCond295 Using cfiCommon0
          CFI (cfiCond295) Function MT_ZdoBeaconIndCB
          CFI (cfiCond295) Conditional ??CrossCallReturnLabel_113, ??CrossCallReturnLabel_105, ??CrossCallReturnLabel_43
          CFI (cfiCond295) R6 load(1, XDATA, add(CFA_XSP16, literal(-11)))
          CFI (cfiCond295) VB load(1, XDATA, add(CFA_XSP16, literal(-10)))
          CFI (cfiCond295) V0 load(1, XDATA, add(CFA_XSP16, literal(-9)))
          CFI (cfiCond295) V1 load(1, XDATA, add(CFA_XSP16, literal(-8)))
          CFI (cfiCond295) V2 load(1, XDATA, add(CFA_XSP16, literal(-7)))
          CFI (cfiCond295) R7 load(1, XDATA, add(CFA_XSP16, literal(-6)))
          CFI (cfiCond295) ?RET_LOW load(1, XDATA, add(CFA_XSP16, literal(-5)))
          CFI (cfiCond295) ?RET_HIGH load(1, XDATA, add(CFA_XSP16, literal(-4)))
          CFI (cfiCond295) ?BRET_EXT load(1, XDATA, add(CFA_XSP16, literal(-3)))
          CFI (cfiCond295) DPL0 load(1, XDATA, add(CFA_XSP16, literal(-2)))
          CFI (cfiCond295) DPH0 load(1, XDATA, add(CFA_XSP16, literal(-1)))
          CFI (cfiCond295) CFA_SP SP+-6
          CFI (cfiCond295) CFA_XSP16 add(XSP16, 11)
          CFI Block cfiCond296 Using cfiCommon0
          CFI (cfiCond296) Function MT_ZdoSendMsgCB
          CFI (cfiCond296) Conditional ??CrossCallReturnLabel_113, ??CrossCallReturnLabel_105, ??CrossCallReturnLabel_44
          CFI (cfiCond296) R6 load(1, XDATA, add(CFA_XSP16, literal(-14)))
          CFI (cfiCond296) VB load(1, XDATA, add(CFA_XSP16, literal(-13)))
          CFI (cfiCond296) V0 load(1, XDATA, add(CFA_XSP16, literal(-12)))
          CFI (cfiCond296) V1 load(1, XDATA, add(CFA_XSP16, literal(-11)))
          CFI (cfiCond296) V2 load(1, XDATA, add(CFA_XSP16, literal(-10)))
          CFI (cfiCond296) V3 load(1, XDATA, add(CFA_XSP16, literal(-9)))
          CFI (cfiCond296) V4 load(1, XDATA, add(CFA_XSP16, literal(-8)))
          CFI (cfiCond296) V5 load(1, XDATA, add(CFA_XSP16, literal(-7)))
          CFI (cfiCond296) R7 load(1, XDATA, add(CFA_XSP16, literal(-6)))
          CFI (cfiCond296) ?RET_LOW load(1, XDATA, add(CFA_XSP16, literal(-5)))
          CFI (cfiCond296) ?RET_HIGH load(1, XDATA, add(CFA_XSP16, literal(-4)))
          CFI (cfiCond296) ?BRET_EXT load(1, XDATA, add(CFA_XSP16, literal(-3)))
          CFI (cfiCond296) DPL0 load(1, XDATA, add(CFA_XSP16, literal(-2)))
          CFI (cfiCond296) DPH0 load(1, XDATA, add(CFA_XSP16, literal(-1)))
          CFI (cfiCond296) CFA_SP SP+-6
          CFI (cfiCond296) CFA_XSP16 add(XSP16, 14)
          CFI Block cfiCond297 Using cfiCommon0
          CFI (cfiCond297) Function MT_ZdoBeaconIndCB
          CFI (cfiCond297) Conditional ??CrossCallReturnLabel_113, ??CrossCallReturnLabel_104, ??CrossCallReturnLabel_39
          CFI (cfiCond297) R6 load(1, XDATA, add(CFA_XSP16, literal(-11)))
          CFI (cfiCond297) VB load(1, XDATA, add(CFA_XSP16, literal(-10)))
          CFI (cfiCond297) V0 load(1, XDATA, add(CFA_XSP16, literal(-9)))
          CFI (cfiCond297) V1 load(1, XDATA, add(CFA_XSP16, literal(-8)))
          CFI (cfiCond297) V2 load(1, XDATA, add(CFA_XSP16, literal(-7)))
          CFI (cfiCond297) R7 load(1, XDATA, add(CFA_XSP16, literal(-6)))
          CFI (cfiCond297) ?RET_LOW load(1, XDATA, add(CFA_XSP16, literal(-5)))
          CFI (cfiCond297) ?RET_HIGH load(1, XDATA, add(CFA_XSP16, literal(-4)))
          CFI (cfiCond297) ?BRET_EXT load(1, XDATA, add(CFA_XSP16, literal(-3)))
          CFI (cfiCond297) DPL0 load(1, XDATA, add(CFA_XSP16, literal(-2)))
          CFI (cfiCond297) DPH0 load(1, XDATA, add(CFA_XSP16, literal(-1)))
          CFI (cfiCond297) CFA_SP SP+-6
          CFI (cfiCond297) CFA_XSP16 add(XSP16, 11)
          CFI Block cfiCond298 Using cfiCommon0
          CFI (cfiCond298) Function MT_ZdoSendMsgCB
          CFI (cfiCond298) Conditional ??CrossCallReturnLabel_113, ??CrossCallReturnLabel_104, ??CrossCallReturnLabel_40
          CFI (cfiCond298) R6 load(1, XDATA, add(CFA_XSP16, literal(-14)))
          CFI (cfiCond298) VB load(1, XDATA, add(CFA_XSP16, literal(-13)))
          CFI (cfiCond298) V0 load(1, XDATA, add(CFA_XSP16, literal(-12)))
          CFI (cfiCond298) V1 load(1, XDATA, add(CFA_XSP16, literal(-11)))
          CFI (cfiCond298) V2 load(1, XDATA, add(CFA_XSP16, literal(-10)))
          CFI (cfiCond298) V3 load(1, XDATA, add(CFA_XSP16, literal(-9)))
          CFI (cfiCond298) V4 load(1, XDATA, add(CFA_XSP16, literal(-8)))
          CFI (cfiCond298) V5 load(1, XDATA, add(CFA_XSP16, literal(-7)))
          CFI (cfiCond298) R7 load(1, XDATA, add(CFA_XSP16, literal(-6)))
          CFI (cfiCond298) ?RET_LOW load(1, XDATA, add(CFA_XSP16, literal(-5)))
          CFI (cfiCond298) ?RET_HIGH load(1, XDATA, add(CFA_XSP16, literal(-4)))
          CFI (cfiCond298) ?BRET_EXT load(1, XDATA, add(CFA_XSP16, literal(-3)))
          CFI (cfiCond298) DPL0 load(1, XDATA, add(CFA_XSP16, literal(-2)))
          CFI (cfiCond298) DPH0 load(1, XDATA, add(CFA_XSP16, literal(-1)))
          CFI (cfiCond298) CFA_SP SP+-6
          CFI (cfiCond298) CFA_XSP16 add(XSP16, 14)
          CFI Block cfiPicker299 Using cfiCommon1
          CFI (cfiPicker299) NoFunction
          CFI (cfiPicker299) Picker
        LCALL     ?Subroutine59 & 0xFFFF
??CrossCallReturnLabel_115:
        RET
          CFI EndBlock cfiCond293
          CFI EndBlock cfiCond294
          CFI EndBlock cfiCond295
          CFI EndBlock cfiCond296
          CFI EndBlock cfiCond297
          CFI EndBlock cfiCond298
          CFI EndBlock cfiPicker299

        RSEG BANKED_CODE:HUGECODE:NOROOT(0)
?Subroutine59:
          CFI Block cfiCond300 Using cfiCommon0
          CFI Function MT_ZdoBeaconIndCB
          CFI Conditional ??CrossCallReturnLabel_115, ??CrossCallReturnLabel_112, ??CrossCallReturnLabel_45
          CFI R6 load(1, XDATA, add(CFA_XSP16, literal(-11)))
          CFI VB load(1, XDATA, add(CFA_XSP16, literal(-10)))
          CFI V0 load(1, XDATA, add(CFA_XSP16, literal(-9)))
          CFI V1 load(1, XDATA, add(CFA_XSP16, literal(-8)))
          CFI V2 load(1, XDATA, add(CFA_XSP16, literal(-7)))
          CFI R7 load(1, XDATA, add(CFA_XSP16, literal(-6)))
          CFI ?RET_LOW load(1, XDATA, add(CFA_XSP16, literal(-5)))
          CFI ?RET_HIGH load(1, XDATA, add(CFA_XSP16, literal(-4)))
          CFI ?BRET_EXT load(1, XDATA, add(CFA_XSP16, literal(-3)))
          CFI DPL0 load(1, XDATA, add(CFA_XSP16, literal(-2)))
          CFI DPH0 load(1, XDATA, add(CFA_XSP16, literal(-1)))
          CFI CFA_SP SP+-6
          CFI CFA_XSP16 add(XSP16, 11)
          CFI Block cfiCond301 Using cfiCommon0
          CFI (cfiCond301) Function MT_ZdoSendMsgCB
          CFI (cfiCond301) Conditional ??CrossCallReturnLabel_115, ??CrossCallReturnLabel_112, ??CrossCallReturnLabel_46
          CFI (cfiCond301) R6 load(1, XDATA, add(CFA_XSP16, literal(-14)))
          CFI (cfiCond301) VB load(1, XDATA, add(CFA_XSP16, literal(-13)))
          CFI (cfiCond301) V0 load(1, XDATA, add(CFA_XSP16, literal(-12)))
          CFI (cfiCond301) V1 load(1, XDATA, add(CFA_XSP16, literal(-11)))
          CFI (cfiCond301) V2 load(1, XDATA, add(CFA_XSP16, literal(-10)))
          CFI (cfiCond301) V3 load(1, XDATA, add(CFA_XSP16, literal(-9)))
          CFI (cfiCond301) V4 load(1, XDATA, add(CFA_XSP16, literal(-8)))
          CFI (cfiCond301) V5 load(1, XDATA, add(CFA_XSP16, literal(-7)))
          CFI (cfiCond301) R7 load(1, XDATA, add(CFA_XSP16, literal(-6)))
          CFI (cfiCond301) ?RET_LOW load(1, XDATA, add(CFA_XSP16, literal(-5)))
          CFI (cfiCond301) ?RET_HIGH load(1, XDATA, add(CFA_XSP16, literal(-4)))
          CFI (cfiCond301) ?BRET_EXT load(1, XDATA, add(CFA_XSP16, literal(-3)))
          CFI (cfiCond301) DPL0 load(1, XDATA, add(CFA_XSP16, literal(-2)))
          CFI (cfiCond301) DPH0 load(1, XDATA, add(CFA_XSP16, literal(-1)))
          CFI (cfiCond301) CFA_SP SP+-6
          CFI (cfiCond301) CFA_XSP16 add(XSP16, 14)
          CFI Block cfiCond302 Using cfiCommon0
          CFI (cfiCond302) Function MT_ZdoBeaconIndCB
          CFI (cfiCond302) Conditional ??CrossCallReturnLabel_115, ??CrossCallReturnLabel_113, ??CrossCallReturnLabel_105, ??CrossCallReturnLabel_43
          CFI (cfiCond302) R6 load(1, XDATA, add(CFA_XSP16, literal(-11)))
          CFI (cfiCond302) VB load(1, XDATA, add(CFA_XSP16, literal(-10)))
          CFI (cfiCond302) V0 load(1, XDATA, add(CFA_XSP16, literal(-9)))
          CFI (cfiCond302) V1 load(1, XDATA, add(CFA_XSP16, literal(-8)))
          CFI (cfiCond302) V2 load(1, XDATA, add(CFA_XSP16, literal(-7)))
          CFI (cfiCond302) R7 load(1, XDATA, add(CFA_XSP16, literal(-6)))
          CFI (cfiCond302) ?RET_LOW load(1, XDATA, add(CFA_XSP16, literal(-5)))
          CFI (cfiCond302) ?RET_HIGH load(1, XDATA, add(CFA_XSP16, literal(-4)))
          CFI (cfiCond302) ?BRET_EXT load(1, XDATA, add(CFA_XSP16, literal(-3)))
          CFI (cfiCond302) DPL0 load(1, XDATA, add(CFA_XSP16, literal(-2)))
          CFI (cfiCond302) DPH0 load(1, XDATA, add(CFA_XSP16, literal(-1)))
          CFI (cfiCond302) CFA_SP SP+-8
          CFI (cfiCond302) CFA_XSP16 add(XSP16, 11)
          CFI Block cfiCond303 Using cfiCommon0
          CFI (cfiCond303) Function MT_ZdoSendMsgCB
          CFI (cfiCond303) Conditional ??CrossCallReturnLabel_115, ??CrossCallReturnLabel_113, ??CrossCallReturnLabel_105, ??CrossCallReturnLabel_44
          CFI (cfiCond303) R6 load(1, XDATA, add(CFA_XSP16, literal(-14)))
          CFI (cfiCond303) VB load(1, XDATA, add(CFA_XSP16, literal(-13)))
          CFI (cfiCond303) V0 load(1, XDATA, add(CFA_XSP16, literal(-12)))
          CFI (cfiCond303) V1 load(1, XDATA, add(CFA_XSP16, literal(-11)))
          CFI (cfiCond303) V2 load(1, XDATA, add(CFA_XSP16, literal(-10)))
          CFI (cfiCond303) V3 load(1, XDATA, add(CFA_XSP16, literal(-9)))
          CFI (cfiCond303) V4 load(1, XDATA, add(CFA_XSP16, literal(-8)))
          CFI (cfiCond303) V5 load(1, XDATA, add(CFA_XSP16, literal(-7)))
          CFI (cfiCond303) R7 load(1, XDATA, add(CFA_XSP16, literal(-6)))
          CFI (cfiCond303) ?RET_LOW load(1, XDATA, add(CFA_XSP16, literal(-5)))
          CFI (cfiCond303) ?RET_HIGH load(1, XDATA, add(CFA_XSP16, literal(-4)))
          CFI (cfiCond303) ?BRET_EXT load(1, XDATA, add(CFA_XSP16, literal(-3)))
          CFI (cfiCond303) DPL0 load(1, XDATA, add(CFA_XSP16, literal(-2)))
          CFI (cfiCond303) DPH0 load(1, XDATA, add(CFA_XSP16, literal(-1)))
          CFI (cfiCond303) CFA_SP SP+-8
          CFI (cfiCond303) CFA_XSP16 add(XSP16, 14)
          CFI Block cfiCond304 Using cfiCommon0
          CFI (cfiCond304) Function MT_ZdoBeaconIndCB
          CFI (cfiCond304) Conditional ??CrossCallReturnLabel_115, ??CrossCallReturnLabel_113, ??CrossCallReturnLabel_104, ??CrossCallReturnLabel_39
          CFI (cfiCond304) R6 load(1, XDATA, add(CFA_XSP16, literal(-11)))
          CFI (cfiCond304) VB load(1, XDATA, add(CFA_XSP16, literal(-10)))
          CFI (cfiCond304) V0 load(1, XDATA, add(CFA_XSP16, literal(-9)))
          CFI (cfiCond304) V1 load(1, XDATA, add(CFA_XSP16, literal(-8)))
          CFI (cfiCond304) V2 load(1, XDATA, add(CFA_XSP16, literal(-7)))
          CFI (cfiCond304) R7 load(1, XDATA, add(CFA_XSP16, literal(-6)))
          CFI (cfiCond304) ?RET_LOW load(1, XDATA, add(CFA_XSP16, literal(-5)))
          CFI (cfiCond304) ?RET_HIGH load(1, XDATA, add(CFA_XSP16, literal(-4)))
          CFI (cfiCond304) ?BRET_EXT load(1, XDATA, add(CFA_XSP16, literal(-3)))
          CFI (cfiCond304) DPL0 load(1, XDATA, add(CFA_XSP16, literal(-2)))
          CFI (cfiCond304) DPH0 load(1, XDATA, add(CFA_XSP16, literal(-1)))
          CFI (cfiCond304) CFA_SP SP+-8
          CFI (cfiCond304) CFA_XSP16 add(XSP16, 11)
          CFI Block cfiCond305 Using cfiCommon0
          CFI (cfiCond305) Function MT_ZdoSendMsgCB
          CFI (cfiCond305) Conditional ??CrossCallReturnLabel_115, ??CrossCallReturnLabel_113, ??CrossCallReturnLabel_104, ??CrossCallReturnLabel_40
          CFI (cfiCond305) R6 load(1, XDATA, add(CFA_XSP16, literal(-14)))
          CFI (cfiCond305) VB load(1, XDATA, add(CFA_XSP16, literal(-13)))
          CFI (cfiCond305) V0 load(1, XDATA, add(CFA_XSP16, literal(-12)))
          CFI (cfiCond305) V1 load(1, XDATA, add(CFA_XSP16, literal(-11)))
          CFI (cfiCond305) V2 load(1, XDATA, add(CFA_XSP16, literal(-10)))
          CFI (cfiCond305) V3 load(1, XDATA, add(CFA_XSP16, literal(-9)))
          CFI (cfiCond305) V4 load(1, XDATA, add(CFA_XSP16, literal(-8)))
          CFI (cfiCond305) V5 load(1, XDATA, add(CFA_XSP16, literal(-7)))
          CFI (cfiCond305) R7 load(1, XDATA, add(CFA_XSP16, literal(-6)))
          CFI (cfiCond305) ?RET_LOW load(1, XDATA, add(CFA_XSP16, literal(-5)))
          CFI (cfiCond305) ?RET_HIGH load(1, XDATA, add(CFA_XSP16, literal(-4)))
          CFI (cfiCond305) ?BRET_EXT load(1, XDATA, add(CFA_XSP16, literal(-3)))
          CFI (cfiCond305) DPL0 load(1, XDATA, add(CFA_XSP16, literal(-2)))
          CFI (cfiCond305) DPH0 load(1, XDATA, add(CFA_XSP16, literal(-1)))
          CFI (cfiCond305) CFA_SP SP+-8
          CFI (cfiCond305) CFA_XSP16 add(XSP16, 14)
          CFI Block cfiCond306 Using cfiCommon0
          CFI (cfiCond306) Function MT_ZdoBeaconIndCB
          CFI (cfiCond306) Conditional ??CrossCallReturnLabel_114, ??CrossCallReturnLabel_111, ??CrossCallReturnLabel_99, ??CrossCallReturnLabel_37
          CFI (cfiCond306) R6 load(1, XDATA, add(CFA_XSP16, literal(-11)))
          CFI (cfiCond306) VB load(1, XDATA, add(CFA_XSP16, literal(-10)))
          CFI (cfiCond306) V0 load(1, XDATA, add(CFA_XSP16, literal(-9)))
          CFI (cfiCond306) V1 load(1, XDATA, add(CFA_XSP16, literal(-8)))
          CFI (cfiCond306) V2 load(1, XDATA, add(CFA_XSP16, literal(-7)))
          CFI (cfiCond306) R7 load(1, XDATA, add(CFA_XSP16, literal(-6)))
          CFI (cfiCond306) ?RET_LOW load(1, XDATA, add(CFA_XSP16, literal(-5)))
          CFI (cfiCond306) ?RET_HIGH load(1, XDATA, add(CFA_XSP16, literal(-4)))
          CFI (cfiCond306) ?BRET_EXT load(1, XDATA, add(CFA_XSP16, literal(-3)))
          CFI (cfiCond306) DPL0 load(1, XDATA, add(CFA_XSP16, literal(-2)))
          CFI (cfiCond306) DPH0 load(1, XDATA, add(CFA_XSP16, literal(-1)))
          CFI (cfiCond306) CFA_SP SP+-8
          CFI (cfiCond306) CFA_XSP16 add(XSP16, 11)
          CFI Block cfiCond307 Using cfiCommon0
          CFI (cfiCond307) Function MT_ZdoSendMsgCB
          CFI (cfiCond307) Conditional ??CrossCallReturnLabel_114, ??CrossCallReturnLabel_111, ??CrossCallReturnLabel_99, ??CrossCallReturnLabel_38
          CFI (cfiCond307) R6 load(1, XDATA, add(CFA_XSP16, literal(-14)))
          CFI (cfiCond307) VB load(1, XDATA, add(CFA_XSP16, literal(-13)))
          CFI (cfiCond307) V0 load(1, XDATA, add(CFA_XSP16, literal(-12)))
          CFI (cfiCond307) V1 load(1, XDATA, add(CFA_XSP16, literal(-11)))
          CFI (cfiCond307) V2 load(1, XDATA, add(CFA_XSP16, literal(-10)))
          CFI (cfiCond307) V3 load(1, XDATA, add(CFA_XSP16, literal(-9)))
          CFI (cfiCond307) V4 load(1, XDATA, add(CFA_XSP16, literal(-8)))
          CFI (cfiCond307) V5 load(1, XDATA, add(CFA_XSP16, literal(-7)))
          CFI (cfiCond307) R7 load(1, XDATA, add(CFA_XSP16, literal(-6)))
          CFI (cfiCond307) ?RET_LOW load(1, XDATA, add(CFA_XSP16, literal(-5)))
          CFI (cfiCond307) ?RET_HIGH load(1, XDATA, add(CFA_XSP16, literal(-4)))
          CFI (cfiCond307) ?BRET_EXT load(1, XDATA, add(CFA_XSP16, literal(-3)))
          CFI (cfiCond307) DPL0 load(1, XDATA, add(CFA_XSP16, literal(-2)))
          CFI (cfiCond307) DPH0 load(1, XDATA, add(CFA_XSP16, literal(-1)))
          CFI (cfiCond307) CFA_SP SP+-8
          CFI (cfiCond307) CFA_XSP16 add(XSP16, 14)
          CFI Block cfiCond308 Using cfiCommon0
          CFI (cfiCond308) Function MT_ZdoBeaconIndCB
          CFI (cfiCond308) Conditional ??CrossCallReturnLabel_114, ??CrossCallReturnLabel_111, ??CrossCallReturnLabel_98, ??CrossCallReturnLabel_35
          CFI (cfiCond308) R6 load(1, XDATA, add(CFA_XSP16, literal(-11)))
          CFI (cfiCond308) VB load(1, XDATA, add(CFA_XSP16, literal(-10)))
          CFI (cfiCond308) V0 load(1, XDATA, add(CFA_XSP16, literal(-9)))
          CFI (cfiCond308) V1 load(1, XDATA, add(CFA_XSP16, literal(-8)))
          CFI (cfiCond308) V2 load(1, XDATA, add(CFA_XSP16, literal(-7)))
          CFI (cfiCond308) R7 load(1, XDATA, add(CFA_XSP16, literal(-6)))
          CFI (cfiCond308) ?RET_LOW load(1, XDATA, add(CFA_XSP16, literal(-5)))
          CFI (cfiCond308) ?RET_HIGH load(1, XDATA, add(CFA_XSP16, literal(-4)))
          CFI (cfiCond308) ?BRET_EXT load(1, XDATA, add(CFA_XSP16, literal(-3)))
          CFI (cfiCond308) DPL0 load(1, XDATA, add(CFA_XSP16, literal(-2)))
          CFI (cfiCond308) DPH0 load(1, XDATA, add(CFA_XSP16, literal(-1)))
          CFI (cfiCond308) CFA_SP SP+-8
          CFI (cfiCond308) CFA_XSP16 add(XSP16, 11)
          CFI Block cfiCond309 Using cfiCommon0
          CFI (cfiCond309) Function MT_ZdoSendMsgCB
          CFI (cfiCond309) Conditional ??CrossCallReturnLabel_114, ??CrossCallReturnLabel_111, ??CrossCallReturnLabel_98, ??CrossCallReturnLabel_36
          CFI (cfiCond309) R6 load(1, XDATA, add(CFA_XSP16, literal(-14)))
          CFI (cfiCond309) VB load(1, XDATA, add(CFA_XSP16, literal(-13)))
          CFI (cfiCond309) V0 load(1, XDATA, add(CFA_XSP16, literal(-12)))
          CFI (cfiCond309) V1 load(1, XDATA, add(CFA_XSP16, literal(-11)))
          CFI (cfiCond309) V2 load(1, XDATA, add(CFA_XSP16, literal(-10)))
          CFI (cfiCond309) V3 load(1, XDATA, add(CFA_XSP16, literal(-9)))
          CFI (cfiCond309) V4 load(1, XDATA, add(CFA_XSP16, literal(-8)))
          CFI (cfiCond309) V5 load(1, XDATA, add(CFA_XSP16, literal(-7)))
          CFI (cfiCond309) R7 load(1, XDATA, add(CFA_XSP16, literal(-6)))
          CFI (cfiCond309) ?RET_LOW load(1, XDATA, add(CFA_XSP16, literal(-5)))
          CFI (cfiCond309) ?RET_HIGH load(1, XDATA, add(CFA_XSP16, literal(-4)))
          CFI (cfiCond309) ?BRET_EXT load(1, XDATA, add(CFA_XSP16, literal(-3)))
          CFI (cfiCond309) DPL0 load(1, XDATA, add(CFA_XSP16, literal(-2)))
          CFI (cfiCond309) DPH0 load(1, XDATA, add(CFA_XSP16, literal(-1)))
          CFI (cfiCond309) CFA_SP SP+-8
          CFI (cfiCond309) CFA_XSP16 add(XSP16, 14)
          CFI Block cfiCond310 Using cfiCommon0
          CFI (cfiCond310) Function MT_ZdoBeaconIndCB
          CFI (cfiCond310) Conditional ??CrossCallReturnLabel_114, ??CrossCallReturnLabel_110, ??CrossCallReturnLabel_95, ??CrossCallReturnLabel_26
          CFI (cfiCond310) R6 load(1, XDATA, add(CFA_XSP16, literal(-11)))
          CFI (cfiCond310) VB load(1, XDATA, add(CFA_XSP16, literal(-10)))
          CFI (cfiCond310) V0 load(1, XDATA, add(CFA_XSP16, literal(-9)))
          CFI (cfiCond310) V1 load(1, XDATA, add(CFA_XSP16, literal(-8)))
          CFI (cfiCond310) V2 load(1, XDATA, add(CFA_XSP16, literal(-7)))
          CFI (cfiCond310) R7 load(1, XDATA, add(CFA_XSP16, literal(-6)))
          CFI (cfiCond310) ?RET_LOW load(1, XDATA, add(CFA_XSP16, literal(-5)))
          CFI (cfiCond310) ?RET_HIGH load(1, XDATA, add(CFA_XSP16, literal(-4)))
          CFI (cfiCond310) ?BRET_EXT load(1, XDATA, add(CFA_XSP16, literal(-3)))
          CFI (cfiCond310) DPL0 load(1, XDATA, add(CFA_XSP16, literal(-2)))
          CFI (cfiCond310) DPH0 load(1, XDATA, add(CFA_XSP16, literal(-1)))
          CFI (cfiCond310) CFA_SP SP+-8
          CFI (cfiCond310) CFA_XSP16 add(XSP16, 11)
          CFI Block cfiCond311 Using cfiCommon0
          CFI (cfiCond311) Function MT_ZdoBeaconIndCB
          CFI (cfiCond311) Conditional ??CrossCallReturnLabel_114, ??CrossCallReturnLabel_110, ??CrossCallReturnLabel_95, ??CrossCallReturnLabel_27
          CFI (cfiCond311) R6 load(1, XDATA, add(CFA_XSP16, literal(-11)))
          CFI (cfiCond311) VB load(1, XDATA, add(CFA_XSP16, literal(-10)))
          CFI (cfiCond311) V0 load(1, XDATA, add(CFA_XSP16, literal(-9)))
          CFI (cfiCond311) V1 load(1, XDATA, add(CFA_XSP16, literal(-8)))
          CFI (cfiCond311) V2 load(1, XDATA, add(CFA_XSP16, literal(-7)))
          CFI (cfiCond311) R7 load(1, XDATA, add(CFA_XSP16, literal(-6)))
          CFI (cfiCond311) ?RET_LOW load(1, XDATA, add(CFA_XSP16, literal(-5)))
          CFI (cfiCond311) ?RET_HIGH load(1, XDATA, add(CFA_XSP16, literal(-4)))
          CFI (cfiCond311) ?BRET_EXT load(1, XDATA, add(CFA_XSP16, literal(-3)))
          CFI (cfiCond311) DPL0 load(1, XDATA, add(CFA_XSP16, literal(-2)))
          CFI (cfiCond311) DPH0 load(1, XDATA, add(CFA_XSP16, literal(-1)))
          CFI (cfiCond311) CFA_SP SP+-8
          CFI (cfiCond311) CFA_XSP16 add(XSP16, 11)
          CFI Block cfiCond312 Using cfiCommon0
          CFI (cfiCond312) Function MT_ZdoBeaconIndCB
          CFI (cfiCond312) Conditional ??CrossCallReturnLabel_114, ??CrossCallReturnLabel_110, ??CrossCallReturnLabel_94, ??CrossCallReturnLabel_24
          CFI (cfiCond312) R6 load(1, XDATA, add(CFA_XSP16, literal(-11)))
          CFI (cfiCond312) VB load(1, XDATA, add(CFA_XSP16, literal(-10)))
          CFI (cfiCond312) V0 load(1, XDATA, add(CFA_XSP16, literal(-9)))
          CFI (cfiCond312) V1 load(1, XDATA, add(CFA_XSP16, literal(-8)))
          CFI (cfiCond312) V2 load(1, XDATA, add(CFA_XSP16, literal(-7)))
          CFI (cfiCond312) R7 load(1, XDATA, add(CFA_XSP16, literal(-6)))
          CFI (cfiCond312) ?RET_LOW load(1, XDATA, add(CFA_XSP16, literal(-5)))
          CFI (cfiCond312) ?RET_HIGH load(1, XDATA, add(CFA_XSP16, literal(-4)))
          CFI (cfiCond312) ?BRET_EXT load(1, XDATA, add(CFA_XSP16, literal(-3)))
          CFI (cfiCond312) DPL0 load(1, XDATA, add(CFA_XSP16, literal(-2)))
          CFI (cfiCond312) DPH0 load(1, XDATA, add(CFA_XSP16, literal(-1)))
          CFI (cfiCond312) CFA_SP SP+-8
          CFI (cfiCond312) CFA_XSP16 add(XSP16, 11)
          CFI Block cfiCond313 Using cfiCommon0
          CFI (cfiCond313) Function MT_ZdoSendMsgCB
          CFI (cfiCond313) Conditional ??CrossCallReturnLabel_114, ??CrossCallReturnLabel_110, ??CrossCallReturnLabel_94, ??CrossCallReturnLabel_25
          CFI (cfiCond313) R6 load(1, XDATA, add(CFA_XSP16, literal(-14)))
          CFI (cfiCond313) VB load(1, XDATA, add(CFA_XSP16, literal(-13)))
          CFI (cfiCond313) V0 load(1, XDATA, add(CFA_XSP16, literal(-12)))
          CFI (cfiCond313) V1 load(1, XDATA, add(CFA_XSP16, literal(-11)))
          CFI (cfiCond313) V2 load(1, XDATA, add(CFA_XSP16, literal(-10)))
          CFI (cfiCond313) V3 load(1, XDATA, add(CFA_XSP16, literal(-9)))
          CFI (cfiCond313) V4 load(1, XDATA, add(CFA_XSP16, literal(-8)))
          CFI (cfiCond313) V5 load(1, XDATA, add(CFA_XSP16, literal(-7)))
          CFI (cfiCond313) R7 load(1, XDATA, add(CFA_XSP16, literal(-6)))
          CFI (cfiCond313) ?RET_LOW load(1, XDATA, add(CFA_XSP16, literal(-5)))
          CFI (cfiCond313) ?RET_HIGH load(1, XDATA, add(CFA_XSP16, literal(-4)))
          CFI (cfiCond313) ?BRET_EXT load(1, XDATA, add(CFA_XSP16, literal(-3)))
          CFI (cfiCond313) DPL0 load(1, XDATA, add(CFA_XSP16, literal(-2)))
          CFI (cfiCond313) DPH0 load(1, XDATA, add(CFA_XSP16, literal(-1)))
          CFI (cfiCond313) CFA_SP SP+-8
          CFI (cfiCond313) CFA_XSP16 add(XSP16, 14)
          CFI Block cfiPicker314 Using cfiCommon1
          CFI (cfiPicker314) NoFunction
          CFI (cfiPicker314) Picker
        MOVX      A,@DPTR
        MOV       DPL,R2
        MOV       DPH,R3
        INC       DPTR
        INC       DPTR
        INC       DPTR
        RET
          CFI EndBlock cfiCond300
          CFI EndBlock cfiCond301
          CFI EndBlock cfiCond302
          CFI EndBlock cfiCond303
          CFI EndBlock cfiCond304
          CFI EndBlock cfiCond305
          CFI EndBlock cfiCond306
          CFI EndBlock cfiCond307
          CFI EndBlock cfiCond308
          CFI EndBlock cfiCond309
          CFI EndBlock cfiCond310
          CFI EndBlock cfiCond311
          CFI EndBlock cfiCond312
          CFI EndBlock cfiCond313
          CFI EndBlock cfiPicker314

        RSEG BANKED_CODE:HUGECODE:NOROOT(0)
?Subroutine20:
          CFI Block cfiCond315 Using cfiCommon0
          CFI Function MT_ZdoBeaconIndCB
          CFI Conditional ??CrossCallReturnLabel_37
          CFI R6 load(1, XDATA, add(CFA_XSP16, literal(-11)))
          CFI VB load(1, XDATA, add(CFA_XSP16, literal(-10)))
          CFI V0 load(1, XDATA, add(CFA_XSP16, literal(-9)))
          CFI V1 load(1, XDATA, add(CFA_XSP16, literal(-8)))
          CFI V2 load(1, XDATA, add(CFA_XSP16, literal(-7)))
          CFI R7 load(1, XDATA, add(CFA_XSP16, literal(-6)))
          CFI ?RET_LOW load(1, XDATA, add(CFA_XSP16, literal(-5)))
          CFI ?RET_HIGH load(1, XDATA, add(CFA_XSP16, literal(-4)))
          CFI ?BRET_EXT load(1, XDATA, add(CFA_XSP16, literal(-3)))
          CFI DPL0 load(1, XDATA, add(CFA_XSP16, literal(-2)))
          CFI DPH0 load(1, XDATA, add(CFA_XSP16, literal(-1)))
          CFI CFA_SP SP+-2
          CFI CFA_XSP16 add(XSP16, 11)
          CFI Block cfiCond316 Using cfiCommon0
          CFI (cfiCond316) Function MT_ZdoSendMsgCB
          CFI (cfiCond316) Conditional ??CrossCallReturnLabel_38
          CFI (cfiCond316) R6 load(1, XDATA, add(CFA_XSP16, literal(-14)))
          CFI (cfiCond316) VB load(1, XDATA, add(CFA_XSP16, literal(-13)))
          CFI (cfiCond316) V0 load(1, XDATA, add(CFA_XSP16, literal(-12)))
          CFI (cfiCond316) V1 load(1, XDATA, add(CFA_XSP16, literal(-11)))
          CFI (cfiCond316) V2 load(1, XDATA, add(CFA_XSP16, literal(-10)))
          CFI (cfiCond316) V3 load(1, XDATA, add(CFA_XSP16, literal(-9)))
          CFI (cfiCond316) V4 load(1, XDATA, add(CFA_XSP16, literal(-8)))
          CFI (cfiCond316) V5 load(1, XDATA, add(CFA_XSP16, literal(-7)))
          CFI (cfiCond316) R7 load(1, XDATA, add(CFA_XSP16, literal(-6)))
          CFI (cfiCond316) ?RET_LOW load(1, XDATA, add(CFA_XSP16, literal(-5)))
          CFI (cfiCond316) ?RET_HIGH load(1, XDATA, add(CFA_XSP16, literal(-4)))
          CFI (cfiCond316) ?BRET_EXT load(1, XDATA, add(CFA_XSP16, literal(-3)))
          CFI (cfiCond316) DPL0 load(1, XDATA, add(CFA_XSP16, literal(-2)))
          CFI (cfiCond316) DPH0 load(1, XDATA, add(CFA_XSP16, literal(-1)))
          CFI (cfiCond316) CFA_SP SP+-2
          CFI (cfiCond316) CFA_XSP16 add(XSP16, 14)
          CFI Block cfiPicker317 Using cfiCommon1
          CFI (cfiPicker317) NoFunction
          CFI (cfiPicker317) Picker
        LCALL     ?Subroutine50 & 0xFFFF
??CrossCallReturnLabel_99:
        MOVX      @DPTR,A
        RET
          CFI EndBlock cfiCond315
          CFI EndBlock cfiCond316
          CFI EndBlock cfiPicker317

        RSEG BANKED_CODE:HUGECODE:NOROOT(0)
?Subroutine19:
          CFI Block cfiCond318 Using cfiCommon0
          CFI Function MT_ZdoBeaconIndCB
          CFI Conditional ??CrossCallReturnLabel_35
          CFI R6 load(1, XDATA, add(CFA_XSP16, literal(-11)))
          CFI VB load(1, XDATA, add(CFA_XSP16, literal(-10)))
          CFI V0 load(1, XDATA, add(CFA_XSP16, literal(-9)))
          CFI V1 load(1, XDATA, add(CFA_XSP16, literal(-8)))
          CFI V2 load(1, XDATA, add(CFA_XSP16, literal(-7)))
          CFI R7 load(1, XDATA, add(CFA_XSP16, literal(-6)))
          CFI ?RET_LOW load(1, XDATA, add(CFA_XSP16, literal(-5)))
          CFI ?RET_HIGH load(1, XDATA, add(CFA_XSP16, literal(-4)))
          CFI ?BRET_EXT load(1, XDATA, add(CFA_XSP16, literal(-3)))
          CFI DPL0 load(1, XDATA, add(CFA_XSP16, literal(-2)))
          CFI DPH0 load(1, XDATA, add(CFA_XSP16, literal(-1)))
          CFI CFA_SP SP+-2
          CFI CFA_XSP16 add(XSP16, 11)
          CFI Block cfiCond319 Using cfiCommon0
          CFI (cfiCond319) Function MT_ZdoSendMsgCB
          CFI (cfiCond319) Conditional ??CrossCallReturnLabel_36
          CFI (cfiCond319) R6 load(1, XDATA, add(CFA_XSP16, literal(-14)))
          CFI (cfiCond319) VB load(1, XDATA, add(CFA_XSP16, literal(-13)))
          CFI (cfiCond319) V0 load(1, XDATA, add(CFA_XSP16, literal(-12)))
          CFI (cfiCond319) V1 load(1, XDATA, add(CFA_XSP16, literal(-11)))
          CFI (cfiCond319) V2 load(1, XDATA, add(CFA_XSP16, literal(-10)))
          CFI (cfiCond319) V3 load(1, XDATA, add(CFA_XSP16, literal(-9)))
          CFI (cfiCond319) V4 load(1, XDATA, add(CFA_XSP16, literal(-8)))
          CFI (cfiCond319) V5 load(1, XDATA, add(CFA_XSP16, literal(-7)))
          CFI (cfiCond319) R7 load(1, XDATA, add(CFA_XSP16, literal(-6)))
          CFI (cfiCond319) ?RET_LOW load(1, XDATA, add(CFA_XSP16, literal(-5)))
          CFI (cfiCond319) ?RET_HIGH load(1, XDATA, add(CFA_XSP16, literal(-4)))
          CFI (cfiCond319) ?BRET_EXT load(1, XDATA, add(CFA_XSP16, literal(-3)))
          CFI (cfiCond319) DPL0 load(1, XDATA, add(CFA_XSP16, literal(-2)))
          CFI (cfiCond319) DPH0 load(1, XDATA, add(CFA_XSP16, literal(-1)))
          CFI (cfiCond319) CFA_SP SP+-2
          CFI (cfiCond319) CFA_XSP16 add(XSP16, 14)
          CFI Block cfiPicker320 Using cfiCommon1
          CFI (cfiPicker320) NoFunction
          CFI (cfiPicker320) Picker
        LCALL     ?Subroutine50 & 0xFFFF
??CrossCallReturnLabel_98:
        INC       DPTR
        MOVX      @DPTR,A
        RET
          CFI EndBlock cfiCond318
          CFI EndBlock cfiCond319
          CFI EndBlock cfiPicker320

        RSEG BANKED_CODE:HUGECODE:NOROOT(0)
?Subroutine50:
          CFI Block cfiCond321 Using cfiCommon0
          CFI Function MT_ZdoBeaconIndCB
          CFI Conditional ??CrossCallReturnLabel_99, ??CrossCallReturnLabel_37
          CFI R6 load(1, XDATA, add(CFA_XSP16, literal(-11)))
          CFI VB load(1, XDATA, add(CFA_XSP16, literal(-10)))
          CFI V0 load(1, XDATA, add(CFA_XSP16, literal(-9)))
          CFI V1 load(1, XDATA, add(CFA_XSP16, literal(-8)))
          CFI V2 load(1, XDATA, add(CFA_XSP16, literal(-7)))
          CFI R7 load(1, XDATA, add(CFA_XSP16, literal(-6)))
          CFI ?RET_LOW load(1, XDATA, add(CFA_XSP16, literal(-5)))
          CFI ?RET_HIGH load(1, XDATA, add(CFA_XSP16, literal(-4)))
          CFI ?BRET_EXT load(1, XDATA, add(CFA_XSP16, literal(-3)))
          CFI DPL0 load(1, XDATA, add(CFA_XSP16, literal(-2)))
          CFI DPH0 load(1, XDATA, add(CFA_XSP16, literal(-1)))
          CFI CFA_SP SP+-4
          CFI CFA_XSP16 add(XSP16, 11)
          CFI Block cfiCond322 Using cfiCommon0
          CFI (cfiCond322) Function MT_ZdoSendMsgCB
          CFI (cfiCond322) Conditional ??CrossCallReturnLabel_99, ??CrossCallReturnLabel_38
          CFI (cfiCond322) R6 load(1, XDATA, add(CFA_XSP16, literal(-14)))
          CFI (cfiCond322) VB load(1, XDATA, add(CFA_XSP16, literal(-13)))
          CFI (cfiCond322) V0 load(1, XDATA, add(CFA_XSP16, literal(-12)))
          CFI (cfiCond322) V1 load(1, XDATA, add(CFA_XSP16, literal(-11)))
          CFI (cfiCond322) V2 load(1, XDATA, add(CFA_XSP16, literal(-10)))
          CFI (cfiCond322) V3 load(1, XDATA, add(CFA_XSP16, literal(-9)))
          CFI (cfiCond322) V4 load(1, XDATA, add(CFA_XSP16, literal(-8)))
          CFI (cfiCond322) V5 load(1, XDATA, add(CFA_XSP16, literal(-7)))
          CFI (cfiCond322) R7 load(1, XDATA, add(CFA_XSP16, literal(-6)))
          CFI (cfiCond322) ?RET_LOW load(1, XDATA, add(CFA_XSP16, literal(-5)))
          CFI (cfiCond322) ?RET_HIGH load(1, XDATA, add(CFA_XSP16, literal(-4)))
          CFI (cfiCond322) ?BRET_EXT load(1, XDATA, add(CFA_XSP16, literal(-3)))
          CFI (cfiCond322) DPL0 load(1, XDATA, add(CFA_XSP16, literal(-2)))
          CFI (cfiCond322) DPH0 load(1, XDATA, add(CFA_XSP16, literal(-1)))
          CFI (cfiCond322) CFA_SP SP+-4
          CFI (cfiCond322) CFA_XSP16 add(XSP16, 14)
          CFI Block cfiCond323 Using cfiCommon0
          CFI (cfiCond323) Function MT_ZdoBeaconIndCB
          CFI (cfiCond323) Conditional ??CrossCallReturnLabel_98, ??CrossCallReturnLabel_35
          CFI (cfiCond323) R6 load(1, XDATA, add(CFA_XSP16, literal(-11)))
          CFI (cfiCond323) VB load(1, XDATA, add(CFA_XSP16, literal(-10)))
          CFI (cfiCond323) V0 load(1, XDATA, add(CFA_XSP16, literal(-9)))
          CFI (cfiCond323) V1 load(1, XDATA, add(CFA_XSP16, literal(-8)))
          CFI (cfiCond323) V2 load(1, XDATA, add(CFA_XSP16, literal(-7)))
          CFI (cfiCond323) R7 load(1, XDATA, add(CFA_XSP16, literal(-6)))
          CFI (cfiCond323) ?RET_LOW load(1, XDATA, add(CFA_XSP16, literal(-5)))
          CFI (cfiCond323) ?RET_HIGH load(1, XDATA, add(CFA_XSP16, literal(-4)))
          CFI (cfiCond323) ?BRET_EXT load(1, XDATA, add(CFA_XSP16, literal(-3)))
          CFI (cfiCond323) DPL0 load(1, XDATA, add(CFA_XSP16, literal(-2)))
          CFI (cfiCond323) DPH0 load(1, XDATA, add(CFA_XSP16, literal(-1)))
          CFI (cfiCond323) CFA_SP SP+-4
          CFI (cfiCond323) CFA_XSP16 add(XSP16, 11)
          CFI Block cfiCond324 Using cfiCommon0
          CFI (cfiCond324) Function MT_ZdoSendMsgCB
          CFI (cfiCond324) Conditional ??CrossCallReturnLabel_98, ??CrossCallReturnLabel_36
          CFI (cfiCond324) R6 load(1, XDATA, add(CFA_XSP16, literal(-14)))
          CFI (cfiCond324) VB load(1, XDATA, add(CFA_XSP16, literal(-13)))
          CFI (cfiCond324) V0 load(1, XDATA, add(CFA_XSP16, literal(-12)))
          CFI (cfiCond324) V1 load(1, XDATA, add(CFA_XSP16, literal(-11)))
          CFI (cfiCond324) V2 load(1, XDATA, add(CFA_XSP16, literal(-10)))
          CFI (cfiCond324) V3 load(1, XDATA, add(CFA_XSP16, literal(-9)))
          CFI (cfiCond324) V4 load(1, XDATA, add(CFA_XSP16, literal(-8)))
          CFI (cfiCond324) V5 load(1, XDATA, add(CFA_XSP16, literal(-7)))
          CFI (cfiCond324) R7 load(1, XDATA, add(CFA_XSP16, literal(-6)))
          CFI (cfiCond324) ?RET_LOW load(1, XDATA, add(CFA_XSP16, literal(-5)))
          CFI (cfiCond324) ?RET_HIGH load(1, XDATA, add(CFA_XSP16, literal(-4)))
          CFI (cfiCond324) ?BRET_EXT load(1, XDATA, add(CFA_XSP16, literal(-3)))
          CFI (cfiCond324) DPL0 load(1, XDATA, add(CFA_XSP16, literal(-2)))
          CFI (cfiCond324) DPH0 load(1, XDATA, add(CFA_XSP16, literal(-1)))
          CFI (cfiCond324) CFA_SP SP+-4
          CFI (cfiCond324) CFA_XSP16 add(XSP16, 14)
          CFI Block cfiPicker325 Using cfiCommon1
          CFI (cfiPicker325) NoFunction
          CFI (cfiPicker325) Picker
        LCALL     ?Subroutine56 & 0xFFFF
??CrossCallReturnLabel_111:
        RET
          CFI EndBlock cfiCond321
          CFI EndBlock cfiCond322
          CFI EndBlock cfiCond323
          CFI EndBlock cfiCond324
          CFI EndBlock cfiPicker325

        RSEG BANKED_CODE:HUGECODE:NOROOT(0)
?Subroutine56:
          CFI Block cfiCond326 Using cfiCommon0
          CFI Function MT_ZdoBeaconIndCB
          CFI Conditional ??CrossCallReturnLabel_111, ??CrossCallReturnLabel_99, ??CrossCallReturnLabel_37
          CFI R6 load(1, XDATA, add(CFA_XSP16, literal(-11)))
          CFI VB load(1, XDATA, add(CFA_XSP16, literal(-10)))
          CFI V0 load(1, XDATA, add(CFA_XSP16, literal(-9)))
          CFI V1 load(1, XDATA, add(CFA_XSP16, literal(-8)))
          CFI V2 load(1, XDATA, add(CFA_XSP16, literal(-7)))
          CFI R7 load(1, XDATA, add(CFA_XSP16, literal(-6)))
          CFI ?RET_LOW load(1, XDATA, add(CFA_XSP16, literal(-5)))
          CFI ?RET_HIGH load(1, XDATA, add(CFA_XSP16, literal(-4)))
          CFI ?BRET_EXT load(1, XDATA, add(CFA_XSP16, literal(-3)))
          CFI DPL0 load(1, XDATA, add(CFA_XSP16, literal(-2)))
          CFI DPH0 load(1, XDATA, add(CFA_XSP16, literal(-1)))
          CFI CFA_SP SP+-6
          CFI CFA_XSP16 add(XSP16, 11)
          CFI Block cfiCond327 Using cfiCommon0
          CFI (cfiCond327) Function MT_ZdoSendMsgCB
          CFI (cfiCond327) Conditional ??CrossCallReturnLabel_111, ??CrossCallReturnLabel_99, ??CrossCallReturnLabel_38
          CFI (cfiCond327) R6 load(1, XDATA, add(CFA_XSP16, literal(-14)))
          CFI (cfiCond327) VB load(1, XDATA, add(CFA_XSP16, literal(-13)))
          CFI (cfiCond327) V0 load(1, XDATA, add(CFA_XSP16, literal(-12)))
          CFI (cfiCond327) V1 load(1, XDATA, add(CFA_XSP16, literal(-11)))
          CFI (cfiCond327) V2 load(1, XDATA, add(CFA_XSP16, literal(-10)))
          CFI (cfiCond327) V3 load(1, XDATA, add(CFA_XSP16, literal(-9)))
          CFI (cfiCond327) V4 load(1, XDATA, add(CFA_XSP16, literal(-8)))
          CFI (cfiCond327) V5 load(1, XDATA, add(CFA_XSP16, literal(-7)))
          CFI (cfiCond327) R7 load(1, XDATA, add(CFA_XSP16, literal(-6)))
          CFI (cfiCond327) ?RET_LOW load(1, XDATA, add(CFA_XSP16, literal(-5)))
          CFI (cfiCond327) ?RET_HIGH load(1, XDATA, add(CFA_XSP16, literal(-4)))
          CFI (cfiCond327) ?BRET_EXT load(1, XDATA, add(CFA_XSP16, literal(-3)))
          CFI (cfiCond327) DPL0 load(1, XDATA, add(CFA_XSP16, literal(-2)))
          CFI (cfiCond327) DPH0 load(1, XDATA, add(CFA_XSP16, literal(-1)))
          CFI (cfiCond327) CFA_SP SP+-6
          CFI (cfiCond327) CFA_XSP16 add(XSP16, 14)
          CFI Block cfiCond328 Using cfiCommon0
          CFI (cfiCond328) Function MT_ZdoBeaconIndCB
          CFI (cfiCond328) Conditional ??CrossCallReturnLabel_111, ??CrossCallReturnLabel_98, ??CrossCallReturnLabel_35
          CFI (cfiCond328) R6 load(1, XDATA, add(CFA_XSP16, literal(-11)))
          CFI (cfiCond328) VB load(1, XDATA, add(CFA_XSP16, literal(-10)))
          CFI (cfiCond328) V0 load(1, XDATA, add(CFA_XSP16, literal(-9)))
          CFI (cfiCond328) V1 load(1, XDATA, add(CFA_XSP16, literal(-8)))
          CFI (cfiCond328) V2 load(1, XDATA, add(CFA_XSP16, literal(-7)))
          CFI (cfiCond328) R7 load(1, XDATA, add(CFA_XSP16, literal(-6)))
          CFI (cfiCond328) ?RET_LOW load(1, XDATA, add(CFA_XSP16, literal(-5)))
          CFI (cfiCond328) ?RET_HIGH load(1, XDATA, add(CFA_XSP16, literal(-4)))
          CFI (cfiCond328) ?BRET_EXT load(1, XDATA, add(CFA_XSP16, literal(-3)))
          CFI (cfiCond328) DPL0 load(1, XDATA, add(CFA_XSP16, literal(-2)))
          CFI (cfiCond328) DPH0 load(1, XDATA, add(CFA_XSP16, literal(-1)))
          CFI (cfiCond328) CFA_SP SP+-6
          CFI (cfiCond328) CFA_XSP16 add(XSP16, 11)
          CFI Block cfiCond329 Using cfiCommon0
          CFI (cfiCond329) Function MT_ZdoSendMsgCB
          CFI (cfiCond329) Conditional ??CrossCallReturnLabel_111, ??CrossCallReturnLabel_98, ??CrossCallReturnLabel_36
          CFI (cfiCond329) R6 load(1, XDATA, add(CFA_XSP16, literal(-14)))
          CFI (cfiCond329) VB load(1, XDATA, add(CFA_XSP16, literal(-13)))
          CFI (cfiCond329) V0 load(1, XDATA, add(CFA_XSP16, literal(-12)))
          CFI (cfiCond329) V1 load(1, XDATA, add(CFA_XSP16, literal(-11)))
          CFI (cfiCond329) V2 load(1, XDATA, add(CFA_XSP16, literal(-10)))
          CFI (cfiCond329) V3 load(1, XDATA, add(CFA_XSP16, literal(-9)))
          CFI (cfiCond329) V4 load(1, XDATA, add(CFA_XSP16, literal(-8)))
          CFI (cfiCond329) V5 load(1, XDATA, add(CFA_XSP16, literal(-7)))
          CFI (cfiCond329) R7 load(1, XDATA, add(CFA_XSP16, literal(-6)))
          CFI (cfiCond329) ?RET_LOW load(1, XDATA, add(CFA_XSP16, literal(-5)))
          CFI (cfiCond329) ?RET_HIGH load(1, XDATA, add(CFA_XSP16, literal(-4)))
          CFI (cfiCond329) ?BRET_EXT load(1, XDATA, add(CFA_XSP16, literal(-3)))
          CFI (cfiCond329) DPL0 load(1, XDATA, add(CFA_XSP16, literal(-2)))
          CFI (cfiCond329) DPH0 load(1, XDATA, add(CFA_XSP16, literal(-1)))
          CFI (cfiCond329) CFA_SP SP+-6
          CFI (cfiCond329) CFA_XSP16 add(XSP16, 14)
          CFI Block cfiCond330 Using cfiCommon0
          CFI (cfiCond330) Function MT_ZdoBeaconIndCB
          CFI (cfiCond330) Conditional ??CrossCallReturnLabel_110, ??CrossCallReturnLabel_95, ??CrossCallReturnLabel_26
          CFI (cfiCond330) R6 load(1, XDATA, add(CFA_XSP16, literal(-11)))
          CFI (cfiCond330) VB load(1, XDATA, add(CFA_XSP16, literal(-10)))
          CFI (cfiCond330) V0 load(1, XDATA, add(CFA_XSP16, literal(-9)))
          CFI (cfiCond330) V1 load(1, XDATA, add(CFA_XSP16, literal(-8)))
          CFI (cfiCond330) V2 load(1, XDATA, add(CFA_XSP16, literal(-7)))
          CFI (cfiCond330) R7 load(1, XDATA, add(CFA_XSP16, literal(-6)))
          CFI (cfiCond330) ?RET_LOW load(1, XDATA, add(CFA_XSP16, literal(-5)))
          CFI (cfiCond330) ?RET_HIGH load(1, XDATA, add(CFA_XSP16, literal(-4)))
          CFI (cfiCond330) ?BRET_EXT load(1, XDATA, add(CFA_XSP16, literal(-3)))
          CFI (cfiCond330) DPL0 load(1, XDATA, add(CFA_XSP16, literal(-2)))
          CFI (cfiCond330) DPH0 load(1, XDATA, add(CFA_XSP16, literal(-1)))
          CFI (cfiCond330) CFA_SP SP+-6
          CFI (cfiCond330) CFA_XSP16 add(XSP16, 11)
          CFI Block cfiCond331 Using cfiCommon0
          CFI (cfiCond331) Function MT_ZdoBeaconIndCB
          CFI (cfiCond331) Conditional ??CrossCallReturnLabel_110, ??CrossCallReturnLabel_95, ??CrossCallReturnLabel_27
          CFI (cfiCond331) R6 load(1, XDATA, add(CFA_XSP16, literal(-11)))
          CFI (cfiCond331) VB load(1, XDATA, add(CFA_XSP16, literal(-10)))
          CFI (cfiCond331) V0 load(1, XDATA, add(CFA_XSP16, literal(-9)))
          CFI (cfiCond331) V1 load(1, XDATA, add(CFA_XSP16, literal(-8)))
          CFI (cfiCond331) V2 load(1, XDATA, add(CFA_XSP16, literal(-7)))
          CFI (cfiCond331) R7 load(1, XDATA, add(CFA_XSP16, literal(-6)))
          CFI (cfiCond331) ?RET_LOW load(1, XDATA, add(CFA_XSP16, literal(-5)))
          CFI (cfiCond331) ?RET_HIGH load(1, XDATA, add(CFA_XSP16, literal(-4)))
          CFI (cfiCond331) ?BRET_EXT load(1, XDATA, add(CFA_XSP16, literal(-3)))
          CFI (cfiCond331) DPL0 load(1, XDATA, add(CFA_XSP16, literal(-2)))
          CFI (cfiCond331) DPH0 load(1, XDATA, add(CFA_XSP16, literal(-1)))
          CFI (cfiCond331) CFA_SP SP+-6
          CFI (cfiCond331) CFA_XSP16 add(XSP16, 11)
          CFI Block cfiCond332 Using cfiCommon0
          CFI (cfiCond332) Function MT_ZdoBeaconIndCB
          CFI (cfiCond332) Conditional ??CrossCallReturnLabel_110, ??CrossCallReturnLabel_94, ??CrossCallReturnLabel_24
          CFI (cfiCond332) R6 load(1, XDATA, add(CFA_XSP16, literal(-11)))
          CFI (cfiCond332) VB load(1, XDATA, add(CFA_XSP16, literal(-10)))
          CFI (cfiCond332) V0 load(1, XDATA, add(CFA_XSP16, literal(-9)))
          CFI (cfiCond332) V1 load(1, XDATA, add(CFA_XSP16, literal(-8)))
          CFI (cfiCond332) V2 load(1, XDATA, add(CFA_XSP16, literal(-7)))
          CFI (cfiCond332) R7 load(1, XDATA, add(CFA_XSP16, literal(-6)))
          CFI (cfiCond332) ?RET_LOW load(1, XDATA, add(CFA_XSP16, literal(-5)))
          CFI (cfiCond332) ?RET_HIGH load(1, XDATA, add(CFA_XSP16, literal(-4)))
          CFI (cfiCond332) ?BRET_EXT load(1, XDATA, add(CFA_XSP16, literal(-3)))
          CFI (cfiCond332) DPL0 load(1, XDATA, add(CFA_XSP16, literal(-2)))
          CFI (cfiCond332) DPH0 load(1, XDATA, add(CFA_XSP16, literal(-1)))
          CFI (cfiCond332) CFA_SP SP+-6
          CFI (cfiCond332) CFA_XSP16 add(XSP16, 11)
          CFI Block cfiCond333 Using cfiCommon0
          CFI (cfiCond333) Function MT_ZdoSendMsgCB
          CFI (cfiCond333) Conditional ??CrossCallReturnLabel_110, ??CrossCallReturnLabel_94, ??CrossCallReturnLabel_25
          CFI (cfiCond333) R6 load(1, XDATA, add(CFA_XSP16, literal(-14)))
          CFI (cfiCond333) VB load(1, XDATA, add(CFA_XSP16, literal(-13)))
          CFI (cfiCond333) V0 load(1, XDATA, add(CFA_XSP16, literal(-12)))
          CFI (cfiCond333) V1 load(1, XDATA, add(CFA_XSP16, literal(-11)))
          CFI (cfiCond333) V2 load(1, XDATA, add(CFA_XSP16, literal(-10)))
          CFI (cfiCond333) V3 load(1, XDATA, add(CFA_XSP16, literal(-9)))
          CFI (cfiCond333) V4 load(1, XDATA, add(CFA_XSP16, literal(-8)))
          CFI (cfiCond333) V5 load(1, XDATA, add(CFA_XSP16, literal(-7)))
          CFI (cfiCond333) R7 load(1, XDATA, add(CFA_XSP16, literal(-6)))
          CFI (cfiCond333) ?RET_LOW load(1, XDATA, add(CFA_XSP16, literal(-5)))
          CFI (cfiCond333) ?RET_HIGH load(1, XDATA, add(CFA_XSP16, literal(-4)))
          CFI (cfiCond333) ?BRET_EXT load(1, XDATA, add(CFA_XSP16, literal(-3)))
          CFI (cfiCond333) DPL0 load(1, XDATA, add(CFA_XSP16, literal(-2)))
          CFI (cfiCond333) DPH0 load(1, XDATA, add(CFA_XSP16, literal(-1)))
          CFI (cfiCond333) CFA_SP SP+-6
          CFI (cfiCond333) CFA_XSP16 add(XSP16, 14)
          CFI Block cfiPicker334 Using cfiCommon1
          CFI (cfiPicker334) NoFunction
          CFI (cfiPicker334) Picker
        LCALL     ?Subroutine59 & 0xFFFF
??CrossCallReturnLabel_114:
        INC       DPTR
        INC       DPTR
        INC       DPTR
        RET
          CFI EndBlock cfiCond326
          CFI EndBlock cfiCond327
          CFI EndBlock cfiCond328
          CFI EndBlock cfiCond329
          CFI EndBlock cfiCond330
          CFI EndBlock cfiCond331
          CFI EndBlock cfiCond332
          CFI EndBlock cfiCond333
          CFI EndBlock cfiPicker334

        RSEG BANKED_CODE:HUGECODE:NOROOT(0)
?Subroutine13:
          CFI Block cfiCond335 Using cfiCommon0
          CFI Function MT_ZdoBeaconIndCB
          CFI Conditional ??CrossCallReturnLabel_24
          CFI R6 load(1, XDATA, add(CFA_XSP16, literal(-11)))
          CFI VB load(1, XDATA, add(CFA_XSP16, literal(-10)))
          CFI V0 load(1, XDATA, add(CFA_XSP16, literal(-9)))
          CFI V1 load(1, XDATA, add(CFA_XSP16, literal(-8)))
          CFI V2 load(1, XDATA, add(CFA_XSP16, literal(-7)))
          CFI R7 load(1, XDATA, add(CFA_XSP16, literal(-6)))
          CFI ?RET_LOW load(1, XDATA, add(CFA_XSP16, literal(-5)))
          CFI ?RET_HIGH load(1, XDATA, add(CFA_XSP16, literal(-4)))
          CFI ?BRET_EXT load(1, XDATA, add(CFA_XSP16, literal(-3)))
          CFI DPL0 load(1, XDATA, add(CFA_XSP16, literal(-2)))
          CFI DPH0 load(1, XDATA, add(CFA_XSP16, literal(-1)))
          CFI CFA_SP SP+-2
          CFI CFA_XSP16 add(XSP16, 11)
          CFI Block cfiCond336 Using cfiCommon0
          CFI (cfiCond336) Function MT_ZdoSendMsgCB
          CFI (cfiCond336) Conditional ??CrossCallReturnLabel_25
          CFI (cfiCond336) R6 load(1, XDATA, add(CFA_XSP16, literal(-14)))
          CFI (cfiCond336) VB load(1, XDATA, add(CFA_XSP16, literal(-13)))
          CFI (cfiCond336) V0 load(1, XDATA, add(CFA_XSP16, literal(-12)))
          CFI (cfiCond336) V1 load(1, XDATA, add(CFA_XSP16, literal(-11)))
          CFI (cfiCond336) V2 load(1, XDATA, add(CFA_XSP16, literal(-10)))
          CFI (cfiCond336) V3 load(1, XDATA, add(CFA_XSP16, literal(-9)))
          CFI (cfiCond336) V4 load(1, XDATA, add(CFA_XSP16, literal(-8)))
          CFI (cfiCond336) V5 load(1, XDATA, add(CFA_XSP16, literal(-7)))
          CFI (cfiCond336) R7 load(1, XDATA, add(CFA_XSP16, literal(-6)))
          CFI (cfiCond336) ?RET_LOW load(1, XDATA, add(CFA_XSP16, literal(-5)))
          CFI (cfiCond336) ?RET_HIGH load(1, XDATA, add(CFA_XSP16, literal(-4)))
          CFI (cfiCond336) ?BRET_EXT load(1, XDATA, add(CFA_XSP16, literal(-3)))
          CFI (cfiCond336) DPL0 load(1, XDATA, add(CFA_XSP16, literal(-2)))
          CFI (cfiCond336) DPH0 load(1, XDATA, add(CFA_XSP16, literal(-1)))
          CFI (cfiCond336) CFA_SP SP+-2
          CFI (cfiCond336) CFA_XSP16 add(XSP16, 14)
          CFI Block cfiPicker337 Using cfiCommon1
          CFI (cfiPicker337) NoFunction
          CFI (cfiPicker337) Picker
        LCALL     ?Subroutine47 & 0xFFFF
??CrossCallReturnLabel_94:
        MOVX      @DPTR,A
        RET
          CFI EndBlock cfiCond335
          CFI EndBlock cfiCond336
          CFI EndBlock cfiPicker337

        RSEG BANKED_CODE:HUGECODE:NOROOT(0)
?Subroutine47:
          CFI Block cfiCond338 Using cfiCommon0
          CFI Function MT_ZdoBeaconIndCB
          CFI Conditional ??CrossCallReturnLabel_95, ??CrossCallReturnLabel_26
          CFI R6 load(1, XDATA, add(CFA_XSP16, literal(-11)))
          CFI VB load(1, XDATA, add(CFA_XSP16, literal(-10)))
          CFI V0 load(1, XDATA, add(CFA_XSP16, literal(-9)))
          CFI V1 load(1, XDATA, add(CFA_XSP16, literal(-8)))
          CFI V2 load(1, XDATA, add(CFA_XSP16, literal(-7)))
          CFI R7 load(1, XDATA, add(CFA_XSP16, literal(-6)))
          CFI ?RET_LOW load(1, XDATA, add(CFA_XSP16, literal(-5)))
          CFI ?RET_HIGH load(1, XDATA, add(CFA_XSP16, literal(-4)))
          CFI ?BRET_EXT load(1, XDATA, add(CFA_XSP16, literal(-3)))
          CFI DPL0 load(1, XDATA, add(CFA_XSP16, literal(-2)))
          CFI DPH0 load(1, XDATA, add(CFA_XSP16, literal(-1)))
          CFI CFA_SP SP+-4
          CFI CFA_XSP16 add(XSP16, 11)
          CFI Block cfiCond339 Using cfiCommon0
          CFI (cfiCond339) Function MT_ZdoBeaconIndCB
          CFI (cfiCond339) Conditional ??CrossCallReturnLabel_95, ??CrossCallReturnLabel_27
          CFI (cfiCond339) R6 load(1, XDATA, add(CFA_XSP16, literal(-11)))
          CFI (cfiCond339) VB load(1, XDATA, add(CFA_XSP16, literal(-10)))
          CFI (cfiCond339) V0 load(1, XDATA, add(CFA_XSP16, literal(-9)))
          CFI (cfiCond339) V1 load(1, XDATA, add(CFA_XSP16, literal(-8)))
          CFI (cfiCond339) V2 load(1, XDATA, add(CFA_XSP16, literal(-7)))
          CFI (cfiCond339) R7 load(1, XDATA, add(CFA_XSP16, literal(-6)))
          CFI (cfiCond339) ?RET_LOW load(1, XDATA, add(CFA_XSP16, literal(-5)))
          CFI (cfiCond339) ?RET_HIGH load(1, XDATA, add(CFA_XSP16, literal(-4)))
          CFI (cfiCond339) ?BRET_EXT load(1, XDATA, add(CFA_XSP16, literal(-3)))
          CFI (cfiCond339) DPL0 load(1, XDATA, add(CFA_XSP16, literal(-2)))
          CFI (cfiCond339) DPH0 load(1, XDATA, add(CFA_XSP16, literal(-1)))
          CFI (cfiCond339) CFA_SP SP+-4
          CFI (cfiCond339) CFA_XSP16 add(XSP16, 11)
          CFI Block cfiCond340 Using cfiCommon0
          CFI (cfiCond340) Function MT_ZdoBeaconIndCB
          CFI (cfiCond340) Conditional ??CrossCallReturnLabel_94, ??CrossCallReturnLabel_24
          CFI (cfiCond340) R6 load(1, XDATA, add(CFA_XSP16, literal(-11)))
          CFI (cfiCond340) VB load(1, XDATA, add(CFA_XSP16, literal(-10)))
          CFI (cfiCond340) V0 load(1, XDATA, add(CFA_XSP16, literal(-9)))
          CFI (cfiCond340) V1 load(1, XDATA, add(CFA_XSP16, literal(-8)))
          CFI (cfiCond340) V2 load(1, XDATA, add(CFA_XSP16, literal(-7)))
          CFI (cfiCond340) R7 load(1, XDATA, add(CFA_XSP16, literal(-6)))
          CFI (cfiCond340) ?RET_LOW load(1, XDATA, add(CFA_XSP16, literal(-5)))
          CFI (cfiCond340) ?RET_HIGH load(1, XDATA, add(CFA_XSP16, literal(-4)))
          CFI (cfiCond340) ?BRET_EXT load(1, XDATA, add(CFA_XSP16, literal(-3)))
          CFI (cfiCond340) DPL0 load(1, XDATA, add(CFA_XSP16, literal(-2)))
          CFI (cfiCond340) DPH0 load(1, XDATA, add(CFA_XSP16, literal(-1)))
          CFI (cfiCond340) CFA_SP SP+-4
          CFI (cfiCond340) CFA_XSP16 add(XSP16, 11)
          CFI Block cfiCond341 Using cfiCommon0
          CFI (cfiCond341) Function MT_ZdoSendMsgCB
          CFI (cfiCond341) Conditional ??CrossCallReturnLabel_94, ??CrossCallReturnLabel_25
          CFI (cfiCond341) R6 load(1, XDATA, add(CFA_XSP16, literal(-14)))
          CFI (cfiCond341) VB load(1, XDATA, add(CFA_XSP16, literal(-13)))
          CFI (cfiCond341) V0 load(1, XDATA, add(CFA_XSP16, literal(-12)))
          CFI (cfiCond341) V1 load(1, XDATA, add(CFA_XSP16, literal(-11)))
          CFI (cfiCond341) V2 load(1, XDATA, add(CFA_XSP16, literal(-10)))
          CFI (cfiCond341) V3 load(1, XDATA, add(CFA_XSP16, literal(-9)))
          CFI (cfiCond341) V4 load(1, XDATA, add(CFA_XSP16, literal(-8)))
          CFI (cfiCond341) V5 load(1, XDATA, add(CFA_XSP16, literal(-7)))
          CFI (cfiCond341) R7 load(1, XDATA, add(CFA_XSP16, literal(-6)))
          CFI (cfiCond341) ?RET_LOW load(1, XDATA, add(CFA_XSP16, literal(-5)))
          CFI (cfiCond341) ?RET_HIGH load(1, XDATA, add(CFA_XSP16, literal(-4)))
          CFI (cfiCond341) ?BRET_EXT load(1, XDATA, add(CFA_XSP16, literal(-3)))
          CFI (cfiCond341) DPL0 load(1, XDATA, add(CFA_XSP16, literal(-2)))
          CFI (cfiCond341) DPH0 load(1, XDATA, add(CFA_XSP16, literal(-1)))
          CFI (cfiCond341) CFA_SP SP+-4
          CFI (cfiCond341) CFA_XSP16 add(XSP16, 14)
          CFI Block cfiPicker342 Using cfiCommon1
          CFI (cfiPicker342) NoFunction
          CFI (cfiPicker342) Picker
        INC       DPTR
        LCALL     ?Subroutine56 & 0xFFFF
??CrossCallReturnLabel_110:
        INC       DPTR
        INC       DPTR
        RET
          CFI EndBlock cfiCond338
          CFI EndBlock cfiCond339
          CFI EndBlock cfiCond340
          CFI EndBlock cfiCond341
          CFI EndBlock cfiPicker342

        RSEG BANK_RELAYS:CODE:REORDER:NOROOT(0)
`??MT_ZdoInit::?relay`:
        CODE
        LCALL   ?BDISPATCH
        DATA24
        DC24    MT_ZdoInit

        RSEG BANK_RELAYS:CODE:REORDER:NOROOT(0)
`??MT_ZdoCommandProcessing::?relay`:
        CODE
        LCALL   ?BDISPATCH
        DATA24
        DC24    MT_ZdoCommandProcessing

        RSEG BANK_RELAYS:CODE:REORDER:NOROOT(0)
`??MT_ZdoNWKAddressRequest::?relay`:
        CODE
        LCALL   ?BDISPATCH
        DATA24
        DC24    MT_ZdoNWKAddressRequest

        RSEG BANK_RELAYS:CODE:REORDER:NOROOT(0)
`??MT_ZdoIEEEAddrRequest::?relay`:
        CODE
        LCALL   ?BDISPATCH
        DATA24
        DC24    MT_ZdoIEEEAddrRequest

        RSEG BANK_RELAYS:CODE:REORDER:NOROOT(0)
`??MT_ZdoNodeDescRequest::?relay`:
        CODE
        LCALL   ?BDISPATCH
        DATA24
        DC24    MT_ZdoNodeDescRequest

        RSEG BANK_RELAYS:CODE:REORDER:NOROOT(0)
`??MT_ZdoPowerDescRequest::?relay`:
        CODE
        LCALL   ?BDISPATCH
        DATA24
        DC24    MT_ZdoPowerDescRequest

        RSEG BANK_RELAYS:CODE:REORDER:NOROOT(0)
`??MT_ZdoSimpleDescRequest::?relay`:
        CODE
        LCALL   ?BDISPATCH
        DATA24
        DC24    MT_ZdoSimpleDescRequest

        RSEG BANK_RELAYS:CODE:REORDER:NOROOT(0)
`??MT_ZdoActiveEpRequest::?relay`:
        CODE
        LCALL   ?BDISPATCH
        DATA24
        DC24    MT_ZdoActiveEpRequest

        RSEG BANK_RELAYS:CODE:REORDER:NOROOT(0)
`??MT_ZdoMatchDescRequest::?relay`:
        CODE
        LCALL   ?BDISPATCH
        DATA24
        DC24    MT_ZdoMatchDescRequest

        RSEG BANK_RELAYS:CODE:REORDER:NOROOT(0)
`??MT_ZdoComplexDescRequest::?relay`:
        CODE
        LCALL   ?BDISPATCH
        DATA24
        DC24    MT_ZdoComplexDescRequest

        RSEG BANK_RELAYS:CODE:REORDER:NOROOT(0)
`??MT_ZdoUserDescRequest::?relay`:
        CODE
        LCALL   ?BDISPATCH
        DATA24
        DC24    MT_ZdoUserDescRequest

        RSEG BANK_RELAYS:CODE:REORDER:NOROOT(0)
`??MT_ZdoEndDevAnnce::?relay`:
        CODE
        LCALL   ?BDISPATCH
        DATA24
        DC24    MT_ZdoEndDevAnnce

        RSEG BANK_RELAYS:CODE:REORDER:NOROOT(0)
`??MT_ZdoUserDescSet::?relay`:
        CODE
        LCALL   ?BDISPATCH
        DATA24
        DC24    MT_ZdoUserDescSet

        RSEG BANK_RELAYS:CODE:REORDER:NOROOT(0)
`??MT_ZdoServiceDiscRequest::?relay`:
        CODE
        LCALL   ?BDISPATCH
        DATA24
        DC24    MT_ZdoServiceDiscRequest

        RSEG BANK_RELAYS:CODE:REORDER:NOROOT(0)
`??MT_ZdoEndDevBindRequest::?relay`:
        CODE
        LCALL   ?BDISPATCH
        DATA24
        DC24    MT_ZdoEndDevBindRequest

        RSEG BANK_RELAYS:CODE:REORDER:NOROOT(0)
`??MT_ZdoBindRequest::?relay`:
        CODE
        LCALL   ?BDISPATCH
        DATA24
        DC24    MT_ZdoBindRequest

        RSEG BANK_RELAYS:CODE:REORDER:NOROOT(0)
`??MT_ZdoUnbindRequest::?relay`:
        CODE
        LCALL   ?BDISPATCH
        DATA24
        DC24    MT_ZdoUnbindRequest

        RSEG BANK_RELAYS:CODE:REORDER:NOROOT(0)
`??MT_ZdoStartupFromApp::?relay`:
        CODE
        LCALL   ?BDISPATCH
        DATA24
        DC24    MT_ZdoStartupFromApp

        RSEG BANK_RELAYS:CODE:REORDER:NOROOT(0)
`??MT_ZdoNetworkDiscoveryReq::?relay`:
        CODE
        LCALL   ?BDISPATCH
        DATA24
        DC24    MT_ZdoNetworkDiscoveryReq

        RSEG BANK_RELAYS:CODE:REORDER:NOROOT(0)
`??MT_ZdoJoinReq::?relay`:
        CODE
        LCALL   ?BDISPATCH
        DATA24
        DC24    MT_ZdoJoinReq

        RSEG BANK_RELAYS:CODE:REORDER:NOROOT(0)
`??MT_ZdoNwkDiscoveryCnfCB::?relay`:
        CODE
        LCALL   ?BDISPATCH
        DATA24
        DC24    MT_ZdoNwkDiscoveryCnfCB

        RSEG BANK_RELAYS:CODE:REORDER:NOROOT(0)
`??MT_ZdoBeaconIndCB::?relay`:
        CODE
        LCALL   ?BDISPATCH
        DATA24
        DC24    MT_ZdoBeaconIndCB

        RSEG BANK_RELAYS:CODE:REORDER:NOROOT(0)
`??MT_ZdoJoinCnfCB::?relay`:
        CODE
        LCALL   ?BDISPATCH
        DATA24
        DC24    MT_ZdoJoinCnfCB

        RSEG BANK_RELAYS:CODE:REORDER:NOROOT(0)
`??MT_ZdoRegisterForZDOMsg::?relay`:
        CODE
        LCALL   ?BDISPATCH
        DATA24
        DC24    MT_ZdoRegisterForZDOMsg

        RSEG BANK_RELAYS:CODE:REORDER:NOROOT(0)
`??MT_ZdoRemoveRegisteredCB::?relay`:
        CODE
        LCALL   ?BDISPATCH
        DATA24
        DC24    MT_ZdoRemoveRegisteredCB

        RSEG BANK_RELAYS:CODE:REORDER:NOROOT(0)
`??MT_ZdoSendMsgCB::?relay`:
        CODE
        LCALL   ?BDISPATCH
        DATA24
        DC24    MT_ZdoSendMsgCB

        END
// 2127 
// 2128 #endif   /*ZDO Command Processing in MT*/
// 2129 /***************************************************************************************************
// 2130 ***************************************************************************************************/
// 
// 3 568 bytes in segment BANKED_CODE
//   156 bytes in segment BANK_RELAYS
//     6 bytes in segment XDATA_Z
// 
//   156 bytes of CODE     memory
// 3 568 bytes of HUGECODE memory
//     6 bytes of XDATA    memory
//
//Errors: none
//Warnings: none
