///////////////////////////////////////////////////////////////////////////////
//
// IAR C/C++ Compiler V10.30.1.6000 for 8051              23/Aug/2019  12:10:27
// Copyright 2004-2018 IAR Systems AB.
// PC-locked license - IAR Embedded Workbench for 8051
//
//    Core               =  plain
//    Code model         =  banked
//    Data model         =  large
//    Calling convention =  xdata reentrant
//    Constant location  =  data_rom
//    Dptr setup         =  1,16
//                          
//    Source file        =  
//        E:\qq下载文件\ZStack-CC2530-r200\ZStack-CC2530-r200\Projects\SappWsn\Source\roomPwrManSys.c
//    Command line       =  
//        -f C:\Users\VULCAN\AppData\Local\Temp\EW66F4.tmp
//        (E:\qq下载文件\ZStack-CC2530-r200\ZStack-CC2530-r200\Projects\SappWsn\Source\roomPwrManSys.c
//        -D ZIGBEEPRO -D ZTOOL_P1 -D MT_TASK -D MT_SYS_FUNC -D MT_ZDO_FUNC -D
//        SAPP_ZSTACK -lC
//        E:\qq下载文件\ZStack-CC2530-r200\ZStack-CC2530-r200\Projects\SappWsn\CoordinatorEB\List
//        -lA
//        E:\qq下载文件\ZStack-CC2530-r200\ZStack-CC2530-r200\Projects\SappWsn\CoordinatorEB\List
//        --diag_suppress Pe001,Pa010 -o
//        E:\qq下载文件\ZStack-CC2530-r200\ZStack-CC2530-r200\Projects\SappWsn\CoordinatorEB\Obj
//        -e --debug --core=plain --dptr=16,1 --data_model=large
//        --code_model=banked --calling_convention=xdata_reentrant
//        --place_constants=data_rom --nr_virtual_regs 8 -f
//        E:\qq下载文件\ZStack-CC2530-r200\ZStack-CC2530-r200\Projects\SappWsn\..\zstack\Tools\CC2530DB\f8wCoord.cfg
//        (-DCPU32MHZ -DROOT=__near_func -DMAC_CFG_APP_PENDING_QUEUE=TRUE
//        -DMAC_CFG_TX_DATA_MAX=5 -DMAC_CFG_TX_MAX=8 -DMAC_CFG_RX_MAX=5
//        -DZDO_COORDINATOR -DRTR_NWK) -f
//        E:\qq下载文件\ZStack-CC2530-r200\ZStack-CC2530-r200\Projects\SappWsn\..\zstack\Tools\CC2530DB\f8wConfig.cfg
//        (-DZIGBEEPRO -DSECURE=0 -DZG_SECURE_DYNAMIC=0 -DREFLECTOR
//        -DDEFAULT_CHANLIST=0x00800000 -DZDAPP_CONFIG_PAN_ID=0x0057
//        -DNWK_START_DELAY=100 -DEXTENDED_JOINING_RANDOM_MASK=0x007F
//        -DBEACON_REQUEST_DELAY=100 -DBEACON_REQ_DELAY_MASK=0x00FF
//        -DLINK_STATUS_JITTER_MASK=0x007F -DROUTE_EXPIRY_TIME=30
//        -DAPSC_ACK_WAIT_DURATION_POLLED=3000 -DNWK_INDIRECT_MSG_TIMEOUT=7
//        -DMAX_RREQ_ENTRIES=8 -DAPSC_MAX_FRAME_RETRIES=3
//        -DNWK_MAX_DATA_RETRIES=2 -DMAX_POLL_FAILURE_RETRIES=2 -DMAX_BCAST=9
//        -DAPS_MAX_GROUPS=16 -DMAX_RTG_ENTRIES=40 -DNWK_MAX_BINDING_ENTRIES=4
//        -DMAX_BINDING_CLUSTER_IDS=4 "-DDEFAULT_KEY={0x01, 0x03, 0x05, 0x07,
//        0x09, 0x0B, 0x0D, 0x0F, 0x00, 0x02, 0x04, 0x06, 0x08, 0x0A, 0x0C,
//        0x0D}" -DMAC_MAX_FRAME_SIZE=116 -DZDNWKMGR_MIN_TRANSMISSIONS=20
//        "-DCONST=const __code" -DGENERIC=__generic -DRFD_RCVC_ALWAYS_ON=FALSE
//        -DPOLL_RATE=1000 -DQUEUED_POLL_RATE=100 -DRESPONSE_POLL_RATE=100
//        -DREJOIN_POLL_RATE=440) -I
//        E:\qq下载文件\ZStack-CC2530-r200\ZStack-CC2530-r200\Projects\SappWsn\
//        -I
//        E:\qq下载文件\ZStack-CC2530-r200\ZStack-CC2530-r200\Projects\SappWsn\Source\
//        -I
//        E:\qq下载文件\ZStack-CC2530-r200\ZStack-CC2530-r200\Projects\SappWsn\..\zstack\ZMain\TI2530DB\
//        -I
//        E:\qq下载文件\ZStack-CC2530-r200\ZStack-CC2530-r200\Projects\SappWsn\..\..\Components\hal\include\
//        -I
//        E:\qq下载文件\ZStack-CC2530-r200\ZStack-CC2530-r200\Projects\SappWsn\..\..\Components\hal\target\CC2530EB\
//        -I
//        E:\qq下载文件\ZStack-CC2530-r200\ZStack-CC2530-r200\Projects\SappWsn\..\..\Components\mac\include\
//        -I
//        E:\qq下载文件\ZStack-CC2530-r200\ZStack-CC2530-r200\Projects\SappWsn\..\..\Components\mac\high_level\
//        -I
//        E:\qq下载文件\ZStack-CC2530-r200\ZStack-CC2530-r200\Projects\SappWsn\..\..\Components\mac\low_level\srf04\
//        -I
//        E:\qq下载文件\ZStack-CC2530-r200\ZStack-CC2530-r200\Projects\SappWsn\..\..\Components\mac\low_level\srf04\single_chip\
//        -I
//        E:\qq下载文件\ZStack-CC2530-r200\ZStack-CC2530-r200\Projects\SappWsn\..\..\Components\mt\
//        -I
//        E:\qq下载文件\ZStack-CC2530-r200\ZStack-CC2530-r200\Projects\SappWsn\..\..\Components\osal\include\
//        -I
//        E:\qq下载文件\ZStack-CC2530-r200\ZStack-CC2530-r200\Projects\SappWsn\..\..\Components\services\saddr\
//        -I
//        E:\qq下载文件\ZStack-CC2530-r200\ZStack-CC2530-r200\Projects\SappWsn\..\..\Components\services\sdata\
//        -I
//        E:\qq下载文件\ZStack-CC2530-r200\ZStack-CC2530-r200\Projects\SappWsn\..\..\Components\stack\af\
//        -I
//        E:\qq下载文件\ZStack-CC2530-r200\ZStack-CC2530-r200\Projects\SappWsn\..\..\Components\stack\nwk\
//        -I
//        E:\qq下载文件\ZStack-CC2530-r200\ZStack-CC2530-r200\Projects\SappWsn\..\..\Components\stack\sapi\
//        -I
//        E:\qq下载文件\ZStack-CC2530-r200\ZStack-CC2530-r200\Projects\SappWsn\..\..\Components\stack\sec\
//        -I
//        E:\qq下载文件\ZStack-CC2530-r200\ZStack-CC2530-r200\Projects\SappWsn\..\..\Components\stack\sys\
//        -I
//        E:\qq下载文件\ZStack-CC2530-r200\ZStack-CC2530-r200\Projects\SappWsn\..\..\Components\stack\zdo\
//        -I
//        E:\qq下载文件\ZStack-CC2530-r200\ZStack-CC2530-r200\Projects\SappWsn\..\..\Components\zmac\
//        -I
//        E:\qq下载文件\ZStack-CC2530-r200\ZStack-CC2530-r200\Projects\SappWsn\..\..\Components\zmac\f8w\
//        -Ohz --require_prototypes --no_code_motion)
//    Locale             =  Chinese (Simplified)_CHN.936
//    List file          =  
//        E:\qq下载文件\ZStack-CC2530-r200\ZStack-CC2530-r200\Projects\SappWsn\CoordinatorEB\List\roomPwrManSys.s51
//
///////////////////////////////////////////////////////////////////////////////

        NAME roomPwrManSys

        RTMODEL "__SystemLibrary", "CLib"
        RTMODEL "__calling_convention", "xdata_reentrant"
        RTMODEL "__code_model", "banked"
        RTMODEL "__core", "plain"
        RTMODEL "__data_model", "large"
        RTMODEL "__dptr_size", "16"
        RTMODEL "__extended_stack", "disabled"
        RTMODEL "__location_for_constants", "data"
        RTMODEL "__number_of_dptrs", "1"
        RTMODEL "__register_banks", "*"
        RTMODEL "__rt_version", "1"

        RSEG DOVERLAY:DATA:NOROOT(0)
        RSEG IOVERLAY:IDATA:NOROOT(0)
        RSEG ISTACK:IDATA:NOROOT(0)
        RSEG PSTACK:XDATA:NOROOT(0)
        RSEG XSTACK:XDATA:NOROOT(0)

        EXTERN ?V0
        EXTERN ?V1
        EXTERN ?V2
        EXTERN ?V3
        EXTERN ?V4
        EXTERN ?V5
        EXTERN ?ALLOC_XSTACK8
        EXTERN ?BANKED_ENTER_XDATA
        EXTERN ?BANKED_LEAVE_XDATA
        EXTERN ?BDISPATCH
        EXTERN ?DEALLOC_XSTACK8
        EXTERN ?PUSH_XSTACK_I_ONE
        EXTERN ?PUSH_XSTACK_I_TWO
        EXTERN ?XSP
        EXTERN ?XSTACK_DISP0_8
        EXTERN ?XSTACK_DISP101_8
        EXTERN __INIT_XDATA_I
        EXTERN __INIT_XDATA_Z

        PUBLIC `??roomPwrManSys_IncmRt::?relay`
        FUNCTION `??roomPwrManSys_IncmRt::?relay`,0203H
        PUBLIC `??roomPwrManSys_ResAvbRt::?relay`
        FUNCTION `??roomPwrManSys_ResAvbRt::?relay`,0203H
        PUBLIC `??roomPwrManSys_StaChgRt::?relay`
        FUNCTION `??roomPwrManSys_StaChgRt::?relay`,0203H
        PUBLIC `??roomPwrManSys_ToRt::?relay`
        FUNCTION `??roomPwrManSys_ToRt::?relay`,0203H
        PUBLIC descPkg
        PUBLIC funcCount
        PUBLIC funcList
        PUBLIC roomPwrManSys_IncmRt
        FUNCTION roomPwrManSys_IncmRt,0a1603H
        ARGFRAME XSTACK, 2, STACK
        LOCFRAME ISTACK, 1, STACK
        LOCFRAME XSTACK, 19, STACK
        PUBLIC roomPwrManSys_ResAvbRt
        FUNCTION roomPwrManSys_ResAvbRt,0a1603H
        ARGFRAME XSTACK, 0, STACK
        LOCFRAME XSTACK, 12, STACK
        PUBLIC roomPwrManSys_StaChgRt
        FUNCTION roomPwrManSys_StaChgRt,0a1603H
        ARGFRAME XSTACK, 0, STACK
        LOCFRAME XSTACK, 11, STACK
        PUBLIC roomPwrManSys_ToRt
        FUNCTION roomPwrManSys_ToRt,0a1603H
        ARGFRAME XSTACK, 0, STACK
        LOCFRAME XSTACK, 11, STACK
        
          CFI Names cfiNames0
          CFI StackFrame CFA_SP SP IDATA
          CFI StackFrame CFA_PSP16 PSP16 XDATA
          CFI StackFrame CFA_XSP16 XSP16 XDATA
          CFI StaticOverlayFrame CFA_IOVERLAY IOVERLAY
          CFI StaticOverlayFrame CFA_DOVERLAY DOVERLAY
          CFI Resource `PSW.CY`:1, `B.BR0`:1, `B.BR1`:1, `B.BR2`:1, `B.BR3`:1
          CFI Resource `B.BR4`:1, `B.BR5`:1, `B.BR6`:1, `B.BR7`:1, `VB.BR8`:1
          CFI Resource `VB.BR9`:1, `VB.BR10`:1, `VB.BR11`:1, `VB.BR12`:1
          CFI Resource `VB.BR13`:1, `VB.BR14`:1, `VB.BR15`:1, VB:8, B:8, A:8
          CFI Resource PSW:8, DPL0:8, DPH0:8, R0:8, R1:8, R2:8, R3:8, R4:8, R5:8
          CFI Resource R6:8, R7:8, V0:8, V1:8, V2:8, V3:8, V4:8, V5:8, V6:8, V7:8
          CFI Resource SP:8, PSPH:8, PSPL:8, PSP16:16, XSPH:8, XSPL:8, XSP16:16
          CFI VirtualResource ?RET:24
          CFI Resource ?BRET_EXT:8
          CFI VirtualResource ?RET_HIGH:8, ?RET_LOW:8
          CFI ResourceParts PSP16 PSPH, PSPL
          CFI ResourceParts XSP16 XSPH, XSPL
          CFI ResourceParts ?RET ?BRET_EXT, ?RET_HIGH, ?RET_LOW
          CFI EndNames cfiNames0
        
          CFI Common cfiCommon0 Using cfiNames0
          CFI CodeAlign 1
          CFI DataAlign -1
          CFI ReturnAddress ?RET CODE
          CFI CFA_DOVERLAY Used
          CFI CFA_IOVERLAY Used
          CFI CFA_SP SP+-3
          CFI CFA_PSP16 PSP16+0
          CFI CFA_XSP16 XSP16+0
          CFI `PSW.CY` SameValue
          CFI `B.BR0` SameValue
          CFI `B.BR1` SameValue
          CFI `B.BR2` SameValue
          CFI `B.BR3` SameValue
          CFI `B.BR4` SameValue
          CFI `B.BR5` SameValue
          CFI `B.BR6` SameValue
          CFI `B.BR7` SameValue
          CFI `VB.BR8` SameValue
          CFI `VB.BR9` SameValue
          CFI `VB.BR10` SameValue
          CFI `VB.BR11` SameValue
          CFI `VB.BR12` SameValue
          CFI `VB.BR13` SameValue
          CFI `VB.BR14` SameValue
          CFI `VB.BR15` SameValue
          CFI VB SameValue
          CFI B Undefined
          CFI A Undefined
          CFI PSW SameValue
          CFI DPL0 SameValue
          CFI DPH0 SameValue
          CFI R0 Undefined
          CFI R1 Undefined
          CFI R2 Undefined
          CFI R3 Undefined
          CFI R4 Undefined
          CFI R5 Undefined
          CFI R6 SameValue
          CFI R7 SameValue
          CFI V0 SameValue
          CFI V1 SameValue
          CFI V2 SameValue
          CFI V3 SameValue
          CFI V4 SameValue
          CFI V5 SameValue
          CFI V6 SameValue
          CFI V7 SameValue
          CFI PSPH Undefined
          CFI PSPL Undefined
          CFI XSPH Undefined
          CFI XSPL Undefined
          CFI ?RET Concat
          CFI ?BRET_EXT Frame(CFA_SP, 3)
          CFI ?RET_HIGH Frame(CFA_SP, 2)
          CFI ?RET_LOW Frame(CFA_SP, 1)
          CFI EndCommon cfiCommon0
        
        
          CFI Common cfiCommon1 Using cfiNames0
          CFI CodeAlign 1
          CFI DataAlign -1
          CFI ReturnAddress ?RET CODE
          CFI CFA_DOVERLAY Used
          CFI CFA_IOVERLAY Used
          CFI CFA_SP SP+-2
          CFI CFA_PSP16 PSP16+0
          CFI CFA_XSP16 XSP16+0
          CFI `PSW.CY` SameValue
          CFI `B.BR0` SameValue
          CFI `B.BR1` SameValue
          CFI `B.BR2` SameValue
          CFI `B.BR3` SameValue
          CFI `B.BR4` SameValue
          CFI `B.BR5` SameValue
          CFI `B.BR6` SameValue
          CFI `B.BR7` SameValue
          CFI `VB.BR8` SameValue
          CFI `VB.BR9` SameValue
          CFI `VB.BR10` SameValue
          CFI `VB.BR11` SameValue
          CFI `VB.BR12` SameValue
          CFI `VB.BR13` SameValue
          CFI `VB.BR14` SameValue
          CFI `VB.BR15` SameValue
          CFI VB SameValue
          CFI B SameValue
          CFI A SameValue
          CFI PSW SameValue
          CFI DPL0 SameValue
          CFI DPH0 SameValue
          CFI R0 SameValue
          CFI R1 SameValue
          CFI R2 SameValue
          CFI R3 SameValue
          CFI R4 SameValue
          CFI R5 SameValue
          CFI R6 SameValue
          CFI R7 SameValue
          CFI V0 SameValue
          CFI V1 SameValue
          CFI V2 SameValue
          CFI V3 SameValue
          CFI V4 SameValue
          CFI V5 SameValue
          CFI V6 SameValue
          CFI V7 SameValue
          CFI PSPH Undefined
          CFI PSPL Undefined
          CFI XSPH Undefined
          CFI XSPL Undefined
          CFI ?RET Concat
          CFI ?BRET_EXT SameValue
          CFI ?RET_HIGH Frame(CFA_SP, 2)
          CFI ?RET_LOW Frame(CFA_SP, 1)
          CFI EndCommon cfiCommon1
        
HalUARTWrite        SYMBOL "HalUARTWrite"
`??HalUARTWrite::?relay` SYMBOL "?relay", HalUARTWrite
SendData            SYMBOL "SendData"
`??SendData::?relay` SYMBOL "?relay", SendData
memcpy              SYMBOL "memcpy"
`??memcpy::?relay`  SYMBOL "?relay", memcpy
memset              SYMBOL "memset"
`??memset::?relay`  SYMBOL "?relay", memset
roomPwrManSys_IncmRt SYMBOL "roomPwrManSys_IncmRt"
`??roomPwrManSys_IncmRt::?relay` SYMBOL "?relay", roomPwrManSys_IncmRt
roomPwrManSys_ResAvbRt SYMBOL "roomPwrManSys_ResAvbRt"
`??roomPwrManSys_ResAvbRt::?relay` SYMBOL "?relay", roomPwrManSys_ResAvbRt
roomPwrManSys_StaChgRt SYMBOL "roomPwrManSys_StaChgRt"
`??roomPwrManSys_StaChgRt::?relay` SYMBOL "?relay", roomPwrManSys_StaChgRt
roomPwrManSys_ToRt  SYMBOL "roomPwrManSys_ToRt"
`??roomPwrManSys_ToRt::?relay` SYMBOL "?relay", roomPwrManSys_ToRt

        EXTERN `??HalUARTWrite::?relay`
        FUNCTION `??HalUARTWrite::?relay`,00H
        EXTERN `??SendData::?relay`
        FUNCTION `??SendData::?relay`,00H
        EXTERN `??memcpy::?relay`
        FUNCTION `??memcpy::?relay`,00H
        EXTERN `??memset::?relay`
        FUNCTION `??memset::?relay`,00H
        EXTERN HalUARTWrite
        FUNCTION HalUARTWrite,0202H
        ARGFRAME ISTACK, 0, STACK
        ARGFRAME PSTACK, 0, STACK
        ARGFRAME XSTACK, 17, STACK
        ARGFRAME IOVERLAY, 0, STATIC
        ARGFRAME DOVERLAY, 0, STATIC
        EXTERN SendData
        FUNCTION SendData,0202H
        ARGFRAME ISTACK, 0, STACK
        ARGFRAME PSTACK, 0, STACK
        ARGFRAME XSTACK, 19, STACK
        ARGFRAME IOVERLAY, 0, STATIC
        ARGFRAME DOVERLAY, 0, STATIC
        EXTERN memcpy
        FUNCTION memcpy,010202H
        ARGFRAME ISTACK, 0, STACK
        ARGFRAME PSTACK, 0, STACK
        ARGFRAME XSTACK, 19, STACK
        ARGFRAME IOVERLAY, 0, STATIC
        ARGFRAME DOVERLAY, 0, STATIC
        EXTERN memset
        FUNCTION memset,010202H
        ARGFRAME ISTACK, 0, STACK
        ARGFRAME PSTACK, 0, STACK
        ARGFRAME XSTACK, 12, STACK
        ARGFRAME IOVERLAY, 0, STATIC
        ARGFRAME DOVERLAY, 0, STATIC

// E:\qq下载文件\ZStack-CC2530-r200\ZStack-CC2530-r200\Projects\SappWsn\Source\roomPwrManSys.c
//    1 #include "roomPwrManSys.h"
//    2 #include "hal_io.h"
//    3 #include <string.h>
//    4 #include "hal_adc.h"
//    5 #include "hal_assert.h"
//    6 #include "hal_board.h"
//    7 #include "hal_ccm.h"
//    8 #include "hal_defs.h"
//    9 #include "hal_drivers.h"
//   10 #include "hal_flash.h"
//   11 #include "hal_irdec.h"
//   12 #include "hal_key.h"
//   13 #include "hal_lcd.h"
//   14 #include "hal_led.h"
//   15 #include "hal_sleep.h"
//   16 #include "hal_timer.h"
//   17 #include "hal_uart.h"
//   18 
//   19 /********************************/
//   20 /* 协调器代码                   */
//   21 /********************************/
//   22 #if defined(ZDO_COORDINATOR)

        RSEG XDATA_I:XDATA:NOROOT(0)
//   23 uint8 descPkg[] = {
descPkg:
        DATA8
        DS 3
        REQUIRE `?<Initializer for descPkg>`
        REQUIRE __INIT_XDATA_I
//   24     0x03, DevIRPers, 0
//   25 };
//   26 

        RSEG XDATA_Z:XDATA:NOROOT(0)
        DATA8
//   27 static uint16 nodeNwkAddr[Devmax];
nodeNwkAddr:
        DS 10
        REQUIRE __INIT_XDATA_Z

        RSEG XDATA_Z:XDATA:NOROOT(0)
        DATA8
//   28 static uint8 nodeEndPoint[Devmax];
nodeEndPoint:
        DS 5
        REQUIRE __INIT_XDATA_Z
//   29 

        RSEG XDATA_Z:XDATA:NOROOT(0)
        DATA8
//   30 static uint8 irPersStatus = 0;
irPersStatus:
        DS 1
        REQUIRE __INIT_XDATA_Z

        RSEG XDATA_Z:XDATA:NOROOT(0)
        DATA8
//   31 static uint8 illumStatus = 0;
illumStatus:
        DS 1
        REQUIRE __INIT_XDATA_Z

        RSEG XDATA_Z:XDATA:NOROOT(0)
        DATA8
//   32 static uint8 controlStatus = 0;
controlStatus:
        DS 1
        REQUIRE __INIT_XDATA_Z
//   33 void roomPwrManSys_StaChgRt(struct ep_info_t *ep);

        RSEG BANKED_CODE:HUGECODE:NOROOT(0)
//   34 void roomPwrManSys_StaChgRt(struct ep_info_t *ep)
roomPwrManSys_StaChgRt:
          CFI Block cfiBlock0 Using cfiCommon0
          CFI Function roomPwrManSys_StaChgRt
        CODE
//   35 {
        FUNCALL roomPwrManSys_StaChgRt, SendData
        LOCFRAME ISTACK, 0, STACK
        LOCFRAME PSTACK, 0, STACK
        LOCFRAME XSTACK, 11, STACK
        LOCFRAME IOVERLAY, 0, STATIC
        LOCFRAME DOVERLAY, 0, STATIC
        ARGFRAME ISTACK, 0, STACK
        ARGFRAME PSTACK, 0, STACK
        ARGFRAME XSTACK, 11, STACK
        ARGFRAME IOVERLAY, 0, STATIC
        ARGFRAME DOVERLAY, 0, STATIC
        REQUIRE ?V0
        MOV       A,#-0x9
        LCALL     ?BANKED_ENTER_XDATA
          CFI DPH0 load(1, XDATA, add(CFA_XSP16, literal(-1)))
          CFI DPL0 load(1, XDATA, add(CFA_XSP16, literal(-2)))
          CFI ?BRET_EXT load(1, XDATA, add(CFA_XSP16, literal(-3)))
          CFI ?RET_HIGH load(1, XDATA, add(CFA_XSP16, literal(-4)))
          CFI ?RET_LOW load(1, XDATA, add(CFA_XSP16, literal(-5)))
          CFI R7 load(1, XDATA, add(CFA_XSP16, literal(-6)))
          CFI V0 load(1, XDATA, add(CFA_XSP16, literal(-7)))
          CFI VB load(1, XDATA, add(CFA_XSP16, literal(-8)))
          CFI R6 load(1, XDATA, add(CFA_XSP16, literal(-9)))
          CFI CFA_SP SP+0
          CFI CFA_XSP16 add(XSP16, 9)
        ; Saved register size: 9
        ; Auto size: 0
        MOV       A,R2
        MOV       R6,A
        MOV       A,R3
        MOV       R7,A
//   36     // 寻找人体红外节点 
//   37     descPkg[1] = DevIRPers;
        MOV       DPTR,#descPkg + 1
        CLR       A
        MOVX      @DPTR,A
//   38     SendData(ep->ep, descPkg, 0xFFFF, CONTROL_ENDPOINT, sizeof(descPkg));
        ; Setup parameters for call to function SendData
        MOV       ?V0,#0x3
        MOV       R0,#?V0
        LCALL     ?PUSH_XSTACK_I_ONE
          CFI CFA_XSP16 add(XSP16, 10)
        MOV       ?V0,#-0x10
        MOV       R0,#?V0
        LCALL     ?PUSH_XSTACK_I_ONE
          CFI CFA_XSP16 add(XSP16, 11)
        LCALL     ?Subroutine2 & 0xFFFF
??CrossCallReturnLabel_2:
        LCALL     ?DEALLOC_XSTACK8
//   39 }
          CFI EndBlock cfiBlock0
        REQUIRE ?Subroutine0
        ; // Fall through to label ?Subroutine0

        RSEG BANKED_CODE:HUGECODE:NOROOT(0)
?Subroutine0:
          CFI Block cfiBlock1 Using cfiCommon0
          CFI NoFunction
          CFI CFA_SP SP+0
          CFI CFA_XSP16 add(XSP16, 9)
          CFI VB load(1, XDATA, add(CFA_XSP16, literal(-8)))
          CFI DPL0 load(1, XDATA, add(CFA_XSP16, literal(-2)))
          CFI DPH0 load(1, XDATA, add(CFA_XSP16, literal(-1)))
          CFI R6 load(1, XDATA, add(CFA_XSP16, literal(-9)))
          CFI R7 load(1, XDATA, add(CFA_XSP16, literal(-6)))
          CFI V0 load(1, XDATA, add(CFA_XSP16, literal(-7)))
          CFI ?BRET_EXT load(1, XDATA, add(CFA_XSP16, literal(-3)))
          CFI ?RET_HIGH load(1, XDATA, add(CFA_XSP16, literal(-4)))
          CFI ?RET_LOW load(1, XDATA, add(CFA_XSP16, literal(-5)))
        MOV       R7,#0x1
        LJMP      ?BANKED_LEAVE_XDATA
          CFI EndBlock cfiBlock1
//   40 void roomPwrManSys_IncmRt(struct ep_info_t *ep, uint16 addr, uint8 endPoint, afMSGCommandFormat_t *msg);

        RSEG BANKED_CODE:HUGECODE:NOROOT(0)
//   41 void roomPwrManSys_IncmRt(struct ep_info_t *ep, uint16 addr, uint8 endPoint, afMSGCommandFormat_t *msg)
roomPwrManSys_IncmRt:
          CFI Block cfiBlock2 Using cfiCommon0
          CFI Function roomPwrManSys_IncmRt
        CODE
//   42 {
        FUNCALL roomPwrManSys_IncmRt, SendData
        LOCFRAME ISTACK, 0, STACK
        LOCFRAME PSTACK, 0, STACK
        LOCFRAME XSTACK, 19, STACK
        LOCFRAME IOVERLAY, 0, STATIC
        LOCFRAME DOVERLAY, 0, STATIC
        ARGFRAME ISTACK, 0, STACK
        ARGFRAME PSTACK, 0, STACK
        ARGFRAME XSTACK, 19, STACK
        ARGFRAME IOVERLAY, 0, STATIC
        ARGFRAME DOVERLAY, 0, STATIC
        FUNCALL roomPwrManSys_IncmRt, memcpy
        LOCFRAME ISTACK, 0, STACK
        LOCFRAME PSTACK, 0, STACK
        LOCFRAME XSTACK, 19, STACK
        LOCFRAME IOVERLAY, 0, STATIC
        LOCFRAME DOVERLAY, 0, STATIC
        ARGFRAME ISTACK, 0, STACK
        ARGFRAME PSTACK, 0, STACK
        ARGFRAME XSTACK, 19, STACK
        ARGFRAME IOVERLAY, 0, STATIC
        ARGFRAME DOVERLAY, 0, STATIC
        FUNCALL roomPwrManSys_IncmRt, HalUARTWrite
        LOCFRAME ISTACK, 0, STACK
        LOCFRAME PSTACK, 0, STACK
        LOCFRAME XSTACK, 17, STACK
        LOCFRAME IOVERLAY, 0, STATIC
        LOCFRAME DOVERLAY, 0, STATIC
        ARGFRAME ISTACK, 0, STACK
        ARGFRAME PSTACK, 0, STACK
        ARGFRAME XSTACK, 17, STACK
        ARGFRAME IOVERLAY, 0, STATIC
        ARGFRAME DOVERLAY, 0, STATIC
        FUNCALL roomPwrManSys_IncmRt, SendData
        LOCFRAME ISTACK, 0, STACK
        LOCFRAME PSTACK, 0, STACK
        LOCFRAME XSTACK, 19, STACK
        LOCFRAME IOVERLAY, 0, STATIC
        LOCFRAME DOVERLAY, 0, STATIC
        ARGFRAME ISTACK, 0, STACK
        ARGFRAME PSTACK, 0, STACK
        ARGFRAME XSTACK, 19, STACK
        ARGFRAME IOVERLAY, 0, STATIC
        ARGFRAME DOVERLAY, 0, STATIC
        REQUIRE ?V0
        REQUIRE ?V1
        REQUIRE ?V2
        REQUIRE ?V3
        REQUIRE ?V4
        REQUIRE ?V5
        MOV       A,#-0xe
        LCALL     ?BANKED_ENTER_XDATA
          CFI DPH0 load(1, XDATA, add(CFA_XSP16, literal(-1)))
          CFI DPL0 load(1, XDATA, add(CFA_XSP16, literal(-2)))
          CFI ?BRET_EXT load(1, XDATA, add(CFA_XSP16, literal(-3)))
          CFI ?RET_HIGH load(1, XDATA, add(CFA_XSP16, literal(-4)))
          CFI ?RET_LOW load(1, XDATA, add(CFA_XSP16, literal(-5)))
          CFI R7 load(1, XDATA, add(CFA_XSP16, literal(-6)))
          CFI V5 load(1, XDATA, add(CFA_XSP16, literal(-7)))
          CFI V4 load(1, XDATA, add(CFA_XSP16, literal(-8)))
          CFI V3 load(1, XDATA, add(CFA_XSP16, literal(-9)))
          CFI V2 load(1, XDATA, add(CFA_XSP16, literal(-10)))
          CFI V1 load(1, XDATA, add(CFA_XSP16, literal(-11)))
          CFI V0 load(1, XDATA, add(CFA_XSP16, literal(-12)))
          CFI VB load(1, XDATA, add(CFA_XSP16, literal(-13)))
          CFI R6 load(1, XDATA, add(CFA_XSP16, literal(-14)))
          CFI CFA_SP SP+0
          CFI CFA_XSP16 add(XSP16, 14)
        ; Saved register size: 14
        ; Auto size: 3
        MOV       A,#-0x3
        LCALL     ?ALLOC_XSTACK8
          CFI CFA_XSP16 add(XSP16, 17)
        MOV       ?V2,R2
        MOV       ?V3,R3
        MOV       A,#0x11
        LCALL     ?XSTACK_DISP0_8
        MOVX      A,@DPTR
        MOV       R6,A
        INC       DPTR
        MOVX      A,@DPTR
        MOV       R7,A
//   43     //msg->Data[], msg->DataLength, msg->TransSeqNumber
//   44     if((endPoint == CONTROL_ENDPOINT) && (msg->Data[0] == 0x03))
        MOV       A,#-0x10
        XRL       A,R1
        JNZ       ??roomPwrManSys_IncmRt_0
        LCALL     ?Subroutine3 & 0xFFFF
??CrossCallReturnLabel_4:
        XRL       A,#0x3
        JNZ       ??roomPwrManSys_IncmRt_0
//   45     {
//   46         // endPoint: msg->Data[1], rCycle: msg->Data[2]
//   47         // 将上一次寻找的节点地址和端点号保存起来
//   48         nodeNwkAddr[descPkg[1]] = addr;
        MOV       DPTR,#descPkg + 1
        MOVX      A,@DPTR
        MOV       R2,A
        ADD       A,0xE0 /* A   */
        MOV       R0,A
        CLR       A
        RLC       A
        MOV       R1,A
        MOV       A,#nodeNwkAddr & 0xff
        ADD       A,R0
        MOV       DPL,A
        MOV       A,#(nodeNwkAddr >> 8) & 0xff
        ADDC      A,R1
        MOV       DPH,A
        MOV       A,R4
        MOVX      @DPTR,A
        INC       DPTR
        MOV       A,R5
        MOVX      @DPTR,A
//   49         nodeEndPoint[descPkg[1]] = msg->Data[1];
        LCALL     ?Subroutine4 & 0xFFFF
??CrossCallReturnLabel_6:
        INC       DPTR
        MOVX      A,@DPTR
        PUSH      A
          CFI CFA_SP SP+-1
        MOV       A,#nodeEndPoint & 0xff
        ADD       A,R2
        MOV       DPL,A
        CLR       A
        ADDC      A,#(nodeEndPoint >> 8) & 0xff
        MOV       DPH,A
        POP       A
          CFI CFA_SP SP+0
        MOVX      @DPTR,A
//   50         // 准备寻找下一个节点
//   51         descPkg[1] = descPkg[1] + 1;
        MOV       DPTR,#descPkg + 1
        MOVX      A,@DPTR
        INC       A
        MOVX      @DPTR,A
//   52         // 所有节点是否都已经寻找完毕?
//   53         if(descPkg[1] < Devmax)
        CLR       C
        SUBB      A,#0x5
        JC        $+5
        LJMP      ??roomPwrManSys_IncmRt_1 & 0xFFFF
//   54             SendData(ep->ep, descPkg, 0xFFFF, CONTROL_ENDPOINT, sizeof(descPkg));
        ; Setup parameters for call to function SendData
        MOV       ?V1,#0x3
        MOV       R0,#?V1
        LCALL     ?PUSH_XSTACK_I_ONE
          CFI CFA_XSP16 add(XSP16, 18)
        MOV       ?V1,#-0x10
        MOV       R0,#?V1
        LCALL     ?PUSH_XSTACK_I_ONE
          CFI CFA_XSP16 add(XSP16, 19)
        MOV       R4,#-0x1
        MOV       R5,#-0x1
        MOV       R2,#descPkg & 0xff
        MOV       R3,#(descPkg >> 8) & 0xff
        LCALL     ?Subroutine1 & 0xFFFF
//   55     }
??CrossCallReturnLabel_0:
        LCALL     ?DEALLOC_XSTACK8
          CFI CFA_XSP16 add(XSP16, 17)
        LJMP      ??roomPwrManSys_IncmRt_1 & 0xFFFF
//   56     else
//   57     {
//   58         if(addr == nodeNwkAddr[DevIllum])
??roomPwrManSys_IncmRt_0:
        MOV       DPTR,#nodeNwkAddr + 2
        MOVX      A,@DPTR
        XRL       A,R4
        JNZ       ??roomPwrManSys_IncmRt_2
        INC       DPTR
        MOVX      A,@DPTR
        XRL       A,R5
??roomPwrManSys_IncmRt_2:
        JNZ       ??roomPwrManSys_IncmRt_3
//   59         {
//   60             // 接收到光照度传感器数据
//   61             uint16 i = 0;
        MOV       A,#0x1
        LCALL     ?XSTACK_DISP0_8
        CLR       A
        MOVX      @DPTR,A
        INC       DPTR
        MOVX      @DPTR,A
//   62             memcpy(&i, msg->Data, 2);
        ; Setup parameters for call to function memcpy
        MOV       ?V4,#0x2
        MOV       ?V5,A
        MOV       R0,#?V4
        LCALL     ?PUSH_XSTACK_I_TWO
          CFI CFA_XSP16 add(XSP16, 19)
        MOV       DPL,R6
        MOV       DPH,R7
        INC       DPTR
        INC       DPTR
        INC       DPTR
        MOVX      A,@DPTR
        MOV       R4,A
        INC       DPTR
        MOVX      A,@DPTR
        MOV       R5,A
        MOV       A,#0x3
        LCALL     ?XSTACK_DISP101_8
        LCALL     `??memcpy::?relay`; Banked call to: memcpy
        MOV       A,#0x2
        LCALL     ?DEALLOC_XSTACK8
          CFI CFA_XSP16 add(XSP16, 17)
//   63             illumStatus = i < 45000;
        MOV       A,#0x1
        LCALL     ?XSTACK_DISP0_8
        CLR       C
        MOVX      A,@DPTR
        SUBB      A,#-0x38
        INC       DPTR
        MOVX      A,@DPTR
        SUBB      A,#-0x51
        MOV       DPTR,#illumStatus
        JNC       ??roomPwrManSys_IncmRt_4
        MOV       A,#0x1
        SJMP      ??roomPwrManSys_IncmRt_5
??roomPwrManSys_IncmRt_4:
        CLR       A
??roomPwrManSys_IncmRt_5:
        MOVX      @DPTR,A
//   64             HalUARTWrite(HAL_UART_PORT_0, msg->Data, 2);
        ; Setup parameters for call to function HalUARTWrite
        MOV       R4,#0x2
        MOV       R5,#0x0
        MOV       DPL,R6
        MOV       DPH,R7
        INC       DPTR
        INC       DPTR
        INC       DPTR
        MOVX      A,@DPTR
        MOV       R2,A
        INC       DPTR
        MOVX      A,@DPTR
        MOV       R3,A
        MOV       R1,#0x0
        LCALL     `??HalUARTWrite::?relay`; Banked call to: HalUARTWrite
        SJMP      ??roomPwrManSys_IncmRt_6
//   65         }
//   66         else if(addr == nodeNwkAddr[DevIRPers])
??roomPwrManSys_IncmRt_3:
        MOV       DPTR,#nodeNwkAddr
        MOVX      A,@DPTR
        XRL       A,R4
        JNZ       ??roomPwrManSys_IncmRt_7
        INC       DPTR
        MOVX      A,@DPTR
        XRL       A,R5
??roomPwrManSys_IncmRt_7:
        JNZ       ??roomPwrManSys_IncmRt_6
//   67         {
//   68             // 接收到人体红外传感器数据
//   69             irPersStatus = !!(msg->Data[0]);
        LCALL     ?Subroutine3 & 0xFFFF
//   70         }
??CrossCallReturnLabel_5:
        MOV       DPTR,#irPersStatus
        JZ        ??roomPwrManSys_IncmRt_8
        MOV       A,#0x1
        SJMP      ??roomPwrManSys_IncmRt_9
??roomPwrManSys_IncmRt_8:
        CLR       A
??roomPwrManSys_IncmRt_9:
        MOVX      @DPTR,A
//   71         if(nodeNwkAddr[DevExecuter] != 0xFFFF)
??roomPwrManSys_IncmRt_6:
        MOV       DPTR,#nodeNwkAddr + 4
        MOVX      A,@DPTR
        CPL       A
        JNZ       ??roomPwrManSys_IncmRt_10
        INC       DPTR
        MOVX      A,@DPTR
        CPL       A
??roomPwrManSys_IncmRt_10:
        JZ        ??roomPwrManSys_IncmRt_1
//   72         {
//   73             // 如果执行节点存在
//   74             uint8 ctrl = 0;
        MOV       DPL,?XSP + 0
        MOV       DPH,?XSP + 1
        CLR       A
        MOVX      @DPTR,A
//   75             if(irPersStatus && illumStatus)
        MOV       DPTR,#irPersStatus
        MOVX      A,@DPTR
        JZ        ??roomPwrManSys_IncmRt_11
        MOV       DPTR,#illumStatus
        MOVX      A,@DPTR
        JZ        ??roomPwrManSys_IncmRt_11
//   76                 ctrl = 0x0f;
        MOV       DPL,?XSP + 0
        MOV       DPH,?XSP + 1
        MOV       A,#0xf
        MOVX      @DPTR,A
//   77             // 如果灯光的当前状态与需要设置的状态不一样则发送数据
//   78             if(controlStatus != ctrl)
??roomPwrManSys_IncmRt_11:
        MOV       DPTR,#controlStatus
        MOVX      A,@DPTR
        MOV       R0,A
        MOV       DPL,?XSP + 0
        MOV       DPH,?XSP + 1
        MOVX      A,@DPTR
        XRL       A,R0
        JZ        ??roomPwrManSys_IncmRt_12
//   79                 SendData(ep->ep, &ctrl, nodeNwkAddr[DevExecuter], nodeEndPoint[DevExecuter], 1);
        ; Setup parameters for call to function SendData
        MOV       ?V1,#0x1
        MOV       R0,#?V1
        LCALL     ?PUSH_XSTACK_I_ONE
          CFI CFA_XSP16 add(XSP16, 18)
        MOV       DPTR,#nodeEndPoint + 2
        MOVX      A,@DPTR
        MOV       ?V1,A
        MOV       R0,#?V1
        LCALL     ?PUSH_XSTACK_I_ONE
          CFI CFA_XSP16 add(XSP16, 19)
        MOV       DPTR,#nodeNwkAddr + 4
        MOVX      A,@DPTR
        MOV       R4,A
        INC       DPTR
        MOVX      A,@DPTR
        MOV       R5,A
        MOV       A,#0x2
        LCALL     ?XSTACK_DISP101_8
        LCALL     ?Subroutine1 & 0xFFFF
??CrossCallReturnLabel_1:
        LCALL     ?DEALLOC_XSTACK8
          CFI CFA_XSP16 add(XSP16, 17)
//   80             controlStatus = ctrl;
??roomPwrManSys_IncmRt_12:
        MOV       DPL,?XSP + 0
        MOV       DPH,?XSP + 1
        MOVX      A,@DPTR
        MOV       DPTR,#controlStatus
        MOVX      @DPTR,A
//   81         }
//   82     }
//   83 }
??roomPwrManSys_IncmRt_1:
        MOV       A,#0x3
        LCALL     ?DEALLOC_XSTACK8
          CFI CFA_XSP16 add(XSP16, 14)
        MOV       R7,#0x6
        LJMP      ?BANKED_LEAVE_XDATA
          CFI EndBlock cfiBlock2

        RSEG BANKED_CODE:HUGECODE:NOROOT(0)
?Subroutine3:
          CFI Block cfiCond3 Using cfiCommon0
          CFI Function roomPwrManSys_IncmRt
          CFI Conditional ??CrossCallReturnLabel_4
          CFI R6 load(1, XDATA, add(CFA_XSP16, literal(-14)))
          CFI VB load(1, XDATA, add(CFA_XSP16, literal(-13)))
          CFI V0 load(1, XDATA, add(CFA_XSP16, literal(-12)))
          CFI V1 load(1, XDATA, add(CFA_XSP16, literal(-11)))
          CFI V2 load(1, XDATA, add(CFA_XSP16, literal(-10)))
          CFI V3 load(1, XDATA, add(CFA_XSP16, literal(-9)))
          CFI V4 load(1, XDATA, add(CFA_XSP16, literal(-8)))
          CFI V5 load(1, XDATA, add(CFA_XSP16, literal(-7)))
          CFI R7 load(1, XDATA, add(CFA_XSP16, literal(-6)))
          CFI ?RET_LOW load(1, XDATA, add(CFA_XSP16, literal(-5)))
          CFI ?RET_HIGH load(1, XDATA, add(CFA_XSP16, literal(-4)))
          CFI ?BRET_EXT load(1, XDATA, add(CFA_XSP16, literal(-3)))
          CFI DPL0 load(1, XDATA, add(CFA_XSP16, literal(-2)))
          CFI DPH0 load(1, XDATA, add(CFA_XSP16, literal(-1)))
          CFI CFA_SP SP+-2
          CFI CFA_XSP16 add(XSP16, 17)
          CFI Block cfiCond4 Using cfiCommon0
          CFI (cfiCond4) Function roomPwrManSys_IncmRt
          CFI (cfiCond4) Conditional ??CrossCallReturnLabel_5
          CFI (cfiCond4) R6 load(1, XDATA, add(CFA_XSP16, literal(-14)))
          CFI (cfiCond4) VB load(1, XDATA, add(CFA_XSP16, literal(-13)))
          CFI (cfiCond4) V0 load(1, XDATA, add(CFA_XSP16, literal(-12)))
          CFI (cfiCond4) V1 load(1, XDATA, add(CFA_XSP16, literal(-11)))
          CFI (cfiCond4) V2 load(1, XDATA, add(CFA_XSP16, literal(-10)))
          CFI (cfiCond4) V3 load(1, XDATA, add(CFA_XSP16, literal(-9)))
          CFI (cfiCond4) V4 load(1, XDATA, add(CFA_XSP16, literal(-8)))
          CFI (cfiCond4) V5 load(1, XDATA, add(CFA_XSP16, literal(-7)))
          CFI (cfiCond4) R7 load(1, XDATA, add(CFA_XSP16, literal(-6)))
          CFI (cfiCond4) ?RET_LOW load(1, XDATA, add(CFA_XSP16, literal(-5)))
          CFI (cfiCond4) ?RET_HIGH load(1, XDATA, add(CFA_XSP16, literal(-4)))
          CFI (cfiCond4) ?BRET_EXT load(1, XDATA, add(CFA_XSP16, literal(-3)))
          CFI (cfiCond4) DPL0 load(1, XDATA, add(CFA_XSP16, literal(-2)))
          CFI (cfiCond4) DPH0 load(1, XDATA, add(CFA_XSP16, literal(-1)))
          CFI (cfiCond4) CFA_SP SP+-2
          CFI (cfiCond4) CFA_XSP16 add(XSP16, 17)
          CFI Block cfiPicker5 Using cfiCommon1
          CFI (cfiPicker5) NoFunction
          CFI (cfiPicker5) Picker
        LCALL     ?Subroutine4 & 0xFFFF
??CrossCallReturnLabel_7:
        MOVX      A,@DPTR
        RET
          CFI EndBlock cfiCond3
          CFI EndBlock cfiCond4
          CFI EndBlock cfiPicker5

        RSEG BANKED_CODE:HUGECODE:NOROOT(0)
?Subroutine4:
          CFI Block cfiCond6 Using cfiCommon0
          CFI Function roomPwrManSys_IncmRt
          CFI Conditional ??CrossCallReturnLabel_6
          CFI R6 load(1, XDATA, add(CFA_XSP16, literal(-14)))
          CFI VB load(1, XDATA, add(CFA_XSP16, literal(-13)))
          CFI V0 load(1, XDATA, add(CFA_XSP16, literal(-12)))
          CFI V1 load(1, XDATA, add(CFA_XSP16, literal(-11)))
          CFI V2 load(1, XDATA, add(CFA_XSP16, literal(-10)))
          CFI V3 load(1, XDATA, add(CFA_XSP16, literal(-9)))
          CFI V4 load(1, XDATA, add(CFA_XSP16, literal(-8)))
          CFI V5 load(1, XDATA, add(CFA_XSP16, literal(-7)))
          CFI R7 load(1, XDATA, add(CFA_XSP16, literal(-6)))
          CFI ?RET_LOW load(1, XDATA, add(CFA_XSP16, literal(-5)))
          CFI ?RET_HIGH load(1, XDATA, add(CFA_XSP16, literal(-4)))
          CFI ?BRET_EXT load(1, XDATA, add(CFA_XSP16, literal(-3)))
          CFI DPL0 load(1, XDATA, add(CFA_XSP16, literal(-2)))
          CFI DPH0 load(1, XDATA, add(CFA_XSP16, literal(-1)))
          CFI CFA_SP SP+-2
          CFI CFA_XSP16 add(XSP16, 17)
          CFI Block cfiCond7 Using cfiCommon0
          CFI (cfiCond7) Function roomPwrManSys_IncmRt
          CFI (cfiCond7) Conditional ??CrossCallReturnLabel_7, ??CrossCallReturnLabel_4
          CFI (cfiCond7) R6 load(1, XDATA, add(CFA_XSP16, literal(-14)))
          CFI (cfiCond7) VB load(1, XDATA, add(CFA_XSP16, literal(-13)))
          CFI (cfiCond7) V0 load(1, XDATA, add(CFA_XSP16, literal(-12)))
          CFI (cfiCond7) V1 load(1, XDATA, add(CFA_XSP16, literal(-11)))
          CFI (cfiCond7) V2 load(1, XDATA, add(CFA_XSP16, literal(-10)))
          CFI (cfiCond7) V3 load(1, XDATA, add(CFA_XSP16, literal(-9)))
          CFI (cfiCond7) V4 load(1, XDATA, add(CFA_XSP16, literal(-8)))
          CFI (cfiCond7) V5 load(1, XDATA, add(CFA_XSP16, literal(-7)))
          CFI (cfiCond7) R7 load(1, XDATA, add(CFA_XSP16, literal(-6)))
          CFI (cfiCond7) ?RET_LOW load(1, XDATA, add(CFA_XSP16, literal(-5)))
          CFI (cfiCond7) ?RET_HIGH load(1, XDATA, add(CFA_XSP16, literal(-4)))
          CFI (cfiCond7) ?BRET_EXT load(1, XDATA, add(CFA_XSP16, literal(-3)))
          CFI (cfiCond7) DPL0 load(1, XDATA, add(CFA_XSP16, literal(-2)))
          CFI (cfiCond7) DPH0 load(1, XDATA, add(CFA_XSP16, literal(-1)))
          CFI (cfiCond7) CFA_SP SP+-4
          CFI (cfiCond7) CFA_XSP16 add(XSP16, 17)
          CFI Block cfiCond8 Using cfiCommon0
          CFI (cfiCond8) Function roomPwrManSys_IncmRt
          CFI (cfiCond8) Conditional ??CrossCallReturnLabel_7, ??CrossCallReturnLabel_5
          CFI (cfiCond8) R6 load(1, XDATA, add(CFA_XSP16, literal(-14)))
          CFI (cfiCond8) VB load(1, XDATA, add(CFA_XSP16, literal(-13)))
          CFI (cfiCond8) V0 load(1, XDATA, add(CFA_XSP16, literal(-12)))
          CFI (cfiCond8) V1 load(1, XDATA, add(CFA_XSP16, literal(-11)))
          CFI (cfiCond8) V2 load(1, XDATA, add(CFA_XSP16, literal(-10)))
          CFI (cfiCond8) V3 load(1, XDATA, add(CFA_XSP16, literal(-9)))
          CFI (cfiCond8) V4 load(1, XDATA, add(CFA_XSP16, literal(-8)))
          CFI (cfiCond8) V5 load(1, XDATA, add(CFA_XSP16, literal(-7)))
          CFI (cfiCond8) R7 load(1, XDATA, add(CFA_XSP16, literal(-6)))
          CFI (cfiCond8) ?RET_LOW load(1, XDATA, add(CFA_XSP16, literal(-5)))
          CFI (cfiCond8) ?RET_HIGH load(1, XDATA, add(CFA_XSP16, literal(-4)))
          CFI (cfiCond8) ?BRET_EXT load(1, XDATA, add(CFA_XSP16, literal(-3)))
          CFI (cfiCond8) DPL0 load(1, XDATA, add(CFA_XSP16, literal(-2)))
          CFI (cfiCond8) DPH0 load(1, XDATA, add(CFA_XSP16, literal(-1)))
          CFI (cfiCond8) CFA_SP SP+-4
          CFI (cfiCond8) CFA_XSP16 add(XSP16, 17)
          CFI Block cfiPicker9 Using cfiCommon1
          CFI (cfiPicker9) NoFunction
          CFI (cfiPicker9) Picker
        MOV       DPL,R6
        MOV       DPH,R7
        INC       DPTR
        INC       DPTR
        INC       DPTR
        MOVX      A,@DPTR
        MOV       R0,A
        INC       DPTR
        MOVX      A,@DPTR
        MOV       DPH,A
        MOV       DPL,R0
        RET
          CFI EndBlock cfiCond6
          CFI EndBlock cfiCond7
          CFI EndBlock cfiCond8
          CFI EndBlock cfiPicker9

        RSEG BANKED_CODE:HUGECODE:NOROOT(0)
?Subroutine1:
          CFI Block cfiCond10 Using cfiCommon0
          CFI Function roomPwrManSys_IncmRt
          CFI Conditional ??CrossCallReturnLabel_0
          CFI R6 load(1, XDATA, add(CFA_XSP16, literal(-14)))
          CFI VB load(1, XDATA, add(CFA_XSP16, literal(-13)))
          CFI V0 load(1, XDATA, add(CFA_XSP16, literal(-12)))
          CFI V1 load(1, XDATA, add(CFA_XSP16, literal(-11)))
          CFI V2 load(1, XDATA, add(CFA_XSP16, literal(-10)))
          CFI V3 load(1, XDATA, add(CFA_XSP16, literal(-9)))
          CFI V4 load(1, XDATA, add(CFA_XSP16, literal(-8)))
          CFI V5 load(1, XDATA, add(CFA_XSP16, literal(-7)))
          CFI R7 load(1, XDATA, add(CFA_XSP16, literal(-6)))
          CFI ?RET_LOW load(1, XDATA, add(CFA_XSP16, literal(-5)))
          CFI ?RET_HIGH load(1, XDATA, add(CFA_XSP16, literal(-4)))
          CFI ?BRET_EXT load(1, XDATA, add(CFA_XSP16, literal(-3)))
          CFI DPL0 load(1, XDATA, add(CFA_XSP16, literal(-2)))
          CFI DPH0 load(1, XDATA, add(CFA_XSP16, literal(-1)))
          CFI CFA_SP SP+-2
          CFI CFA_XSP16 add(XSP16, 19)
          CFI Block cfiCond11 Using cfiCommon0
          CFI (cfiCond11) Function roomPwrManSys_IncmRt
          CFI (cfiCond11) Conditional ??CrossCallReturnLabel_1
          CFI (cfiCond11) R6 load(1, XDATA, add(CFA_XSP16, literal(-14)))
          CFI (cfiCond11) VB load(1, XDATA, add(CFA_XSP16, literal(-13)))
          CFI (cfiCond11) V0 load(1, XDATA, add(CFA_XSP16, literal(-12)))
          CFI (cfiCond11) V1 load(1, XDATA, add(CFA_XSP16, literal(-11)))
          CFI (cfiCond11) V2 load(1, XDATA, add(CFA_XSP16, literal(-10)))
          CFI (cfiCond11) V3 load(1, XDATA, add(CFA_XSP16, literal(-9)))
          CFI (cfiCond11) V4 load(1, XDATA, add(CFA_XSP16, literal(-8)))
          CFI (cfiCond11) V5 load(1, XDATA, add(CFA_XSP16, literal(-7)))
          CFI (cfiCond11) R7 load(1, XDATA, add(CFA_XSP16, literal(-6)))
          CFI (cfiCond11) ?RET_LOW load(1, XDATA, add(CFA_XSP16, literal(-5)))
          CFI (cfiCond11) ?RET_HIGH load(1, XDATA, add(CFA_XSP16, literal(-4)))
          CFI (cfiCond11) ?BRET_EXT load(1, XDATA, add(CFA_XSP16, literal(-3)))
          CFI (cfiCond11) DPL0 load(1, XDATA, add(CFA_XSP16, literal(-2)))
          CFI (cfiCond11) DPH0 load(1, XDATA, add(CFA_XSP16, literal(-1)))
          CFI (cfiCond11) CFA_SP SP+-2
          CFI (cfiCond11) CFA_XSP16 add(XSP16, 19)
          CFI Block cfiPicker12 Using cfiCommon1
          CFI (cfiPicker12) NoFunction
          CFI (cfiPicker12) Picker
        MOV       A,?V2
        ADD       A,#0xb
        MOV       DPL,A
        CLR       A
        ADDC      A,?V3
        MOV       DPH,A
        MOVX      A,@DPTR
        MOV       R1,A
        LCALL     `??SendData::?relay`; Banked call to: SendData
        MOV       A,#0x2
        RET
          CFI EndBlock cfiCond10
          CFI EndBlock cfiCond11
          CFI EndBlock cfiPicker12
//   84 void roomPwrManSys_ToRt(struct ep_info_t *ep);

        RSEG BANKED_CODE:HUGECODE:NOROOT(0)
//   85 void roomPwrManSys_ToRt(struct ep_info_t *ep)
roomPwrManSys_ToRt:
          CFI Block cfiBlock13 Using cfiCommon0
          CFI Function roomPwrManSys_ToRt
        CODE
//   86 {
        FUNCALL roomPwrManSys_ToRt, SendData
        LOCFRAME ISTACK, 0, STACK
        LOCFRAME PSTACK, 0, STACK
        LOCFRAME XSTACK, 11, STACK
        LOCFRAME IOVERLAY, 0, STATIC
        LOCFRAME DOVERLAY, 0, STATIC
        ARGFRAME ISTACK, 0, STACK
        ARGFRAME PSTACK, 0, STACK
        ARGFRAME XSTACK, 11, STACK
        ARGFRAME IOVERLAY, 0, STATIC
        ARGFRAME DOVERLAY, 0, STATIC
        REQUIRE ?V0
        MOV       A,#-0x9
        LCALL     ?BANKED_ENTER_XDATA
          CFI DPH0 load(1, XDATA, add(CFA_XSP16, literal(-1)))
          CFI DPL0 load(1, XDATA, add(CFA_XSP16, literal(-2)))
          CFI ?BRET_EXT load(1, XDATA, add(CFA_XSP16, literal(-3)))
          CFI ?RET_HIGH load(1, XDATA, add(CFA_XSP16, literal(-4)))
          CFI ?RET_LOW load(1, XDATA, add(CFA_XSP16, literal(-5)))
          CFI R7 load(1, XDATA, add(CFA_XSP16, literal(-6)))
          CFI V0 load(1, XDATA, add(CFA_XSP16, literal(-7)))
          CFI VB load(1, XDATA, add(CFA_XSP16, literal(-8)))
          CFI R6 load(1, XDATA, add(CFA_XSP16, literal(-9)))
          CFI CFA_SP SP+0
          CFI CFA_XSP16 add(XSP16, 9)
        ; Saved register size: 9
        ; Auto size: 0
        MOV       A,R2
        MOV       R6,A
        MOV       A,R3
        MOV       R7,A
//   87     // 超时函数,用于检查节点搜索是否完成
//   88     // 如果没有完成,则继续搜索
//   89     if(descPkg[1] < Devmax)
        MOV       DPTR,#descPkg + 1
        MOVX      A,@DPTR
        CLR       C
        SUBB      A,#0x5
        JNC       ??roomPwrManSys_ToRt_0
//   90     {
//   91         SendData(ep->ep, descPkg, 0xFFFF, CONTROL_ENDPOINT, sizeof(descPkg));
        ; Setup parameters for call to function SendData
        MOV       ?V0,#0x3
        MOV       R0,#?V0
        LCALL     ?PUSH_XSTACK_I_ONE
          CFI CFA_XSP16 add(XSP16, 10)
        MOV       ?V0,#-0x10
        MOV       R0,#?V0
        LCALL     ?PUSH_XSTACK_I_ONE
          CFI CFA_XSP16 add(XSP16, 11)
        LCALL     ?Subroutine2 & 0xFFFF
//   92     }
??CrossCallReturnLabel_3:
        LCALL     ?DEALLOC_XSTACK8
          CFI CFA_XSP16 add(XSP16, 9)
//   93 }
??roomPwrManSys_ToRt_0:
        LJMP      ?Subroutine0 & 0xFFFF
          CFI EndBlock cfiBlock13

        RSEG BANKED_CODE:HUGECODE:NOROOT(0)
?Subroutine2:
          CFI Block cfiCond14 Using cfiCommon0
          CFI Function roomPwrManSys_StaChgRt
          CFI Conditional ??CrossCallReturnLabel_2
          CFI R6 load(1, XDATA, add(CFA_XSP16, literal(-9)))
          CFI VB load(1, XDATA, add(CFA_XSP16, literal(-8)))
          CFI V0 load(1, XDATA, add(CFA_XSP16, literal(-7)))
          CFI R7 load(1, XDATA, add(CFA_XSP16, literal(-6)))
          CFI ?RET_LOW load(1, XDATA, add(CFA_XSP16, literal(-5)))
          CFI ?RET_HIGH load(1, XDATA, add(CFA_XSP16, literal(-4)))
          CFI ?BRET_EXT load(1, XDATA, add(CFA_XSP16, literal(-3)))
          CFI DPL0 load(1, XDATA, add(CFA_XSP16, literal(-2)))
          CFI DPH0 load(1, XDATA, add(CFA_XSP16, literal(-1)))
          CFI CFA_SP SP+-2
          CFI CFA_XSP16 add(XSP16, 11)
          CFI Block cfiCond15 Using cfiCommon0
          CFI (cfiCond15) Function roomPwrManSys_ToRt
          CFI (cfiCond15) Conditional ??CrossCallReturnLabel_3
          CFI (cfiCond15) R6 load(1, XDATA, add(CFA_XSP16, literal(-9)))
          CFI (cfiCond15) VB load(1, XDATA, add(CFA_XSP16, literal(-8)))
          CFI (cfiCond15) V0 load(1, XDATA, add(CFA_XSP16, literal(-7)))
          CFI (cfiCond15) R7 load(1, XDATA, add(CFA_XSP16, literal(-6)))
          CFI (cfiCond15) ?RET_LOW load(1, XDATA, add(CFA_XSP16, literal(-5)))
          CFI (cfiCond15) ?RET_HIGH load(1, XDATA, add(CFA_XSP16, literal(-4)))
          CFI (cfiCond15) ?BRET_EXT load(1, XDATA, add(CFA_XSP16, literal(-3)))
          CFI (cfiCond15) DPL0 load(1, XDATA, add(CFA_XSP16, literal(-2)))
          CFI (cfiCond15) DPH0 load(1, XDATA, add(CFA_XSP16, literal(-1)))
          CFI (cfiCond15) CFA_SP SP+-2
          CFI (cfiCond15) CFA_XSP16 add(XSP16, 11)
          CFI Block cfiPicker16 Using cfiCommon1
          CFI (cfiPicker16) NoFunction
          CFI (cfiPicker16) Picker
        MOV       R4,#-0x1
        MOV       R5,#-0x1
        MOV       R2,#descPkg & 0xff
        MOV       R3,#(descPkg >> 8) & 0xff
        MOV       A,R6
        ADD       A,#0xb
        MOV       DPL,A
        CLR       A
        ADDC      A,R7
        MOV       DPH,A
        MOVX      A,@DPTR
        MOV       R1,A
        LCALL     `??SendData::?relay`; Banked call to: SendData
        MOV       A,#0x2
        RET
          CFI EndBlock cfiCond14
          CFI EndBlock cfiCond15
          CFI EndBlock cfiPicker16
//   94 void roomPwrManSys_ResAvbRt(struct ep_info_t *ep, RES_TYPE type, void *res);

        RSEG BANKED_CODE:HUGECODE:NOROOT(0)
//   95 void roomPwrManSys_ResAvbRt(struct ep_info_t *ep, RES_TYPE type, void *res)
roomPwrManSys_ResAvbRt:
          CFI Block cfiBlock17 Using cfiCommon0
          CFI Function roomPwrManSys_ResAvbRt
        CODE
//   96 {
        FUNCALL roomPwrManSys_ResAvbRt, memset
        LOCFRAME ISTACK, 0, STACK
        LOCFRAME PSTACK, 0, STACK
        LOCFRAME XSTACK, 12, STACK
        LOCFRAME IOVERLAY, 0, STATIC
        LOCFRAME DOVERLAY, 0, STATIC
        ARGFRAME ISTACK, 0, STACK
        ARGFRAME PSTACK, 0, STACK
        ARGFRAME XSTACK, 12, STACK
        ARGFRAME IOVERLAY, 0, STATIC
        ARGFRAME DOVERLAY, 0, STATIC
        FUNCALL roomPwrManSys_ResAvbRt, memset
        LOCFRAME ISTACK, 0, STACK
        LOCFRAME PSTACK, 0, STACK
        LOCFRAME XSTACK, 12, STACK
        LOCFRAME IOVERLAY, 0, STATIC
        LOCFRAME DOVERLAY, 0, STATIC
        ARGFRAME ISTACK, 0, STACK
        ARGFRAME PSTACK, 0, STACK
        ARGFRAME XSTACK, 12, STACK
        ARGFRAME IOVERLAY, 0, STATIC
        ARGFRAME DOVERLAY, 0, STATIC
        REQUIRE ?V0
        REQUIRE ?V1
        MOV       A,#-0xa
        LCALL     ?BANKED_ENTER_XDATA
          CFI DPH0 load(1, XDATA, add(CFA_XSP16, literal(-1)))
          CFI DPL0 load(1, XDATA, add(CFA_XSP16, literal(-2)))
          CFI ?BRET_EXT load(1, XDATA, add(CFA_XSP16, literal(-3)))
          CFI ?RET_HIGH load(1, XDATA, add(CFA_XSP16, literal(-4)))
          CFI ?RET_LOW load(1, XDATA, add(CFA_XSP16, literal(-5)))
          CFI R7 load(1, XDATA, add(CFA_XSP16, literal(-6)))
          CFI V1 load(1, XDATA, add(CFA_XSP16, literal(-7)))
          CFI V0 load(1, XDATA, add(CFA_XSP16, literal(-8)))
          CFI VB load(1, XDATA, add(CFA_XSP16, literal(-9)))
          CFI R6 load(1, XDATA, add(CFA_XSP16, literal(-10)))
          CFI CFA_SP SP+0
          CFI CFA_XSP16 add(XSP16, 10)
        ; Saved register size: 10
        ; Auto size: 0
        MOV       A,R1
        MOV       R6,A
//   97     switch(type)
        MOV       A,#0x1
        XRL       A,R6
        JNZ       ??roomPwrManSys_ResAvbRt_0
//   98     {
//   99     case ResInit:
//  100         memset(nodeNwkAddr, 0xFF, sizeof(nodeNwkAddr));
        ; Setup parameters for call to function memset
        MOV       ?V0,#0xa
        MOV       ?V1,#0x0
        MOV       R0,#?V0
        LCALL     ?PUSH_XSTACK_I_TWO
          CFI CFA_XSP16 add(XSP16, 12)
        MOV       R4,#-0x1
        MOV       R5,#0x0
        MOV       R2,#nodeNwkAddr & 0xff
        MOV       R3,#(nodeNwkAddr >> 8) & 0xff
        LCALL     `??memset::?relay`; Banked call to: memset
        MOV       A,#0x2
        LCALL     ?DEALLOC_XSTACK8
          CFI CFA_XSP16 add(XSP16, 10)
//  101         memset(nodeEndPoint, 0xFF, sizeof(nodeEndPoint));
        ; Setup parameters for call to function memset
        MOV       ?V0,#0x5
        MOV       R0,#?V0
        LCALL     ?PUSH_XSTACK_I_TWO
          CFI CFA_XSP16 add(XSP16, 12)
        MOV       R4,#-0x1
        MOV       R5,#0x0
        MOV       R2,#nodeEndPoint & 0xff
        MOV       R3,#(nodeEndPoint >> 8) & 0xff
        LCALL     `??memset::?relay`; Banked call to: memset
        MOV       A,#0x2
        LCALL     ?DEALLOC_XSTACK8
          CFI CFA_XSP16 add(XSP16, 10)
//  102         break;
//  103     case ResUserTimer:
//  104         break;
//  105     case ResControlPkg:
//  106         break;
//  107     }
//  108 }
??roomPwrManSys_ResAvbRt_0:
        MOV       R7,#0x2
        LJMP      ?BANKED_LEAVE_XDATA
          CFI EndBlock cfiBlock17
//  109 #else
//  110 /********************************/
//  111 /* 人体红外节点代码             */
//  112 /********************************/
//  113 #if defined(IRPERS_NODE)
//  114 #define SAFTY_IO_GROUP      1
//  115 #define SAFTY_IO_BIT        0
//  116 void sensorIRPersResAvailable(struct ep_info_t *ep, RES_TYPE type, void *res);
//  117 void sensorIRPersResAvailable(struct ep_info_t *ep, RES_TYPE type, void *res)
//  118 {
//  119     if(type == ResInit)
//  120     {
//  121         HalIOSetInput(SAFTY_IO_GROUP, SAFTY_IO_BIT, Pull_Down);
//  122         HalIOIntSet(ep->ep, SAFTY_IO_GROUP, SAFTY_IO_BIT, IOInt_Rising, 0);
//  123     }
//  124     //IO端口中断触发，中断源检测
//  125     if(type == ResIOInt)
//  126     {
//  127         uint8 IRPersValue = 1;
//  128         SendData(ep->ep, &IRPersValue, 0x0000, TRANSFER_ENDPOINT, sizeof(IRPersValue));
//  129     }
//  130 }
//  131 void sensorIRPersTimeout(struct ep_info_t *ep);
//  132 void sensorIRPersTimeout(struct ep_info_t *ep)
//  133 {
//  134     uint8 value = HalIOGetLevel(SAFTY_IO_GROUP, SAFTY_IO_BIT);
//  135     SendData(ep->ep, &value, 0x0000, TRANSFER_ENDPOINT, sizeof(value));
//  136 }
//  137 #endif
//  138 /********************************/
//  139 /* 光照度节点代码               */
//  140 /********************************/
//  141 #if defined(ILLUM_NODE)
//  142 void sensorILLumTimeout(struct ep_info_t *ep);
//  143 void sensorILLumTimeout(struct ep_info_t *ep)
//  144 {
//  145     uint16 LightValue = 256 - (HalAdcRead(0, HAL_ADC_RESOLUTION_14) >> 3);
//  146     // 将AD值变换为光照度的100倍
//  147     LightValue = LightValue * 39;// * 10000 / 256;
//  148     SendData(ep->ep, &LightValue, 0x0000, TRANSFER_ENDPOINT, sizeof(LightValue));
//  149 }
//  150 #endif
//  151 /********************************/
//  152 /* 执行节点代码                 */
//  153 /********************************/
//  154 #if defined(EXECUTER_NODE)
//  155 #define ControlInit()   do { HalIOSetOutput(1,4);HalIOSetOutput(1,5);HalIOSetOutput(1,6);HalIOSetOutput(1,7);Control(0); } while(0)
//  156 #define Control(mask)   do { HalIOSetLevel(1,4,mask&0x01);HalIOSetLevel(1,5,mask&0x02);HalIOSetLevel(1,6,mask&0x04);HalIOSetLevel(1,7,mask&0x08); } while(0)
//  157 void OutputExecuteBResAvailable(struct ep_info_t *ep, RES_TYPE type, void *res);
//  158 void OutputExecuteBResAvailable(struct ep_info_t *ep, RES_TYPE type, void *res)
//  159 {
//  160     if(type == ResInit)
//  161         ControlInit();
//  162 }
//  163 void outputExecuteB(struct ep_info_t *ep, uint16 addr, uint8 endPoint, afMSGCommandFormat_t *msg);
//  164 void outputExecuteB(struct ep_info_t *ep, uint16 addr, uint8 endPoint, afMSGCommandFormat_t *msg)
//  165 {
//  166     //msg->Data[], msg->DataLength, msg->TransSeqNumber
//  167     Control(msg->Data[0]);
//  168     SendData(ep->ep, &msg->Data[0], 0x0000, TRANSFER_ENDPOINT, 1);
//  169 }
//  170 void outputExecuteBTimeout(struct ep_info_t *ep);
//  171 void outputExecuteBTimeout(struct ep_info_t *ep)
//  172 {
//  173     uint8 value = P1 >> 4;
//  174     SendData(ep->ep, &value, 0x0000, TRANSFER_ENDPOINT, sizeof(value));
//  175 }
//  176 #endif
//  177 ********************************/
//  178 /* 温度传感器                   */
//  179 /********************************/
//  180 #if defined(TEMP_NODE) || defined(HUMM_NODE)
//  181 #include "sht10.h"
//  182 static uint16 TempValue = 0;
//  183 #endif
//  184 #if defined(TEMP_NODE)
//  185 void sensorTempResAvailable(struct ep_info_t *ep, RES_TYPE type, void *res);
//  186 void sensorTempResAvailable(struct ep_info_t *ep, RES_TYPE type, void *res)
//  187 {
//  188     if(type == ResInit)
//  189     {
//  190         SHT10_init(0x01);
//  191     }
//  192 }
//  193 void sensorTempTimeout(struct ep_info_t *ep);
//  194 void sensorTempTimeout(struct ep_info_t *ep)
//  195 {
//  196     unsigned int value = 0;
//  197     unsigned char checksum = 0;
//  198     SHT10_Measure(&value,&checksum, TEMPERATURE);
//  199     TempValue = (value << 2) - 3960;
//  200     SendData(ep->ep, &TempValue, 0x0000, TRANSFER_ENDPOINT, sizeof(TempValue));
//  201 }
//  202 #endif
//  203 ********************************/
//  204 /* 湿度传感器                   */
//  205 /********************************/
//  206 #if defined(HUMM_NODE)
//  207 void sensorHummResAvailable(struct ep_info_t *ep, RES_TYPE type, void *res);
//  208 void sensorHummResAvailable(struct ep_info_t *ep, RES_TYPE type, void *res)
//  209 {
//  210     if(type == ResInit)
//  211     {
//  212         SHT10_init(0x01);
//  213     }
//  214 }
//  215 void sensorHummTimeout(struct ep_info_t *ep);
//  216 void sensorHummTimeout(struct ep_info_t *ep)
//  217 {
//  218     const float C1 = -4.0f;              // for 8 Bit
//  219     const float C2 = +0.648f;            // for 8 Bit
//  220     const float C3 = -0.0000072f;        // for 8 Bit
//  221     const float T1 = 0.01f;              // for 8 bit
//  222     const float T2 = 0.00128f;           // for 8 bit
//  223     float rh_lin    =   0.0f;                     // rh_lin: Humidity linear
//  224     float rh_true   =   0.0f;                    // rh_true: Temperature compensated humidity
//  225     float t_C   = 0.0f;                        // t_C   : Temperature []
//  226 
//  227     unsigned int HumiValue = 0;
//  228     unsigned char checksum = 0;
//  229     SHT10_Measure(&HumiValue,&checksum, HUMIDITY);
//  230     rh_lin=C3*HumiValue*HumiValue + C2*HumiValue + C1;     //calc. humidity from ticks to [%RH]
//  231     rh_true=(t_C-25)*(T1+T2*HumiValue)+rh_lin;   //calc. temperature compensated humidity [%RH]
//  232     if(rh_true>100)
//  233         rh_true=100;       //cut if the value is outside of
//  234     if(rh_true<0.1)
//  235         rh_true=0.1f;       //the physical possible range
//  236     HumiValue = (unsigned int)(rh_true * 100);
//  237     SendData(ep->ep, &HumiValue, 0x0000, TRANSFER_ENDPOINT, sizeof(HumiValue));
//  238 }
//  239 #endif
//  240 #endif
//  241 

        RSEG XDATA_I:XDATA:NOROOT(0)
//  242 struct ep_info_t funcList[] = {
funcList:
        DATA8
        DS 33
        REQUIRE `?<Initializer for funcList>`
        REQUIRE __INIT_XDATA_I
//  243 #if defined(ZDO_COORDINATOR)
//  244     {
//  245         roomPwrManSys_StaChgRt,
//  246         roomPwrManSys_IncmRt,
//  247         roomPwrManSys_ToRt,
//  248         roomPwrManSys_ResAvbRt,
//  249         { DevPwrmanSys, 0, 3 },
//  250     },
//  251 #else
//  252 # if defined(IRPERS_NODE)
//  253     {
//  254         NULL, NULL, sensorILLumTimeout, sensorIRPersResAvailable,
//  255         { DevIRPers, 0, 2 },                // type, id, refresh cycle
//  256     },
//  257 # elif defined(ILLUM_NODE)
//  258     {
//  259         NULL, NULL, sensorILLumTimeout, NULL,
//  260         { DevIllum, 0, 5 },                // type, id, refresh cycle
//  261     },
//  262 # elif defined(EXECUTER_NODE)
//  263     {
//  264         NULL, outputExecuteB, outputExecuteBTimeout, OutputExecuteBResAvailable,
//  265         { DevExecuter, 0, 7 },              // type, id, refresh cycle
//  266     },
//  267 #elif defined(TEMP_NODE)
//  268     {
//  269         NULL, NULL, sensorTempTimeout, sensorTempResAvailable,
//  270         { DevTemp, 1, 5 },                 // type, id, refresh cycle
//  271     },
//  272 #elif defined(HUMM_NODE)
//  273     {
//  274         NULL, NULL, sensorHummTimeout, sensorHummResAvailable,
//  275         { DevHumm, 0, 5 },                 // type, id, refresh cycle
//  276     },
//  277 # else
//  278 #  error You must define one device
//  279 # endif
//  280 #endif
//  281 };
//  282 
//  283 // 不能修改下面的内容!!!

        RSEG XDATA_ROM_C:CONST:REORDER:NOROOT(0)
        DATA8
//  284 const uint8 funcCount = sizeof(funcList) / sizeof(funcList[0]);
funcCount:
        DB 1

        RSEG XDATA_ID:CODE:NOROOT(0)
`?<Initializer for descPkg>`:
        DATA8
        DB 3
        DB 0
        DB 0

        RSEG XDATA_ID:CODE:NOROOT(0)
`?<Initializer for funcList>`:
        DATA16
        DW `??roomPwrManSys_StaChgRt::?relay`
        DW `??roomPwrManSys_IncmRt::?relay`
        DW `??roomPwrManSys_ToRt::?relay`
        DW `??roomPwrManSys_ResAvbRt::?relay`
        DATA8
        DB 6
        DB 0
        DB 3
        DB 0, 0, 0, 0, 0, 0, 0, 0
        DB 0, 0, 0, 0, 0, 0, 0, 0
        DB 0, 0, 0, 0, 0, 0

        RSEG BANK_RELAYS:CODE:REORDER:NOROOT(0)
`??roomPwrManSys_StaChgRt::?relay`:
        CODE
        LCALL   ?BDISPATCH
        DATA24
        DC24    roomPwrManSys_StaChgRt

        RSEG BANK_RELAYS:CODE:REORDER:NOROOT(0)
`??roomPwrManSys_IncmRt::?relay`:
        CODE
        LCALL   ?BDISPATCH
        DATA24
        DC24    roomPwrManSys_IncmRt

        RSEG BANK_RELAYS:CODE:REORDER:NOROOT(0)
`??roomPwrManSys_ToRt::?relay`:
        CODE
        LCALL   ?BDISPATCH
        DATA24
        DC24    roomPwrManSys_ToRt

        RSEG BANK_RELAYS:CODE:REORDER:NOROOT(0)
`??roomPwrManSys_ResAvbRt::?relay`:
        CODE
        LCALL   ?BDISPATCH
        DATA24
        DC24    roomPwrManSys_ResAvbRt

        END
// 
// 590 bytes in segment BANKED_CODE
//  24 bytes in segment BANK_RELAYS
//  36 bytes in segment XDATA_I
//  36 bytes in segment XDATA_ID
//   1 byte  in segment XDATA_ROM_C
//  18 bytes in segment XDATA_Z
// 
//  60 bytes of CODE     memory
//   1 byte  of CONST    memory
// 590 bytes of HUGECODE memory
//  54 bytes of XDATA    memory
//
//Errors: none
//Warnings: none
