///////////////////////////////////////////////////////////////////////////////
//                                                                            /
// IAR C/C++ Compiler V8.10.1.10194/W32 for 8051        02/Sep/2019  17:51:12 /
// Copyright 2004-2011 IAR Systems AB.                                        /
//                                                                            /
//    Core               =  plain                                             /
//    Code model         =  banked                                            /
//    Data model         =  large                                             /
//    Calling convention =  xdata reentrant                                   /
//    Constant location  =  data_rom                                          /
//    Dptr setup         =  1,16                                              /
//    Source file        =  C:\Users\Administrator\Desktop\ZStack-CC2530-r200 /
//                          _1\Projects\SappWsn\Source\SAPP_FrameWork.c       /
//    Command line       =  -f C:\Users\Administrator\Desktop\ZStack-CC2530-r /
//                          200_1\Projects\SappWsn\..\zstack\Tools\CC2530DB\f /
//                          8wEndev.cfg (-DCPU32MHZ -DROOT=__near_func        /
//                          -DMAC_CFG_TX_DATA_MAX=3 -DMAC_CFG_TX_MAX=6        /
//                          -DMAC_CFG_RX_MAX=3) -f C:\Users\Administrator\Des /
//                          ktop\ZStack-CC2530-r200_1\Projects\SappWsn\..\zst /
//                          ack\Tools\CC2530DB\f8wConfig.cfg (-DZIGBEEPRO     /
//                          -DSECURE=0 -DZG_SECURE_DYNAMIC=0 -DREFLECTOR      /
//                          -DDEFAULT_CHANLIST=0x00000800                     /
//                          -DZDAPP_CONFIG_PAN_ID=0x94127                     /
//                          -DNWK_START_DELAY=100 -DEXTENDED_JOINING_RANDOM_M /
//                          ASK=0x007F -DBEACON_REQUEST_DELAY=100             /
//                          -DBEACON_REQ_DELAY_MASK=0x00FF                    /
//                          -DLINK_STATUS_JITTER_MASK=0x007F                  /
//                          -DROUTE_EXPIRY_TIME=30 -DAPSC_ACK_WAIT_DURATION_P /
//                          OLLED=3000 -DNWK_INDIRECT_MSG_TIMEOUT=7           /
//                          -DMAX_RREQ_ENTRIES=8 -DAPSC_MAX_FRAME_RETRIES=3   /
//                          -DNWK_MAX_DATA_RETRIES=2                          /
//                          -DMAX_POLL_FAILURE_RETRIES=2 -DMAX_BCAST=9        /
//                          -DAPS_MAX_GROUPS=16 -DMAX_RTG_ENTRIES=40          /
//                          -DNWK_MAX_BINDING_ENTRIES=4                       /
//                          -DMAX_BINDING_CLUSTER_IDS=4                       /
//                          "-DDEFAULT_KEY={0x01, 0x03, 0x05, 0x07, 0x09,     /
//                          0x0B, 0x0D, 0x0F, 0x00, 0x02, 0x04, 0x06, 0x08,   /
//                          0x0A, 0x0C, 0x0D}" -DMAC_MAX_FRAME_SIZE=116       /
//                          -DZDNWKMGR_MIN_TRANSMISSIONS=20 "-DCONST=const    /
//                          __code" -DGENERIC=__generic                       /
//                          -DRFD_RCVC_ALWAYS_ON=FALSE -DPOLL_RATE=1000       /
//                          -DQUEUED_POLL_RATE=100 -DRESPONSE_POLL_RATE=100)  /
//                          -DREJOIN_POLL_RATE=440 C:\Users\Administrator\Des /
//                          ktop\ZStack-CC2530-r200_1\Projects\SappWsn\Source /
//                          \SAPP_FrameWork.c -D NWK_AUTO_POLL -D ZTOOL_P1    /
//                          -D xMT_TASK -D xMT_SYS_FUNC -D MT_ZDO_FUNC -D     /
//                          SAPP_ZSTACK -lC C:\Users\Administrator\Desktop\ZS /
//                          tack-CC2530-r200_1\Projects\SappWsn\EndDeviceEB\L /
//                          ist\ -lA C:\Users\Administrator\Desktop\ZStack-CC /
//                          2530-r200_1\Projects\SappWsn\EndDeviceEB\List\    /
//                          --diag_suppress Pe001,Pa010 -o                    /
//                          C:\Users\Administrator\Desktop\ZStack-CC2530-r200 /
//                          _1\Projects\SappWsn\EndDeviceEB\Obj\ -e           /
//                          --no_code_motion --debug --core=plain             /
//                          --dptr=16,1 --data_model=large                    /
//                          --code_model=banked --calling_convention=xdata_re /
//                          entrant --place_constants=data_rom                /
//                          --nr_virtual_regs 16 -I                           /
//                          C:\Users\Administrator\Desktop\ZStack-CC2530-r200 /
//                          _1\Projects\SappWsn\ -I                           /
//                          C:\Users\Administrator\Desktop\ZStack-CC2530-r200 /
//                          _1\Projects\SappWsn\Source\ -I                    /
//                          C:\Users\Administrator\Desktop\ZStack-CC2530-r200 /
//                          _1\Projects\SappWsn\..\zstack\ZMain\TI2530DB\ -I  /
//                          C:\Users\Administrator\Desktop\ZStack-CC2530-r200 /
//                          _1\Projects\SappWsn\..\..\Components\hal\include\ /
//                           -I C:\Users\Administrator\Desktop\ZStack-CC2530- /
//                          r200_1\Projects\SappWsn\..\..\Components\hal\targ /
//                          et\CC2530EB\ -I C:\Users\Administrator\Desktop\ZS /
//                          tack-CC2530-r200_1\Projects\SappWsn\..\..\Compone /
//                          nts\mac\include\ -I C:\Users\Administrator\Deskto /
//                          p\ZStack-CC2530-r200_1\Projects\SappWsn\..\..\Com /
//                          ponents\mac\high_level\ -I                        /
//                          C:\Users\Administrator\Desktop\ZStack-CC2530-r200 /
//                          _1\Projects\SappWsn\..\..\Components\mac\low_leve /
//                          l\srf04\ -I C:\Users\Administrator\Desktop\ZStack /
//                          -CC2530-r200_1\Projects\SappWsn\..\..\Components\ /
//                          mac\low_level\srf04\single_chip\ -I               /
//                          C:\Users\Administrator\Desktop\ZStack-CC2530-r200 /
//                          _1\Projects\SappWsn\..\..\Components\mt\ -I       /
//                          C:\Users\Administrator\Desktop\ZStack-CC2530-r200 /
//                          _1\Projects\SappWsn\..\..\Components\osal\include /
//                          \ -I C:\Users\Administrator\Desktop\ZStack-CC2530 /
//                          -r200_1\Projects\SappWsn\..\..\Components\service /
//                          s\saddr\ -I C:\Users\Administrator\Desktop\ZStack /
//                          -CC2530-r200_1\Projects\SappWsn\..\..\Components\ /
//                          services\sdata\ -I C:\Users\Administrator\Desktop /
//                          \ZStack-CC2530-r200_1\Projects\SappWsn\..\..\Comp /
//                          onents\stack\af\ -I C:\Users\Administrator\Deskto /
//                          p\ZStack-CC2530-r200_1\Projects\SappWsn\..\..\Com /
//                          ponents\stack\nwk\ -I C:\Users\Administrator\Desk /
//                          top\ZStack-CC2530-r200_1\Projects\SappWsn\..\..\C /
//                          omponents\stack\sapi\ -I                          /
//                          C:\Users\Administrator\Desktop\ZStack-CC2530-r200 /
//                          _1\Projects\SappWsn\..\..\Components\stack\sec\   /
//                          -I C:\Users\Administrator\Desktop\ZStack-CC2530-r /
//                          200_1\Projects\SappWsn\..\..\Components\stack\sys /
//                          \ -I C:\Users\Administrator\Desktop\ZStack-CC2530 /
//                          -r200_1\Projects\SappWsn\..\..\Components\stack\z /
//                          do\ -I C:\Users\Administrator\Desktop\ZStack-CC25 /
//                          30-r200_1\Projects\SappWsn\..\..\Components\zmac\ /
//                           -I C:\Users\Administrator\Desktop\ZStack-CC2530- /
//                          r200_1\Projects\SappWsn\..\..\Components\zmac\f8w /
//                          \ -Ohz --require_prototypes                       /
//    List file          =  C:\Users\Administrator\Desktop\ZStack-CC2530-r200 /
//                          _1\Projects\SappWsn\EndDeviceEB\List\SAPP_FrameWo /
//                          rk.s51                                            /
//                                                                            /
//                                                                            /
///////////////////////////////////////////////////////////////////////////////

        NAME SAPP_FrameWork

        RTMODEL "__SystemLibrary", "CLib"
        RTMODEL "__calling_convention", "xdata_reentrant"
        RTMODEL "__code_model", "banked"
        RTMODEL "__core", "plain"
        RTMODEL "__data_model", "large"
        RTMODEL "__dptr_size", "16"
        RTMODEL "__extended_stack", "disabled"
        RTMODEL "__location_for_constants", "data"
        RTMODEL "__number_of_dptrs", "1"
        RTMODEL "__rt_version", "1"

        RSEG DOVERLAY:DATA:NOROOT(0)
        RSEG IOVERLAY:IDATA:NOROOT(0)
        RSEG ISTACK:IDATA:NOROOT(0)
        RSEG PSTACK:XDATA:NOROOT(0)
        RSEG XSTACK:XDATA:NOROOT(0)

        EXTERN ?ALLOC_XSTACK8
        EXTERN ?BANKED_ENTER_XDATA
        EXTERN ?BANKED_LEAVE_XDATA
        EXTERN ?BDISPATCH
        EXTERN ?BRET
        EXTERN ?CALL_IND
        EXTERN ?DEALLOC_XSTACK8
        EXTERN ?MOVE_LONG8_XDATA_XDATA
        EXTERN ?PUSH_XSTACK_I_ONE
        EXTERN ?PUSH_XSTACK_I_THREE
        EXTERN ?PUSH_XSTACK_I_TWO
        EXTERN ?V0
        EXTERN ?XSP
        EXTERN ?XSTACK_DISP0_8
        EXTERN __INIT_XDATA_I
        EXTERN __INIT_XDATA_Z

        PUBLIC ??CreateUserTimer?relay
        FUNCTION ??CreateUserTimer?relay,0203H
        PUBLIC ??DeleteUserTimer?relay
        FUNCTION ??DeleteUserTimer?relay,0203H
        PUBLIC ??ModifyRefreshCycle?relay
        FUNCTION ??ModifyRefreshCycle?relay,0203H
        PUBLIC ??SendData?relay
        FUNCTION ??SendData?relay,0203H
        FUNCTION ??createEndPoint?relay,0203H
        PUBLIC ??sapp_controlEpProcess?relay
        FUNCTION ??sapp_controlEpProcess?relay,0203H
        PUBLIC ??sapp_functionEpProcess?relay
        FUNCTION ??sapp_functionEpProcess?relay,0203H
        PUBLIC ??sapp_taskInitProcess?relay
        FUNCTION ??sapp_taskInitProcess?relay,0203H
        PUBLIC CreateUserTimer
        FUNCTION CreateUserTimer,021203H
        ARGFRAME XSTACK, 0, STACK
        LOCFRAME ISTACK, 1, STACK
        LOCFRAME XSTACK, 9, STACK
        PUBLIC DeleteUserTimer
        FUNCTION DeleteUserTimer,0203H
        ARGFRAME XSTACK, 0, STACK
        LOCFRAME ISTACK, 2, STACK
        PUBLIC ModifyRefreshCycle
        FUNCTION ModifyRefreshCycle,0203H
        ARGFRAME XSTACK, 0, STACK
        LOCFRAME ISTACK, 3, STACK
        PUBLIC SendData
        FUNCTION SendData,021203H
        ARGFRAME XSTACK, 24, STACK
        ARGFRAME IOVERLAY, 0, STATIC
        ARGFRAME DOVERLAY, 0, STATIC
        LOCFRAME ISTACK, 1, STACK
        LOCFRAME XSTACK, 33, STACK
        FUNCTION createEndPoint,021203H
        ARGFRAME XSTACK, 10, STACK
        ARGFRAME IOVERLAY, 0, STATIC
        ARGFRAME DOVERLAY, 0, STATIC
        LOCFRAME ISTACK, 1, STACK
        LOCFRAME XSTACK, 10, STACK
        PUBLIC funcTableBuffer
        PUBLIC sapp_controlEpProcess
        FUNCTION sapp_controlEpProcess,021203H
        ARGFRAME XSTACK, 0, STACK
        LOCFRAME ISTACK, 2, STACK
        LOCFRAME XSTACK, 25, STACK
        PUBLIC sapp_functionEpProcess
        FUNCTION sapp_functionEpProcess,021203H
        ARGFRAME XSTACK, 0, STACK
        LOCFRAME ISTACK, 1, STACK
        LOCFRAME XSTACK, 19, STACK
        PUBLIC sapp_taskInitProcess
        FUNCTION sapp_taskInitProcess,021203H
        ARGFRAME XSTACK, 0, STACK
        LOCFRAME ISTACK, 1, STACK
        LOCFRAME XSTACK, 10, STACK
        
        CFI Names cfiNames0
        CFI StackFrame CFA_SP SP IDATA
        CFI StackFrame CFA_PSP16 PSP16 XDATA
        CFI StackFrame CFA_XSP16 XSP16 XDATA
        CFI StaticOverlayFrame CFA_IOVERLAY IOVERLAY
        CFI StaticOverlayFrame CFA_DOVERLAY DOVERLAY
        CFI Resource `PSW.CY`:1, `B.BR0`:1, `B.BR1`:1, `B.BR2`:1, `B.BR3`:1
        CFI Resource `B.BR4`:1, `B.BR5`:1, `B.BR6`:1, `B.BR7`:1, `VB.BR8`:1
        CFI Resource `VB.BR9`:1, `VB.BR10`:1, `VB.BR11`:1, `VB.BR12`:1
        CFI Resource `VB.BR13`:1, `VB.BR14`:1, `VB.BR15`:1, VB:8, B:8, A:8
        CFI Resource PSW:8, DPL0:8, DPH0:8, R0:8, R1:8, R2:8, R3:8, R4:8, R5:8
        CFI Resource R6:8, R7:8, V0:8, V1:8, V2:8, V3:8, V4:8, V5:8, V6:8, V7:8
        CFI Resource V8:8, V9:8, V10:8, V11:8, V12:8, V13:8, V14:8, V15:8, SP:8
        CFI Resource PSPH:8, PSPL:8, PSP16:16, XSPH:8, XSPL:8, XSP16:16
        CFI VirtualResource ?RET:24
        CFI Resource ?BRET_EXT:8
        CFI VirtualResource ?RET_HIGH:8, ?RET_LOW:8
        CFI ResourceParts PSP16 PSPH, PSPL
        CFI ResourceParts XSP16 XSPH, XSPL
        CFI ResourceParts ?RET ?BRET_EXT, ?RET_HIGH, ?RET_LOW
        CFI EndNames cfiNames0
        
        CFI Common cfiCommon0 Using cfiNames0
        CFI CodeAlign 1
        CFI DataAlign -1
        CFI ReturnAddress ?RET CODE
        CFI CFA_DOVERLAY Used
        CFI CFA_IOVERLAY Used
        CFI CFA_SP SP+-3
        CFI CFA_PSP16 PSP16+0
        CFI CFA_XSP16 XSP16+0
        CFI `PSW.CY` SameValue
        CFI `B.BR0` SameValue
        CFI `B.BR1` SameValue
        CFI `B.BR2` SameValue
        CFI `B.BR3` SameValue
        CFI `B.BR4` SameValue
        CFI `B.BR5` SameValue
        CFI `B.BR6` SameValue
        CFI `B.BR7` SameValue
        CFI `VB.BR8` SameValue
        CFI `VB.BR9` SameValue
        CFI `VB.BR10` SameValue
        CFI `VB.BR11` SameValue
        CFI `VB.BR12` SameValue
        CFI `VB.BR13` SameValue
        CFI `VB.BR14` SameValue
        CFI `VB.BR15` SameValue
        CFI VB SameValue
        CFI B Undefined
        CFI A Undefined
        CFI PSW SameValue
        CFI DPL0 SameValue
        CFI DPH0 SameValue
        CFI R0 Undefined
        CFI R1 Undefined
        CFI R2 Undefined
        CFI R3 Undefined
        CFI R4 Undefined
        CFI R5 Undefined
        CFI R6 SameValue
        CFI R7 SameValue
        CFI V0 SameValue
        CFI V1 SameValue
        CFI V2 SameValue
        CFI V3 SameValue
        CFI V4 SameValue
        CFI V5 SameValue
        CFI V6 SameValue
        CFI V7 SameValue
        CFI V8 SameValue
        CFI V9 SameValue
        CFI V10 SameValue
        CFI V11 SameValue
        CFI V12 SameValue
        CFI V13 SameValue
        CFI V14 SameValue
        CFI V15 SameValue
        CFI PSPH Undefined
        CFI PSPL Undefined
        CFI XSPH Undefined
        CFI XSPL Undefined
        CFI ?RET Concat
        CFI ?BRET_EXT Frame(CFA_SP, 3)
        CFI ?RET_HIGH Frame(CFA_SP, 2)
        CFI ?RET_LOW Frame(CFA_SP, 1)
        CFI EndCommon cfiCommon0
        
        
        CFI Common cfiCommon1 Using cfiNames0
        CFI CodeAlign 1
        CFI DataAlign -1
        CFI ReturnAddress ?RET CODE
        CFI CFA_DOVERLAY Used
        CFI CFA_IOVERLAY Used
        CFI CFA_SP SP+-2
        CFI CFA_PSP16 PSP16+0
        CFI CFA_XSP16 XSP16+0
        CFI `PSW.CY` SameValue
        CFI `B.BR0` SameValue
        CFI `B.BR1` SameValue
        CFI `B.BR2` SameValue
        CFI `B.BR3` SameValue
        CFI `B.BR4` SameValue
        CFI `B.BR5` SameValue
        CFI `B.BR6` SameValue
        CFI `B.BR7` SameValue
        CFI `VB.BR8` SameValue
        CFI `VB.BR9` SameValue
        CFI `VB.BR10` SameValue
        CFI `VB.BR11` SameValue
        CFI `VB.BR12` SameValue
        CFI `VB.BR13` SameValue
        CFI `VB.BR14` SameValue
        CFI `VB.BR15` SameValue
        CFI VB SameValue
        CFI B SameValue
        CFI A SameValue
        CFI PSW SameValue
        CFI DPL0 SameValue
        CFI DPH0 SameValue
        CFI R0 SameValue
        CFI R1 SameValue
        CFI R2 SameValue
        CFI R3 SameValue
        CFI R4 SameValue
        CFI R5 SameValue
        CFI R6 SameValue
        CFI R7 SameValue
        CFI V0 SameValue
        CFI V1 SameValue
        CFI V2 SameValue
        CFI V3 SameValue
        CFI V4 SameValue
        CFI V5 SameValue
        CFI V6 SameValue
        CFI V7 SameValue
        CFI V8 SameValue
        CFI V9 SameValue
        CFI V10 SameValue
        CFI V11 SameValue
        CFI V12 SameValue
        CFI V13 SameValue
        CFI V14 SameValue
        CFI V15 SameValue
        CFI PSPH Undefined
        CFI PSPL Undefined
        CFI XSPH Undefined
        CFI XSPL Undefined
        CFI ?RET Concat
        CFI ?BRET_EXT SameValue
        CFI ?RET_HIGH Frame(CFA_SP, 2)
        CFI ?RET_LOW Frame(CFA_SP, 1)
        CFI EndCommon cfiCommon1
        
osal_mem_alloc      SYMBOL "osal_mem_alloc"
HalIOInit           SYMBOL "HalIOInit"
afRegister          SYMBOL "afRegister"
osal_msg_receive    SYMBOL "osal_msg_receive"
NLME_GetExtAddr     SYMBOL "NLME_GetExtAddr"
memcpy              SYMBOL "memcpy"
NLME_GetCoordShortAddr SYMBOL "NLME_GetCoordShortAddr"
osal_memcpy         SYMBOL "osal_memcpy"
HalLedBlink         SYMBOL "HalLedBlink"
osal_msg_deallocate SYMBOL "osal_msg_deallocate"
osal_start_timerEx  SYMBOL "osal_start_timerEx"
osal_stop_timerEx   SYMBOL "osal_stop_timerEx"
AF_DataRequest      SYMBOL "AF_DataRequest"
??AF_DataRequest?relay SYMBOL "?relay", AF_DataRequest
??HalIOInit?relay   SYMBOL "?relay", HalIOInit
??HalLedBlink?relay SYMBOL "?relay", HalLedBlink
??NLME_GetCoordShortAddr?relay SYMBOL "?relay", NLME_GetCoordShortAddr
??NLME_GetExtAddr?relay SYMBOL "?relay", NLME_GetExtAddr
??afRegister?relay  SYMBOL "?relay", afRegister
??memcpy?relay      SYMBOL "?relay", memcpy
??osal_mem_alloc?relay SYMBOL "?relay", osal_mem_alloc
??osal_memcpy?relay SYMBOL "?relay", osal_memcpy
??osal_msg_deallocate?relay SYMBOL "?relay", osal_msg_deallocate
??osal_msg_receive?relay SYMBOL "?relay", osal_msg_receive
??osal_start_timerEx?relay SYMBOL "?relay", osal_start_timerEx
??osal_stop_timerEx?relay SYMBOL "?relay", osal_stop_timerEx
CreateUserTimer     SYMBOL "CreateUserTimer"
??CreateUserTimer?relay SYMBOL "?relay", CreateUserTimer
DeleteUserTimer     SYMBOL "DeleteUserTimer"
??DeleteUserTimer?relay SYMBOL "?relay", DeleteUserTimer
ModifyRefreshCycle  SYMBOL "ModifyRefreshCycle"
??ModifyRefreshCycle?relay SYMBOL "?relay", ModifyRefreshCycle
SendData            SYMBOL "SendData"
??SendData?relay    SYMBOL "?relay", SendData
sapp_controlEpProcess SYMBOL "sapp_controlEpProcess"
??sapp_controlEpProcess?relay SYMBOL "?relay", sapp_controlEpProcess
sapp_functionEpProcess SYMBOL "sapp_functionEpProcess"
??sapp_functionEpProcess?relay SYMBOL "?relay", sapp_functionEpProcess
sapp_taskInitProcess SYMBOL "sapp_taskInitProcess"
??sapp_taskInitProcess?relay SYMBOL "?relay", sapp_taskInitProcess

        EXTERN osal_mem_alloc
        FUNCTION osal_mem_alloc,0202H
        ARGFRAME ISTACK, 0, STACK
        ARGFRAME PSTACK, 0, STACK
        ARGFRAME XSTACK, 10, STACK
        ARGFRAME IOVERLAY, 0, STATIC
        ARGFRAME DOVERLAY, 0, STATIC
        EXTERN HalIOInit
        FUNCTION HalIOInit,0202H
        ARGFRAME ISTACK, 0, STACK
        ARGFRAME PSTACK, 0, STACK
        ARGFRAME XSTACK, 10, STACK
        ARGFRAME IOVERLAY, 0, STATIC
        ARGFRAME DOVERLAY, 0, STATIC
        EXTERN afRegister
        FUNCTION afRegister,0202H
        ARGFRAME ISTACK, 0, STACK
        ARGFRAME PSTACK, 0, STACK
        ARGFRAME XSTACK, 10, STACK
        ARGFRAME IOVERLAY, 0, STATIC
        ARGFRAME DOVERLAY, 0, STATIC
        EXTERN osal_msg_receive
        FUNCTION osal_msg_receive,0202H
        ARGFRAME ISTACK, 0, STACK
        ARGFRAME PSTACK, 0, STACK
        ARGFRAME XSTACK, 22, STACK
        ARGFRAME IOVERLAY, 0, STATIC
        ARGFRAME DOVERLAY, 0, STATIC
        EXTERN NLME_GetExtAddr
        FUNCTION NLME_GetExtAddr,0202H
        ARGFRAME ISTACK, 0, STACK
        ARGFRAME PSTACK, 0, STACK
        ARGFRAME XSTACK, 24, STACK
        ARGFRAME IOVERLAY, 0, STATIC
        ARGFRAME DOVERLAY, 0, STATIC
        EXTERN memcpy
        FUNCTION memcpy,010202H
        ARGFRAME ISTACK, 0, STACK
        ARGFRAME PSTACK, 0, STACK
        ARGFRAME XSTACK, 24, STACK
        ARGFRAME IOVERLAY, 0, STATIC
        ARGFRAME DOVERLAY, 0, STATIC
        EXTERN NLME_GetCoordShortAddr
        FUNCTION NLME_GetCoordShortAddr,0202H
        ARGFRAME ISTACK, 0, STACK
        ARGFRAME PSTACK, 0, STACK
        ARGFRAME XSTACK, 22, STACK
        ARGFRAME IOVERLAY, 0, STATIC
        ARGFRAME DOVERLAY, 0, STATIC
        EXTERN osal_memcpy
        FUNCTION osal_memcpy,0202H
        ARGFRAME ISTACK, 0, STACK
        ARGFRAME PSTACK, 0, STACK
        ARGFRAME XSTACK, 25, STACK
        ARGFRAME IOVERLAY, 0, STATIC
        ARGFRAME DOVERLAY, 0, STATIC
        EXTERN HalLedBlink
        FUNCTION HalLedBlink,0202H
        ARGFRAME ISTACK, 0, STACK
        ARGFRAME PSTACK, 0, STACK
        ARGFRAME XSTACK, 24, STACK
        ARGFRAME IOVERLAY, 0, STATIC
        ARGFRAME DOVERLAY, 0, STATIC
        EXTERN osal_msg_deallocate
        FUNCTION osal_msg_deallocate,0202H
        ARGFRAME ISTACK, 0, STACK
        ARGFRAME PSTACK, 0, STACK
        ARGFRAME XSTACK, 22, STACK
        ARGFRAME IOVERLAY, 0, STATIC
        ARGFRAME DOVERLAY, 0, STATIC
        EXTERN osal_start_timerEx
        FUNCTION osal_start_timerEx,0202H
        ARGFRAME ISTACK, 0, STACK
        ARGFRAME PSTACK, 0, STACK
        ARGFRAME XSTACK, 22, STACK
        ARGFRAME IOVERLAY, 0, STATIC
        ARGFRAME DOVERLAY, 0, STATIC
        EXTERN osal_stop_timerEx
        FUNCTION osal_stop_timerEx,0202H
        ARGFRAME ISTACK, 0, STACK
        ARGFRAME PSTACK, 0, STACK
        ARGFRAME XSTACK, 22, STACK
        ARGFRAME IOVERLAY, 0, STATIC
        ARGFRAME DOVERLAY, 0, STATIC
        EXTERN AF_DataRequest
        FUNCTION AF_DataRequest,0202H
        ARGFRAME ISTACK, 0, STACK
        ARGFRAME PSTACK, 0, STACK
        ARGFRAME XSTACK, 33, STACK
        ARGFRAME IOVERLAY, 0, STATIC
        ARGFRAME DOVERLAY, 0, STATIC
        EXTERN ??AF_DataRequest?relay
        FUNCTION ??AF_DataRequest?relay,00H
        EXTERN ??HalIOInit?relay
        FUNCTION ??HalIOInit?relay,00H
        EXTERN ??HalLedBlink?relay
        FUNCTION ??HalLedBlink?relay,00H
        EXTERN ??NLME_GetCoordShortAddr?relay
        FUNCTION ??NLME_GetCoordShortAddr?relay,00H
        EXTERN ??NLME_GetExtAddr?relay
        FUNCTION ??NLME_GetExtAddr?relay,00H
        EXTERN ??afRegister?relay
        FUNCTION ??afRegister?relay,00H
        EXTERN ??memcpy?relay
        FUNCTION ??memcpy?relay,00H
        EXTERN ??osal_mem_alloc?relay
        FUNCTION ??osal_mem_alloc?relay,00H
        EXTERN ??osal_memcpy?relay
        FUNCTION ??osal_memcpy?relay,00H
        EXTERN ??osal_msg_deallocate?relay
        FUNCTION ??osal_msg_deallocate?relay,00H
        EXTERN ??osal_msg_receive?relay
        FUNCTION ??osal_msg_receive?relay,00H
        EXTERN ??osal_start_timerEx?relay
        FUNCTION ??osal_start_timerEx?relay,00H
        EXTERN ??osal_stop_timerEx?relay
        FUNCTION ??osal_stop_timerEx?relay,00H
        EXTERN _NIB
        EXTERN funcCount
        EXTERN funcList
        EXTERN tasksCnt

// C:\Users\Administrator\Desktop\ZStack-CC2530-r200_1\Projects\SappWsn\Source\SAPP_FrameWork.c
//    1 #if defined(SAPP_ZSTACK)
//    2 #include "SAPP_FrameWork.h"
//    3 #include <string.h>
//    4 
//    5 /*********************************************************************
//    6  * FUNCTIONS
//    7  *********************************************************************/
//    8 static void createEndPoint(struct ep_info_t *epInfo, uint8 *task_id, uint8 ep);
//    9 #if defined(ZDO_COORDINATOR)
//   10 static uint8 uartMsgProcesser(uint8 *msg);
//   11 #endif
//   12 
//   13 /*********************************************************************
//   14  * Local Variables
//   15  *********************************************************************/
//   16 //uint8 ctrlBuffer[sizeof(TOPOINFO) + sizeof(FUNCTABLE) + FUNC_NUM * sizeof(FUNCINFO)];

        RSEG XDATA_I:XDATA:NOROOT(0)
//   17 static TOPOINFO topoBuffer = { 0x02 };
topoBuffer:
        DATA8
        DS 14
        REQUIRE `?<Initializer for topoBuffer>`
        REQUIRE __INIT_XDATA_I

        RSEG XDATA_Z:XDATA:NOROOT(0)
        DATA16
//   18 FUNCTABLE *funcTableBuffer;// = (FUNCTABLE *)(&ctrlBuffer[sizeof(TOPOINFO)]);
funcTableBuffer:
        DS 2
        REQUIRE __INIT_XDATA_Z
//   19 

        RSEG XDATA_Z:XDATA:NOROOT(0)
        DATA8
//   20 static devStates_t curNwkState;
curNwkState:
        DS 1
        REQUIRE __INIT_XDATA_Z

        RSEG XDATA_Z:XDATA:NOROOT(0)
        DATA8
//   21 static uint8 controlTaskId;
controlTaskId:
        DS 1
        REQUIRE __INIT_XDATA_Z

        RSEG XDATA_Z:XDATA:NOROOT(0)
        DATA8
//   22 static uint8 functionTaskId;
functionTaskId:
        DS 1
        REQUIRE __INIT_XDATA_Z

        RSEG XDATA_Z:XDATA:NOROOT(0)
        DATA8
//   23 static struct ep_info_t controlEndPointInfo;
controlEndPointInfo:
        DS 33
        REQUIRE __INIT_XDATA_Z

        RSEG XDATA_Z:XDATA:NOROOT(0)
        DATA8
//   24 static uint8 isUserTimerRunning = 0;
isUserTimerRunning:
        DS 1
        REQUIRE __INIT_XDATA_Z
//   25 

        RSEG BANKED_CODE:CODE:NOROOT(0)
//   26 void sapp_taskInitProcess(void)
sapp_taskInitProcess:
        CFI Block cfiBlock0 Using cfiCommon0
        CFI Function sapp_taskInitProcess
        CODE
//   27 {
        FUNCALL sapp_taskInitProcess, osal_mem_alloc
        LOCFRAME ISTACK, 0, STACK
        LOCFRAME PSTACK, 0, STACK
        LOCFRAME XSTACK, 10, STACK
        LOCFRAME IOVERLAY, 0, STATIC
        LOCFRAME DOVERLAY, 0, STATIC
        ARGFRAME ISTACK, 0, STACK
        ARGFRAME PSTACK, 0, STACK
        ARGFRAME XSTACK, 10, STACK
        ARGFRAME IOVERLAY, 0, STATIC
        ARGFRAME DOVERLAY, 0, STATIC
        FUNCALL sapp_taskInitProcess, HalIOInit
        LOCFRAME ISTACK, 0, STACK
        LOCFRAME PSTACK, 0, STACK
        LOCFRAME XSTACK, 10, STACK
        LOCFRAME IOVERLAY, 0, STATIC
        LOCFRAME DOVERLAY, 0, STATIC
        ARGFRAME ISTACK, 0, STACK
        ARGFRAME PSTACK, 0, STACK
        ARGFRAME XSTACK, 10, STACK
        ARGFRAME IOVERLAY, 0, STATIC
        ARGFRAME DOVERLAY, 0, STATIC
        FUNCALL sapp_taskInitProcess, createEndPoint
        LOCFRAME ISTACK, 0, STACK
        LOCFRAME PSTACK, 0, STACK
        LOCFRAME XSTACK, 10, STACK
        LOCFRAME IOVERLAY, 0, STATIC
        LOCFRAME DOVERLAY, 0, STATIC
        ARGFRAME ISTACK, 0, STACK
        ARGFRAME PSTACK, 0, STACK
        ARGFRAME XSTACK, 10, STACK
        ARGFRAME IOVERLAY, 0, STATIC
        ARGFRAME DOVERLAY, 0, STATIC
        FUNCALL sapp_taskInitProcess, createEndPoint
        LOCFRAME ISTACK, 0, STACK
        LOCFRAME PSTACK, 0, STACK
        LOCFRAME XSTACK, 10, STACK
        LOCFRAME IOVERLAY, 0, STATIC
        LOCFRAME DOVERLAY, 0, STATIC
        ARGFRAME ISTACK, 0, STACK
        ARGFRAME PSTACK, 0, STACK
        ARGFRAME XSTACK, 10, STACK
        ARGFRAME IOVERLAY, 0, STATIC
        ARGFRAME DOVERLAY, 0, STATIC
        MOV     A,#-0xa
        LCALL   ?BANKED_ENTER_XDATA
        CFI DPH0 load(1, XDATA, add(CFA_XSP16, literal(-1)))
        CFI DPL0 load(1, XDATA, add(CFA_XSP16, literal(-2)))
        CFI ?BRET_EXT load(1, XDATA, add(CFA_XSP16, literal(-3)))
        CFI ?RET_HIGH load(1, XDATA, add(CFA_XSP16, literal(-4)))
        CFI ?RET_LOW load(1, XDATA, add(CFA_XSP16, literal(-5)))
        CFI R7 load(1, XDATA, add(CFA_XSP16, literal(-6)))
        CFI V1 load(1, XDATA, add(CFA_XSP16, literal(-7)))
        CFI V0 load(1, XDATA, add(CFA_XSP16, literal(-8)))
        CFI VB load(1, XDATA, add(CFA_XSP16, literal(-9)))
        CFI R6 load(1, XDATA, add(CFA_XSP16, literal(-10)))
        CFI CFA_SP SP+0
        CFI CFA_XSP16 add(XSP16, 10)
        ; Saved register size: 10
        ; Auto size: 0
//   28  #if defined ( BUILD_ALL_DEVICES )
//   29     // The "Demo" target is setup to have BUILD_ALL_DEVICES and HOLD_AUTO_START
//   30     // We are looking at a jumper (defined in SampleAppHw.c) to be jumpered
//   31     // together - if they are - we will start up a coordinator. Otherwise,
//   32     // the device will start as a router.
//   33     if ( readCoordinatorJumper() )
//   34         zgDeviceLogicalType = ZG_DEVICETYPE_COORDINATOR;
//   35     else
//   36         zgDeviceLogicalType = ZG_DEVICETYPE_ROUTER;
//   37 #endif // BUILD_ALL_DEVICES
//   38 
//   39 #if defined ( HOLD_AUTO_START )
//   40     // HOLD_AUTO_START is a compile option that will surpress ZDApp
//   41     //  from starting the device and wait for the application to
//   42     //  start the device.
//   43     ZDOInitDevice(0);
//   44 #endif
//   45 
//   46     // 构造功能列表
//   47     funcTableBuffer = createFuncTable(funcCount);
        ; Setup parameters for call to function osal_mem_alloc
        MOV     DPTR,#funcCount
        MOVX    A,@DPTR
        MOV     B,#0x3
        MUL     AB
        ADD     A,#0x2
        MOV     R2,A
        MOV     A,B
        ADDC    A,#0x0
        MOV     R3,A
        LCALL   ??osal_mem_alloc?relay
        MOV     DPTR,#funcTableBuffer
        MOV     A,R2
        MOVX    @DPTR,A
        INC     DPTR
        MOV     A,R3
        MOVX    @DPTR,A
//   48     funcTableBuffer->ft_type = 0x01;
        MOV     DPTR,#funcTableBuffer
        MOVX    A,@DPTR
        MOV     R0,A
        LCALL   ??Subroutine27_0 & 0xFFFF
??CrossCallReturnLabel_52:
        MOV     A,#0x1
        MOVX    @DPTR,A
//   49     funcTableBuffer->ft_count = funcCount;
        MOV     DPTR,#funcCount
        MOVX    A,@DPTR
        PUSH    A
        CFI CFA_SP SP+-1
        MOV     DPTR,#funcTableBuffer
        MOVX    A,@DPTR
        MOV     R0,A
        LCALL   ??Subroutine27_0 & 0xFFFF
??CrossCallReturnLabel_53:
        INC     DPTR
        POP     A
        CFI CFA_SP SP+0
        MOVX    @DPTR,A
//   50     int i;
//   51     for(i = 0; i < funcCount; i++)
        MOV     R6,#0x0
        MOV     R7,#0x0
        SJMP    ??CrossCallReturnLabel_23
//   52     {
//   53         funcTableBuffer->ft_list[i].type = funcList[i].function.type;
??sapp_taskInitProcess_0:
        LCALL   ?Subroutine20 & 0xFFFF
//   54         funcTableBuffer->ft_list[i].id = funcList[i].function.id;
//   55         funcTableBuffer->ft_list[i].cycle = funcList[i].function.cycle;
//   56     }
??CrossCallReturnLabel_37:
        MOV     R0,A
        MOV     A,#(funcList >> 8) & 0xff
        ADDC    A,R1
        MOV     R1,A
        MOV     A,R0
        MOV     R2,A
        MOV     A,R1
        MOV     R3,A
        MOV     A,R6
        MOV     R0,A
        MOV     A,R7
        MOV     R1,A
        MOV     A,R0
        MOV     B,#0x3
        MUL     AB
        MOV     R0,A
        MOV     R4,B
        MOV     B,#0x3
        MOV     A,R1
        MUL     AB
        ADD     A,R4
        MOV     R1,A
        MOV     DPL,R2
        MOV     DPH,R3
        INC     DPTR
        INC     DPTR
        INC     DPTR
        INC     DPTR
        INC     DPTR
        INC     DPTR
        INC     DPTR
        INC     DPTR
        MOVX    A,@DPTR
        PUSH    A
        CFI CFA_SP SP+-1
        LCALL   ?Subroutine9 & 0xFFFF
??CrossCallReturnLabel_10:
        POP     A
        CFI CFA_SP SP+0
        LCALL   ?Subroutine23 & 0xFFFF
??CrossCallReturnLabel_31:
        MOVX    A,@DPTR
        PUSH    A
        CFI CFA_SP SP+-1
        LCALL   ?Subroutine9 & 0xFFFF
??CrossCallReturnLabel_11:
        INC     DPTR
        POP     A
        CFI CFA_SP SP+0
        LCALL   ?Subroutine11 & 0xFFFF
??CrossCallReturnLabel_14:
        PUSH    A
        CFI CFA_SP SP+-1
        LCALL   ?Subroutine6 & 0xFFFF
??CrossCallReturnLabel_6:
        POP     A
        CFI CFA_SP SP+0
        MOVX    @DPTR,A
        LCALL   ?Subroutine18 & 0xFFFF
??CrossCallReturnLabel_23:
        LCALL   ?Subroutine3 & 0xFFFF
??CrossCallReturnLabel_0:
        JC      ??sapp_taskInitProcess_0
//   57     controlTaskId = tasksCnt - 2;
        MOV     DPTR,#tasksCnt
        MOVX    A,@DPTR
        ADD     A,#-0x2
        MOV     DPTR,#controlTaskId
        MOVX    @DPTR,A
//   58     functionTaskId = tasksCnt - 1;
        MOV     DPTR,#tasksCnt
        MOVX    A,@DPTR
        DEC     A
        MOV     DPTR,#functionTaskId
        MOVX    @DPTR,A
//   59     HalIOInit(functionTaskId);
        ; Setup parameters for call to function HalIOInit
        MOV     R1,A
        LCALL   ??HalIOInit?relay
//   60     createEndPoint(&controlEndPointInfo, &controlTaskId, CONTROL_ENDPOINT);
        ; Setup parameters for call to function createEndPoint
        MOV     R1,#-0x10
        MOV     R4,#controlTaskId & 0xff
        MOV     R5,#(controlTaskId >> 8) & 0xff
        MOV     R2,#controlEndPointInfo & 0xff
        MOV     R3,#(controlEndPointInfo >> 8) & 0xff
        LCALL   ??createEndPoint?relay
//   61     for(i = 0; i < funcCount; i++)
        MOV     R6,#0x0
        MOV     R7,#0x0
        SJMP    ??CrossCallReturnLabel_24
//   62     {
//   63         struct ep_info_t *ep = &funcList[i];
??sapp_taskInitProcess_1:
        LCALL   ?Subroutine20 & 0xFFFF
??CrossCallReturnLabel_38:
        MOV     ?V0 + 0,A
        MOV     A,#(funcList >> 8) & 0xff
        ADDC    A,R1
        MOV     ?V0 + 1,A
//   64         createEndPoint(ep, &functionTaskId, i + 1);
        ; Setup parameters for call to function createEndPoint
        MOV     A,R6
        INC     A
        MOV     R1,A
        MOV     R4,#functionTaskId & 0xff
        MOV     R5,#(functionTaskId >> 8) & 0xff
        MOV     R2,?V0 + 0
        MOV     R3,?V0 + 1
        LCALL   ??createEndPoint?relay
//   65         if(ep->res_available)
        MOV     DPL,?V0 + 0
        MOV     DPH,?V0 + 1
        LCALL   ??Subroutine29_0 & 0xFFFF
??CrossCallReturnLabel_69:
        JZ      ??sapp_taskInitProcess_2
//   66           (*ep->res_available)(ep, ResInit, NULL);
        ; Setup parameters for indirect call
        MOV     R4,#0x0
        MOV     R5,#0x0
        MOV     R1,#0x1
        MOV     R2,?V0 + 0
        MOV     R3,?V0 + 1
        LCALL   ?Subroutine4 & 0xFFFF
//   67     }
??CrossCallReturnLabel_60:
        LCALL   ?CALL_IND
??sapp_taskInitProcess_2:
        LCALL   ?Subroutine18 & 0xFFFF
??CrossCallReturnLabel_24:
        LCALL   ?Subroutine3 & 0xFFFF
??CrossCallReturnLabel_1:
        JC      ??sapp_taskInitProcess_1
        CFI EndBlock cfiBlock0
//   68 #if defined(ZDO_COORDINATOR)// || defined(RTR_NWK)
//   69 //    RegisterForKeys( SampleApp_TaskID );
//   70     MT_UartRegisterTaskID(controlTaskId);
//   71 #endif
//   72 }
        REQUIRE ?Subroutine0
        ; // Fall through to label ?Subroutine0

        RSEG BANKED_CODE:CODE:NOROOT(0)
?Subroutine0:
        CFI Block cfiBlock1 Using cfiCommon0
        CFI NoFunction
        CFI CFA_SP SP+0
        CFI CFA_XSP16 add(XSP16, 10)
        CFI VB load(1, XDATA, add(CFA_XSP16, literal(-9)))
        CFI DPL0 load(1, XDATA, add(CFA_XSP16, literal(-2)))
        CFI DPH0 load(1, XDATA, add(CFA_XSP16, literal(-1)))
        CFI R6 load(1, XDATA, add(CFA_XSP16, literal(-10)))
        CFI R7 load(1, XDATA, add(CFA_XSP16, literal(-6)))
        CFI V0 load(1, XDATA, add(CFA_XSP16, literal(-8)))
        CFI V1 load(1, XDATA, add(CFA_XSP16, literal(-7)))
        CFI ?BRET_EXT load(1, XDATA, add(CFA_XSP16, literal(-3)))
        CFI ?RET_HIGH load(1, XDATA, add(CFA_XSP16, literal(-4)))
        CFI ?RET_LOW load(1, XDATA, add(CFA_XSP16, literal(-5)))
        MOV     R7,#0x2
        LJMP    ?BANKED_LEAVE_XDATA
        CFI EndBlock cfiBlock1

        RSEG BANKED_CODE:CODE:NOROOT(0)
?Subroutine20:
        CFI Block cfiCond2 Using cfiCommon0
        CFI NoFunction
        CFI Conditional ??CrossCallReturnLabel_37
        CFI R6 load(1, XDATA, add(CFA_XSP16, literal(-10)))
        CFI VB load(1, XDATA, add(CFA_XSP16, literal(-9)))
        CFI V0 load(1, XDATA, add(CFA_XSP16, literal(-8)))
        CFI V1 load(1, XDATA, add(CFA_XSP16, literal(-7)))
        CFI R7 load(1, XDATA, add(CFA_XSP16, literal(-6)))
        CFI ?RET_LOW load(1, XDATA, add(CFA_XSP16, literal(-5)))
        CFI ?RET_HIGH load(1, XDATA, add(CFA_XSP16, literal(-4)))
        CFI ?BRET_EXT load(1, XDATA, add(CFA_XSP16, literal(-3)))
        CFI DPL0 load(1, XDATA, add(CFA_XSP16, literal(-2)))
        CFI DPH0 load(1, XDATA, add(CFA_XSP16, literal(-1)))
        CFI CFA_SP SP+0
        CFI CFA_XSP16 add(XSP16, 10)
        CFI Block cfiCond3 Using cfiCommon0
        CFI (cfiCond3) NoFunction
        CFI (cfiCond3) Conditional ??CrossCallReturnLabel_38
        CFI (cfiCond3) R6 load(1, XDATA, add(CFA_XSP16, literal(-10)))
        CFI (cfiCond3) VB load(1, XDATA, add(CFA_XSP16, literal(-9)))
        CFI (cfiCond3) V0 load(1, XDATA, add(CFA_XSP16, literal(-8)))
        CFI (cfiCond3) V1 load(1, XDATA, add(CFA_XSP16, literal(-7)))
        CFI (cfiCond3) R7 load(1, XDATA, add(CFA_XSP16, literal(-6)))
        CFI (cfiCond3) ?RET_LOW load(1, XDATA, add(CFA_XSP16, literal(-5)))
        CFI (cfiCond3) ?RET_HIGH load(1, XDATA, add(CFA_XSP16, literal(-4)))
        CFI (cfiCond3) ?BRET_EXT load(1, XDATA, add(CFA_XSP16, literal(-3)))
        CFI (cfiCond3) DPL0 load(1, XDATA, add(CFA_XSP16, literal(-2)))
        CFI (cfiCond3) DPH0 load(1, XDATA, add(CFA_XSP16, literal(-1)))
        CFI (cfiCond3) CFA_SP SP+0
        CFI (cfiCond3) CFA_XSP16 add(XSP16, 10)
        CFI Block cfiCond4 Using cfiCommon0
        CFI (cfiCond4) NoFunction
        CFI (cfiCond4) Conditional ??CrossCallReturnLabel_39
        CFI (cfiCond4) R6 load(1, XDATA, add(CFA_XSP16, literal(-17)))
        CFI (cfiCond4) VB load(1, XDATA, add(CFA_XSP16, literal(-16)))
        CFI (cfiCond4) V0 load(1, XDATA, add(CFA_XSP16, literal(-15)))
        CFI (cfiCond4) V1 load(1, XDATA, add(CFA_XSP16, literal(-14)))
        CFI (cfiCond4) V2 load(1, XDATA, add(CFA_XSP16, literal(-13)))
        CFI (cfiCond4) V3 load(1, XDATA, add(CFA_XSP16, literal(-12)))
        CFI (cfiCond4) V4 load(1, XDATA, add(CFA_XSP16, literal(-11)))
        CFI (cfiCond4) V5 load(1, XDATA, add(CFA_XSP16, literal(-10)))
        CFI (cfiCond4) V6 load(1, XDATA, add(CFA_XSP16, literal(-9)))
        CFI (cfiCond4) V7 load(1, XDATA, add(CFA_XSP16, literal(-8)))
        CFI (cfiCond4) V8 load(1, XDATA, add(CFA_XSP16, literal(-7)))
        CFI (cfiCond4) R7 load(1, XDATA, add(CFA_XSP16, literal(-6)))
        CFI (cfiCond4) ?RET_LOW load(1, XDATA, add(CFA_XSP16, literal(-5)))
        CFI (cfiCond4) ?RET_HIGH load(1, XDATA, add(CFA_XSP16, literal(-4)))
        CFI (cfiCond4) ?BRET_EXT load(1, XDATA, add(CFA_XSP16, literal(-3)))
        CFI (cfiCond4) DPL0 load(1, XDATA, add(CFA_XSP16, literal(-2)))
        CFI (cfiCond4) DPH0 load(1, XDATA, add(CFA_XSP16, literal(-1)))
        CFI (cfiCond4) CFA_SP SP+0
        CFI (cfiCond4) CFA_XSP16 add(XSP16, 17)
        CFI Block cfiPicker5 Using cfiCommon1
        CFI (cfiPicker5) NoFunction
        CFI (cfiPicker5) Picker
        MOV     A,R6
        MOV     R0,A
        MOV     A,R7
        MOV     R1,A
        MOV     A,R0
        MOV     B,#0x21
        MUL     AB
        MOV     R0,A
        MOV     R2,B
        MOV     B,#0x21
        MOV     A,R1
        CFI EndBlock cfiCond2
        CFI EndBlock cfiCond3
        CFI EndBlock cfiCond4
        CFI EndBlock cfiPicker5
        REQUIRE ??Subroutine25_0
        ; // Fall through to label ??Subroutine25_0

        RSEG BANKED_CODE:CODE:NOROOT(0)
??Subroutine25_0:
        CFI Block cfiCond6 Using cfiCommon0
        CFI NoFunction
        CFI Conditional ??CrossCallReturnLabel_36
        CFI R6 load(1, XDATA, add(CFA_XSP16, literal(-17)))
        CFI VB load(1, XDATA, add(CFA_XSP16, literal(-16)))
        CFI V0 load(1, XDATA, add(CFA_XSP16, literal(-15)))
        CFI V1 load(1, XDATA, add(CFA_XSP16, literal(-14)))
        CFI V2 load(1, XDATA, add(CFA_XSP16, literal(-13)))
        CFI V3 load(1, XDATA, add(CFA_XSP16, literal(-12)))
        CFI V4 load(1, XDATA, add(CFA_XSP16, literal(-11)))
        CFI V5 load(1, XDATA, add(CFA_XSP16, literal(-10)))
        CFI V6 load(1, XDATA, add(CFA_XSP16, literal(-9)))
        CFI V7 load(1, XDATA, add(CFA_XSP16, literal(-8)))
        CFI V8 load(1, XDATA, add(CFA_XSP16, literal(-7)))
        CFI R7 load(1, XDATA, add(CFA_XSP16, literal(-6)))
        CFI ?RET_LOW load(1, XDATA, add(CFA_XSP16, literal(-5)))
        CFI ?RET_HIGH load(1, XDATA, add(CFA_XSP16, literal(-4)))
        CFI ?BRET_EXT load(1, XDATA, add(CFA_XSP16, literal(-3)))
        CFI DPL0 load(1, XDATA, add(CFA_XSP16, literal(-2)))
        CFI DPH0 load(1, XDATA, add(CFA_XSP16, literal(-1)))
        CFI CFA_SP SP+0
        CFI CFA_XSP16 add(XSP16, 17)
        CFI Block cfiCond7 Using cfiCommon0
        CFI (cfiCond7) NoFunction
        CFI (cfiCond7) Conditional ??CrossCallReturnLabel_37
        CFI (cfiCond7) R6 load(1, XDATA, add(CFA_XSP16, literal(-10)))
        CFI (cfiCond7) VB load(1, XDATA, add(CFA_XSP16, literal(-9)))
        CFI (cfiCond7) V0 load(1, XDATA, add(CFA_XSP16, literal(-8)))
        CFI (cfiCond7) V1 load(1, XDATA, add(CFA_XSP16, literal(-7)))
        CFI (cfiCond7) R7 load(1, XDATA, add(CFA_XSP16, literal(-6)))
        CFI (cfiCond7) ?RET_LOW load(1, XDATA, add(CFA_XSP16, literal(-5)))
        CFI (cfiCond7) ?RET_HIGH load(1, XDATA, add(CFA_XSP16, literal(-4)))
        CFI (cfiCond7) ?BRET_EXT load(1, XDATA, add(CFA_XSP16, literal(-3)))
        CFI (cfiCond7) DPL0 load(1, XDATA, add(CFA_XSP16, literal(-2)))
        CFI (cfiCond7) DPH0 load(1, XDATA, add(CFA_XSP16, literal(-1)))
        CFI (cfiCond7) CFA_SP SP+0
        CFI (cfiCond7) CFA_XSP16 add(XSP16, 10)
        CFI Block cfiCond8 Using cfiCommon0
        CFI (cfiCond8) NoFunction
        CFI (cfiCond8) Conditional ??CrossCallReturnLabel_38
        CFI (cfiCond8) R6 load(1, XDATA, add(CFA_XSP16, literal(-10)))
        CFI (cfiCond8) VB load(1, XDATA, add(CFA_XSP16, literal(-9)))
        CFI (cfiCond8) V0 load(1, XDATA, add(CFA_XSP16, literal(-8)))
        CFI (cfiCond8) V1 load(1, XDATA, add(CFA_XSP16, literal(-7)))
        CFI (cfiCond8) R7 load(1, XDATA, add(CFA_XSP16, literal(-6)))
        CFI (cfiCond8) ?RET_LOW load(1, XDATA, add(CFA_XSP16, literal(-5)))
        CFI (cfiCond8) ?RET_HIGH load(1, XDATA, add(CFA_XSP16, literal(-4)))
        CFI (cfiCond8) ?BRET_EXT load(1, XDATA, add(CFA_XSP16, literal(-3)))
        CFI (cfiCond8) DPL0 load(1, XDATA, add(CFA_XSP16, literal(-2)))
        CFI (cfiCond8) DPH0 load(1, XDATA, add(CFA_XSP16, literal(-1)))
        CFI (cfiCond8) CFA_SP SP+0
        CFI (cfiCond8) CFA_XSP16 add(XSP16, 10)
        CFI Block cfiCond9 Using cfiCommon0
        CFI (cfiCond9) NoFunction
        CFI (cfiCond9) Conditional ??CrossCallReturnLabel_39
        CFI (cfiCond9) R6 load(1, XDATA, add(CFA_XSP16, literal(-17)))
        CFI (cfiCond9) VB load(1, XDATA, add(CFA_XSP16, literal(-16)))
        CFI (cfiCond9) V0 load(1, XDATA, add(CFA_XSP16, literal(-15)))
        CFI (cfiCond9) V1 load(1, XDATA, add(CFA_XSP16, literal(-14)))
        CFI (cfiCond9) V2 load(1, XDATA, add(CFA_XSP16, literal(-13)))
        CFI (cfiCond9) V3 load(1, XDATA, add(CFA_XSP16, literal(-12)))
        CFI (cfiCond9) V4 load(1, XDATA, add(CFA_XSP16, literal(-11)))
        CFI (cfiCond9) V5 load(1, XDATA, add(CFA_XSP16, literal(-10)))
        CFI (cfiCond9) V6 load(1, XDATA, add(CFA_XSP16, literal(-9)))
        CFI (cfiCond9) V7 load(1, XDATA, add(CFA_XSP16, literal(-8)))
        CFI (cfiCond9) V8 load(1, XDATA, add(CFA_XSP16, literal(-7)))
        CFI (cfiCond9) R7 load(1, XDATA, add(CFA_XSP16, literal(-6)))
        CFI (cfiCond9) ?RET_LOW load(1, XDATA, add(CFA_XSP16, literal(-5)))
        CFI (cfiCond9) ?RET_HIGH load(1, XDATA, add(CFA_XSP16, literal(-4)))
        CFI (cfiCond9) ?BRET_EXT load(1, XDATA, add(CFA_XSP16, literal(-3)))
        CFI (cfiCond9) DPL0 load(1, XDATA, add(CFA_XSP16, literal(-2)))
        CFI (cfiCond9) DPH0 load(1, XDATA, add(CFA_XSP16, literal(-1)))
        CFI (cfiCond9) CFA_SP SP+0
        CFI (cfiCond9) CFA_XSP16 add(XSP16, 17)
        CFI Block cfiPicker10 Using cfiCommon1
        CFI (cfiPicker10) NoFunction
        CFI (cfiPicker10) Picker
        MUL     AB
        ADD     A,R2
        MOV     R1,A
        MOV     A,#funcList & 0xff
        ADD     A,R0
        RET
        CFI EndBlock cfiCond6
        CFI EndBlock cfiCond7
        CFI EndBlock cfiCond8
        CFI EndBlock cfiCond9
        CFI EndBlock cfiPicker10

        RSEG BANKED_CODE:CODE:NOROOT(0)
?Subroutine9:
        CFI Block cfiCond11 Using cfiCommon0
        CFI NoFunction
        CFI Conditional ??CrossCallReturnLabel_10
        CFI R6 load(1, XDATA, add(CFA_XSP16, literal(-10)))
        CFI VB load(1, XDATA, add(CFA_XSP16, literal(-9)))
        CFI V0 load(1, XDATA, add(CFA_XSP16, literal(-8)))
        CFI V1 load(1, XDATA, add(CFA_XSP16, literal(-7)))
        CFI R7 load(1, XDATA, add(CFA_XSP16, literal(-6)))
        CFI ?RET_LOW load(1, XDATA, add(CFA_XSP16, literal(-5)))
        CFI ?RET_HIGH load(1, XDATA, add(CFA_XSP16, literal(-4)))
        CFI ?BRET_EXT load(1, XDATA, add(CFA_XSP16, literal(-3)))
        CFI DPL0 load(1, XDATA, add(CFA_XSP16, literal(-2)))
        CFI DPH0 load(1, XDATA, add(CFA_XSP16, literal(-1)))
        CFI CFA_SP SP+-1
        CFI CFA_XSP16 add(XSP16, 10)
        CFI Block cfiCond12 Using cfiCommon0
        CFI (cfiCond12) NoFunction
        CFI (cfiCond12) Conditional ??CrossCallReturnLabel_11
        CFI (cfiCond12) R6 load(1, XDATA, add(CFA_XSP16, literal(-10)))
        CFI (cfiCond12) VB load(1, XDATA, add(CFA_XSP16, literal(-9)))
        CFI (cfiCond12) V0 load(1, XDATA, add(CFA_XSP16, literal(-8)))
        CFI (cfiCond12) V1 load(1, XDATA, add(CFA_XSP16, literal(-7)))
        CFI (cfiCond12) R7 load(1, XDATA, add(CFA_XSP16, literal(-6)))
        CFI (cfiCond12) ?RET_LOW load(1, XDATA, add(CFA_XSP16, literal(-5)))
        CFI (cfiCond12) ?RET_HIGH load(1, XDATA, add(CFA_XSP16, literal(-4)))
        CFI (cfiCond12) ?BRET_EXT load(1, XDATA, add(CFA_XSP16, literal(-3)))
        CFI (cfiCond12) DPL0 load(1, XDATA, add(CFA_XSP16, literal(-2)))
        CFI (cfiCond12) DPH0 load(1, XDATA, add(CFA_XSP16, literal(-1)))
        CFI (cfiCond12) CFA_SP SP+-1
        CFI (cfiCond12) CFA_XSP16 add(XSP16, 10)
        CFI Block cfiPicker13 Using cfiCommon1
        CFI (cfiPicker13) NoFunction
        CFI (cfiPicker13) Picker
        MOV     DPTR,#funcTableBuffer
        MOVX    A,@DPTR
        ADD     A,R0
        MOV     R4,A
        INC     DPTR
        MOVX    A,@DPTR
        ADDC    A,R1
        MOV     DPL,R4
        MOV     DPH,A
        INC     DPTR
        INC     DPTR
        RET
        CFI EndBlock cfiCond11
        CFI EndBlock cfiCond12
        CFI EndBlock cfiPicker13
//   73 /*********************************************************************
//   74  * LOCAL FUNCTIONS
//   75  */
//   76 

        RSEG BANKED_CODE:CODE:NOROOT(0)
//   77 static void createEndPoint(struct ep_info_t *epInfo, uint8 *task_id, uint8 ep)
createEndPoint:
        CFI Block cfiBlock14 Using cfiCommon0
        CFI Function createEndPoint
        CODE
//   78 {
        FUNCALL createEndPoint, afRegister
        LOCFRAME ISTACK, 0, STACK
        LOCFRAME PSTACK, 0, STACK
        LOCFRAME XSTACK, 10, STACK
        LOCFRAME IOVERLAY, 0, STATIC
        LOCFRAME DOVERLAY, 0, STATIC
        ARGFRAME ISTACK, 0, STACK
        ARGFRAME PSTACK, 0, STACK
        ARGFRAME XSTACK, 10, STACK
        ARGFRAME IOVERLAY, 0, STATIC
        ARGFRAME DOVERLAY, 0, STATIC
        MOV     A,#-0xa
        LCALL   ?BANKED_ENTER_XDATA
        CFI DPH0 load(1, XDATA, add(CFA_XSP16, literal(-1)))
        CFI DPL0 load(1, XDATA, add(CFA_XSP16, literal(-2)))
        CFI ?BRET_EXT load(1, XDATA, add(CFA_XSP16, literal(-3)))
        CFI ?RET_HIGH load(1, XDATA, add(CFA_XSP16, literal(-4)))
        CFI ?RET_LOW load(1, XDATA, add(CFA_XSP16, literal(-5)))
        CFI R7 load(1, XDATA, add(CFA_XSP16, literal(-6)))
        CFI V1 load(1, XDATA, add(CFA_XSP16, literal(-7)))
        CFI V0 load(1, XDATA, add(CFA_XSP16, literal(-8)))
        CFI VB load(1, XDATA, add(CFA_XSP16, literal(-9)))
        CFI R6 load(1, XDATA, add(CFA_XSP16, literal(-10)))
        CFI CFA_SP SP+0
        CFI CFA_XSP16 add(XSP16, 10)
        ; Saved register size: 10
        ; Auto size: 0
        MOV     A,R1
        MOV     R6,A
//   79     static cId_t commonClusterId = SAPP_PERIODIC_CLUSTERID;
//   80     // Fill out the endpoint description.
//   81     epInfo->task_id = *task_id;
        MOV     DPL,R4
        MOV     DPH,R5
        MOVX    A,@DPTR
        PUSH    A
        CFI CFA_SP SP+-1
        MOV     A,R2
        ADD     A,#0xc
        LCALL   ?Subroutine17 & 0xFFFF
??CrossCallReturnLabel_44:
        POP     A
        CFI CFA_SP SP+0
        MOVX    @DPTR,A
//   82     epInfo->ep = ep;
        MOV     A,R2
        ADD     A,#0xb
        LCALL   ?Subroutine17 & 0xFFFF
??CrossCallReturnLabel_45:
        MOV     A,R1
        LCALL   ?Subroutine11 & 0xFFFF
//   83     epInfo->timerTick = epInfo->function.cycle;
??CrossCallReturnLabel_15:
        PUSH    A
        CFI CFA_SP SP+-1
        MOV     A,R2
        ADD     A,#0xd
        LCALL   ?Subroutine17 & 0xFFFF
??CrossCallReturnLabel_46:
        POP     A
        CFI CFA_SP SP+0
        MOVX    @DPTR,A
//   84     epInfo->userTimer = 0;
        LCALL   ?Subroutine14 & 0xFFFF
//   85 
//   86     epInfo->simpleDesc.EndPoint = ep;
??CrossCallReturnLabel_80:
        MOV     A,R2
        ADD     A,#0x15
        MOV     ?V0 + 0,A
        MOV     A,R3
        ADDC    A,#0x0
        MOV     ?V0 + 1,A
        MOV     A,R6
        MOV     DPL,?V0 + 0
        MOV     DPH,?V0 + 1
        MOVX    @DPTR,A
//   87     epInfo->simpleDesc.AppProfId = SAPP_PROFID;
        MOV     A,R2
        ADD     A,#0x16
        LCALL   ?Subroutine17 & 0xFFFF
??CrossCallReturnLabel_47:
        MOV     A,#0x8
        MOVX    @DPTR,A
        INC     DPTR
        MOV     A,#0xf
        MOVX    @DPTR,A
//   88     epInfo->simpleDesc.AppDeviceId = SAPP_DEVICEID;
        MOV     A,R2
        ADD     A,#0x18
        LCALL   ?Subroutine17 & 0xFFFF
??CrossCallReturnLabel_48:
        MOV     A,#0x1
        MOVX    @DPTR,A
        INC     DPTR
        CLR     A
        MOVX    @DPTR,A
//   89     epInfo->simpleDesc.AppDevVer = SAPP_DEVICE_VERSION;
//   90     epInfo->simpleDesc.Reserved = 0;
        MOV     A,R2
        ADD     A,#0x1a
        LCALL   ??Subroutine36_0 & 0xFFFF
//   91     epInfo->simpleDesc.AppNumInClusters = 1;
??CrossCallReturnLabel_78:
        MOV     A,R2
        ADD     A,#0x1b
        LCALL   ?Subroutine16 & 0xFFFF
//   92     epInfo->simpleDesc.pAppInClusterList = &commonClusterId;
??CrossCallReturnLabel_21:
        ADD     A,#0x1c
        LCALL   ?Subroutine15 & 0xFFFF
//   93     epInfo->simpleDesc.AppNumOutClusters = 1;
??CrossCallReturnLabel_19:
        ADD     A,#0x1e
        LCALL   ?Subroutine16 & 0xFFFF
//   94     epInfo->simpleDesc.pAppOutClusterList = &commonClusterId;
??CrossCallReturnLabel_22:
        ADD     A,#0x1f
        LCALL   ?Subroutine15 & 0xFFFF
//   95 
//   96     epInfo->SampleApp_epDesc.endPoint = ep;
??CrossCallReturnLabel_20:
        ADD     A,#0xf
        MOV     R0,A
        MOV     A,R3
        ADDC    A,#0x0
        MOV     R1,A
        MOV     A,R6
        MOV     DPL,R0
        MOV     DPH,R1
        MOVX    @DPTR,A
//   97     epInfo->SampleApp_epDesc.task_id = task_id;
        MOV     A,R2
        ADD     A,#0x10
        LCALL   ?Subroutine17 & 0xFFFF
??CrossCallReturnLabel_49:
        MOV     A,R4
        MOVX    @DPTR,A
        INC     DPTR
        MOV     A,R5
        MOVX    @DPTR,A
//   98     epInfo->SampleApp_epDesc.simpleDesc = &epInfo->simpleDesc;
        MOV     A,R2
        ADD     A,#0x12
        LCALL   ?Subroutine17 & 0xFFFF
??CrossCallReturnLabel_50:
        MOV     A,?V0 + 0
        MOVX    @DPTR,A
        INC     DPTR
        MOV     A,?V0 + 1
        MOVX    @DPTR,A
//   99     epInfo->SampleApp_epDesc.latencyReq = noLatencyReqs;
        MOV     A,R2
        ADD     A,#0x14
        LCALL   ??Subroutine36_0 & 0xFFFF
//  100 
//  101     // Register the endpoint description with the AF
//  102     afRegister(&epInfo->SampleApp_epDesc);
??CrossCallReturnLabel_79:
        ; Setup parameters for call to function afRegister
        MOV     A,R0
        MOV     R2,A
        MOV     A,R1
        MOV     R3,A
        LCALL   ??afRegister?relay
//  103 }
        LJMP    ?Subroutine0 & 0xFFFF
        CFI EndBlock cfiBlock14

        RSEG BANKED_CODE:CODE:NOROOT(0)
?Subroutine17:
        CFI Block cfiCond15 Using cfiCommon0
        CFI NoFunction
        CFI Conditional ??CrossCallReturnLabel_44
        CFI R6 load(1, XDATA, add(CFA_XSP16, literal(-10)))
        CFI VB load(1, XDATA, add(CFA_XSP16, literal(-9)))
        CFI V0 load(1, XDATA, add(CFA_XSP16, literal(-8)))
        CFI V1 load(1, XDATA, add(CFA_XSP16, literal(-7)))
        CFI R7 load(1, XDATA, add(CFA_XSP16, literal(-6)))
        CFI ?RET_LOW load(1, XDATA, add(CFA_XSP16, literal(-5)))
        CFI ?RET_HIGH load(1, XDATA, add(CFA_XSP16, literal(-4)))
        CFI ?BRET_EXT load(1, XDATA, add(CFA_XSP16, literal(-3)))
        CFI DPL0 load(1, XDATA, add(CFA_XSP16, literal(-2)))
        CFI DPH0 load(1, XDATA, add(CFA_XSP16, literal(-1)))
        CFI CFA_SP SP+-1
        CFI CFA_XSP16 add(XSP16, 10)
        CFI Block cfiCond16 Using cfiCommon0
        CFI (cfiCond16) NoFunction
        CFI (cfiCond16) Conditional ??CrossCallReturnLabel_45
        CFI (cfiCond16) R6 load(1, XDATA, add(CFA_XSP16, literal(-10)))
        CFI (cfiCond16) VB load(1, XDATA, add(CFA_XSP16, literal(-9)))
        CFI (cfiCond16) V0 load(1, XDATA, add(CFA_XSP16, literal(-8)))
        CFI (cfiCond16) V1 load(1, XDATA, add(CFA_XSP16, literal(-7)))
        CFI (cfiCond16) R7 load(1, XDATA, add(CFA_XSP16, literal(-6)))
        CFI (cfiCond16) ?RET_LOW load(1, XDATA, add(CFA_XSP16, literal(-5)))
        CFI (cfiCond16) ?RET_HIGH load(1, XDATA, add(CFA_XSP16, literal(-4)))
        CFI (cfiCond16) ?BRET_EXT load(1, XDATA, add(CFA_XSP16, literal(-3)))
        CFI (cfiCond16) DPL0 load(1, XDATA, add(CFA_XSP16, literal(-2)))
        CFI (cfiCond16) DPH0 load(1, XDATA, add(CFA_XSP16, literal(-1)))
        CFI (cfiCond16) CFA_SP SP+0
        CFI (cfiCond16) CFA_XSP16 add(XSP16, 10)
        CFI Block cfiCond17 Using cfiCommon0
        CFI (cfiCond17) NoFunction
        CFI (cfiCond17) Conditional ??CrossCallReturnLabel_46
        CFI (cfiCond17) R6 load(1, XDATA, add(CFA_XSP16, literal(-10)))
        CFI (cfiCond17) VB load(1, XDATA, add(CFA_XSP16, literal(-9)))
        CFI (cfiCond17) V0 load(1, XDATA, add(CFA_XSP16, literal(-8)))
        CFI (cfiCond17) V1 load(1, XDATA, add(CFA_XSP16, literal(-7)))
        CFI (cfiCond17) R7 load(1, XDATA, add(CFA_XSP16, literal(-6)))
        CFI (cfiCond17) ?RET_LOW load(1, XDATA, add(CFA_XSP16, literal(-5)))
        CFI (cfiCond17) ?RET_HIGH load(1, XDATA, add(CFA_XSP16, literal(-4)))
        CFI (cfiCond17) ?BRET_EXT load(1, XDATA, add(CFA_XSP16, literal(-3)))
        CFI (cfiCond17) DPL0 load(1, XDATA, add(CFA_XSP16, literal(-2)))
        CFI (cfiCond17) DPH0 load(1, XDATA, add(CFA_XSP16, literal(-1)))
        CFI (cfiCond17) CFA_SP SP+-1
        CFI (cfiCond17) CFA_XSP16 add(XSP16, 10)
        CFI Block cfiCond18 Using cfiCommon0
        CFI (cfiCond18) NoFunction
        CFI (cfiCond18) Conditional ??CrossCallReturnLabel_47
        CFI (cfiCond18) R6 load(1, XDATA, add(CFA_XSP16, literal(-10)))
        CFI (cfiCond18) VB load(1, XDATA, add(CFA_XSP16, literal(-9)))
        CFI (cfiCond18) V0 load(1, XDATA, add(CFA_XSP16, literal(-8)))
        CFI (cfiCond18) V1 load(1, XDATA, add(CFA_XSP16, literal(-7)))
        CFI (cfiCond18) R7 load(1, XDATA, add(CFA_XSP16, literal(-6)))
        CFI (cfiCond18) ?RET_LOW load(1, XDATA, add(CFA_XSP16, literal(-5)))
        CFI (cfiCond18) ?RET_HIGH load(1, XDATA, add(CFA_XSP16, literal(-4)))
        CFI (cfiCond18) ?BRET_EXT load(1, XDATA, add(CFA_XSP16, literal(-3)))
        CFI (cfiCond18) DPL0 load(1, XDATA, add(CFA_XSP16, literal(-2)))
        CFI (cfiCond18) DPH0 load(1, XDATA, add(CFA_XSP16, literal(-1)))
        CFI (cfiCond18) CFA_SP SP+0
        CFI (cfiCond18) CFA_XSP16 add(XSP16, 10)
        CFI Block cfiCond19 Using cfiCommon0
        CFI (cfiCond19) NoFunction
        CFI (cfiCond19) Conditional ??CrossCallReturnLabel_48
        CFI (cfiCond19) R6 load(1, XDATA, add(CFA_XSP16, literal(-10)))
        CFI (cfiCond19) VB load(1, XDATA, add(CFA_XSP16, literal(-9)))
        CFI (cfiCond19) V0 load(1, XDATA, add(CFA_XSP16, literal(-8)))
        CFI (cfiCond19) V1 load(1, XDATA, add(CFA_XSP16, literal(-7)))
        CFI (cfiCond19) R7 load(1, XDATA, add(CFA_XSP16, literal(-6)))
        CFI (cfiCond19) ?RET_LOW load(1, XDATA, add(CFA_XSP16, literal(-5)))
        CFI (cfiCond19) ?RET_HIGH load(1, XDATA, add(CFA_XSP16, literal(-4)))
        CFI (cfiCond19) ?BRET_EXT load(1, XDATA, add(CFA_XSP16, literal(-3)))
        CFI (cfiCond19) DPL0 load(1, XDATA, add(CFA_XSP16, literal(-2)))
        CFI (cfiCond19) DPH0 load(1, XDATA, add(CFA_XSP16, literal(-1)))
        CFI (cfiCond19) CFA_SP SP+0
        CFI (cfiCond19) CFA_XSP16 add(XSP16, 10)
        CFI Block cfiCond20 Using cfiCommon0
        CFI (cfiCond20) NoFunction
        CFI (cfiCond20) Conditional ??CrossCallReturnLabel_49
        CFI (cfiCond20) R6 load(1, XDATA, add(CFA_XSP16, literal(-10)))
        CFI (cfiCond20) VB load(1, XDATA, add(CFA_XSP16, literal(-9)))
        CFI (cfiCond20) V0 load(1, XDATA, add(CFA_XSP16, literal(-8)))
        CFI (cfiCond20) V1 load(1, XDATA, add(CFA_XSP16, literal(-7)))
        CFI (cfiCond20) R7 load(1, XDATA, add(CFA_XSP16, literal(-6)))
        CFI (cfiCond20) ?RET_LOW load(1, XDATA, add(CFA_XSP16, literal(-5)))
        CFI (cfiCond20) ?RET_HIGH load(1, XDATA, add(CFA_XSP16, literal(-4)))
        CFI (cfiCond20) ?BRET_EXT load(1, XDATA, add(CFA_XSP16, literal(-3)))
        CFI (cfiCond20) DPL0 load(1, XDATA, add(CFA_XSP16, literal(-2)))
        CFI (cfiCond20) DPH0 load(1, XDATA, add(CFA_XSP16, literal(-1)))
        CFI (cfiCond20) CFA_SP SP+0
        CFI (cfiCond20) CFA_XSP16 add(XSP16, 10)
        CFI Block cfiCond21 Using cfiCommon0
        CFI (cfiCond21) NoFunction
        CFI (cfiCond21) Conditional ??CrossCallReturnLabel_50
        CFI (cfiCond21) R6 load(1, XDATA, add(CFA_XSP16, literal(-10)))
        CFI (cfiCond21) VB load(1, XDATA, add(CFA_XSP16, literal(-9)))
        CFI (cfiCond21) V0 load(1, XDATA, add(CFA_XSP16, literal(-8)))
        CFI (cfiCond21) V1 load(1, XDATA, add(CFA_XSP16, literal(-7)))
        CFI (cfiCond21) R7 load(1, XDATA, add(CFA_XSP16, literal(-6)))
        CFI (cfiCond21) ?RET_LOW load(1, XDATA, add(CFA_XSP16, literal(-5)))
        CFI (cfiCond21) ?RET_HIGH load(1, XDATA, add(CFA_XSP16, literal(-4)))
        CFI (cfiCond21) ?BRET_EXT load(1, XDATA, add(CFA_XSP16, literal(-3)))
        CFI (cfiCond21) DPL0 load(1, XDATA, add(CFA_XSP16, literal(-2)))
        CFI (cfiCond21) DPH0 load(1, XDATA, add(CFA_XSP16, literal(-1)))
        CFI (cfiCond21) CFA_SP SP+0
        CFI (cfiCond21) CFA_XSP16 add(XSP16, 10)
        CFI Block cfiCond22 Using cfiCommon0
        CFI (cfiCond22) NoFunction
        CFI (cfiCond22) Conditional ??CrossCallReturnLabel_51
        CFI (cfiCond22) R6 load(1, XDATA, add(CFA_XSP16, literal(-9)))
        CFI (cfiCond22) VB load(1, XDATA, add(CFA_XSP16, literal(-8)))
        CFI (cfiCond22) V0 load(1, XDATA, add(CFA_XSP16, literal(-7)))
        CFI (cfiCond22) R7 load(1, XDATA, add(CFA_XSP16, literal(-6)))
        CFI (cfiCond22) ?RET_LOW load(1, XDATA, add(CFA_XSP16, literal(-5)))
        CFI (cfiCond22) ?RET_HIGH load(1, XDATA, add(CFA_XSP16, literal(-4)))
        CFI (cfiCond22) ?BRET_EXT load(1, XDATA, add(CFA_XSP16, literal(-3)))
        CFI (cfiCond22) DPL0 load(1, XDATA, add(CFA_XSP16, literal(-2)))
        CFI (cfiCond22) DPH0 load(1, XDATA, add(CFA_XSP16, literal(-1)))
        CFI (cfiCond22) CFA_SP SP+0
        CFI (cfiCond22) CFA_XSP16 add(XSP16, 9)
        CFI Block cfiPicker23 Using cfiCommon1
        CFI (cfiPicker23) NoFunction
        CFI (cfiPicker23) Picker
        MOV     DPL,A
        MOV     A,R3
        CFI EndBlock cfiCond15
        CFI EndBlock cfiCond16
        CFI EndBlock cfiCond17
        CFI EndBlock cfiCond18
        CFI EndBlock cfiCond19
        CFI EndBlock cfiCond20
        CFI EndBlock cfiCond21
        CFI EndBlock cfiCond22
        CFI EndBlock cfiPicker23
        REQUIRE ??Subroutine26_0
        ; // Fall through to label ??Subroutine26_0

        RSEG BANKED_CODE:CODE:NOROOT(0)
??Subroutine26_0:
        CFI Block cfiCond24 Using cfiCommon0
        CFI NoFunction
        CFI Conditional ??CrossCallReturnLabel_40
        CFI R6 load(1, XDATA, add(CFA_XSP16, literal(-17)))
        CFI VB load(1, XDATA, add(CFA_XSP16, literal(-16)))
        CFI V0 load(1, XDATA, add(CFA_XSP16, literal(-15)))
        CFI V1 load(1, XDATA, add(CFA_XSP16, literal(-14)))
        CFI V2 load(1, XDATA, add(CFA_XSP16, literal(-13)))
        CFI V3 load(1, XDATA, add(CFA_XSP16, literal(-12)))
        CFI V4 load(1, XDATA, add(CFA_XSP16, literal(-11)))
        CFI V5 load(1, XDATA, add(CFA_XSP16, literal(-10)))
        CFI V6 load(1, XDATA, add(CFA_XSP16, literal(-9)))
        CFI V7 load(1, XDATA, add(CFA_XSP16, literal(-8)))
        CFI V8 load(1, XDATA, add(CFA_XSP16, literal(-7)))
        CFI R7 load(1, XDATA, add(CFA_XSP16, literal(-6)))
        CFI ?RET_LOW load(1, XDATA, add(CFA_XSP16, literal(-5)))
        CFI ?RET_HIGH load(1, XDATA, add(CFA_XSP16, literal(-4)))
        CFI ?BRET_EXT load(1, XDATA, add(CFA_XSP16, literal(-3)))
        CFI DPL0 load(1, XDATA, add(CFA_XSP16, literal(-2)))
        CFI DPH0 load(1, XDATA, add(CFA_XSP16, literal(-1)))
        CFI CFA_SP SP+0
        CFI CFA_XSP16 add(XSP16, 17)
        CFI Block cfiCond25 Using cfiCommon0
        CFI (cfiCond25) NoFunction
        CFI (cfiCond25) Conditional ??CrossCallReturnLabel_41
        CFI (cfiCond25) R6 load(1, XDATA, add(CFA_XSP16, literal(-17)))
        CFI (cfiCond25) VB load(1, XDATA, add(CFA_XSP16, literal(-16)))
        CFI (cfiCond25) V0 load(1, XDATA, add(CFA_XSP16, literal(-15)))
        CFI (cfiCond25) V1 load(1, XDATA, add(CFA_XSP16, literal(-14)))
        CFI (cfiCond25) V2 load(1, XDATA, add(CFA_XSP16, literal(-13)))
        CFI (cfiCond25) V3 load(1, XDATA, add(CFA_XSP16, literal(-12)))
        CFI (cfiCond25) V4 load(1, XDATA, add(CFA_XSP16, literal(-11)))
        CFI (cfiCond25) V5 load(1, XDATA, add(CFA_XSP16, literal(-10)))
        CFI (cfiCond25) V6 load(1, XDATA, add(CFA_XSP16, literal(-9)))
        CFI (cfiCond25) V7 load(1, XDATA, add(CFA_XSP16, literal(-8)))
        CFI (cfiCond25) V8 load(1, XDATA, add(CFA_XSP16, literal(-7)))
        CFI (cfiCond25) R7 load(1, XDATA, add(CFA_XSP16, literal(-6)))
        CFI (cfiCond25) ?RET_LOW load(1, XDATA, add(CFA_XSP16, literal(-5)))
        CFI (cfiCond25) ?RET_HIGH load(1, XDATA, add(CFA_XSP16, literal(-4)))
        CFI (cfiCond25) ?BRET_EXT load(1, XDATA, add(CFA_XSP16, literal(-3)))
        CFI (cfiCond25) DPL0 load(1, XDATA, add(CFA_XSP16, literal(-2)))
        CFI (cfiCond25) DPH0 load(1, XDATA, add(CFA_XSP16, literal(-1)))
        CFI (cfiCond25) CFA_SP SP+0
        CFI (cfiCond25) CFA_XSP16 add(XSP16, 17)
        CFI Block cfiCond26 Using cfiCommon0
        CFI (cfiCond26) NoFunction
        CFI (cfiCond26) Conditional ??CrossCallReturnLabel_42
        CFI (cfiCond26) R6 load(1, XDATA, add(CFA_XSP16, literal(-17)))
        CFI (cfiCond26) VB load(1, XDATA, add(CFA_XSP16, literal(-16)))
        CFI (cfiCond26) V0 load(1, XDATA, add(CFA_XSP16, literal(-15)))
        CFI (cfiCond26) V1 load(1, XDATA, add(CFA_XSP16, literal(-14)))
        CFI (cfiCond26) V2 load(1, XDATA, add(CFA_XSP16, literal(-13)))
        CFI (cfiCond26) V3 load(1, XDATA, add(CFA_XSP16, literal(-12)))
        CFI (cfiCond26) V4 load(1, XDATA, add(CFA_XSP16, literal(-11)))
        CFI (cfiCond26) V5 load(1, XDATA, add(CFA_XSP16, literal(-10)))
        CFI (cfiCond26) V6 load(1, XDATA, add(CFA_XSP16, literal(-9)))
        CFI (cfiCond26) V7 load(1, XDATA, add(CFA_XSP16, literal(-8)))
        CFI (cfiCond26) V8 load(1, XDATA, add(CFA_XSP16, literal(-7)))
        CFI (cfiCond26) R7 load(1, XDATA, add(CFA_XSP16, literal(-6)))
        CFI (cfiCond26) ?RET_LOW load(1, XDATA, add(CFA_XSP16, literal(-5)))
        CFI (cfiCond26) ?RET_HIGH load(1, XDATA, add(CFA_XSP16, literal(-4)))
        CFI (cfiCond26) ?BRET_EXT load(1, XDATA, add(CFA_XSP16, literal(-3)))
        CFI (cfiCond26) DPL0 load(1, XDATA, add(CFA_XSP16, literal(-2)))
        CFI (cfiCond26) DPH0 load(1, XDATA, add(CFA_XSP16, literal(-1)))
        CFI (cfiCond26) CFA_SP SP+-1
        CFI (cfiCond26) CFA_XSP16 add(XSP16, 17)
        CFI Block cfiCond27 Using cfiCommon0
        CFI (cfiCond27) NoFunction
        CFI (cfiCond27) Conditional ??CrossCallReturnLabel_43
        CFI (cfiCond27) R6 load(1, XDATA, add(CFA_XSP16, literal(-17)))
        CFI (cfiCond27) VB load(1, XDATA, add(CFA_XSP16, literal(-16)))
        CFI (cfiCond27) V0 load(1, XDATA, add(CFA_XSP16, literal(-15)))
        CFI (cfiCond27) V1 load(1, XDATA, add(CFA_XSP16, literal(-14)))
        CFI (cfiCond27) V2 load(1, XDATA, add(CFA_XSP16, literal(-13)))
        CFI (cfiCond27) V3 load(1, XDATA, add(CFA_XSP16, literal(-12)))
        CFI (cfiCond27) V4 load(1, XDATA, add(CFA_XSP16, literal(-11)))
        CFI (cfiCond27) V5 load(1, XDATA, add(CFA_XSP16, literal(-10)))
        CFI (cfiCond27) V6 load(1, XDATA, add(CFA_XSP16, literal(-9)))
        CFI (cfiCond27) V7 load(1, XDATA, add(CFA_XSP16, literal(-8)))
        CFI (cfiCond27) V8 load(1, XDATA, add(CFA_XSP16, literal(-7)))
        CFI (cfiCond27) R7 load(1, XDATA, add(CFA_XSP16, literal(-6)))
        CFI (cfiCond27) ?RET_LOW load(1, XDATA, add(CFA_XSP16, literal(-5)))
        CFI (cfiCond27) ?RET_HIGH load(1, XDATA, add(CFA_XSP16, literal(-4)))
        CFI (cfiCond27) ?BRET_EXT load(1, XDATA, add(CFA_XSP16, literal(-3)))
        CFI (cfiCond27) DPL0 load(1, XDATA, add(CFA_XSP16, literal(-2)))
        CFI (cfiCond27) DPH0 load(1, XDATA, add(CFA_XSP16, literal(-1)))
        CFI (cfiCond27) CFA_SP SP+-1
        CFI (cfiCond27) CFA_XSP16 add(XSP16, 17)
        CFI Block cfiCond28 Using cfiCommon0
        CFI (cfiCond28) NoFunction
        CFI (cfiCond28) Conditional ??CrossCallReturnLabel_44
        CFI (cfiCond28) R6 load(1, XDATA, add(CFA_XSP16, literal(-10)))
        CFI (cfiCond28) VB load(1, XDATA, add(CFA_XSP16, literal(-9)))
        CFI (cfiCond28) V0 load(1, XDATA, add(CFA_XSP16, literal(-8)))
        CFI (cfiCond28) V1 load(1, XDATA, add(CFA_XSP16, literal(-7)))
        CFI (cfiCond28) R7 load(1, XDATA, add(CFA_XSP16, literal(-6)))
        CFI (cfiCond28) ?RET_LOW load(1, XDATA, add(CFA_XSP16, literal(-5)))
        CFI (cfiCond28) ?RET_HIGH load(1, XDATA, add(CFA_XSP16, literal(-4)))
        CFI (cfiCond28) ?BRET_EXT load(1, XDATA, add(CFA_XSP16, literal(-3)))
        CFI (cfiCond28) DPL0 load(1, XDATA, add(CFA_XSP16, literal(-2)))
        CFI (cfiCond28) DPH0 load(1, XDATA, add(CFA_XSP16, literal(-1)))
        CFI (cfiCond28) CFA_SP SP+-1
        CFI (cfiCond28) CFA_XSP16 add(XSP16, 10)
        CFI Block cfiCond29 Using cfiCommon0
        CFI (cfiCond29) NoFunction
        CFI (cfiCond29) Conditional ??CrossCallReturnLabel_45
        CFI (cfiCond29) R6 load(1, XDATA, add(CFA_XSP16, literal(-10)))
        CFI (cfiCond29) VB load(1, XDATA, add(CFA_XSP16, literal(-9)))
        CFI (cfiCond29) V0 load(1, XDATA, add(CFA_XSP16, literal(-8)))
        CFI (cfiCond29) V1 load(1, XDATA, add(CFA_XSP16, literal(-7)))
        CFI (cfiCond29) R7 load(1, XDATA, add(CFA_XSP16, literal(-6)))
        CFI (cfiCond29) ?RET_LOW load(1, XDATA, add(CFA_XSP16, literal(-5)))
        CFI (cfiCond29) ?RET_HIGH load(1, XDATA, add(CFA_XSP16, literal(-4)))
        CFI (cfiCond29) ?BRET_EXT load(1, XDATA, add(CFA_XSP16, literal(-3)))
        CFI (cfiCond29) DPL0 load(1, XDATA, add(CFA_XSP16, literal(-2)))
        CFI (cfiCond29) DPH0 load(1, XDATA, add(CFA_XSP16, literal(-1)))
        CFI (cfiCond29) CFA_SP SP+0
        CFI (cfiCond29) CFA_XSP16 add(XSP16, 10)
        CFI Block cfiCond30 Using cfiCommon0
        CFI (cfiCond30) NoFunction
        CFI (cfiCond30) Conditional ??CrossCallReturnLabel_46
        CFI (cfiCond30) R6 load(1, XDATA, add(CFA_XSP16, literal(-10)))
        CFI (cfiCond30) VB load(1, XDATA, add(CFA_XSP16, literal(-9)))
        CFI (cfiCond30) V0 load(1, XDATA, add(CFA_XSP16, literal(-8)))
        CFI (cfiCond30) V1 load(1, XDATA, add(CFA_XSP16, literal(-7)))
        CFI (cfiCond30) R7 load(1, XDATA, add(CFA_XSP16, literal(-6)))
        CFI (cfiCond30) ?RET_LOW load(1, XDATA, add(CFA_XSP16, literal(-5)))
        CFI (cfiCond30) ?RET_HIGH load(1, XDATA, add(CFA_XSP16, literal(-4)))
        CFI (cfiCond30) ?BRET_EXT load(1, XDATA, add(CFA_XSP16, literal(-3)))
        CFI (cfiCond30) DPL0 load(1, XDATA, add(CFA_XSP16, literal(-2)))
        CFI (cfiCond30) DPH0 load(1, XDATA, add(CFA_XSP16, literal(-1)))
        CFI (cfiCond30) CFA_SP SP+-1
        CFI (cfiCond30) CFA_XSP16 add(XSP16, 10)
        CFI Block cfiCond31 Using cfiCommon0
        CFI (cfiCond31) NoFunction
        CFI (cfiCond31) Conditional ??CrossCallReturnLabel_47
        CFI (cfiCond31) R6 load(1, XDATA, add(CFA_XSP16, literal(-10)))
        CFI (cfiCond31) VB load(1, XDATA, add(CFA_XSP16, literal(-9)))
        CFI (cfiCond31) V0 load(1, XDATA, add(CFA_XSP16, literal(-8)))
        CFI (cfiCond31) V1 load(1, XDATA, add(CFA_XSP16, literal(-7)))
        CFI (cfiCond31) R7 load(1, XDATA, add(CFA_XSP16, literal(-6)))
        CFI (cfiCond31) ?RET_LOW load(1, XDATA, add(CFA_XSP16, literal(-5)))
        CFI (cfiCond31) ?RET_HIGH load(1, XDATA, add(CFA_XSP16, literal(-4)))
        CFI (cfiCond31) ?BRET_EXT load(1, XDATA, add(CFA_XSP16, literal(-3)))
        CFI (cfiCond31) DPL0 load(1, XDATA, add(CFA_XSP16, literal(-2)))
        CFI (cfiCond31) DPH0 load(1, XDATA, add(CFA_XSP16, literal(-1)))
        CFI (cfiCond31) CFA_SP SP+0
        CFI (cfiCond31) CFA_XSP16 add(XSP16, 10)
        CFI Block cfiCond32 Using cfiCommon0
        CFI (cfiCond32) NoFunction
        CFI (cfiCond32) Conditional ??CrossCallReturnLabel_48
        CFI (cfiCond32) R6 load(1, XDATA, add(CFA_XSP16, literal(-10)))
        CFI (cfiCond32) VB load(1, XDATA, add(CFA_XSP16, literal(-9)))
        CFI (cfiCond32) V0 load(1, XDATA, add(CFA_XSP16, literal(-8)))
        CFI (cfiCond32) V1 load(1, XDATA, add(CFA_XSP16, literal(-7)))
        CFI (cfiCond32) R7 load(1, XDATA, add(CFA_XSP16, literal(-6)))
        CFI (cfiCond32) ?RET_LOW load(1, XDATA, add(CFA_XSP16, literal(-5)))
        CFI (cfiCond32) ?RET_HIGH load(1, XDATA, add(CFA_XSP16, literal(-4)))
        CFI (cfiCond32) ?BRET_EXT load(1, XDATA, add(CFA_XSP16, literal(-3)))
        CFI (cfiCond32) DPL0 load(1, XDATA, add(CFA_XSP16, literal(-2)))
        CFI (cfiCond32) DPH0 load(1, XDATA, add(CFA_XSP16, literal(-1)))
        CFI (cfiCond32) CFA_SP SP+0
        CFI (cfiCond32) CFA_XSP16 add(XSP16, 10)
        CFI Block cfiCond33 Using cfiCommon0
        CFI (cfiCond33) NoFunction
        CFI (cfiCond33) Conditional ??CrossCallReturnLabel_49
        CFI (cfiCond33) R6 load(1, XDATA, add(CFA_XSP16, literal(-10)))
        CFI (cfiCond33) VB load(1, XDATA, add(CFA_XSP16, literal(-9)))
        CFI (cfiCond33) V0 load(1, XDATA, add(CFA_XSP16, literal(-8)))
        CFI (cfiCond33) V1 load(1, XDATA, add(CFA_XSP16, literal(-7)))
        CFI (cfiCond33) R7 load(1, XDATA, add(CFA_XSP16, literal(-6)))
        CFI (cfiCond33) ?RET_LOW load(1, XDATA, add(CFA_XSP16, literal(-5)))
        CFI (cfiCond33) ?RET_HIGH load(1, XDATA, add(CFA_XSP16, literal(-4)))
        CFI (cfiCond33) ?BRET_EXT load(1, XDATA, add(CFA_XSP16, literal(-3)))
        CFI (cfiCond33) DPL0 load(1, XDATA, add(CFA_XSP16, literal(-2)))
        CFI (cfiCond33) DPH0 load(1, XDATA, add(CFA_XSP16, literal(-1)))
        CFI (cfiCond33) CFA_SP SP+0
        CFI (cfiCond33) CFA_XSP16 add(XSP16, 10)
        CFI Block cfiCond34 Using cfiCommon0
        CFI (cfiCond34) NoFunction
        CFI (cfiCond34) Conditional ??CrossCallReturnLabel_50
        CFI (cfiCond34) R6 load(1, XDATA, add(CFA_XSP16, literal(-10)))
        CFI (cfiCond34) VB load(1, XDATA, add(CFA_XSP16, literal(-9)))
        CFI (cfiCond34) V0 load(1, XDATA, add(CFA_XSP16, literal(-8)))
        CFI (cfiCond34) V1 load(1, XDATA, add(CFA_XSP16, literal(-7)))
        CFI (cfiCond34) R7 load(1, XDATA, add(CFA_XSP16, literal(-6)))
        CFI (cfiCond34) ?RET_LOW load(1, XDATA, add(CFA_XSP16, literal(-5)))
        CFI (cfiCond34) ?RET_HIGH load(1, XDATA, add(CFA_XSP16, literal(-4)))
        CFI (cfiCond34) ?BRET_EXT load(1, XDATA, add(CFA_XSP16, literal(-3)))
        CFI (cfiCond34) DPL0 load(1, XDATA, add(CFA_XSP16, literal(-2)))
        CFI (cfiCond34) DPH0 load(1, XDATA, add(CFA_XSP16, literal(-1)))
        CFI (cfiCond34) CFA_SP SP+0
        CFI (cfiCond34) CFA_XSP16 add(XSP16, 10)
        CFI Block cfiCond35 Using cfiCommon0
        CFI (cfiCond35) NoFunction
        CFI (cfiCond35) Conditional ??CrossCallReturnLabel_51
        CFI (cfiCond35) R6 load(1, XDATA, add(CFA_XSP16, literal(-9)))
        CFI (cfiCond35) VB load(1, XDATA, add(CFA_XSP16, literal(-8)))
        CFI (cfiCond35) V0 load(1, XDATA, add(CFA_XSP16, literal(-7)))
        CFI (cfiCond35) R7 load(1, XDATA, add(CFA_XSP16, literal(-6)))
        CFI (cfiCond35) ?RET_LOW load(1, XDATA, add(CFA_XSP16, literal(-5)))
        CFI (cfiCond35) ?RET_HIGH load(1, XDATA, add(CFA_XSP16, literal(-4)))
        CFI (cfiCond35) ?BRET_EXT load(1, XDATA, add(CFA_XSP16, literal(-3)))
        CFI (cfiCond35) DPL0 load(1, XDATA, add(CFA_XSP16, literal(-2)))
        CFI (cfiCond35) DPH0 load(1, XDATA, add(CFA_XSP16, literal(-1)))
        CFI (cfiCond35) CFA_SP SP+0
        CFI (cfiCond35) CFA_XSP16 add(XSP16, 9)
        CFI Block cfiPicker36 Using cfiCommon1
        CFI (cfiPicker36) NoFunction
        CFI (cfiPicker36) Picker
        LCALL   ??Subroutine35_0 & 0xFFFF
??CrossCallReturnLabel_84:
        RET
        CFI EndBlock cfiCond24
        CFI EndBlock cfiCond25
        CFI EndBlock cfiCond26
        CFI EndBlock cfiCond27
        CFI EndBlock cfiCond28
        CFI EndBlock cfiCond29
        CFI EndBlock cfiCond30
        CFI EndBlock cfiCond31
        CFI EndBlock cfiCond32
        CFI EndBlock cfiCond33
        CFI EndBlock cfiCond34
        CFI EndBlock cfiCond35
        CFI EndBlock cfiPicker36

        RSEG BANKED_CODE:CODE:NOROOT(0)
?Subroutine16:
        CFI Block cfiCond37 Using cfiCommon0
        CFI NoFunction
        CFI Conditional ??CrossCallReturnLabel_21
        CFI R6 load(1, XDATA, add(CFA_XSP16, literal(-10)))
        CFI VB load(1, XDATA, add(CFA_XSP16, literal(-9)))
        CFI V0 load(1, XDATA, add(CFA_XSP16, literal(-8)))
        CFI V1 load(1, XDATA, add(CFA_XSP16, literal(-7)))
        CFI R7 load(1, XDATA, add(CFA_XSP16, literal(-6)))
        CFI ?RET_LOW load(1, XDATA, add(CFA_XSP16, literal(-5)))
        CFI ?RET_HIGH load(1, XDATA, add(CFA_XSP16, literal(-4)))
        CFI ?BRET_EXT load(1, XDATA, add(CFA_XSP16, literal(-3)))
        CFI DPL0 load(1, XDATA, add(CFA_XSP16, literal(-2)))
        CFI DPH0 load(1, XDATA, add(CFA_XSP16, literal(-1)))
        CFI CFA_SP SP+0
        CFI CFA_XSP16 add(XSP16, 10)
        CFI Block cfiCond38 Using cfiCommon0
        CFI (cfiCond38) NoFunction
        CFI (cfiCond38) Conditional ??CrossCallReturnLabel_22
        CFI (cfiCond38) R6 load(1, XDATA, add(CFA_XSP16, literal(-10)))
        CFI (cfiCond38) VB load(1, XDATA, add(CFA_XSP16, literal(-9)))
        CFI (cfiCond38) V0 load(1, XDATA, add(CFA_XSP16, literal(-8)))
        CFI (cfiCond38) V1 load(1, XDATA, add(CFA_XSP16, literal(-7)))
        CFI (cfiCond38) R7 load(1, XDATA, add(CFA_XSP16, literal(-6)))
        CFI (cfiCond38) ?RET_LOW load(1, XDATA, add(CFA_XSP16, literal(-5)))
        CFI (cfiCond38) ?RET_HIGH load(1, XDATA, add(CFA_XSP16, literal(-4)))
        CFI (cfiCond38) ?BRET_EXT load(1, XDATA, add(CFA_XSP16, literal(-3)))
        CFI (cfiCond38) DPL0 load(1, XDATA, add(CFA_XSP16, literal(-2)))
        CFI (cfiCond38) DPH0 load(1, XDATA, add(CFA_XSP16, literal(-1)))
        CFI (cfiCond38) CFA_SP SP+0
        CFI (cfiCond38) CFA_XSP16 add(XSP16, 10)
        CFI Block cfiPicker39 Using cfiCommon1
        CFI (cfiPicker39) NoFunction
        CFI (cfiPicker39) Picker
        LCALL   ?Subroutine22 & 0xFFFF
??CrossCallReturnLabel_87:
        MOV     A,#0x1
        MOVX    @DPTR,A
        MOV     A,R2
        RET
        CFI EndBlock cfiCond37
        CFI EndBlock cfiCond38
        CFI EndBlock cfiPicker39

        RSEG BANKED_CODE:CODE:NOROOT(0)
?Subroutine15:
        CFI Block cfiCond40 Using cfiCommon0
        CFI NoFunction
        CFI Conditional ??CrossCallReturnLabel_19
        CFI R6 load(1, XDATA, add(CFA_XSP16, literal(-10)))
        CFI VB load(1, XDATA, add(CFA_XSP16, literal(-9)))
        CFI V0 load(1, XDATA, add(CFA_XSP16, literal(-8)))
        CFI V1 load(1, XDATA, add(CFA_XSP16, literal(-7)))
        CFI R7 load(1, XDATA, add(CFA_XSP16, literal(-6)))
        CFI ?RET_LOW load(1, XDATA, add(CFA_XSP16, literal(-5)))
        CFI ?RET_HIGH load(1, XDATA, add(CFA_XSP16, literal(-4)))
        CFI ?BRET_EXT load(1, XDATA, add(CFA_XSP16, literal(-3)))
        CFI DPL0 load(1, XDATA, add(CFA_XSP16, literal(-2)))
        CFI DPH0 load(1, XDATA, add(CFA_XSP16, literal(-1)))
        CFI CFA_SP SP+0
        CFI CFA_XSP16 add(XSP16, 10)
        CFI Block cfiCond41 Using cfiCommon0
        CFI (cfiCond41) NoFunction
        CFI (cfiCond41) Conditional ??CrossCallReturnLabel_20
        CFI (cfiCond41) R6 load(1, XDATA, add(CFA_XSP16, literal(-10)))
        CFI (cfiCond41) VB load(1, XDATA, add(CFA_XSP16, literal(-9)))
        CFI (cfiCond41) V0 load(1, XDATA, add(CFA_XSP16, literal(-8)))
        CFI (cfiCond41) V1 load(1, XDATA, add(CFA_XSP16, literal(-7)))
        CFI (cfiCond41) R7 load(1, XDATA, add(CFA_XSP16, literal(-6)))
        CFI (cfiCond41) ?RET_LOW load(1, XDATA, add(CFA_XSP16, literal(-5)))
        CFI (cfiCond41) ?RET_HIGH load(1, XDATA, add(CFA_XSP16, literal(-4)))
        CFI (cfiCond41) ?BRET_EXT load(1, XDATA, add(CFA_XSP16, literal(-3)))
        CFI (cfiCond41) DPL0 load(1, XDATA, add(CFA_XSP16, literal(-2)))
        CFI (cfiCond41) DPH0 load(1, XDATA, add(CFA_XSP16, literal(-1)))
        CFI (cfiCond41) CFA_SP SP+0
        CFI (cfiCond41) CFA_XSP16 add(XSP16, 10)
        CFI Block cfiPicker42 Using cfiCommon1
        CFI (cfiPicker42) NoFunction
        CFI (cfiPicker42) Picker
        LCALL   ?Subroutine22 & 0xFFFF
??CrossCallReturnLabel_86:
        MOV     A,#??commonClusterId & 0xff
        MOVX    @DPTR,A
        INC     DPTR
        MOV     A,#(??commonClusterId >> 8) & 0xff
        MOVX    @DPTR,A
        MOV     A,R2
        RET
        CFI EndBlock cfiCond40
        CFI EndBlock cfiCond41
        CFI EndBlock cfiPicker42

        RSEG BANKED_CODE:CODE:NOROOT(0)
?Subroutine11:
        CFI Block cfiCond43 Using cfiCommon0
        CFI NoFunction
        CFI Conditional ??CrossCallReturnLabel_14
        CFI R6 load(1, XDATA, add(CFA_XSP16, literal(-10)))
        CFI VB load(1, XDATA, add(CFA_XSP16, literal(-9)))
        CFI V0 load(1, XDATA, add(CFA_XSP16, literal(-8)))
        CFI V1 load(1, XDATA, add(CFA_XSP16, literal(-7)))
        CFI R7 load(1, XDATA, add(CFA_XSP16, literal(-6)))
        CFI ?RET_LOW load(1, XDATA, add(CFA_XSP16, literal(-5)))
        CFI ?RET_HIGH load(1, XDATA, add(CFA_XSP16, literal(-4)))
        CFI ?BRET_EXT load(1, XDATA, add(CFA_XSP16, literal(-3)))
        CFI DPL0 load(1, XDATA, add(CFA_XSP16, literal(-2)))
        CFI DPH0 load(1, XDATA, add(CFA_XSP16, literal(-1)))
        CFI CFA_SP SP+0
        CFI CFA_XSP16 add(XSP16, 10)
        CFI Block cfiCond44 Using cfiCommon0
        CFI (cfiCond44) NoFunction
        CFI (cfiCond44) Conditional ??CrossCallReturnLabel_15
        CFI (cfiCond44) R6 load(1, XDATA, add(CFA_XSP16, literal(-10)))
        CFI (cfiCond44) VB load(1, XDATA, add(CFA_XSP16, literal(-9)))
        CFI (cfiCond44) V0 load(1, XDATA, add(CFA_XSP16, literal(-8)))
        CFI (cfiCond44) V1 load(1, XDATA, add(CFA_XSP16, literal(-7)))
        CFI (cfiCond44) R7 load(1, XDATA, add(CFA_XSP16, literal(-6)))
        CFI (cfiCond44) ?RET_LOW load(1, XDATA, add(CFA_XSP16, literal(-5)))
        CFI (cfiCond44) ?RET_HIGH load(1, XDATA, add(CFA_XSP16, literal(-4)))
        CFI (cfiCond44) ?BRET_EXT load(1, XDATA, add(CFA_XSP16, literal(-3)))
        CFI (cfiCond44) DPL0 load(1, XDATA, add(CFA_XSP16, literal(-2)))
        CFI (cfiCond44) DPH0 load(1, XDATA, add(CFA_XSP16, literal(-1)))
        CFI (cfiCond44) CFA_SP SP+0
        CFI (cfiCond44) CFA_XSP16 add(XSP16, 10)
        CFI Block cfiPicker45 Using cfiCommon1
        CFI (cfiPicker45) NoFunction
        CFI (cfiPicker45) Picker
        LCALL   ?Subroutine23 & 0xFFFF
??CrossCallReturnLabel_32:
        INC     DPTR
        MOVX    A,@DPTR
        RET
        CFI EndBlock cfiCond43
        CFI EndBlock cfiCond44
        CFI EndBlock cfiPicker45

        RSEG BANKED_CODE:CODE:NOROOT(0)
?Subroutine23:
        CFI Block cfiCond46 Using cfiCommon0
        CFI NoFunction
        CFI Conditional ??CrossCallReturnLabel_31
        CFI R6 load(1, XDATA, add(CFA_XSP16, literal(-10)))
        CFI VB load(1, XDATA, add(CFA_XSP16, literal(-9)))
        CFI V0 load(1, XDATA, add(CFA_XSP16, literal(-8)))
        CFI V1 load(1, XDATA, add(CFA_XSP16, literal(-7)))
        CFI R7 load(1, XDATA, add(CFA_XSP16, literal(-6)))
        CFI ?RET_LOW load(1, XDATA, add(CFA_XSP16, literal(-5)))
        CFI ?RET_HIGH load(1, XDATA, add(CFA_XSP16, literal(-4)))
        CFI ?BRET_EXT load(1, XDATA, add(CFA_XSP16, literal(-3)))
        CFI DPL0 load(1, XDATA, add(CFA_XSP16, literal(-2)))
        CFI DPH0 load(1, XDATA, add(CFA_XSP16, literal(-1)))
        CFI CFA_SP SP+0
        CFI CFA_XSP16 add(XSP16, 10)
        CFI Block cfiCond47 Using cfiCommon0
        CFI (cfiCond47) NoFunction
        CFI (cfiCond47) Conditional ??CrossCallReturnLabel_32, ??CrossCallReturnLabel_14
        CFI (cfiCond47) R6 load(1, XDATA, add(CFA_XSP16, literal(-10)))
        CFI (cfiCond47) VB load(1, XDATA, add(CFA_XSP16, literal(-9)))
        CFI (cfiCond47) V0 load(1, XDATA, add(CFA_XSP16, literal(-8)))
        CFI (cfiCond47) V1 load(1, XDATA, add(CFA_XSP16, literal(-7)))
        CFI (cfiCond47) R7 load(1, XDATA, add(CFA_XSP16, literal(-6)))
        CFI (cfiCond47) ?RET_LOW load(1, XDATA, add(CFA_XSP16, literal(-5)))
        CFI (cfiCond47) ?RET_HIGH load(1, XDATA, add(CFA_XSP16, literal(-4)))
        CFI (cfiCond47) ?BRET_EXT load(1, XDATA, add(CFA_XSP16, literal(-3)))
        CFI (cfiCond47) DPL0 load(1, XDATA, add(CFA_XSP16, literal(-2)))
        CFI (cfiCond47) DPH0 load(1, XDATA, add(CFA_XSP16, literal(-1)))
        CFI (cfiCond47) CFA_SP SP+0
        CFI (cfiCond47) CFA_XSP16 add(XSP16, 10)
        CFI Block cfiCond48 Using cfiCommon0
        CFI (cfiCond48) NoFunction
        CFI (cfiCond48) Conditional ??CrossCallReturnLabel_32, ??CrossCallReturnLabel_15
        CFI (cfiCond48) R6 load(1, XDATA, add(CFA_XSP16, literal(-10)))
        CFI (cfiCond48) VB load(1, XDATA, add(CFA_XSP16, literal(-9)))
        CFI (cfiCond48) V0 load(1, XDATA, add(CFA_XSP16, literal(-8)))
        CFI (cfiCond48) V1 load(1, XDATA, add(CFA_XSP16, literal(-7)))
        CFI (cfiCond48) R7 load(1, XDATA, add(CFA_XSP16, literal(-6)))
        CFI (cfiCond48) ?RET_LOW load(1, XDATA, add(CFA_XSP16, literal(-5)))
        CFI (cfiCond48) ?RET_HIGH load(1, XDATA, add(CFA_XSP16, literal(-4)))
        CFI (cfiCond48) ?BRET_EXT load(1, XDATA, add(CFA_XSP16, literal(-3)))
        CFI (cfiCond48) DPL0 load(1, XDATA, add(CFA_XSP16, literal(-2)))
        CFI (cfiCond48) DPH0 load(1, XDATA, add(CFA_XSP16, literal(-1)))
        CFI (cfiCond48) CFA_SP SP+0
        CFI (cfiCond48) CFA_XSP16 add(XSP16, 10)
        CFI Block cfiPicker49 Using cfiCommon1
        CFI (cfiPicker49) NoFunction
        CFI (cfiPicker49) Picker
        MOVX    @DPTR,A
        MOV     DPL,R2
        MOV     DPH,R3
        INC     DPTR
        INC     DPTR
        INC     DPTR
        INC     DPTR
        INC     DPTR
        INC     DPTR
        INC     DPTR
        INC     DPTR
        INC     DPTR
        RET
        CFI EndBlock cfiCond46
        CFI EndBlock cfiCond47
        CFI EndBlock cfiCond48
        CFI EndBlock cfiPicker49

        RSEG XDATA_I:XDATA:NOROOT(0)
??commonClusterId:
        DATA16
        DS 2
        REQUIRE `?<Initializer for commonClusterId>`
        REQUIRE __INIT_XDATA_I
//  104 

        RSEG BANKED_CODE:CODE:NOROOT(0)
//  105 uint16 sapp_controlEpProcess(uint8 task_id, uint16 events)
sapp_controlEpProcess:
        CFI Block cfiBlock50 Using cfiCommon0
        CFI Function sapp_controlEpProcess
        CODE
//  106 {
        FUNCALL sapp_controlEpProcess, osal_msg_receive
        LOCFRAME ISTACK, 0, STACK
        LOCFRAME PSTACK, 0, STACK
        LOCFRAME XSTACK, 22, STACK
        LOCFRAME IOVERLAY, 0, STATIC
        LOCFRAME DOVERLAY, 0, STATIC
        ARGFRAME ISTACK, 0, STACK
        ARGFRAME PSTACK, 0, STACK
        ARGFRAME XSTACK, 22, STACK
        ARGFRAME IOVERLAY, 0, STATIC
        ARGFRAME DOVERLAY, 0, STATIC
        FUNCALL sapp_controlEpProcess, NLME_GetExtAddr
        LOCFRAME ISTACK, 0, STACK
        LOCFRAME PSTACK, 0, STACK
        LOCFRAME XSTACK, 24, STACK
        LOCFRAME IOVERLAY, 0, STATIC
        LOCFRAME DOVERLAY, 0, STATIC
        ARGFRAME ISTACK, 0, STACK
        ARGFRAME PSTACK, 0, STACK
        ARGFRAME XSTACK, 24, STACK
        ARGFRAME IOVERLAY, 0, STATIC
        ARGFRAME DOVERLAY, 0, STATIC
        FUNCALL sapp_controlEpProcess, memcpy
        LOCFRAME ISTACK, 0, STACK
        LOCFRAME PSTACK, 0, STACK
        LOCFRAME XSTACK, 24, STACK
        LOCFRAME IOVERLAY, 0, STATIC
        LOCFRAME DOVERLAY, 0, STATIC
        ARGFRAME ISTACK, 0, STACK
        ARGFRAME PSTACK, 0, STACK
        ARGFRAME XSTACK, 24, STACK
        ARGFRAME IOVERLAY, 0, STATIC
        ARGFRAME DOVERLAY, 0, STATIC
        FUNCALL sapp_controlEpProcess, NLME_GetCoordShortAddr
        LOCFRAME ISTACK, 0, STACK
        LOCFRAME PSTACK, 0, STACK
        LOCFRAME XSTACK, 22, STACK
        LOCFRAME IOVERLAY, 0, STATIC
        LOCFRAME DOVERLAY, 0, STATIC
        ARGFRAME ISTACK, 0, STACK
        ARGFRAME PSTACK, 0, STACK
        ARGFRAME XSTACK, 22, STACK
        ARGFRAME IOVERLAY, 0, STATIC
        ARGFRAME DOVERLAY, 0, STATIC
        FUNCALL sapp_controlEpProcess, osal_memcpy
        LOCFRAME ISTACK, 0, STACK
        LOCFRAME PSTACK, 0, STACK
        LOCFRAME XSTACK, 25, STACK
        LOCFRAME IOVERLAY, 0, STATIC
        LOCFRAME DOVERLAY, 0, STATIC
        ARGFRAME ISTACK, 0, STACK
        ARGFRAME PSTACK, 0, STACK
        ARGFRAME XSTACK, 25, STACK
        ARGFRAME IOVERLAY, 0, STATIC
        ARGFRAME DOVERLAY, 0, STATIC
        FUNCALL sapp_controlEpProcess, osal_memcpy
        LOCFRAME ISTACK, 0, STACK
        LOCFRAME PSTACK, 0, STACK
        LOCFRAME XSTACK, 25, STACK
        LOCFRAME IOVERLAY, 0, STATIC
        LOCFRAME DOVERLAY, 0, STATIC
        ARGFRAME ISTACK, 0, STACK
        ARGFRAME PSTACK, 0, STACK
        ARGFRAME XSTACK, 25, STACK
        ARGFRAME IOVERLAY, 0, STATIC
        ARGFRAME DOVERLAY, 0, STATIC
        FUNCALL sapp_controlEpProcess, SendData
        LOCFRAME ISTACK, 0, STACK
        LOCFRAME PSTACK, 0, STACK
        LOCFRAME XSTACK, 24, STACK
        LOCFRAME IOVERLAY, 0, STATIC
        LOCFRAME DOVERLAY, 0, STATIC
        ARGFRAME ISTACK, 0, STACK
        ARGFRAME PSTACK, 0, STACK
        ARGFRAME XSTACK, 24, STACK
        ARGFRAME IOVERLAY, 0, STATIC
        ARGFRAME DOVERLAY, 0, STATIC
        FUNCALL sapp_controlEpProcess, HalLedBlink
        LOCFRAME ISTACK, 0, STACK
        LOCFRAME PSTACK, 0, STACK
        LOCFRAME XSTACK, 22, STACK
        LOCFRAME IOVERLAY, 0, STATIC
        LOCFRAME DOVERLAY, 0, STATIC
        ARGFRAME ISTACK, 0, STACK
        ARGFRAME PSTACK, 0, STACK
        ARGFRAME XSTACK, 22, STACK
        ARGFRAME IOVERLAY, 0, STATIC
        ARGFRAME DOVERLAY, 0, STATIC
        FUNCALL sapp_controlEpProcess, osal_msg_deallocate
        LOCFRAME ISTACK, 0, STACK
        LOCFRAME PSTACK, 0, STACK
        LOCFRAME XSTACK, 22, STACK
        LOCFRAME IOVERLAY, 0, STATIC
        LOCFRAME DOVERLAY, 0, STATIC
        ARGFRAME ISTACK, 0, STACK
        ARGFRAME PSTACK, 0, STACK
        ARGFRAME XSTACK, 22, STACK
        ARGFRAME IOVERLAY, 0, STATIC
        ARGFRAME DOVERLAY, 0, STATIC
        FUNCALL sapp_controlEpProcess, osal_msg_receive
        LOCFRAME ISTACK, 0, STACK
        LOCFRAME PSTACK, 0, STACK
        LOCFRAME XSTACK, 22, STACK
        LOCFRAME IOVERLAY, 0, STATIC
        LOCFRAME DOVERLAY, 0, STATIC
        ARGFRAME ISTACK, 0, STACK
        ARGFRAME PSTACK, 0, STACK
        ARGFRAME XSTACK, 22, STACK
        ARGFRAME IOVERLAY, 0, STATIC
        ARGFRAME DOVERLAY, 0, STATIC
        FUNCALL sapp_controlEpProcess, SendData
        LOCFRAME ISTACK, 0, STACK
        LOCFRAME PSTACK, 0, STACK
        LOCFRAME XSTACK, 24, STACK
        LOCFRAME IOVERLAY, 0, STATIC
        LOCFRAME DOVERLAY, 0, STATIC
        ARGFRAME ISTACK, 0, STACK
        ARGFRAME PSTACK, 0, STACK
        ARGFRAME XSTACK, 24, STACK
        ARGFRAME IOVERLAY, 0, STATIC
        ARGFRAME DOVERLAY, 0, STATIC
        FUNCALL sapp_controlEpProcess, SendData
        LOCFRAME ISTACK, 0, STACK
        LOCFRAME PSTACK, 0, STACK
        LOCFRAME XSTACK, 24, STACK
        LOCFRAME IOVERLAY, 0, STATIC
        LOCFRAME DOVERLAY, 0, STATIC
        ARGFRAME ISTACK, 0, STACK
        ARGFRAME PSTACK, 0, STACK
        ARGFRAME XSTACK, 24, STACK
        ARGFRAME IOVERLAY, 0, STATIC
        ARGFRAME DOVERLAY, 0, STATIC
        FUNCALL sapp_controlEpProcess, SendData
        LOCFRAME ISTACK, 0, STACK
        LOCFRAME PSTACK, 0, STACK
        LOCFRAME XSTACK, 24, STACK
        LOCFRAME IOVERLAY, 0, STATIC
        LOCFRAME DOVERLAY, 0, STATIC
        ARGFRAME ISTACK, 0, STACK
        ARGFRAME PSTACK, 0, STACK
        ARGFRAME XSTACK, 24, STACK
        ARGFRAME IOVERLAY, 0, STATIC
        ARGFRAME DOVERLAY, 0, STATIC
        FUNCALL sapp_controlEpProcess, HalLedBlink
        LOCFRAME ISTACK, 0, STACK
        LOCFRAME PSTACK, 0, STACK
        LOCFRAME XSTACK, 22, STACK
        LOCFRAME IOVERLAY, 0, STATIC
        LOCFRAME DOVERLAY, 0, STATIC
        ARGFRAME ISTACK, 0, STACK
        ARGFRAME PSTACK, 0, STACK
        ARGFRAME XSTACK, 22, STACK
        ARGFRAME IOVERLAY, 0, STATIC
        ARGFRAME DOVERLAY, 0, STATIC
        FUNCALL sapp_controlEpProcess, osal_start_timerEx
        LOCFRAME ISTACK, 0, STACK
        LOCFRAME PSTACK, 0, STACK
        LOCFRAME XSTACK, 22, STACK
        LOCFRAME IOVERLAY, 0, STATIC
        LOCFRAME DOVERLAY, 0, STATIC
        ARGFRAME ISTACK, 0, STACK
        ARGFRAME PSTACK, 0, STACK
        ARGFRAME XSTACK, 22, STACK
        ARGFRAME IOVERLAY, 0, STATIC
        ARGFRAME DOVERLAY, 0, STATIC
        FUNCALL sapp_controlEpProcess, osal_stop_timerEx
        LOCFRAME ISTACK, 0, STACK
        LOCFRAME PSTACK, 0, STACK
        LOCFRAME XSTACK, 22, STACK
        LOCFRAME IOVERLAY, 0, STATIC
        LOCFRAME DOVERLAY, 0, STATIC
        ARGFRAME ISTACK, 0, STACK
        ARGFRAME PSTACK, 0, STACK
        ARGFRAME XSTACK, 22, STACK
        ARGFRAME IOVERLAY, 0, STATIC
        ARGFRAME DOVERLAY, 0, STATIC
        MOV     A,#-0x13
        LCALL   ?BANKED_ENTER_XDATA
        CFI DPH0 load(1, XDATA, add(CFA_XSP16, literal(-1)))
        CFI DPL0 load(1, XDATA, add(CFA_XSP16, literal(-2)))
        CFI ?BRET_EXT load(1, XDATA, add(CFA_XSP16, literal(-3)))
        CFI ?RET_HIGH load(1, XDATA, add(CFA_XSP16, literal(-4)))
        CFI ?RET_LOW load(1, XDATA, add(CFA_XSP16, literal(-5)))
        CFI R7 load(1, XDATA, add(CFA_XSP16, literal(-6)))
        CFI V10 load(1, XDATA, add(CFA_XSP16, literal(-7)))
        CFI V9 load(1, XDATA, add(CFA_XSP16, literal(-8)))
        CFI V8 load(1, XDATA, add(CFA_XSP16, literal(-9)))
        CFI V7 load(1, XDATA, add(CFA_XSP16, literal(-10)))
        CFI V6 load(1, XDATA, add(CFA_XSP16, literal(-11)))
        CFI V5 load(1, XDATA, add(CFA_XSP16, literal(-12)))
        CFI V4 load(1, XDATA, add(CFA_XSP16, literal(-13)))
        CFI V3 load(1, XDATA, add(CFA_XSP16, literal(-14)))
        CFI V2 load(1, XDATA, add(CFA_XSP16, literal(-15)))
        CFI V1 load(1, XDATA, add(CFA_XSP16, literal(-16)))
        CFI V0 load(1, XDATA, add(CFA_XSP16, literal(-17)))
        CFI VB load(1, XDATA, add(CFA_XSP16, literal(-18)))
        CFI R6 load(1, XDATA, add(CFA_XSP16, literal(-19)))
        CFI CFA_SP SP+0
        CFI CFA_XSP16 add(XSP16, 19)
        ; Saved register size: 19
        ; Auto size: 3
        MOV     A,#-0x3
        LCALL   ?ALLOC_XSTACK8
        CFI CFA_XSP16 add(XSP16, 22)
        MOV     ?V0 + 4,R1
        MOV     ?V0 + 2,R2
        MOV     ?V0 + 3,R3
//  107     afIncomingMSGPacket_t *MSGpkt;
//  108 
//  109     if ( events & SYS_EVENT_MSG )
        MOV     A,R3
        ANL     A,#0x80
        JNZ     $+5
        LJMP    ??sapp_controlEpProcess_0 & 0xFFFF
//  110     {
//  111         MSGpkt = (afIncomingMSGPacket_t *)osal_msg_receive(task_id);
        ; Setup parameters for call to function osal_msg_receive
        LJMP    ??sapp_controlEpProcess_1 & 0xFFFF
//  112         while ( MSGpkt )
//  113         {
//  114             switch ( MSGpkt->hdr.event )
//  115             {
//  116 #if defined(ZDO_COORDINATOR)
//  117             case CMD_SERIAL_MSG:
//  118 //                SampleApp_UartMessage((uint8 *)MSGpkt);
//  119                 uartMsgProcesser((uint8 *)MSGpkt);
//  120                 HalLedBlink( HAL_LED_1, 2, 50, 90 );
//  121                 break;
//  122 #endif
//  123                 // Received when a messages is received (OTA) for this endpoint
//  124             case AF_INCOMING_MSG_CMD:
//  125             {
//  126                 // TODO: QueryProfile or QueryTopo
//  127                 switch(MSGpkt->clusterId)
//  128                 {
//  129                 case SAPP_PERIODIC_CLUSTERID:
//  130                     switch(MSGpkt->cmd.Data[0])
//  131                     {
//  132                     case 0x01:
//  133                         // CtrlQueryProfile
//  134                         // 获取到数据包的来源地址来当做发送数据的目标
//  135                         SendData(CONTROL_ENDPOINT, funcTableBuffer->ft_data, MSGpkt->srcAddr.addr.shortAddr, MSGpkt->srcAddr.endPoint, sizeof(FUNCTABLE) + funcCount * sizeof(FUNCINFO));
//  136                         break;
//  137                     case 0x02:
//  138                         // CtrlQueryTopo
//  139                         // 获取到数据包的来源地址来当做发送数据的目标
//  140                         SendData(CONTROL_ENDPOINT, (unsigned char *)&topoBuffer, MSGpkt->srcAddr.addr.shortAddr, MSGpkt->srcAddr.endPoint, sizeof(TOPOINFO));
//  141                         break;
//  142                     case 0x03:
//  143                         // CtrlQuerySpecialFunction
//  144                         // cmd.Data[0] = 3, cmd.Data[1] = funcCode, cmd.Data[2] = funcID
//  145                         {
//  146                             uint8 i;
//  147                             for(i = 0; i < funcTableBuffer->ft_count; i++)
//  148                             {
//  149                                 if((funcTableBuffer->ft_list[i].type == MSGpkt->cmd.Data[1])
//  150                                    && (funcTableBuffer->ft_list[i].id == MSGpkt->cmd.Data[2]))
//  151                                 {
//  152                                     // 0x03, EndPoint, rCycle
//  153                                     uint8 specialFunc[3] = { 0x03, i + 1, funcTableBuffer->ft_list[i].cycle };
//  154                                     SendData(CONTROL_ENDPOINT, specialFunc, MSGpkt->srcAddr.addr.shortAddr, MSGpkt->srcAddr.endPoint, sizeof(specialFunc));
//  155                                     break;
//  156                                 }
//  157                             }
//  158                         }
//  159                         break;
//  160                     default:
//  161                         {
//  162                             int i;
//  163                             for(i = 0; i < funcCount; i++)
//  164                             {
//  165                                 struct ep_info_t *ep = &funcList[i];
//  166                                 if(ep->res_available)   (*ep->res_available)(ep, ResControlPkg, MSGpkt);
//  167                             }
//  168                         }
//  169                         break;
//  170                     }
//  171                     HalLedBlink( HAL_LED_2, 1, 50, 250 );
//  172                     break;
//  173                 }
//  174                 break;
//  175             }
//  176             // Received whenever the device changes state in the network
//  177             case ZDO_STATE_CHANGE:
//  178             {
//  179                 devStates_t st = (devStates_t)(MSGpkt->hdr.status);
??sapp_controlEpProcess_2:
        INC     DPTR
        MOVX    A,@DPTR
        MOV     R0,A
//  180                 if ( (st == DEV_ZB_COORD)
//  181                         || (st == DEV_ROUTER)
//  182                         || (st == DEV_END_DEVICE) )
        MOV     A,#0x9
        XRL     A,R0
        JZ      ??sapp_controlEpProcess_3
        MOV     A,#0x7
        XRL     A,R0
        JZ      ??sapp_controlEpProcess_3
        MOV     A,#0x6
        XRL     A,R0
        JZ      $+5
        LJMP    ??sapp_controlEpProcess_4 & 0xFFFF
//  183                 {
//  184 //                    topoBuffer->type = 0x02;
//  185                     memcpy(topoBuffer.IEEE, NLME_GetExtAddr(), 8);
??sapp_controlEpProcess_3:
        ; Setup parameters for call to function memcpy
        MOV     ?V0 + 0,#0x8
        MOV     ?V0 + 1,#0x0
        MOV     R0,#?V0 + 0
        LCALL   ?PUSH_XSTACK_I_TWO
        CFI CFA_XSP16 add(XSP16, 24)
        ; Setup parameters for call to function NLME_GetExtAddr
        LCALL   ??NLME_GetExtAddr?relay
        MOV     A,R2
        MOV     R4,A
        MOV     A,R3
        MOV     R5,A
        MOV     R2,#(topoBuffer + 1) & 0xff
        MOV     R3,#((topoBuffer + 1) >> 8) & 0xff
        LCALL   ??memcpy?relay
        MOV     A,#0x2
        LCALL   ?DEALLOC_XSTACK8
        CFI CFA_XSP16 add(XSP16, 22)
//  186 #if !defined(ZDO_COORDINATOR)
//  187                     topoBuffer.PAddr = NLME_GetCoordShortAddr();
        ; Setup parameters for call to function NLME_GetCoordShortAddr
        LCALL   ??NLME_GetCoordShortAddr?relay
        MOV     DPTR,#topoBuffer + 9
        MOV     A,R2
        MOVX    @DPTR,A
        INC     DPTR
        MOV     A,R3
        MOVX    @DPTR,A
//  188 #else
//  189                     topoBuffer.PAddr = 0xFFFF;
//  190 #endif
//  191                     osal_memcpy(&topoBuffer.panid, &_NIB.nwkPanId, sizeof(uint16));
        ; Setup parameters for call to function osal_memcpy
        MOV     ?V0 + 8,#(_NIB + 33) & 0xff
        MOV     ?V0 + 9,#((_NIB + 33) >> 8) & 0xff
        MOV     ?V0 + 10,#0x0
        MOV     R0,#?V0 + 8
        LCALL   ?PUSH_XSTACK_I_THREE
        CFI CFA_XSP16 add(XSP16, 25)
        MOV     R4,#0x2
        MOV     R5,#0x0
        MOV     R2,#(topoBuffer + 11) & 0xff
        MOV     R3,#((topoBuffer + 11) >> 8) & 0xff
        LCALL   ??osal_memcpy?relay
        MOV     A,#0x3
        LCALL   ?DEALLOC_XSTACK8
        CFI CFA_XSP16 add(XSP16, 22)
//  192                     osal_memcpy(&topoBuffer.channel, &_NIB.nwkLogicalChannel, sizeof(uint8));
        ; Setup parameters for call to function osal_memcpy
        MOV     ?V0 + 8,#(_NIB + 22) & 0xff
        MOV     ?V0 + 9,#((_NIB + 22) >> 8) & 0xff
        MOV     R0,#?V0 + 8
        LCALL   ?PUSH_XSTACK_I_THREE
        CFI CFA_XSP16 add(XSP16, 25)
        MOV     R4,#0x1
        MOV     R5,#0x0
        MOV     R2,#(topoBuffer + 13) & 0xff
        MOV     R3,#((topoBuffer + 13) >> 8) & 0xff
        LCALL   ??osal_memcpy?relay
        MOV     A,#0x3
        LCALL   ?DEALLOC_XSTACK8
        CFI CFA_XSP16 add(XSP16, 22)
//  193                     //向协调器发送拓扑信息
//  194                     SendData(CONTROL_ENDPOINT, (unsigned char *)&topoBuffer, 0x0000, TRANSFER_ENDPOINT, sizeof(TOPOINFO));
        ; Setup parameters for call to function SendData
        MOV     ?V0 + 0,#0xe
        MOV     R0,#?V0 + 0
        LCALL   ?PUSH_XSTACK_I_ONE
        CFI CFA_XSP16 add(XSP16, 23)
        MOV     ?V0 + 0,#0x1
        MOV     R0,#?V0 + 0
        LCALL   ?PUSH_XSTACK_I_ONE
        CFI CFA_XSP16 add(XSP16, 24)
        MOV     R4,#0x0
        MOV     R5,#0x0
        MOV     R2,#topoBuffer & 0xff
        MOV     R3,#(topoBuffer >> 8) & 0xff
        MOV     R1,#-0x10
        LCALL   ??SendData?relay
        MOV     A,#0x2
        LCALL   ?DEALLOC_XSTACK8
        CFI CFA_XSP16 add(XSP16, 22)
//  195                     HalLedBlink( HAL_LED_2, 4, 50, 250 );
        ; Setup parameters for call to function HalLedBlink
        MOV     R4,#-0x6
        MOV     R5,#0x0
        MOV     R3,#0x32
        MOV     R2,#0x4
??sapp_controlEpProcess_5:
        MOV     R1,#0x2
        LCALL   ??HalLedBlink?relay
//  196                 }
//  197             }
//  198             break;
//  199             default:
//  200                 break;
//  201             }
//  202             // Release the memory
//  203             osal_msg_deallocate( (uint8 *)MSGpkt );
??sapp_controlEpProcess_4:
        ; Setup parameters for call to function osal_msg_deallocate
        MOV     A,R6
        MOV     R2,A
        MOV     A,R7
        MOV     R3,A
        LCALL   ??osal_msg_deallocate?relay
//  204             // Next - if one is available
//  205             MSGpkt = (afIncomingMSGPacket_t *)osal_msg_receive( task_id );
        ; Setup parameters for call to function osal_msg_receive
        MOV     R1,?V0 + 4
??sapp_controlEpProcess_1:
        LCALL   ??osal_msg_receive?relay
        MOV     ?V0 + 0,R2
        MOV     ?V0 + 1,R3
        MOV     R6,?V0 + 0
        MOV     R7,?V0 + 1
        MOV     A,R6
        ORL     A,R7
        JNZ     $+5
        LJMP    ??sapp_controlEpProcess_6 & 0xFFFF
        MOV     DPL,R6
        MOV     DPH,R7
        MOVX    A,@DPTR
        ADD     A,#-0x1a
        JZ      ??sapp_controlEpProcess_7
        ADD     A,#0x49
        JNZ     $+5
        LJMP    ??sapp_controlEpProcess_2 & 0xFFFF
        SJMP    ??sapp_controlEpProcess_4
??sapp_controlEpProcess_7:
        INC     DPTR
        INC     DPTR
        INC     DPTR
        INC     DPTR
        MOVX    A,@DPTR
        XRL     A,#0x1
        JNZ     ??sapp_controlEpProcess_8
        INC     DPTR
        MOVX    A,@DPTR
??sapp_controlEpProcess_8:
        JNZ     ??sapp_controlEpProcess_4
        MOV     A,R6
        ADD     A,#0x22
        MOV     DPL,A
        MOV     A,R7
        LCALL   ??Subroutine34_0 & 0xFFFF
??CrossCallReturnLabel_72:
        MOV     R0,A
        LCALL   ??Subroutine27_0 & 0xFFFF
??CrossCallReturnLabel_54:
        MOVX    A,@DPTR
        DEC     A
        JZ      ??sapp_controlEpProcess_9
        DEC     A
        JZ      ??sapp_controlEpProcess_10
        DEC     A
        JZ      ??sapp_controlEpProcess_11
        LJMP    ??sapp_controlEpProcess_12 & 0xFFFF
??sapp_controlEpProcess_9:
        ; Setup parameters for call to function SendData
        MOV     B,#0x3
        MOV     DPTR,#funcCount
        MOVX    A,@DPTR
        MUL     AB
        ADD     A,#0x2
        MOV     ?V0 + 0,A
        MOV     R0,#?V0 + 0
        LCALL   ?PUSH_XSTACK_I_ONE
        CFI CFA_XSP16 add(XSP16, 23)
        LCALL   ?Subroutine12 & 0xFFFF
??CrossCallReturnLabel_16:
        LCALL   ?PUSH_XSTACK_I_ONE
        CFI CFA_XSP16 add(XSP16, 24)
        LCALL   ?Subroutine8 & 0xFFFF
??CrossCallReturnLabel_91:
        MOV     DPTR,#funcTableBuffer
        MOVX    A,@DPTR
        MOV     R2,A
        INC     DPTR
        MOVX    A,@DPTR
        MOV     R3,A
??sapp_controlEpProcess_13:
        MOV     R1,#-0x10
        LCALL   ??SendData?relay
        MOV     A,#0x2
        LCALL   ?DEALLOC_XSTACK8
        CFI CFA_XSP16 add(XSP16, 22)
        LJMP    ??sapp_controlEpProcess_14 & 0xFFFF
??sapp_controlEpProcess_10:
        ; Setup parameters for call to function SendData
        MOV     ?V0 + 0,#0xe
        MOV     R0,#?V0 + 0
        LCALL   ?PUSH_XSTACK_I_ONE
        CFI CFA_XSP16 add(XSP16, 23)
        LCALL   ?Subroutine12 & 0xFFFF
??CrossCallReturnLabel_17:
        LCALL   ?PUSH_XSTACK_I_ONE
        CFI CFA_XSP16 add(XSP16, 24)
        LCALL   ?Subroutine8 & 0xFFFF
??CrossCallReturnLabel_92:
        MOV     R2,#topoBuffer & 0xff
        MOV     R3,#(topoBuffer >> 8) & 0xff
        SJMP    ??sapp_controlEpProcess_13
        CFI CFA_XSP16 add(XSP16, 22)
??sapp_controlEpProcess_11:
        MOV     R3,#0x0
        SJMP    ??sapp_controlEpProcess_15
??sapp_controlEpProcess_16:
        INC     R3
??sapp_controlEpProcess_15:
        MOV     DPTR,#funcTableBuffer
        MOVX    A,@DPTR
        MOV     R0,A
        LCALL   ??Subroutine27_0 & 0xFFFF
??CrossCallReturnLabel_55:
        INC     DPTR
        MOVX    A,@DPTR
        MOV     R0,A
        MOV     A,R3
        CLR     C
        SUBB    A,R0
        JC      $+5
        LJMP    ??sapp_controlEpProcess_14 & 0xFFFF
        MOV     A,R3
        MOV     B,#0x3
        MUL     AB
        MOV     R0,A
        MOV     R1,B
        LCALL   ?Subroutine21 & 0xFFFF
??CrossCallReturnLabel_29:
        LCALL   ?Subroutine5 & 0xFFFF
??CrossCallReturnLabel_4:
        MOVX    A,@DPTR
        XRL     A,R0
        JNZ     ??sapp_controlEpProcess_16
        MOV     A,R3
        MOV     B,#0x3
        MUL     AB
        MOV     R0,A
        MOV     R1,B
        MOV     DPTR,#funcTableBuffer
        MOVX    A,@DPTR
        ADD     A,R0
        INC     DPTR
        MOVX    A,@DPTR
        ADDC    A,R1
        MOV     DPL,R2
        MOV     DPH,A
        INC     DPTR
        LCALL   ?Subroutine5 & 0xFFFF
??CrossCallReturnLabel_5:
        INC     DPTR
        MOVX    A,@DPTR
        XRL     A,R0
        JNZ     ??sapp_controlEpProcess_16
        MOV     DPL,?XSP + 0
        MOV     DPH,?XSP + 1
        MOV     R4,DPL
        MOV     R5,DPH
        MOV     DPH,#(`?<Constant {3, 0, 0}>` >> 8) & 0xff
        MOV     DPL,#`?<Constant {3, 0, 0}>` & 0xff
        MOV     A,#0x3
        LCALL   ?MOVE_LONG8_XDATA_XDATA
        INC     A
        ADD     A,R3
        PUSH    A
        CFI CFA_SP SP+-1
        MOV     A,#0x1
        LCALL   ?XSTACK_DISP0_8
        POP     A
        CFI CFA_SP SP+0
        MOVX    @DPTR,A
        MOV     A,R3
        MOV     B,#0x3
        MUL     AB
        MOV     R0,A
        MOV     R1,B
        LCALL   ?Subroutine6 & 0xFFFF
??CrossCallReturnLabel_7:
        MOVX    A,@DPTR
        PUSH    A
        CFI CFA_SP SP+-1
        MOV     A,#0x2
        LCALL   ?XSTACK_DISP0_8
        POP     A
        CFI CFA_SP SP+0
        MOVX    @DPTR,A
        ; Setup parameters for call to function SendData
        MOV     ?V0 + 0,#0x3
        MOV     R0,#?V0 + 0
        LCALL   ?PUSH_XSTACK_I_ONE
        CFI CFA_XSP16 add(XSP16, 23)
        LCALL   ?Subroutine12 & 0xFFFF
??CrossCallReturnLabel_18:
        LCALL   ?PUSH_XSTACK_I_ONE
        CFI CFA_XSP16 add(XSP16, 24)
        LCALL   ?Subroutine8 & 0xFFFF
??CrossCallReturnLabel_93:
        MOV     A,#0x2
        LCALL   ?XSTACK_DISP0_8
        MOV     R2,DPL
        MOV     R3,DPH
        LJMP    ??sapp_controlEpProcess_13 & 0xFFFF
        CFI CFA_XSP16 add(XSP16, 22)
??sapp_controlEpProcess_12:
        MOV     ?V0 + 0,#0x0
        MOV     ?V0 + 1,#0x0
        SJMP    ??sapp_controlEpProcess_17
??sapp_controlEpProcess_18:
        MOV     A,?V0 + 0
        MOV     B,#0x21
        MUL     AB
        MOV     R0,A
        MOV     R2,B
        MOV     B,#0x21
        MOV     A,?V0 + 1
        LCALL   ?Subroutine19 & 0xFFFF
??CrossCallReturnLabel_27:
        LCALL   ?Subroutine2 & 0xFFFF
??CrossCallReturnLabel_63:
        JZ      ??sapp_controlEpProcess_19
        ; Setup parameters for indirect call
        MOV     A,R6
        MOV     R4,A
        MOV     A,R7
        MOV     R5,A
        MOV     R1,#0x4
        LCALL   ?Subroutine4 & 0xFFFF
??CrossCallReturnLabel_61:
        LCALL   ?CALL_IND
??sapp_controlEpProcess_19:
        MOV     A,?V0 + 0
        ADD     A,#0x1
        MOV     ?V0 + 0,A
        MOV     A,?V0 + 1
        ADDC    A,#0x0
        MOV     ?V0 + 1,A
??sapp_controlEpProcess_17:
        MOV     DPTR,#funcCount
        MOVX    A,@DPTR
        MOV     R0,A
        CLR     C
        MOV     A,?V0 + 0
        SUBB    A,R0
        MOV     A,?V0 + 1
        LCALL   ?Subroutine24 & 0xFFFF
??CrossCallReturnLabel_33:
        JC      ??sapp_controlEpProcess_18
??sapp_controlEpProcess_14:
        ; Setup parameters for call to function HalLedBlink
        MOV     R4,#-0x6
        MOV     R5,#0x0
        MOV     R3,#0x32
        MOV     R2,#0x1
        LJMP    ??sapp_controlEpProcess_5 & 0xFFFF
//  206         }
//  207         // return unprocessed events
//  208         return (events ^ SYS_EVENT_MSG);
??sapp_controlEpProcess_6:
        MOV     R2,?V0 + 2
        MOV     A,?V0 + 3
        XRL     A,#0x80
        MOV     R3,A
        LJMP    ??sapp_controlEpProcess_20 & 0xFFFF
//  209     }
//  210     // 定时器时间到, 遍历所有端点看是否有userTimer
//  211     if(events & SAPP_SEND_PERIODIC_MSG_EVT)
??sapp_controlEpProcess_0:
        MOV     A,R2
        MOV     C,0xE0 /* A   */.0
        JC      $+5
        LJMP    ??sapp_controlEpProcess_21 & 0xFFFF
//  212     {
//  213         int i;
//  214         uint8 hasUserTimer = 0;
        MOV     ?V0 + 0,#0x0
//  215         for(i = 0; i < funcCount; i++)
        MOV     R6,#0x0
        MOV     R7,#0x0
        SJMP    ??CrossCallReturnLabel_25
//  216         {
//  217             struct ep_info_t *ep = &funcList[i];
??sapp_controlEpProcess_22:
        MOV     A,R6
        MOV     R0,A
        MOV     A,R7
        MOV     R1,A
        MOV     A,R0
        MOV     B,#0x21
        MUL     AB
        MOV     R0,A
        MOV     R2,B
        MOV     B,#0x21
        MOV     A,R1
        LCALL   ?Subroutine19 & 0xFFFF
??CrossCallReturnLabel_28:
        ADDC    A,R1
        MOV     R3,A
//  218             if(ep->userTimer && ep->res_available)
        LCALL   ?Subroutine13 & 0xFFFF
??CrossCallReturnLabel_76:
        JZ      ??sapp_controlEpProcess_23
        LCALL   ??Subroutine28_0 & 0xFFFF
??CrossCallReturnLabel_70:
        JZ      ??sapp_controlEpProcess_23
//  219             {
//  220                 hasUserTimer = 1;
        MOV     ?V0 + 0,#0x1
//  221                 ep->userTimer = ep->userTimer - 1;
        LCALL   ?Subroutine13 & 0xFFFF
??CrossCallReturnLabel_77:
        DEC     A
        MOVX    @DPTR,A
//  222                 if(ep->userTimer <= 1)
        CLR     C
        SUBB    A,#0x2
        JNC     ??sapp_controlEpProcess_23
//  223                 {
//  224                     ep->userTimer = 0;
        CLR     A
        MOVX    @DPTR,A
//  225                     (*ep->res_available)(ep, ResUserTimer, NULL);
        ; Setup parameters for indirect call
        MOV     R4,A
        MOV     R5,A
        MOV     R1,#0x3
        MOV     DPL,R2
        MOV     DPH,R3
        INC     DPTR
        INC     DPTR
        INC     DPTR
        INC     DPTR
        INC     DPTR
        INC     DPTR
        MOVX    A,@DPTR
        MOV     R0,A
        LCALL   ??Subroutine27_0 & 0xFFFF
//  226                 }
//  227             }
//  228         }
??CrossCallReturnLabel_56:
        LCALL   ?CALL_IND
??sapp_controlEpProcess_23:
        LCALL   ?Subroutine18 & 0xFFFF
??CrossCallReturnLabel_25:
        LCALL   ?Subroutine3 & 0xFFFF
??CrossCallReturnLabel_2:
        JC      ??sapp_controlEpProcess_22
//  229         if(hasUserTimer)
        MOV     A,?V0 + 0
        MOV     C,0xE0 /* A   */.0
        JNC     ??sapp_controlEpProcess_24
//  230         {
//  231             // 重新启动定时器
//  232             osal_start_timerEx(task_id, SAPP_SEND_PERIODIC_MSG_EVT, 1000);
        ; Setup parameters for call to function osal_start_timerEx
        MOV     R4,#-0x18
        MOV     R5,#0x3
        MOV     R2,#0x1
        MOV     R3,#0x0
        MOV     R1,?V0 + 4
        LCALL   ??osal_start_timerEx?relay
        SJMP    ??sapp_controlEpProcess_25
//  233         }
//  234         else
//  235         {
//  236             isUserTimerRunning = 0;
??sapp_controlEpProcess_24:
        MOV     DPTR,#isUserTimerRunning
        CLR     A
        MOVX    @DPTR,A
//  237             osal_stop_timerEx(task_id, SAPP_SEND_PERIODIC_MSG_EVT);
        ; Setup parameters for call to function osal_stop_timerEx
        MOV     R2,#0x1
        MOV     R3,A
        MOV     R1,?V0 + 4
        LCALL   ??osal_stop_timerEx?relay
//  238         }
//  239         // return unprocessed events
//  240         return (events ^ SAPP_SEND_PERIODIC_MSG_EVT);
??sapp_controlEpProcess_25:
        MOV     A,?V0 + 2
        XRL     A,#0x1
        MOV     R2,A
        MOV     R3,?V0 + 3
        SJMP    ??sapp_controlEpProcess_20
//  241     }
//  242     // Discard unknown events
//  243     return 0;
??sapp_controlEpProcess_21:
        MOV     R2,#0x0
        MOV     R3,#0x0
??sapp_controlEpProcess_20:
        MOV     A,#0x3
        LCALL   ?DEALLOC_XSTACK8
        CFI CFA_XSP16 add(XSP16, 19)
        MOV     R7,#0xb
        LJMP    ?BANKED_LEAVE_XDATA
        CFI EndBlock cfiBlock50
//  244 }

        RSEG BANKED_CODE:CODE:NOROOT(0)
?Subroutine19:
        CFI Block cfiCond51 Using cfiCommon0
        CFI NoFunction
        CFI Conditional ??CrossCallReturnLabel_27
        CFI R6 load(1, XDATA, add(CFA_XSP16, literal(-19)))
        CFI VB load(1, XDATA, add(CFA_XSP16, literal(-18)))
        CFI V0 load(1, XDATA, add(CFA_XSP16, literal(-17)))
        CFI V1 load(1, XDATA, add(CFA_XSP16, literal(-16)))
        CFI V2 load(1, XDATA, add(CFA_XSP16, literal(-15)))
        CFI V3 load(1, XDATA, add(CFA_XSP16, literal(-14)))
        CFI V4 load(1, XDATA, add(CFA_XSP16, literal(-13)))
        CFI V5 load(1, XDATA, add(CFA_XSP16, literal(-12)))
        CFI V6 load(1, XDATA, add(CFA_XSP16, literal(-11)))
        CFI V7 load(1, XDATA, add(CFA_XSP16, literal(-10)))
        CFI V8 load(1, XDATA, add(CFA_XSP16, literal(-9)))
        CFI V9 load(1, XDATA, add(CFA_XSP16, literal(-8)))
        CFI V10 load(1, XDATA, add(CFA_XSP16, literal(-7)))
        CFI R7 load(1, XDATA, add(CFA_XSP16, literal(-6)))
        CFI ?RET_LOW load(1, XDATA, add(CFA_XSP16, literal(-5)))
        CFI ?RET_HIGH load(1, XDATA, add(CFA_XSP16, literal(-4)))
        CFI ?BRET_EXT load(1, XDATA, add(CFA_XSP16, literal(-3)))
        CFI DPL0 load(1, XDATA, add(CFA_XSP16, literal(-2)))
        CFI DPH0 load(1, XDATA, add(CFA_XSP16, literal(-1)))
        CFI CFA_SP SP+0
        CFI CFA_XSP16 add(XSP16, 22)
        CFI Block cfiCond52 Using cfiCommon0
        CFI (cfiCond52) NoFunction
        CFI (cfiCond52) Conditional ??CrossCallReturnLabel_28
        CFI (cfiCond52) R6 load(1, XDATA, add(CFA_XSP16, literal(-19)))
        CFI (cfiCond52) VB load(1, XDATA, add(CFA_XSP16, literal(-18)))
        CFI (cfiCond52) V0 load(1, XDATA, add(CFA_XSP16, literal(-17)))
        CFI (cfiCond52) V1 load(1, XDATA, add(CFA_XSP16, literal(-16)))
        CFI (cfiCond52) V2 load(1, XDATA, add(CFA_XSP16, literal(-15)))
        CFI (cfiCond52) V3 load(1, XDATA, add(CFA_XSP16, literal(-14)))
        CFI (cfiCond52) V4 load(1, XDATA, add(CFA_XSP16, literal(-13)))
        CFI (cfiCond52) V5 load(1, XDATA, add(CFA_XSP16, literal(-12)))
        CFI (cfiCond52) V6 load(1, XDATA, add(CFA_XSP16, literal(-11)))
        CFI (cfiCond52) V7 load(1, XDATA, add(CFA_XSP16, literal(-10)))
        CFI (cfiCond52) V8 load(1, XDATA, add(CFA_XSP16, literal(-9)))
        CFI (cfiCond52) V9 load(1, XDATA, add(CFA_XSP16, literal(-8)))
        CFI (cfiCond52) V10 load(1, XDATA, add(CFA_XSP16, literal(-7)))
        CFI (cfiCond52) R7 load(1, XDATA, add(CFA_XSP16, literal(-6)))
        CFI (cfiCond52) ?RET_LOW load(1, XDATA, add(CFA_XSP16, literal(-5)))
        CFI (cfiCond52) ?RET_HIGH load(1, XDATA, add(CFA_XSP16, literal(-4)))
        CFI (cfiCond52) ?BRET_EXT load(1, XDATA, add(CFA_XSP16, literal(-3)))
        CFI (cfiCond52) DPL0 load(1, XDATA, add(CFA_XSP16, literal(-2)))
        CFI (cfiCond52) DPH0 load(1, XDATA, add(CFA_XSP16, literal(-1)))
        CFI (cfiCond52) CFA_SP SP+0
        CFI (cfiCond52) CFA_XSP16 add(XSP16, 22)
        CFI Block cfiPicker53 Using cfiCommon1
        CFI (cfiPicker53) NoFunction
        CFI (cfiPicker53) Picker
        MUL     AB
        ADD     A,R2
        MOV     R1,A
        MOV     A,#funcList & 0xff
        ADD     A,R0
        MOV     R2,A
        MOV     A,#(funcList >> 8) & 0xff
        RET
        CFI EndBlock cfiCond51
        CFI EndBlock cfiCond52
        CFI EndBlock cfiPicker53

        RSEG BANKED_CODE:CODE:NOROOT(0)
?Subroutine18:
        CFI Block cfiCond54 Using cfiCommon0
        CFI NoFunction
        CFI Conditional ??CrossCallReturnLabel_23
        CFI R6 load(1, XDATA, add(CFA_XSP16, literal(-10)))
        CFI VB load(1, XDATA, add(CFA_XSP16, literal(-9)))
        CFI V0 load(1, XDATA, add(CFA_XSP16, literal(-8)))
        CFI V1 load(1, XDATA, add(CFA_XSP16, literal(-7)))
        CFI R7 load(1, XDATA, add(CFA_XSP16, literal(-6)))
        CFI ?RET_LOW load(1, XDATA, add(CFA_XSP16, literal(-5)))
        CFI ?RET_HIGH load(1, XDATA, add(CFA_XSP16, literal(-4)))
        CFI ?BRET_EXT load(1, XDATA, add(CFA_XSP16, literal(-3)))
        CFI DPL0 load(1, XDATA, add(CFA_XSP16, literal(-2)))
        CFI DPH0 load(1, XDATA, add(CFA_XSP16, literal(-1)))
        CFI CFA_SP SP+0
        CFI CFA_XSP16 add(XSP16, 10)
        CFI Block cfiCond55 Using cfiCommon0
        CFI (cfiCond55) NoFunction
        CFI (cfiCond55) Conditional ??CrossCallReturnLabel_24
        CFI (cfiCond55) R6 load(1, XDATA, add(CFA_XSP16, literal(-10)))
        CFI (cfiCond55) VB load(1, XDATA, add(CFA_XSP16, literal(-9)))
        CFI (cfiCond55) V0 load(1, XDATA, add(CFA_XSP16, literal(-8)))
        CFI (cfiCond55) V1 load(1, XDATA, add(CFA_XSP16, literal(-7)))
        CFI (cfiCond55) R7 load(1, XDATA, add(CFA_XSP16, literal(-6)))
        CFI (cfiCond55) ?RET_LOW load(1, XDATA, add(CFA_XSP16, literal(-5)))
        CFI (cfiCond55) ?RET_HIGH load(1, XDATA, add(CFA_XSP16, literal(-4)))
        CFI (cfiCond55) ?BRET_EXT load(1, XDATA, add(CFA_XSP16, literal(-3)))
        CFI (cfiCond55) DPL0 load(1, XDATA, add(CFA_XSP16, literal(-2)))
        CFI (cfiCond55) DPH0 load(1, XDATA, add(CFA_XSP16, literal(-1)))
        CFI (cfiCond55) CFA_SP SP+0
        CFI (cfiCond55) CFA_XSP16 add(XSP16, 10)
        CFI Block cfiCond56 Using cfiCommon0
        CFI (cfiCond56) NoFunction
        CFI (cfiCond56) Conditional ??CrossCallReturnLabel_25
        CFI (cfiCond56) R6 load(1, XDATA, add(CFA_XSP16, literal(-19)))
        CFI (cfiCond56) VB load(1, XDATA, add(CFA_XSP16, literal(-18)))
        CFI (cfiCond56) V0 load(1, XDATA, add(CFA_XSP16, literal(-17)))
        CFI (cfiCond56) V1 load(1, XDATA, add(CFA_XSP16, literal(-16)))
        CFI (cfiCond56) V2 load(1, XDATA, add(CFA_XSP16, literal(-15)))
        CFI (cfiCond56) V3 load(1, XDATA, add(CFA_XSP16, literal(-14)))
        CFI (cfiCond56) V4 load(1, XDATA, add(CFA_XSP16, literal(-13)))
        CFI (cfiCond56) V5 load(1, XDATA, add(CFA_XSP16, literal(-12)))
        CFI (cfiCond56) V6 load(1, XDATA, add(CFA_XSP16, literal(-11)))
        CFI (cfiCond56) V7 load(1, XDATA, add(CFA_XSP16, literal(-10)))
        CFI (cfiCond56) V8 load(1, XDATA, add(CFA_XSP16, literal(-9)))
        CFI (cfiCond56) V9 load(1, XDATA, add(CFA_XSP16, literal(-8)))
        CFI (cfiCond56) V10 load(1, XDATA, add(CFA_XSP16, literal(-7)))
        CFI (cfiCond56) R7 load(1, XDATA, add(CFA_XSP16, literal(-6)))
        CFI (cfiCond56) ?RET_LOW load(1, XDATA, add(CFA_XSP16, literal(-5)))
        CFI (cfiCond56) ?RET_HIGH load(1, XDATA, add(CFA_XSP16, literal(-4)))
        CFI (cfiCond56) ?BRET_EXT load(1, XDATA, add(CFA_XSP16, literal(-3)))
        CFI (cfiCond56) DPL0 load(1, XDATA, add(CFA_XSP16, literal(-2)))
        CFI (cfiCond56) DPH0 load(1, XDATA, add(CFA_XSP16, literal(-1)))
        CFI (cfiCond56) CFA_SP SP+0
        CFI (cfiCond56) CFA_XSP16 add(XSP16, 22)
        CFI Block cfiCond57 Using cfiCommon0
        CFI (cfiCond57) NoFunction
        CFI (cfiCond57) Conditional ??CrossCallReturnLabel_26
        CFI (cfiCond57) R6 load(1, XDATA, add(CFA_XSP16, literal(-17)))
        CFI (cfiCond57) VB load(1, XDATA, add(CFA_XSP16, literal(-16)))
        CFI (cfiCond57) V0 load(1, XDATA, add(CFA_XSP16, literal(-15)))
        CFI (cfiCond57) V1 load(1, XDATA, add(CFA_XSP16, literal(-14)))
        CFI (cfiCond57) V2 load(1, XDATA, add(CFA_XSP16, literal(-13)))
        CFI (cfiCond57) V3 load(1, XDATA, add(CFA_XSP16, literal(-12)))
        CFI (cfiCond57) V4 load(1, XDATA, add(CFA_XSP16, literal(-11)))
        CFI (cfiCond57) V5 load(1, XDATA, add(CFA_XSP16, literal(-10)))
        CFI (cfiCond57) V6 load(1, XDATA, add(CFA_XSP16, literal(-9)))
        CFI (cfiCond57) V7 load(1, XDATA, add(CFA_XSP16, literal(-8)))
        CFI (cfiCond57) V8 load(1, XDATA, add(CFA_XSP16, literal(-7)))
        CFI (cfiCond57) R7 load(1, XDATA, add(CFA_XSP16, literal(-6)))
        CFI (cfiCond57) ?RET_LOW load(1, XDATA, add(CFA_XSP16, literal(-5)))
        CFI (cfiCond57) ?RET_HIGH load(1, XDATA, add(CFA_XSP16, literal(-4)))
        CFI (cfiCond57) ?BRET_EXT load(1, XDATA, add(CFA_XSP16, literal(-3)))
        CFI (cfiCond57) DPL0 load(1, XDATA, add(CFA_XSP16, literal(-2)))
        CFI (cfiCond57) DPH0 load(1, XDATA, add(CFA_XSP16, literal(-1)))
        CFI (cfiCond57) CFA_SP SP+0
        CFI (cfiCond57) CFA_XSP16 add(XSP16, 17)
        CFI Block cfiPicker58 Using cfiCommon1
        CFI (cfiPicker58) NoFunction
        CFI (cfiPicker58) Picker
        MOV     A,R6
        ADD     A,#0x1
        INC     R6
        MOV     A,R7
        ADDC    A,#0x0
        MOV     R7,A
        RET
        CFI EndBlock cfiCond54
        CFI EndBlock cfiCond55
        CFI EndBlock cfiCond56
        CFI EndBlock cfiCond57
        CFI EndBlock cfiPicker58

        RSEG BANKED_CODE:CODE:NOROOT(0)
?Subroutine12:
        CFI Block cfiCond59 Using cfiCommon0
        CFI NoFunction
        CFI Conditional ??CrossCallReturnLabel_16
        CFI R6 load(1, XDATA, add(CFA_XSP16, literal(-19)))
        CFI VB load(1, XDATA, add(CFA_XSP16, literal(-18)))
        CFI V0 load(1, XDATA, add(CFA_XSP16, literal(-17)))
        CFI V1 load(1, XDATA, add(CFA_XSP16, literal(-16)))
        CFI V2 load(1, XDATA, add(CFA_XSP16, literal(-15)))
        CFI V3 load(1, XDATA, add(CFA_XSP16, literal(-14)))
        CFI V4 load(1, XDATA, add(CFA_XSP16, literal(-13)))
        CFI V5 load(1, XDATA, add(CFA_XSP16, literal(-12)))
        CFI V6 load(1, XDATA, add(CFA_XSP16, literal(-11)))
        CFI V7 load(1, XDATA, add(CFA_XSP16, literal(-10)))
        CFI V8 load(1, XDATA, add(CFA_XSP16, literal(-9)))
        CFI V9 load(1, XDATA, add(CFA_XSP16, literal(-8)))
        CFI V10 load(1, XDATA, add(CFA_XSP16, literal(-7)))
        CFI R7 load(1, XDATA, add(CFA_XSP16, literal(-6)))
        CFI ?RET_LOW load(1, XDATA, add(CFA_XSP16, literal(-5)))
        CFI ?RET_HIGH load(1, XDATA, add(CFA_XSP16, literal(-4)))
        CFI ?BRET_EXT load(1, XDATA, add(CFA_XSP16, literal(-3)))
        CFI DPL0 load(1, XDATA, add(CFA_XSP16, literal(-2)))
        CFI DPH0 load(1, XDATA, add(CFA_XSP16, literal(-1)))
        CFI CFA_SP SP+0
        CFI CFA_XSP16 add(XSP16, 23)
        CFI Block cfiCond60 Using cfiCommon0
        CFI (cfiCond60) NoFunction
        CFI (cfiCond60) Conditional ??CrossCallReturnLabel_17
        CFI (cfiCond60) R6 load(1, XDATA, add(CFA_XSP16, literal(-19)))
        CFI (cfiCond60) VB load(1, XDATA, add(CFA_XSP16, literal(-18)))
        CFI (cfiCond60) V0 load(1, XDATA, add(CFA_XSP16, literal(-17)))
        CFI (cfiCond60) V1 load(1, XDATA, add(CFA_XSP16, literal(-16)))
        CFI (cfiCond60) V2 load(1, XDATA, add(CFA_XSP16, literal(-15)))
        CFI (cfiCond60) V3 load(1, XDATA, add(CFA_XSP16, literal(-14)))
        CFI (cfiCond60) V4 load(1, XDATA, add(CFA_XSP16, literal(-13)))
        CFI (cfiCond60) V5 load(1, XDATA, add(CFA_XSP16, literal(-12)))
        CFI (cfiCond60) V6 load(1, XDATA, add(CFA_XSP16, literal(-11)))
        CFI (cfiCond60) V7 load(1, XDATA, add(CFA_XSP16, literal(-10)))
        CFI (cfiCond60) V8 load(1, XDATA, add(CFA_XSP16, literal(-9)))
        CFI (cfiCond60) V9 load(1, XDATA, add(CFA_XSP16, literal(-8)))
        CFI (cfiCond60) V10 load(1, XDATA, add(CFA_XSP16, literal(-7)))
        CFI (cfiCond60) R7 load(1, XDATA, add(CFA_XSP16, literal(-6)))
        CFI (cfiCond60) ?RET_LOW load(1, XDATA, add(CFA_XSP16, literal(-5)))
        CFI (cfiCond60) ?RET_HIGH load(1, XDATA, add(CFA_XSP16, literal(-4)))
        CFI (cfiCond60) ?BRET_EXT load(1, XDATA, add(CFA_XSP16, literal(-3)))
        CFI (cfiCond60) DPL0 load(1, XDATA, add(CFA_XSP16, literal(-2)))
        CFI (cfiCond60) DPH0 load(1, XDATA, add(CFA_XSP16, literal(-1)))
        CFI (cfiCond60) CFA_SP SP+0
        CFI (cfiCond60) CFA_XSP16 add(XSP16, 23)
        CFI Block cfiCond61 Using cfiCommon0
        CFI (cfiCond61) NoFunction
        CFI (cfiCond61) Conditional ??CrossCallReturnLabel_18
        CFI (cfiCond61) R6 load(1, XDATA, add(CFA_XSP16, literal(-19)))
        CFI (cfiCond61) VB load(1, XDATA, add(CFA_XSP16, literal(-18)))
        CFI (cfiCond61) V0 load(1, XDATA, add(CFA_XSP16, literal(-17)))
        CFI (cfiCond61) V1 load(1, XDATA, add(CFA_XSP16, literal(-16)))
        CFI (cfiCond61) V2 load(1, XDATA, add(CFA_XSP16, literal(-15)))
        CFI (cfiCond61) V3 load(1, XDATA, add(CFA_XSP16, literal(-14)))
        CFI (cfiCond61) V4 load(1, XDATA, add(CFA_XSP16, literal(-13)))
        CFI (cfiCond61) V5 load(1, XDATA, add(CFA_XSP16, literal(-12)))
        CFI (cfiCond61) V6 load(1, XDATA, add(CFA_XSP16, literal(-11)))
        CFI (cfiCond61) V7 load(1, XDATA, add(CFA_XSP16, literal(-10)))
        CFI (cfiCond61) V8 load(1, XDATA, add(CFA_XSP16, literal(-9)))
        CFI (cfiCond61) V9 load(1, XDATA, add(CFA_XSP16, literal(-8)))
        CFI (cfiCond61) V10 load(1, XDATA, add(CFA_XSP16, literal(-7)))
        CFI (cfiCond61) R7 load(1, XDATA, add(CFA_XSP16, literal(-6)))
        CFI (cfiCond61) ?RET_LOW load(1, XDATA, add(CFA_XSP16, literal(-5)))
        CFI (cfiCond61) ?RET_HIGH load(1, XDATA, add(CFA_XSP16, literal(-4)))
        CFI (cfiCond61) ?BRET_EXT load(1, XDATA, add(CFA_XSP16, literal(-3)))
        CFI (cfiCond61) DPL0 load(1, XDATA, add(CFA_XSP16, literal(-2)))
        CFI (cfiCond61) DPH0 load(1, XDATA, add(CFA_XSP16, literal(-1)))
        CFI (cfiCond61) CFA_SP SP+0
        CFI (cfiCond61) CFA_XSP16 add(XSP16, 23)
        CFI Block cfiPicker62 Using cfiCommon1
        CFI (cfiPicker62) NoFunction
        CFI (cfiPicker62) Picker
        MOV     A,R6
        ADD     A,#0xf
        MOV     DPL,A
        MOV     A,R7
        LCALL   ??Subroutine35_0 & 0xFFFF
??CrossCallReturnLabel_83:
        MOVX    A,@DPTR
        MOV     ?V0 + 0,A
        MOV     R0,#?V0 + 0
        RET
        CFI EndBlock cfiCond59
        CFI EndBlock cfiCond60
        CFI EndBlock cfiCond61
        CFI EndBlock cfiPicker62

        RSEG BANKED_CODE:CODE:NOROOT(0)
?Subroutine6:
        CFI Block cfiCond63 Using cfiCommon0
        CFI NoFunction
        CFI Conditional ??CrossCallReturnLabel_6
        CFI R6 load(1, XDATA, add(CFA_XSP16, literal(-10)))
        CFI VB load(1, XDATA, add(CFA_XSP16, literal(-9)))
        CFI V0 load(1, XDATA, add(CFA_XSP16, literal(-8)))
        CFI V1 load(1, XDATA, add(CFA_XSP16, literal(-7)))
        CFI R7 load(1, XDATA, add(CFA_XSP16, literal(-6)))
        CFI ?RET_LOW load(1, XDATA, add(CFA_XSP16, literal(-5)))
        CFI ?RET_HIGH load(1, XDATA, add(CFA_XSP16, literal(-4)))
        CFI ?BRET_EXT load(1, XDATA, add(CFA_XSP16, literal(-3)))
        CFI DPL0 load(1, XDATA, add(CFA_XSP16, literal(-2)))
        CFI DPH0 load(1, XDATA, add(CFA_XSP16, literal(-1)))
        CFI CFA_SP SP+-1
        CFI CFA_XSP16 add(XSP16, 10)
        CFI Block cfiCond64 Using cfiCommon0
        CFI (cfiCond64) NoFunction
        CFI (cfiCond64) Conditional ??CrossCallReturnLabel_7
        CFI (cfiCond64) R6 load(1, XDATA, add(CFA_XSP16, literal(-19)))
        CFI (cfiCond64) VB load(1, XDATA, add(CFA_XSP16, literal(-18)))
        CFI (cfiCond64) V0 load(1, XDATA, add(CFA_XSP16, literal(-17)))
        CFI (cfiCond64) V1 load(1, XDATA, add(CFA_XSP16, literal(-16)))
        CFI (cfiCond64) V2 load(1, XDATA, add(CFA_XSP16, literal(-15)))
        CFI (cfiCond64) V3 load(1, XDATA, add(CFA_XSP16, literal(-14)))
        CFI (cfiCond64) V4 load(1, XDATA, add(CFA_XSP16, literal(-13)))
        CFI (cfiCond64) V5 load(1, XDATA, add(CFA_XSP16, literal(-12)))
        CFI (cfiCond64) V6 load(1, XDATA, add(CFA_XSP16, literal(-11)))
        CFI (cfiCond64) V7 load(1, XDATA, add(CFA_XSP16, literal(-10)))
        CFI (cfiCond64) V8 load(1, XDATA, add(CFA_XSP16, literal(-9)))
        CFI (cfiCond64) V9 load(1, XDATA, add(CFA_XSP16, literal(-8)))
        CFI (cfiCond64) V10 load(1, XDATA, add(CFA_XSP16, literal(-7)))
        CFI (cfiCond64) R7 load(1, XDATA, add(CFA_XSP16, literal(-6)))
        CFI (cfiCond64) ?RET_LOW load(1, XDATA, add(CFA_XSP16, literal(-5)))
        CFI (cfiCond64) ?RET_HIGH load(1, XDATA, add(CFA_XSP16, literal(-4)))
        CFI (cfiCond64) ?BRET_EXT load(1, XDATA, add(CFA_XSP16, literal(-3)))
        CFI (cfiCond64) DPL0 load(1, XDATA, add(CFA_XSP16, literal(-2)))
        CFI (cfiCond64) DPH0 load(1, XDATA, add(CFA_XSP16, literal(-1)))
        CFI (cfiCond64) CFA_SP SP+0
        CFI (cfiCond64) CFA_XSP16 add(XSP16, 22)
        CFI Block cfiPicker65 Using cfiCommon1
        CFI (cfiPicker65) NoFunction
        CFI (cfiPicker65) Picker
        LCALL   ?Subroutine21 & 0xFFFF
??CrossCallReturnLabel_30:
        INC     DPTR
        INC     DPTR
        INC     DPTR
        INC     DPTR
        RET
        CFI EndBlock cfiCond63
        CFI EndBlock cfiCond64
        CFI EndBlock cfiPicker65

        RSEG BANKED_CODE:CODE:NOROOT(0)
?Subroutine21:
        CFI Block cfiCond66 Using cfiCommon0
        CFI NoFunction
        CFI Conditional ??CrossCallReturnLabel_29
        CFI R6 load(1, XDATA, add(CFA_XSP16, literal(-19)))
        CFI VB load(1, XDATA, add(CFA_XSP16, literal(-18)))
        CFI V0 load(1, XDATA, add(CFA_XSP16, literal(-17)))
        CFI V1 load(1, XDATA, add(CFA_XSP16, literal(-16)))
        CFI V2 load(1, XDATA, add(CFA_XSP16, literal(-15)))
        CFI V3 load(1, XDATA, add(CFA_XSP16, literal(-14)))
        CFI V4 load(1, XDATA, add(CFA_XSP16, literal(-13)))
        CFI V5 load(1, XDATA, add(CFA_XSP16, literal(-12)))
        CFI V6 load(1, XDATA, add(CFA_XSP16, literal(-11)))
        CFI V7 load(1, XDATA, add(CFA_XSP16, literal(-10)))
        CFI V8 load(1, XDATA, add(CFA_XSP16, literal(-9)))
        CFI V9 load(1, XDATA, add(CFA_XSP16, literal(-8)))
        CFI V10 load(1, XDATA, add(CFA_XSP16, literal(-7)))
        CFI R7 load(1, XDATA, add(CFA_XSP16, literal(-6)))
        CFI ?RET_LOW load(1, XDATA, add(CFA_XSP16, literal(-5)))
        CFI ?RET_HIGH load(1, XDATA, add(CFA_XSP16, literal(-4)))
        CFI ?BRET_EXT load(1, XDATA, add(CFA_XSP16, literal(-3)))
        CFI DPL0 load(1, XDATA, add(CFA_XSP16, literal(-2)))
        CFI DPH0 load(1, XDATA, add(CFA_XSP16, literal(-1)))
        CFI CFA_SP SP+0
        CFI CFA_XSP16 add(XSP16, 22)
        CFI Block cfiCond67 Using cfiCommon0
        CFI (cfiCond67) NoFunction
        CFI (cfiCond67) Conditional ??CrossCallReturnLabel_30, ??CrossCallReturnLabel_6
        CFI (cfiCond67) R6 load(1, XDATA, add(CFA_XSP16, literal(-10)))
        CFI (cfiCond67) VB load(1, XDATA, add(CFA_XSP16, literal(-9)))
        CFI (cfiCond67) V0 load(1, XDATA, add(CFA_XSP16, literal(-8)))
        CFI (cfiCond67) V1 load(1, XDATA, add(CFA_XSP16, literal(-7)))
        CFI (cfiCond67) R7 load(1, XDATA, add(CFA_XSP16, literal(-6)))
        CFI (cfiCond67) ?RET_LOW load(1, XDATA, add(CFA_XSP16, literal(-5)))
        CFI (cfiCond67) ?RET_HIGH load(1, XDATA, add(CFA_XSP16, literal(-4)))
        CFI (cfiCond67) ?BRET_EXT load(1, XDATA, add(CFA_XSP16, literal(-3)))
        CFI (cfiCond67) DPL0 load(1, XDATA, add(CFA_XSP16, literal(-2)))
        CFI (cfiCond67) DPH0 load(1, XDATA, add(CFA_XSP16, literal(-1)))
        CFI (cfiCond67) CFA_SP SP+-1
        CFI (cfiCond67) CFA_XSP16 add(XSP16, 10)
        CFI Block cfiCond68 Using cfiCommon0
        CFI (cfiCond68) NoFunction
        CFI (cfiCond68) Conditional ??CrossCallReturnLabel_30, ??CrossCallReturnLabel_7
        CFI (cfiCond68) R6 load(1, XDATA, add(CFA_XSP16, literal(-19)))
        CFI (cfiCond68) VB load(1, XDATA, add(CFA_XSP16, literal(-18)))
        CFI (cfiCond68) V0 load(1, XDATA, add(CFA_XSP16, literal(-17)))
        CFI (cfiCond68) V1 load(1, XDATA, add(CFA_XSP16, literal(-16)))
        CFI (cfiCond68) V2 load(1, XDATA, add(CFA_XSP16, literal(-15)))
        CFI (cfiCond68) V3 load(1, XDATA, add(CFA_XSP16, literal(-14)))
        CFI (cfiCond68) V4 load(1, XDATA, add(CFA_XSP16, literal(-13)))
        CFI (cfiCond68) V5 load(1, XDATA, add(CFA_XSP16, literal(-12)))
        CFI (cfiCond68) V6 load(1, XDATA, add(CFA_XSP16, literal(-11)))
        CFI (cfiCond68) V7 load(1, XDATA, add(CFA_XSP16, literal(-10)))
        CFI (cfiCond68) V8 load(1, XDATA, add(CFA_XSP16, literal(-9)))
        CFI (cfiCond68) V9 load(1, XDATA, add(CFA_XSP16, literal(-8)))
        CFI (cfiCond68) V10 load(1, XDATA, add(CFA_XSP16, literal(-7)))
        CFI (cfiCond68) R7 load(1, XDATA, add(CFA_XSP16, literal(-6)))
        CFI (cfiCond68) ?RET_LOW load(1, XDATA, add(CFA_XSP16, literal(-5)))
        CFI (cfiCond68) ?RET_HIGH load(1, XDATA, add(CFA_XSP16, literal(-4)))
        CFI (cfiCond68) ?BRET_EXT load(1, XDATA, add(CFA_XSP16, literal(-3)))
        CFI (cfiCond68) DPL0 load(1, XDATA, add(CFA_XSP16, literal(-2)))
        CFI (cfiCond68) DPH0 load(1, XDATA, add(CFA_XSP16, literal(-1)))
        CFI (cfiCond68) CFA_SP SP+0
        CFI (cfiCond68) CFA_XSP16 add(XSP16, 22)
        CFI Block cfiPicker69 Using cfiCommon1
        CFI (cfiPicker69) NoFunction
        CFI (cfiPicker69) Picker
        MOV     DPTR,#funcTableBuffer
        MOVX    A,@DPTR
        ADD     A,R0
        MOV     R2,A
        INC     DPTR
        MOVX    A,@DPTR
        ADDC    A,R1
        MOV     DPL,R2
        MOV     DPH,A
        RET
        CFI EndBlock cfiCond66
        CFI EndBlock cfiCond67
        CFI EndBlock cfiCond68
        CFI EndBlock cfiPicker69

        RSEG BANKED_CODE:CODE:NOROOT(0)
?Subroutine5:
        CFI Block cfiCond70 Using cfiCommon0
        CFI NoFunction
        CFI Conditional ??CrossCallReturnLabel_4
        CFI R6 load(1, XDATA, add(CFA_XSP16, literal(-19)))
        CFI VB load(1, XDATA, add(CFA_XSP16, literal(-18)))
        CFI V0 load(1, XDATA, add(CFA_XSP16, literal(-17)))
        CFI V1 load(1, XDATA, add(CFA_XSP16, literal(-16)))
        CFI V2 load(1, XDATA, add(CFA_XSP16, literal(-15)))
        CFI V3 load(1, XDATA, add(CFA_XSP16, literal(-14)))
        CFI V4 load(1, XDATA, add(CFA_XSP16, literal(-13)))
        CFI V5 load(1, XDATA, add(CFA_XSP16, literal(-12)))
        CFI V6 load(1, XDATA, add(CFA_XSP16, literal(-11)))
        CFI V7 load(1, XDATA, add(CFA_XSP16, literal(-10)))
        CFI V8 load(1, XDATA, add(CFA_XSP16, literal(-9)))
        CFI V9 load(1, XDATA, add(CFA_XSP16, literal(-8)))
        CFI V10 load(1, XDATA, add(CFA_XSP16, literal(-7)))
        CFI R7 load(1, XDATA, add(CFA_XSP16, literal(-6)))
        CFI ?RET_LOW load(1, XDATA, add(CFA_XSP16, literal(-5)))
        CFI ?RET_HIGH load(1, XDATA, add(CFA_XSP16, literal(-4)))
        CFI ?BRET_EXT load(1, XDATA, add(CFA_XSP16, literal(-3)))
        CFI DPL0 load(1, XDATA, add(CFA_XSP16, literal(-2)))
        CFI DPH0 load(1, XDATA, add(CFA_XSP16, literal(-1)))
        CFI CFA_SP SP+0
        CFI CFA_XSP16 add(XSP16, 22)
        CFI Block cfiCond71 Using cfiCommon0
        CFI (cfiCond71) NoFunction
        CFI (cfiCond71) Conditional ??CrossCallReturnLabel_5
        CFI (cfiCond71) R6 load(1, XDATA, add(CFA_XSP16, literal(-19)))
        CFI (cfiCond71) VB load(1, XDATA, add(CFA_XSP16, literal(-18)))
        CFI (cfiCond71) V0 load(1, XDATA, add(CFA_XSP16, literal(-17)))
        CFI (cfiCond71) V1 load(1, XDATA, add(CFA_XSP16, literal(-16)))
        CFI (cfiCond71) V2 load(1, XDATA, add(CFA_XSP16, literal(-15)))
        CFI (cfiCond71) V3 load(1, XDATA, add(CFA_XSP16, literal(-14)))
        CFI (cfiCond71) V4 load(1, XDATA, add(CFA_XSP16, literal(-13)))
        CFI (cfiCond71) V5 load(1, XDATA, add(CFA_XSP16, literal(-12)))
        CFI (cfiCond71) V6 load(1, XDATA, add(CFA_XSP16, literal(-11)))
        CFI (cfiCond71) V7 load(1, XDATA, add(CFA_XSP16, literal(-10)))
        CFI (cfiCond71) V8 load(1, XDATA, add(CFA_XSP16, literal(-9)))
        CFI (cfiCond71) V9 load(1, XDATA, add(CFA_XSP16, literal(-8)))
        CFI (cfiCond71) V10 load(1, XDATA, add(CFA_XSP16, literal(-7)))
        CFI (cfiCond71) R7 load(1, XDATA, add(CFA_XSP16, literal(-6)))
        CFI (cfiCond71) ?RET_LOW load(1, XDATA, add(CFA_XSP16, literal(-5)))
        CFI (cfiCond71) ?RET_HIGH load(1, XDATA, add(CFA_XSP16, literal(-4)))
        CFI (cfiCond71) ?BRET_EXT load(1, XDATA, add(CFA_XSP16, literal(-3)))
        CFI (cfiCond71) DPL0 load(1, XDATA, add(CFA_XSP16, literal(-2)))
        CFI (cfiCond71) DPH0 load(1, XDATA, add(CFA_XSP16, literal(-1)))
        CFI (cfiCond71) CFA_SP SP+0
        CFI (cfiCond71) CFA_XSP16 add(XSP16, 22)
        CFI Block cfiPicker72 Using cfiCommon1
        CFI (cfiPicker72) NoFunction
        CFI (cfiPicker72) Picker
        INC     DPTR
        INC     DPTR
        MOVX    A,@DPTR
        MOV     R0,A
        MOV     A,R6
        ADD     A,#0x22
        MOV     DPL,A
        MOV     A,R7
        LCALL   ??Subroutine35_0 & 0xFFFF
??CrossCallReturnLabel_82:
        MOVX    A,@DPTR
        MOV     R1,A
        INC     DPTR
        MOVX    A,@DPTR
        MOV     DPH,A
        MOV     DPL,R1
        INC     DPTR
        RET
        CFI EndBlock cfiCond70
        CFI EndBlock cfiCond71
        CFI EndBlock cfiPicker72

        RSEG BANKED_CODE:CODE:NOROOT(0)
?Subroutine4:
        CFI Block cfiCond73 Using cfiCommon0
        CFI NoFunction
        CFI Conditional ??CrossCallReturnLabel_60
        CFI R6 load(1, XDATA, add(CFA_XSP16, literal(-10)))
        CFI VB load(1, XDATA, add(CFA_XSP16, literal(-9)))
        CFI V0 load(1, XDATA, add(CFA_XSP16, literal(-8)))
        CFI V1 load(1, XDATA, add(CFA_XSP16, literal(-7)))
        CFI R7 load(1, XDATA, add(CFA_XSP16, literal(-6)))
        CFI ?RET_LOW load(1, XDATA, add(CFA_XSP16, literal(-5)))
        CFI ?RET_HIGH load(1, XDATA, add(CFA_XSP16, literal(-4)))
        CFI ?BRET_EXT load(1, XDATA, add(CFA_XSP16, literal(-3)))
        CFI DPL0 load(1, XDATA, add(CFA_XSP16, literal(-2)))
        CFI DPH0 load(1, XDATA, add(CFA_XSP16, literal(-1)))
        CFI CFA_SP SP+0
        CFI CFA_XSP16 add(XSP16, 10)
        CFI Block cfiCond74 Using cfiCommon0
        CFI (cfiCond74) NoFunction
        CFI (cfiCond74) Conditional ??CrossCallReturnLabel_61
        CFI (cfiCond74) R6 load(1, XDATA, add(CFA_XSP16, literal(-19)))
        CFI (cfiCond74) VB load(1, XDATA, add(CFA_XSP16, literal(-18)))
        CFI (cfiCond74) V0 load(1, XDATA, add(CFA_XSP16, literal(-17)))
        CFI (cfiCond74) V1 load(1, XDATA, add(CFA_XSP16, literal(-16)))
        CFI (cfiCond74) V2 load(1, XDATA, add(CFA_XSP16, literal(-15)))
        CFI (cfiCond74) V3 load(1, XDATA, add(CFA_XSP16, literal(-14)))
        CFI (cfiCond74) V4 load(1, XDATA, add(CFA_XSP16, literal(-13)))
        CFI (cfiCond74) V5 load(1, XDATA, add(CFA_XSP16, literal(-12)))
        CFI (cfiCond74) V6 load(1, XDATA, add(CFA_XSP16, literal(-11)))
        CFI (cfiCond74) V7 load(1, XDATA, add(CFA_XSP16, literal(-10)))
        CFI (cfiCond74) V8 load(1, XDATA, add(CFA_XSP16, literal(-9)))
        CFI (cfiCond74) V9 load(1, XDATA, add(CFA_XSP16, literal(-8)))
        CFI (cfiCond74) V10 load(1, XDATA, add(CFA_XSP16, literal(-7)))
        CFI (cfiCond74) R7 load(1, XDATA, add(CFA_XSP16, literal(-6)))
        CFI (cfiCond74) ?RET_LOW load(1, XDATA, add(CFA_XSP16, literal(-5)))
        CFI (cfiCond74) ?RET_HIGH load(1, XDATA, add(CFA_XSP16, literal(-4)))
        CFI (cfiCond74) ?BRET_EXT load(1, XDATA, add(CFA_XSP16, literal(-3)))
        CFI (cfiCond74) DPL0 load(1, XDATA, add(CFA_XSP16, literal(-2)))
        CFI (cfiCond74) DPH0 load(1, XDATA, add(CFA_XSP16, literal(-1)))
        CFI (cfiCond74) CFA_SP SP+0
        CFI (cfiCond74) CFA_XSP16 add(XSP16, 22)
        CFI Block cfiCond75 Using cfiCommon0
        CFI (cfiCond75) NoFunction
        CFI (cfiCond75) Conditional ??CrossCallReturnLabel_62
        CFI (cfiCond75) R6 load(1, XDATA, add(CFA_XSP16, literal(-17)))
        CFI (cfiCond75) VB load(1, XDATA, add(CFA_XSP16, literal(-16)))
        CFI (cfiCond75) V0 load(1, XDATA, add(CFA_XSP16, literal(-15)))
        CFI (cfiCond75) V1 load(1, XDATA, add(CFA_XSP16, literal(-14)))
        CFI (cfiCond75) V2 load(1, XDATA, add(CFA_XSP16, literal(-13)))
        CFI (cfiCond75) V3 load(1, XDATA, add(CFA_XSP16, literal(-12)))
        CFI (cfiCond75) V4 load(1, XDATA, add(CFA_XSP16, literal(-11)))
        CFI (cfiCond75) V5 load(1, XDATA, add(CFA_XSP16, literal(-10)))
        CFI (cfiCond75) V6 load(1, XDATA, add(CFA_XSP16, literal(-9)))
        CFI (cfiCond75) V7 load(1, XDATA, add(CFA_XSP16, literal(-8)))
        CFI (cfiCond75) V8 load(1, XDATA, add(CFA_XSP16, literal(-7)))
        CFI (cfiCond75) R7 load(1, XDATA, add(CFA_XSP16, literal(-6)))
        CFI (cfiCond75) ?RET_LOW load(1, XDATA, add(CFA_XSP16, literal(-5)))
        CFI (cfiCond75) ?RET_HIGH load(1, XDATA, add(CFA_XSP16, literal(-4)))
        CFI (cfiCond75) ?BRET_EXT load(1, XDATA, add(CFA_XSP16, literal(-3)))
        CFI (cfiCond75) DPL0 load(1, XDATA, add(CFA_XSP16, literal(-2)))
        CFI (cfiCond75) DPH0 load(1, XDATA, add(CFA_XSP16, literal(-1)))
        CFI (cfiCond75) CFA_SP SP+0
        CFI (cfiCond75) CFA_XSP16 add(XSP16, 17)
        CFI Block cfiPicker76 Using cfiCommon1
        CFI (cfiPicker76) NoFunction
        CFI (cfiPicker76) Picker
        MOV     DPL,R2
        MOV     DPH,R3
        INC     DPTR
        INC     DPTR
        INC     DPTR
        INC     DPTR
        INC     DPTR
        INC     DPTR
        CFI EndBlock cfiCond73
        CFI EndBlock cfiCond74
        CFI EndBlock cfiCond75
        CFI EndBlock cfiPicker76
        REQUIRE ??Subroutine27_0
        ; // Fall through to label ??Subroutine27_0

        RSEG BANKED_CODE:CODE:NOROOT(0)
??Subroutine27_0:
        CFI Block cfiCond77 Using cfiCommon0
        CFI NoFunction
        CFI Conditional ??CrossCallReturnLabel_52
        CFI R6 load(1, XDATA, add(CFA_XSP16, literal(-10)))
        CFI VB load(1, XDATA, add(CFA_XSP16, literal(-9)))
        CFI V0 load(1, XDATA, add(CFA_XSP16, literal(-8)))
        CFI V1 load(1, XDATA, add(CFA_XSP16, literal(-7)))
        CFI R7 load(1, XDATA, add(CFA_XSP16, literal(-6)))
        CFI ?RET_LOW load(1, XDATA, add(CFA_XSP16, literal(-5)))
        CFI ?RET_HIGH load(1, XDATA, add(CFA_XSP16, literal(-4)))
        CFI ?BRET_EXT load(1, XDATA, add(CFA_XSP16, literal(-3)))
        CFI DPL0 load(1, XDATA, add(CFA_XSP16, literal(-2)))
        CFI DPH0 load(1, XDATA, add(CFA_XSP16, literal(-1)))
        CFI CFA_SP SP+0
        CFI CFA_XSP16 add(XSP16, 10)
        CFI Block cfiCond78 Using cfiCommon0
        CFI (cfiCond78) NoFunction
        CFI (cfiCond78) Conditional ??CrossCallReturnLabel_53
        CFI (cfiCond78) R6 load(1, XDATA, add(CFA_XSP16, literal(-10)))
        CFI (cfiCond78) VB load(1, XDATA, add(CFA_XSP16, literal(-9)))
        CFI (cfiCond78) V0 load(1, XDATA, add(CFA_XSP16, literal(-8)))
        CFI (cfiCond78) V1 load(1, XDATA, add(CFA_XSP16, literal(-7)))
        CFI (cfiCond78) R7 load(1, XDATA, add(CFA_XSP16, literal(-6)))
        CFI (cfiCond78) ?RET_LOW load(1, XDATA, add(CFA_XSP16, literal(-5)))
        CFI (cfiCond78) ?RET_HIGH load(1, XDATA, add(CFA_XSP16, literal(-4)))
        CFI (cfiCond78) ?BRET_EXT load(1, XDATA, add(CFA_XSP16, literal(-3)))
        CFI (cfiCond78) DPL0 load(1, XDATA, add(CFA_XSP16, literal(-2)))
        CFI (cfiCond78) DPH0 load(1, XDATA, add(CFA_XSP16, literal(-1)))
        CFI (cfiCond78) CFA_SP SP+-1
        CFI (cfiCond78) CFA_XSP16 add(XSP16, 10)
        CFI Block cfiCond79 Using cfiCommon0
        CFI (cfiCond79) NoFunction
        CFI (cfiCond79) Conditional ??CrossCallReturnLabel_54
        CFI (cfiCond79) R6 load(1, XDATA, add(CFA_XSP16, literal(-19)))
        CFI (cfiCond79) VB load(1, XDATA, add(CFA_XSP16, literal(-18)))
        CFI (cfiCond79) V0 load(1, XDATA, add(CFA_XSP16, literal(-17)))
        CFI (cfiCond79) V1 load(1, XDATA, add(CFA_XSP16, literal(-16)))
        CFI (cfiCond79) V2 load(1, XDATA, add(CFA_XSP16, literal(-15)))
        CFI (cfiCond79) V3 load(1, XDATA, add(CFA_XSP16, literal(-14)))
        CFI (cfiCond79) V4 load(1, XDATA, add(CFA_XSP16, literal(-13)))
        CFI (cfiCond79) V5 load(1, XDATA, add(CFA_XSP16, literal(-12)))
        CFI (cfiCond79) V6 load(1, XDATA, add(CFA_XSP16, literal(-11)))
        CFI (cfiCond79) V7 load(1, XDATA, add(CFA_XSP16, literal(-10)))
        CFI (cfiCond79) V8 load(1, XDATA, add(CFA_XSP16, literal(-9)))
        CFI (cfiCond79) V9 load(1, XDATA, add(CFA_XSP16, literal(-8)))
        CFI (cfiCond79) V10 load(1, XDATA, add(CFA_XSP16, literal(-7)))
        CFI (cfiCond79) R7 load(1, XDATA, add(CFA_XSP16, literal(-6)))
        CFI (cfiCond79) ?RET_LOW load(1, XDATA, add(CFA_XSP16, literal(-5)))
        CFI (cfiCond79) ?RET_HIGH load(1, XDATA, add(CFA_XSP16, literal(-4)))
        CFI (cfiCond79) ?BRET_EXT load(1, XDATA, add(CFA_XSP16, literal(-3)))
        CFI (cfiCond79) DPL0 load(1, XDATA, add(CFA_XSP16, literal(-2)))
        CFI (cfiCond79) DPH0 load(1, XDATA, add(CFA_XSP16, literal(-1)))
        CFI (cfiCond79) CFA_SP SP+0
        CFI (cfiCond79) CFA_XSP16 add(XSP16, 22)
        CFI Block cfiCond80 Using cfiCommon0
        CFI (cfiCond80) NoFunction
        CFI (cfiCond80) Conditional ??CrossCallReturnLabel_55
        CFI (cfiCond80) R6 load(1, XDATA, add(CFA_XSP16, literal(-19)))
        CFI (cfiCond80) VB load(1, XDATA, add(CFA_XSP16, literal(-18)))
        CFI (cfiCond80) V0 load(1, XDATA, add(CFA_XSP16, literal(-17)))
        CFI (cfiCond80) V1 load(1, XDATA, add(CFA_XSP16, literal(-16)))
        CFI (cfiCond80) V2 load(1, XDATA, add(CFA_XSP16, literal(-15)))
        CFI (cfiCond80) V3 load(1, XDATA, add(CFA_XSP16, literal(-14)))
        CFI (cfiCond80) V4 load(1, XDATA, add(CFA_XSP16, literal(-13)))
        CFI (cfiCond80) V5 load(1, XDATA, add(CFA_XSP16, literal(-12)))
        CFI (cfiCond80) V6 load(1, XDATA, add(CFA_XSP16, literal(-11)))
        CFI (cfiCond80) V7 load(1, XDATA, add(CFA_XSP16, literal(-10)))
        CFI (cfiCond80) V8 load(1, XDATA, add(CFA_XSP16, literal(-9)))
        CFI (cfiCond80) V9 load(1, XDATA, add(CFA_XSP16, literal(-8)))
        CFI (cfiCond80) V10 load(1, XDATA, add(CFA_XSP16, literal(-7)))
        CFI (cfiCond80) R7 load(1, XDATA, add(CFA_XSP16, literal(-6)))
        CFI (cfiCond80) ?RET_LOW load(1, XDATA, add(CFA_XSP16, literal(-5)))
        CFI (cfiCond80) ?RET_HIGH load(1, XDATA, add(CFA_XSP16, literal(-4)))
        CFI (cfiCond80) ?BRET_EXT load(1, XDATA, add(CFA_XSP16, literal(-3)))
        CFI (cfiCond80) DPL0 load(1, XDATA, add(CFA_XSP16, literal(-2)))
        CFI (cfiCond80) DPH0 load(1, XDATA, add(CFA_XSP16, literal(-1)))
        CFI (cfiCond80) CFA_SP SP+0
        CFI (cfiCond80) CFA_XSP16 add(XSP16, 22)
        CFI Block cfiCond81 Using cfiCommon0
        CFI (cfiCond81) NoFunction
        CFI (cfiCond81) Conditional ??CrossCallReturnLabel_56
        CFI (cfiCond81) R6 load(1, XDATA, add(CFA_XSP16, literal(-19)))
        CFI (cfiCond81) VB load(1, XDATA, add(CFA_XSP16, literal(-18)))
        CFI (cfiCond81) V0 load(1, XDATA, add(CFA_XSP16, literal(-17)))
        CFI (cfiCond81) V1 load(1, XDATA, add(CFA_XSP16, literal(-16)))
        CFI (cfiCond81) V2 load(1, XDATA, add(CFA_XSP16, literal(-15)))
        CFI (cfiCond81) V3 load(1, XDATA, add(CFA_XSP16, literal(-14)))
        CFI (cfiCond81) V4 load(1, XDATA, add(CFA_XSP16, literal(-13)))
        CFI (cfiCond81) V5 load(1, XDATA, add(CFA_XSP16, literal(-12)))
        CFI (cfiCond81) V6 load(1, XDATA, add(CFA_XSP16, literal(-11)))
        CFI (cfiCond81) V7 load(1, XDATA, add(CFA_XSP16, literal(-10)))
        CFI (cfiCond81) V8 load(1, XDATA, add(CFA_XSP16, literal(-9)))
        CFI (cfiCond81) V9 load(1, XDATA, add(CFA_XSP16, literal(-8)))
        CFI (cfiCond81) V10 load(1, XDATA, add(CFA_XSP16, literal(-7)))
        CFI (cfiCond81) R7 load(1, XDATA, add(CFA_XSP16, literal(-6)))
        CFI (cfiCond81) ?RET_LOW load(1, XDATA, add(CFA_XSP16, literal(-5)))
        CFI (cfiCond81) ?RET_HIGH load(1, XDATA, add(CFA_XSP16, literal(-4)))
        CFI (cfiCond81) ?BRET_EXT load(1, XDATA, add(CFA_XSP16, literal(-3)))
        CFI (cfiCond81) DPL0 load(1, XDATA, add(CFA_XSP16, literal(-2)))
        CFI (cfiCond81) DPH0 load(1, XDATA, add(CFA_XSP16, literal(-1)))
        CFI (cfiCond81) CFA_SP SP+0
        CFI (cfiCond81) CFA_XSP16 add(XSP16, 22)
        CFI Block cfiCond82 Using cfiCommon0
        CFI (cfiCond82) NoFunction
        CFI (cfiCond82) Conditional ??CrossCallReturnLabel_57
        CFI (cfiCond82) R6 load(1, XDATA, add(CFA_XSP16, literal(-17)))
        CFI (cfiCond82) VB load(1, XDATA, add(CFA_XSP16, literal(-16)))
        CFI (cfiCond82) V0 load(1, XDATA, add(CFA_XSP16, literal(-15)))
        CFI (cfiCond82) V1 load(1, XDATA, add(CFA_XSP16, literal(-14)))
        CFI (cfiCond82) V2 load(1, XDATA, add(CFA_XSP16, literal(-13)))
        CFI (cfiCond82) V3 load(1, XDATA, add(CFA_XSP16, literal(-12)))
        CFI (cfiCond82) V4 load(1, XDATA, add(CFA_XSP16, literal(-11)))
        CFI (cfiCond82) V5 load(1, XDATA, add(CFA_XSP16, literal(-10)))
        CFI (cfiCond82) V6 load(1, XDATA, add(CFA_XSP16, literal(-9)))
        CFI (cfiCond82) V7 load(1, XDATA, add(CFA_XSP16, literal(-8)))
        CFI (cfiCond82) V8 load(1, XDATA, add(CFA_XSP16, literal(-7)))
        CFI (cfiCond82) R7 load(1, XDATA, add(CFA_XSP16, literal(-6)))
        CFI (cfiCond82) ?RET_LOW load(1, XDATA, add(CFA_XSP16, literal(-5)))
        CFI (cfiCond82) ?RET_HIGH load(1, XDATA, add(CFA_XSP16, literal(-4)))
        CFI (cfiCond82) ?BRET_EXT load(1, XDATA, add(CFA_XSP16, literal(-3)))
        CFI (cfiCond82) DPL0 load(1, XDATA, add(CFA_XSP16, literal(-2)))
        CFI (cfiCond82) DPH0 load(1, XDATA, add(CFA_XSP16, literal(-1)))
        CFI (cfiCond82) CFA_SP SP+0
        CFI (cfiCond82) CFA_XSP16 add(XSP16, 19)
        CFI Block cfiCond83 Using cfiCommon0
        CFI (cfiCond83) NoFunction
        CFI (cfiCond83) Conditional ??CrossCallReturnLabel_58
        CFI (cfiCond83) R6 load(1, XDATA, add(CFA_XSP16, literal(-17)))
        CFI (cfiCond83) VB load(1, XDATA, add(CFA_XSP16, literal(-16)))
        CFI (cfiCond83) V0 load(1, XDATA, add(CFA_XSP16, literal(-15)))
        CFI (cfiCond83) V1 load(1, XDATA, add(CFA_XSP16, literal(-14)))
        CFI (cfiCond83) V2 load(1, XDATA, add(CFA_XSP16, literal(-13)))
        CFI (cfiCond83) V3 load(1, XDATA, add(CFA_XSP16, literal(-12)))
        CFI (cfiCond83) V4 load(1, XDATA, add(CFA_XSP16, literal(-11)))
        CFI (cfiCond83) V5 load(1, XDATA, add(CFA_XSP16, literal(-10)))
        CFI (cfiCond83) V6 load(1, XDATA, add(CFA_XSP16, literal(-9)))
        CFI (cfiCond83) V7 load(1, XDATA, add(CFA_XSP16, literal(-8)))
        CFI (cfiCond83) V8 load(1, XDATA, add(CFA_XSP16, literal(-7)))
        CFI (cfiCond83) R7 load(1, XDATA, add(CFA_XSP16, literal(-6)))
        CFI (cfiCond83) ?RET_LOW load(1, XDATA, add(CFA_XSP16, literal(-5)))
        CFI (cfiCond83) ?RET_HIGH load(1, XDATA, add(CFA_XSP16, literal(-4)))
        CFI (cfiCond83) ?BRET_EXT load(1, XDATA, add(CFA_XSP16, literal(-3)))
        CFI (cfiCond83) DPL0 load(1, XDATA, add(CFA_XSP16, literal(-2)))
        CFI (cfiCond83) DPH0 load(1, XDATA, add(CFA_XSP16, literal(-1)))
        CFI (cfiCond83) CFA_SP SP+0
        CFI (cfiCond83) CFA_XSP16 add(XSP16, 17)
        CFI Block cfiCond84 Using cfiCommon0
        CFI (cfiCond84) NoFunction
        CFI (cfiCond84) Conditional ??CrossCallReturnLabel_59
        CFI (cfiCond84) R6 load(1, XDATA, add(CFA_XSP16, literal(-17)))
        CFI (cfiCond84) VB load(1, XDATA, add(CFA_XSP16, literal(-16)))
        CFI (cfiCond84) V0 load(1, XDATA, add(CFA_XSP16, literal(-15)))
        CFI (cfiCond84) V1 load(1, XDATA, add(CFA_XSP16, literal(-14)))
        CFI (cfiCond84) V2 load(1, XDATA, add(CFA_XSP16, literal(-13)))
        CFI (cfiCond84) V3 load(1, XDATA, add(CFA_XSP16, literal(-12)))
        CFI (cfiCond84) V4 load(1, XDATA, add(CFA_XSP16, literal(-11)))
        CFI (cfiCond84) V5 load(1, XDATA, add(CFA_XSP16, literal(-10)))
        CFI (cfiCond84) V6 load(1, XDATA, add(CFA_XSP16, literal(-9)))
        CFI (cfiCond84) V7 load(1, XDATA, add(CFA_XSP16, literal(-8)))
        CFI (cfiCond84) V8 load(1, XDATA, add(CFA_XSP16, literal(-7)))
        CFI (cfiCond84) R7 load(1, XDATA, add(CFA_XSP16, literal(-6)))
        CFI (cfiCond84) ?RET_LOW load(1, XDATA, add(CFA_XSP16, literal(-5)))
        CFI (cfiCond84) ?RET_HIGH load(1, XDATA, add(CFA_XSP16, literal(-4)))
        CFI (cfiCond84) ?BRET_EXT load(1, XDATA, add(CFA_XSP16, literal(-3)))
        CFI (cfiCond84) DPL0 load(1, XDATA, add(CFA_XSP16, literal(-2)))
        CFI (cfiCond84) DPH0 load(1, XDATA, add(CFA_XSP16, literal(-1)))
        CFI (cfiCond84) CFA_SP SP+0
        CFI (cfiCond84) CFA_XSP16 add(XSP16, 17)
        CFI Block cfiCond85 Using cfiCommon0
        CFI (cfiCond85) NoFunction
        CFI (cfiCond85) Conditional ??CrossCallReturnLabel_60
        CFI (cfiCond85) R6 load(1, XDATA, add(CFA_XSP16, literal(-10)))
        CFI (cfiCond85) VB load(1, XDATA, add(CFA_XSP16, literal(-9)))
        CFI (cfiCond85) V0 load(1, XDATA, add(CFA_XSP16, literal(-8)))
        CFI (cfiCond85) V1 load(1, XDATA, add(CFA_XSP16, literal(-7)))
        CFI (cfiCond85) R7 load(1, XDATA, add(CFA_XSP16, literal(-6)))
        CFI (cfiCond85) ?RET_LOW load(1, XDATA, add(CFA_XSP16, literal(-5)))
        CFI (cfiCond85) ?RET_HIGH load(1, XDATA, add(CFA_XSP16, literal(-4)))
        CFI (cfiCond85) ?BRET_EXT load(1, XDATA, add(CFA_XSP16, literal(-3)))
        CFI (cfiCond85) DPL0 load(1, XDATA, add(CFA_XSP16, literal(-2)))
        CFI (cfiCond85) DPH0 load(1, XDATA, add(CFA_XSP16, literal(-1)))
        CFI (cfiCond85) CFA_SP SP+0
        CFI (cfiCond85) CFA_XSP16 add(XSP16, 10)
        CFI Block cfiCond86 Using cfiCommon0
        CFI (cfiCond86) NoFunction
        CFI (cfiCond86) Conditional ??CrossCallReturnLabel_61
        CFI (cfiCond86) R6 load(1, XDATA, add(CFA_XSP16, literal(-19)))
        CFI (cfiCond86) VB load(1, XDATA, add(CFA_XSP16, literal(-18)))
        CFI (cfiCond86) V0 load(1, XDATA, add(CFA_XSP16, literal(-17)))
        CFI (cfiCond86) V1 load(1, XDATA, add(CFA_XSP16, literal(-16)))
        CFI (cfiCond86) V2 load(1, XDATA, add(CFA_XSP16, literal(-15)))
        CFI (cfiCond86) V3 load(1, XDATA, add(CFA_XSP16, literal(-14)))
        CFI (cfiCond86) V4 load(1, XDATA, add(CFA_XSP16, literal(-13)))
        CFI (cfiCond86) V5 load(1, XDATA, add(CFA_XSP16, literal(-12)))
        CFI (cfiCond86) V6 load(1, XDATA, add(CFA_XSP16, literal(-11)))
        CFI (cfiCond86) V7 load(1, XDATA, add(CFA_XSP16, literal(-10)))
        CFI (cfiCond86) V8 load(1, XDATA, add(CFA_XSP16, literal(-9)))
        CFI (cfiCond86) V9 load(1, XDATA, add(CFA_XSP16, literal(-8)))
        CFI (cfiCond86) V10 load(1, XDATA, add(CFA_XSP16, literal(-7)))
        CFI (cfiCond86) R7 load(1, XDATA, add(CFA_XSP16, literal(-6)))
        CFI (cfiCond86) ?RET_LOW load(1, XDATA, add(CFA_XSP16, literal(-5)))
        CFI (cfiCond86) ?RET_HIGH load(1, XDATA, add(CFA_XSP16, literal(-4)))
        CFI (cfiCond86) ?BRET_EXT load(1, XDATA, add(CFA_XSP16, literal(-3)))
        CFI (cfiCond86) DPL0 load(1, XDATA, add(CFA_XSP16, literal(-2)))
        CFI (cfiCond86) DPH0 load(1, XDATA, add(CFA_XSP16, literal(-1)))
        CFI (cfiCond86) CFA_SP SP+0
        CFI (cfiCond86) CFA_XSP16 add(XSP16, 22)
        CFI Block cfiCond87 Using cfiCommon0
        CFI (cfiCond87) NoFunction
        CFI (cfiCond87) Conditional ??CrossCallReturnLabel_62
        CFI (cfiCond87) R6 load(1, XDATA, add(CFA_XSP16, literal(-17)))
        CFI (cfiCond87) VB load(1, XDATA, add(CFA_XSP16, literal(-16)))
        CFI (cfiCond87) V0 load(1, XDATA, add(CFA_XSP16, literal(-15)))
        CFI (cfiCond87) V1 load(1, XDATA, add(CFA_XSP16, literal(-14)))
        CFI (cfiCond87) V2 load(1, XDATA, add(CFA_XSP16, literal(-13)))
        CFI (cfiCond87) V3 load(1, XDATA, add(CFA_XSP16, literal(-12)))
        CFI (cfiCond87) V4 load(1, XDATA, add(CFA_XSP16, literal(-11)))
        CFI (cfiCond87) V5 load(1, XDATA, add(CFA_XSP16, literal(-10)))
        CFI (cfiCond87) V6 load(1, XDATA, add(CFA_XSP16, literal(-9)))
        CFI (cfiCond87) V7 load(1, XDATA, add(CFA_XSP16, literal(-8)))
        CFI (cfiCond87) V8 load(1, XDATA, add(CFA_XSP16, literal(-7)))
        CFI (cfiCond87) R7 load(1, XDATA, add(CFA_XSP16, literal(-6)))
        CFI (cfiCond87) ?RET_LOW load(1, XDATA, add(CFA_XSP16, literal(-5)))
        CFI (cfiCond87) ?RET_HIGH load(1, XDATA, add(CFA_XSP16, literal(-4)))
        CFI (cfiCond87) ?BRET_EXT load(1, XDATA, add(CFA_XSP16, literal(-3)))
        CFI (cfiCond87) DPL0 load(1, XDATA, add(CFA_XSP16, literal(-2)))
        CFI (cfiCond87) DPH0 load(1, XDATA, add(CFA_XSP16, literal(-1)))
        CFI (cfiCond87) CFA_SP SP+0
        CFI (cfiCond87) CFA_XSP16 add(XSP16, 17)
        CFI Block cfiPicker88 Using cfiCommon1
        CFI (cfiPicker88) NoFunction
        CFI (cfiPicker88) Picker
        INC     DPTR
        MOVX    A,@DPTR
        MOV     DPH,A
        MOV     DPL,R0
        RET
        CFI EndBlock cfiCond77
        CFI EndBlock cfiCond78
        CFI EndBlock cfiCond79
        CFI EndBlock cfiCond80
        CFI EndBlock cfiCond81
        CFI EndBlock cfiCond82
        CFI EndBlock cfiCond83
        CFI EndBlock cfiCond84
        CFI EndBlock cfiCond85
        CFI EndBlock cfiCond86
        CFI EndBlock cfiCond87
        CFI EndBlock cfiPicker88

        RSEG BANKED_CODE:CODE:NOROOT(0)
?Subroutine3:
        CFI Block cfiCond89 Using cfiCommon0
        CFI NoFunction
        CFI Conditional ??CrossCallReturnLabel_0
        CFI R6 load(1, XDATA, add(CFA_XSP16, literal(-10)))
        CFI VB load(1, XDATA, add(CFA_XSP16, literal(-9)))
        CFI V0 load(1, XDATA, add(CFA_XSP16, literal(-8)))
        CFI V1 load(1, XDATA, add(CFA_XSP16, literal(-7)))
        CFI R7 load(1, XDATA, add(CFA_XSP16, literal(-6)))
        CFI ?RET_LOW load(1, XDATA, add(CFA_XSP16, literal(-5)))
        CFI ?RET_HIGH load(1, XDATA, add(CFA_XSP16, literal(-4)))
        CFI ?BRET_EXT load(1, XDATA, add(CFA_XSP16, literal(-3)))
        CFI DPL0 load(1, XDATA, add(CFA_XSP16, literal(-2)))
        CFI DPH0 load(1, XDATA, add(CFA_XSP16, literal(-1)))
        CFI CFA_SP SP+0
        CFI CFA_XSP16 add(XSP16, 10)
        CFI Block cfiCond90 Using cfiCommon0
        CFI (cfiCond90) NoFunction
        CFI (cfiCond90) Conditional ??CrossCallReturnLabel_1
        CFI (cfiCond90) R6 load(1, XDATA, add(CFA_XSP16, literal(-10)))
        CFI (cfiCond90) VB load(1, XDATA, add(CFA_XSP16, literal(-9)))
        CFI (cfiCond90) V0 load(1, XDATA, add(CFA_XSP16, literal(-8)))
        CFI (cfiCond90) V1 load(1, XDATA, add(CFA_XSP16, literal(-7)))
        CFI (cfiCond90) R7 load(1, XDATA, add(CFA_XSP16, literal(-6)))
        CFI (cfiCond90) ?RET_LOW load(1, XDATA, add(CFA_XSP16, literal(-5)))
        CFI (cfiCond90) ?RET_HIGH load(1, XDATA, add(CFA_XSP16, literal(-4)))
        CFI (cfiCond90) ?BRET_EXT load(1, XDATA, add(CFA_XSP16, literal(-3)))
        CFI (cfiCond90) DPL0 load(1, XDATA, add(CFA_XSP16, literal(-2)))
        CFI (cfiCond90) DPH0 load(1, XDATA, add(CFA_XSP16, literal(-1)))
        CFI (cfiCond90) CFA_SP SP+0
        CFI (cfiCond90) CFA_XSP16 add(XSP16, 10)
        CFI Block cfiCond91 Using cfiCommon0
        CFI (cfiCond91) NoFunction
        CFI (cfiCond91) Conditional ??CrossCallReturnLabel_2
        CFI (cfiCond91) R6 load(1, XDATA, add(CFA_XSP16, literal(-19)))
        CFI (cfiCond91) VB load(1, XDATA, add(CFA_XSP16, literal(-18)))
        CFI (cfiCond91) V0 load(1, XDATA, add(CFA_XSP16, literal(-17)))
        CFI (cfiCond91) V1 load(1, XDATA, add(CFA_XSP16, literal(-16)))
        CFI (cfiCond91) V2 load(1, XDATA, add(CFA_XSP16, literal(-15)))
        CFI (cfiCond91) V3 load(1, XDATA, add(CFA_XSP16, literal(-14)))
        CFI (cfiCond91) V4 load(1, XDATA, add(CFA_XSP16, literal(-13)))
        CFI (cfiCond91) V5 load(1, XDATA, add(CFA_XSP16, literal(-12)))
        CFI (cfiCond91) V6 load(1, XDATA, add(CFA_XSP16, literal(-11)))
        CFI (cfiCond91) V7 load(1, XDATA, add(CFA_XSP16, literal(-10)))
        CFI (cfiCond91) V8 load(1, XDATA, add(CFA_XSP16, literal(-9)))
        CFI (cfiCond91) V9 load(1, XDATA, add(CFA_XSP16, literal(-8)))
        CFI (cfiCond91) V10 load(1, XDATA, add(CFA_XSP16, literal(-7)))
        CFI (cfiCond91) R7 load(1, XDATA, add(CFA_XSP16, literal(-6)))
        CFI (cfiCond91) ?RET_LOW load(1, XDATA, add(CFA_XSP16, literal(-5)))
        CFI (cfiCond91) ?RET_HIGH load(1, XDATA, add(CFA_XSP16, literal(-4)))
        CFI (cfiCond91) ?BRET_EXT load(1, XDATA, add(CFA_XSP16, literal(-3)))
        CFI (cfiCond91) DPL0 load(1, XDATA, add(CFA_XSP16, literal(-2)))
        CFI (cfiCond91) DPH0 load(1, XDATA, add(CFA_XSP16, literal(-1)))
        CFI (cfiCond91) CFA_SP SP+0
        CFI (cfiCond91) CFA_XSP16 add(XSP16, 22)
        CFI Block cfiCond92 Using cfiCommon0
        CFI (cfiCond92) NoFunction
        CFI (cfiCond92) Conditional ??CrossCallReturnLabel_3
        CFI (cfiCond92) R6 load(1, XDATA, add(CFA_XSP16, literal(-17)))
        CFI (cfiCond92) VB load(1, XDATA, add(CFA_XSP16, literal(-16)))
        CFI (cfiCond92) V0 load(1, XDATA, add(CFA_XSP16, literal(-15)))
        CFI (cfiCond92) V1 load(1, XDATA, add(CFA_XSP16, literal(-14)))
        CFI (cfiCond92) V2 load(1, XDATA, add(CFA_XSP16, literal(-13)))
        CFI (cfiCond92) V3 load(1, XDATA, add(CFA_XSP16, literal(-12)))
        CFI (cfiCond92) V4 load(1, XDATA, add(CFA_XSP16, literal(-11)))
        CFI (cfiCond92) V5 load(1, XDATA, add(CFA_XSP16, literal(-10)))
        CFI (cfiCond92) V6 load(1, XDATA, add(CFA_XSP16, literal(-9)))
        CFI (cfiCond92) V7 load(1, XDATA, add(CFA_XSP16, literal(-8)))
        CFI (cfiCond92) V8 load(1, XDATA, add(CFA_XSP16, literal(-7)))
        CFI (cfiCond92) R7 load(1, XDATA, add(CFA_XSP16, literal(-6)))
        CFI (cfiCond92) ?RET_LOW load(1, XDATA, add(CFA_XSP16, literal(-5)))
        CFI (cfiCond92) ?RET_HIGH load(1, XDATA, add(CFA_XSP16, literal(-4)))
        CFI (cfiCond92) ?BRET_EXT load(1, XDATA, add(CFA_XSP16, literal(-3)))
        CFI (cfiCond92) DPL0 load(1, XDATA, add(CFA_XSP16, literal(-2)))
        CFI (cfiCond92) DPH0 load(1, XDATA, add(CFA_XSP16, literal(-1)))
        CFI (cfiCond92) CFA_SP SP+0
        CFI (cfiCond92) CFA_XSP16 add(XSP16, 17)
        CFI Block cfiPicker93 Using cfiCommon1
        CFI (cfiPicker93) NoFunction
        CFI (cfiPicker93) Picker
        MOV     DPTR,#funcCount
        MOVX    A,@DPTR
        MOV     R0,A
        CLR     C
        MOV     A,R6
        SUBB    A,R0
        MOV     A,R7
        LCALL   ?Subroutine24 & 0xFFFF
??CrossCallReturnLabel_35:
        RET
        CFI EndBlock cfiCond89
        CFI EndBlock cfiCond90
        CFI EndBlock cfiCond91
        CFI EndBlock cfiCond92
        CFI EndBlock cfiPicker93

        RSEG BANKED_CODE:CODE:NOROOT(0)
?Subroutine24:
        CFI Block cfiCond94 Using cfiCommon0
        CFI NoFunction
        CFI Conditional ??CrossCallReturnLabel_33
        CFI R6 load(1, XDATA, add(CFA_XSP16, literal(-19)))
        CFI VB load(1, XDATA, add(CFA_XSP16, literal(-18)))
        CFI V0 load(1, XDATA, add(CFA_XSP16, literal(-17)))
        CFI V1 load(1, XDATA, add(CFA_XSP16, literal(-16)))
        CFI V2 load(1, XDATA, add(CFA_XSP16, literal(-15)))
        CFI V3 load(1, XDATA, add(CFA_XSP16, literal(-14)))
        CFI V4 load(1, XDATA, add(CFA_XSP16, literal(-13)))
        CFI V5 load(1, XDATA, add(CFA_XSP16, literal(-12)))
        CFI V6 load(1, XDATA, add(CFA_XSP16, literal(-11)))
        CFI V7 load(1, XDATA, add(CFA_XSP16, literal(-10)))
        CFI V8 load(1, XDATA, add(CFA_XSP16, literal(-9)))
        CFI V9 load(1, XDATA, add(CFA_XSP16, literal(-8)))
        CFI V10 load(1, XDATA, add(CFA_XSP16, literal(-7)))
        CFI R7 load(1, XDATA, add(CFA_XSP16, literal(-6)))
        CFI ?RET_LOW load(1, XDATA, add(CFA_XSP16, literal(-5)))
        CFI ?RET_HIGH load(1, XDATA, add(CFA_XSP16, literal(-4)))
        CFI ?BRET_EXT load(1, XDATA, add(CFA_XSP16, literal(-3)))
        CFI DPL0 load(1, XDATA, add(CFA_XSP16, literal(-2)))
        CFI DPH0 load(1, XDATA, add(CFA_XSP16, literal(-1)))
        CFI CFA_SP SP+0
        CFI CFA_XSP16 add(XSP16, 22)
        CFI Block cfiCond95 Using cfiCommon0
        CFI (cfiCond95) NoFunction
        CFI (cfiCond95) Conditional ??CrossCallReturnLabel_35, ??CrossCallReturnLabel_0
        CFI (cfiCond95) R6 load(1, XDATA, add(CFA_XSP16, literal(-10)))
        CFI (cfiCond95) VB load(1, XDATA, add(CFA_XSP16, literal(-9)))
        CFI (cfiCond95) V0 load(1, XDATA, add(CFA_XSP16, literal(-8)))
        CFI (cfiCond95) V1 load(1, XDATA, add(CFA_XSP16, literal(-7)))
        CFI (cfiCond95) R7 load(1, XDATA, add(CFA_XSP16, literal(-6)))
        CFI (cfiCond95) ?RET_LOW load(1, XDATA, add(CFA_XSP16, literal(-5)))
        CFI (cfiCond95) ?RET_HIGH load(1, XDATA, add(CFA_XSP16, literal(-4)))
        CFI (cfiCond95) ?BRET_EXT load(1, XDATA, add(CFA_XSP16, literal(-3)))
        CFI (cfiCond95) DPL0 load(1, XDATA, add(CFA_XSP16, literal(-2)))
        CFI (cfiCond95) DPH0 load(1, XDATA, add(CFA_XSP16, literal(-1)))
        CFI (cfiCond95) CFA_SP SP+0
        CFI (cfiCond95) CFA_XSP16 add(XSP16, 10)
        CFI Block cfiCond96 Using cfiCommon0
        CFI (cfiCond96) NoFunction
        CFI (cfiCond96) Conditional ??CrossCallReturnLabel_35, ??CrossCallReturnLabel_1
        CFI (cfiCond96) R6 load(1, XDATA, add(CFA_XSP16, literal(-10)))
        CFI (cfiCond96) VB load(1, XDATA, add(CFA_XSP16, literal(-9)))
        CFI (cfiCond96) V0 load(1, XDATA, add(CFA_XSP16, literal(-8)))
        CFI (cfiCond96) V1 load(1, XDATA, add(CFA_XSP16, literal(-7)))
        CFI (cfiCond96) R7 load(1, XDATA, add(CFA_XSP16, literal(-6)))
        CFI (cfiCond96) ?RET_LOW load(1, XDATA, add(CFA_XSP16, literal(-5)))
        CFI (cfiCond96) ?RET_HIGH load(1, XDATA, add(CFA_XSP16, literal(-4)))
        CFI (cfiCond96) ?BRET_EXT load(1, XDATA, add(CFA_XSP16, literal(-3)))
        CFI (cfiCond96) DPL0 load(1, XDATA, add(CFA_XSP16, literal(-2)))
        CFI (cfiCond96) DPH0 load(1, XDATA, add(CFA_XSP16, literal(-1)))
        CFI (cfiCond96) CFA_SP SP+0
        CFI (cfiCond96) CFA_XSP16 add(XSP16, 10)
        CFI Block cfiCond97 Using cfiCommon0
        CFI (cfiCond97) NoFunction
        CFI (cfiCond97) Conditional ??CrossCallReturnLabel_35, ??CrossCallReturnLabel_2
        CFI (cfiCond97) R6 load(1, XDATA, add(CFA_XSP16, literal(-19)))
        CFI (cfiCond97) VB load(1, XDATA, add(CFA_XSP16, literal(-18)))
        CFI (cfiCond97) V0 load(1, XDATA, add(CFA_XSP16, literal(-17)))
        CFI (cfiCond97) V1 load(1, XDATA, add(CFA_XSP16, literal(-16)))
        CFI (cfiCond97) V2 load(1, XDATA, add(CFA_XSP16, literal(-15)))
        CFI (cfiCond97) V3 load(1, XDATA, add(CFA_XSP16, literal(-14)))
        CFI (cfiCond97) V4 load(1, XDATA, add(CFA_XSP16, literal(-13)))
        CFI (cfiCond97) V5 load(1, XDATA, add(CFA_XSP16, literal(-12)))
        CFI (cfiCond97) V6 load(1, XDATA, add(CFA_XSP16, literal(-11)))
        CFI (cfiCond97) V7 load(1, XDATA, add(CFA_XSP16, literal(-10)))
        CFI (cfiCond97) V8 load(1, XDATA, add(CFA_XSP16, literal(-9)))
        CFI (cfiCond97) V9 load(1, XDATA, add(CFA_XSP16, literal(-8)))
        CFI (cfiCond97) V10 load(1, XDATA, add(CFA_XSP16, literal(-7)))
        CFI (cfiCond97) R7 load(1, XDATA, add(CFA_XSP16, literal(-6)))
        CFI (cfiCond97) ?RET_LOW load(1, XDATA, add(CFA_XSP16, literal(-5)))
        CFI (cfiCond97) ?RET_HIGH load(1, XDATA, add(CFA_XSP16, literal(-4)))
        CFI (cfiCond97) ?BRET_EXT load(1, XDATA, add(CFA_XSP16, literal(-3)))
        CFI (cfiCond97) DPL0 load(1, XDATA, add(CFA_XSP16, literal(-2)))
        CFI (cfiCond97) DPH0 load(1, XDATA, add(CFA_XSP16, literal(-1)))
        CFI (cfiCond97) CFA_SP SP+0
        CFI (cfiCond97) CFA_XSP16 add(XSP16, 22)
        CFI Block cfiCond98 Using cfiCommon0
        CFI (cfiCond98) NoFunction
        CFI (cfiCond98) Conditional ??CrossCallReturnLabel_35, ??CrossCallReturnLabel_3
        CFI (cfiCond98) R6 load(1, XDATA, add(CFA_XSP16, literal(-17)))
        CFI (cfiCond98) VB load(1, XDATA, add(CFA_XSP16, literal(-16)))
        CFI (cfiCond98) V0 load(1, XDATA, add(CFA_XSP16, literal(-15)))
        CFI (cfiCond98) V1 load(1, XDATA, add(CFA_XSP16, literal(-14)))
        CFI (cfiCond98) V2 load(1, XDATA, add(CFA_XSP16, literal(-13)))
        CFI (cfiCond98) V3 load(1, XDATA, add(CFA_XSP16, literal(-12)))
        CFI (cfiCond98) V4 load(1, XDATA, add(CFA_XSP16, literal(-11)))
        CFI (cfiCond98) V5 load(1, XDATA, add(CFA_XSP16, literal(-10)))
        CFI (cfiCond98) V6 load(1, XDATA, add(CFA_XSP16, literal(-9)))
        CFI (cfiCond98) V7 load(1, XDATA, add(CFA_XSP16, literal(-8)))
        CFI (cfiCond98) V8 load(1, XDATA, add(CFA_XSP16, literal(-7)))
        CFI (cfiCond98) R7 load(1, XDATA, add(CFA_XSP16, literal(-6)))
        CFI (cfiCond98) ?RET_LOW load(1, XDATA, add(CFA_XSP16, literal(-5)))
        CFI (cfiCond98) ?RET_HIGH load(1, XDATA, add(CFA_XSP16, literal(-4)))
        CFI (cfiCond98) ?BRET_EXT load(1, XDATA, add(CFA_XSP16, literal(-3)))
        CFI (cfiCond98) DPL0 load(1, XDATA, add(CFA_XSP16, literal(-2)))
        CFI (cfiCond98) DPH0 load(1, XDATA, add(CFA_XSP16, literal(-1)))
        CFI (cfiCond98) CFA_SP SP+0
        CFI (cfiCond98) CFA_XSP16 add(XSP16, 17)
        CFI Block cfiCond99 Using cfiCommon0
        CFI (cfiCond99) NoFunction
        CFI (cfiCond99) Conditional ??CrossCallReturnLabel_34
        CFI (cfiCond99) R6 load(1, XDATA, add(CFA_XSP16, literal(-17)))
        CFI (cfiCond99) VB load(1, XDATA, add(CFA_XSP16, literal(-16)))
        CFI (cfiCond99) V0 load(1, XDATA, add(CFA_XSP16, literal(-15)))
        CFI (cfiCond99) V1 load(1, XDATA, add(CFA_XSP16, literal(-14)))
        CFI (cfiCond99) V2 load(1, XDATA, add(CFA_XSP16, literal(-13)))
        CFI (cfiCond99) V3 load(1, XDATA, add(CFA_XSP16, literal(-12)))
        CFI (cfiCond99) V4 load(1, XDATA, add(CFA_XSP16, literal(-11)))
        CFI (cfiCond99) V5 load(1, XDATA, add(CFA_XSP16, literal(-10)))
        CFI (cfiCond99) V6 load(1, XDATA, add(CFA_XSP16, literal(-9)))
        CFI (cfiCond99) V7 load(1, XDATA, add(CFA_XSP16, literal(-8)))
        CFI (cfiCond99) V8 load(1, XDATA, add(CFA_XSP16, literal(-7)))
        CFI (cfiCond99) R7 load(1, XDATA, add(CFA_XSP16, literal(-6)))
        CFI (cfiCond99) ?RET_LOW load(1, XDATA, add(CFA_XSP16, literal(-5)))
        CFI (cfiCond99) ?RET_HIGH load(1, XDATA, add(CFA_XSP16, literal(-4)))
        CFI (cfiCond99) ?BRET_EXT load(1, XDATA, add(CFA_XSP16, literal(-3)))
        CFI (cfiCond99) DPL0 load(1, XDATA, add(CFA_XSP16, literal(-2)))
        CFI (cfiCond99) DPH0 load(1, XDATA, add(CFA_XSP16, literal(-1)))
        CFI (cfiCond99) CFA_SP SP+0
        CFI (cfiCond99) CFA_XSP16 add(XSP16, 17)
        CFI Block cfiPicker100 Using cfiCommon1
        CFI (cfiPicker100) NoFunction
        CFI (cfiPicker100) Picker
        SUBB    A,#0x0
        MOV     C,0xD0 /* PSW */.2
        XRL     A,PSW
        RLC     A
        RET
        CFI EndBlock cfiCond94
        CFI EndBlock cfiCond95
        CFI EndBlock cfiCond96
        CFI EndBlock cfiCond97
        CFI EndBlock cfiCond98
        CFI EndBlock cfiCond99
        CFI EndBlock cfiPicker100

        RSEG BANKED_CODE:CODE:NOROOT(0)
?Subroutine2:
        CFI Block cfiCond101 Using cfiCommon0
        CFI NoFunction
        CFI Conditional ??CrossCallReturnLabel_63
        CFI R6 load(1, XDATA, add(CFA_XSP16, literal(-19)))
        CFI VB load(1, XDATA, add(CFA_XSP16, literal(-18)))
        CFI V0 load(1, XDATA, add(CFA_XSP16, literal(-17)))
        CFI V1 load(1, XDATA, add(CFA_XSP16, literal(-16)))
        CFI V2 load(1, XDATA, add(CFA_XSP16, literal(-15)))
        CFI V3 load(1, XDATA, add(CFA_XSP16, literal(-14)))
        CFI V4 load(1, XDATA, add(CFA_XSP16, literal(-13)))
        CFI V5 load(1, XDATA, add(CFA_XSP16, literal(-12)))
        CFI V6 load(1, XDATA, add(CFA_XSP16, literal(-11)))
        CFI V7 load(1, XDATA, add(CFA_XSP16, literal(-10)))
        CFI V8 load(1, XDATA, add(CFA_XSP16, literal(-9)))
        CFI V9 load(1, XDATA, add(CFA_XSP16, literal(-8)))
        CFI V10 load(1, XDATA, add(CFA_XSP16, literal(-7)))
        CFI R7 load(1, XDATA, add(CFA_XSP16, literal(-6)))
        CFI ?RET_LOW load(1, XDATA, add(CFA_XSP16, literal(-5)))
        CFI ?RET_HIGH load(1, XDATA, add(CFA_XSP16, literal(-4)))
        CFI ?BRET_EXT load(1, XDATA, add(CFA_XSP16, literal(-3)))
        CFI DPL0 load(1, XDATA, add(CFA_XSP16, literal(-2)))
        CFI DPH0 load(1, XDATA, add(CFA_XSP16, literal(-1)))
        CFI CFA_SP SP+0
        CFI CFA_XSP16 add(XSP16, 22)
        CFI Block cfiCond102 Using cfiCommon0
        CFI (cfiCond102) NoFunction
        CFI (cfiCond102) Conditional ??CrossCallReturnLabel_64
        CFI (cfiCond102) R6 load(1, XDATA, add(CFA_XSP16, literal(-17)))
        CFI (cfiCond102) VB load(1, XDATA, add(CFA_XSP16, literal(-16)))
        CFI (cfiCond102) V0 load(1, XDATA, add(CFA_XSP16, literal(-15)))
        CFI (cfiCond102) V1 load(1, XDATA, add(CFA_XSP16, literal(-14)))
        CFI (cfiCond102) V2 load(1, XDATA, add(CFA_XSP16, literal(-13)))
        CFI (cfiCond102) V3 load(1, XDATA, add(CFA_XSP16, literal(-12)))
        CFI (cfiCond102) V4 load(1, XDATA, add(CFA_XSP16, literal(-11)))
        CFI (cfiCond102) V5 load(1, XDATA, add(CFA_XSP16, literal(-10)))
        CFI (cfiCond102) V6 load(1, XDATA, add(CFA_XSP16, literal(-9)))
        CFI (cfiCond102) V7 load(1, XDATA, add(CFA_XSP16, literal(-8)))
        CFI (cfiCond102) V8 load(1, XDATA, add(CFA_XSP16, literal(-7)))
        CFI (cfiCond102) R7 load(1, XDATA, add(CFA_XSP16, literal(-6)))
        CFI (cfiCond102) ?RET_LOW load(1, XDATA, add(CFA_XSP16, literal(-5)))
        CFI (cfiCond102) ?RET_HIGH load(1, XDATA, add(CFA_XSP16, literal(-4)))
        CFI (cfiCond102) ?BRET_EXT load(1, XDATA, add(CFA_XSP16, literal(-3)))
        CFI (cfiCond102) DPL0 load(1, XDATA, add(CFA_XSP16, literal(-2)))
        CFI (cfiCond102) DPH0 load(1, XDATA, add(CFA_XSP16, literal(-1)))
        CFI (cfiCond102) CFA_SP SP+0
        CFI (cfiCond102) CFA_XSP16 add(XSP16, 17)
        CFI Block cfiPicker103 Using cfiCommon1
        CFI (cfiPicker103) NoFunction
        CFI (cfiPicker103) Picker
        ADDC    A,R1
        MOV     R3,A
        CFI EndBlock cfiCond101
        CFI EndBlock cfiCond102
        CFI EndBlock cfiPicker103
        REQUIRE ??Subroutine28_0
        ; // Fall through to label ??Subroutine28_0

        RSEG BANKED_CODE:CODE:NOROOT(0)
??Subroutine28_0:
        CFI Block cfiCond104 Using cfiCommon0
        CFI NoFunction
        CFI Conditional ??CrossCallReturnLabel_70
        CFI R6 load(1, XDATA, add(CFA_XSP16, literal(-19)))
        CFI VB load(1, XDATA, add(CFA_XSP16, literal(-18)))
        CFI V0 load(1, XDATA, add(CFA_XSP16, literal(-17)))
        CFI V1 load(1, XDATA, add(CFA_XSP16, literal(-16)))
        CFI V2 load(1, XDATA, add(CFA_XSP16, literal(-15)))
        CFI V3 load(1, XDATA, add(CFA_XSP16, literal(-14)))
        CFI V4 load(1, XDATA, add(CFA_XSP16, literal(-13)))
        CFI V5 load(1, XDATA, add(CFA_XSP16, literal(-12)))
        CFI V6 load(1, XDATA, add(CFA_XSP16, literal(-11)))
        CFI V7 load(1, XDATA, add(CFA_XSP16, literal(-10)))
        CFI V8 load(1, XDATA, add(CFA_XSP16, literal(-9)))
        CFI V9 load(1, XDATA, add(CFA_XSP16, literal(-8)))
        CFI V10 load(1, XDATA, add(CFA_XSP16, literal(-7)))
        CFI R7 load(1, XDATA, add(CFA_XSP16, literal(-6)))
        CFI ?RET_LOW load(1, XDATA, add(CFA_XSP16, literal(-5)))
        CFI ?RET_HIGH load(1, XDATA, add(CFA_XSP16, literal(-4)))
        CFI ?BRET_EXT load(1, XDATA, add(CFA_XSP16, literal(-3)))
        CFI DPL0 load(1, XDATA, add(CFA_XSP16, literal(-2)))
        CFI DPH0 load(1, XDATA, add(CFA_XSP16, literal(-1)))
        CFI CFA_SP SP+0
        CFI CFA_XSP16 add(XSP16, 22)
        CFI Block cfiCond105 Using cfiCommon0
        CFI (cfiCond105) NoFunction
        CFI (cfiCond105) Conditional ??CrossCallReturnLabel_71
        CFI (cfiCond105) R6 load(1, XDATA, add(CFA_XSP16, literal(-9)))
        CFI (cfiCond105) VB load(1, XDATA, add(CFA_XSP16, literal(-8)))
        CFI (cfiCond105) V0 load(1, XDATA, add(CFA_XSP16, literal(-7)))
        CFI (cfiCond105) R7 load(1, XDATA, add(CFA_XSP16, literal(-6)))
        CFI (cfiCond105) ?RET_LOW load(1, XDATA, add(CFA_XSP16, literal(-5)))
        CFI (cfiCond105) ?RET_HIGH load(1, XDATA, add(CFA_XSP16, literal(-4)))
        CFI (cfiCond105) ?BRET_EXT load(1, XDATA, add(CFA_XSP16, literal(-3)))
        CFI (cfiCond105) DPL0 load(1, XDATA, add(CFA_XSP16, literal(-2)))
        CFI (cfiCond105) DPH0 load(1, XDATA, add(CFA_XSP16, literal(-1)))
        CFI (cfiCond105) CFA_SP SP+0
        CFI (cfiCond105) CFA_XSP16 add(XSP16, 9)
        CFI Block cfiCond106 Using cfiCommon0
        CFI (cfiCond106) NoFunction
        CFI (cfiCond106) Conditional ??CrossCallReturnLabel_63
        CFI (cfiCond106) R6 load(1, XDATA, add(CFA_XSP16, literal(-19)))
        CFI (cfiCond106) VB load(1, XDATA, add(CFA_XSP16, literal(-18)))
        CFI (cfiCond106) V0 load(1, XDATA, add(CFA_XSP16, literal(-17)))
        CFI (cfiCond106) V1 load(1, XDATA, add(CFA_XSP16, literal(-16)))
        CFI (cfiCond106) V2 load(1, XDATA, add(CFA_XSP16, literal(-15)))
        CFI (cfiCond106) V3 load(1, XDATA, add(CFA_XSP16, literal(-14)))
        CFI (cfiCond106) V4 load(1, XDATA, add(CFA_XSP16, literal(-13)))
        CFI (cfiCond106) V5 load(1, XDATA, add(CFA_XSP16, literal(-12)))
        CFI (cfiCond106) V6 load(1, XDATA, add(CFA_XSP16, literal(-11)))
        CFI (cfiCond106) V7 load(1, XDATA, add(CFA_XSP16, literal(-10)))
        CFI (cfiCond106) V8 load(1, XDATA, add(CFA_XSP16, literal(-9)))
        CFI (cfiCond106) V9 load(1, XDATA, add(CFA_XSP16, literal(-8)))
        CFI (cfiCond106) V10 load(1, XDATA, add(CFA_XSP16, literal(-7)))
        CFI (cfiCond106) R7 load(1, XDATA, add(CFA_XSP16, literal(-6)))
        CFI (cfiCond106) ?RET_LOW load(1, XDATA, add(CFA_XSP16, literal(-5)))
        CFI (cfiCond106) ?RET_HIGH load(1, XDATA, add(CFA_XSP16, literal(-4)))
        CFI (cfiCond106) ?BRET_EXT load(1, XDATA, add(CFA_XSP16, literal(-3)))
        CFI (cfiCond106) DPL0 load(1, XDATA, add(CFA_XSP16, literal(-2)))
        CFI (cfiCond106) DPH0 load(1, XDATA, add(CFA_XSP16, literal(-1)))
        CFI (cfiCond106) CFA_SP SP+0
        CFI (cfiCond106) CFA_XSP16 add(XSP16, 22)
        CFI Block cfiCond107 Using cfiCommon0
        CFI (cfiCond107) NoFunction
        CFI (cfiCond107) Conditional ??CrossCallReturnLabel_64
        CFI (cfiCond107) R6 load(1, XDATA, add(CFA_XSP16, literal(-17)))
        CFI (cfiCond107) VB load(1, XDATA, add(CFA_XSP16, literal(-16)))
        CFI (cfiCond107) V0 load(1, XDATA, add(CFA_XSP16, literal(-15)))
        CFI (cfiCond107) V1 load(1, XDATA, add(CFA_XSP16, literal(-14)))
        CFI (cfiCond107) V2 load(1, XDATA, add(CFA_XSP16, literal(-13)))
        CFI (cfiCond107) V3 load(1, XDATA, add(CFA_XSP16, literal(-12)))
        CFI (cfiCond107) V4 load(1, XDATA, add(CFA_XSP16, literal(-11)))
        CFI (cfiCond107) V5 load(1, XDATA, add(CFA_XSP16, literal(-10)))
        CFI (cfiCond107) V6 load(1, XDATA, add(CFA_XSP16, literal(-9)))
        CFI (cfiCond107) V7 load(1, XDATA, add(CFA_XSP16, literal(-8)))
        CFI (cfiCond107) V8 load(1, XDATA, add(CFA_XSP16, literal(-7)))
        CFI (cfiCond107) R7 load(1, XDATA, add(CFA_XSP16, literal(-6)))
        CFI (cfiCond107) ?RET_LOW load(1, XDATA, add(CFA_XSP16, literal(-5)))
        CFI (cfiCond107) ?RET_HIGH load(1, XDATA, add(CFA_XSP16, literal(-4)))
        CFI (cfiCond107) ?BRET_EXT load(1, XDATA, add(CFA_XSP16, literal(-3)))
        CFI (cfiCond107) DPL0 load(1, XDATA, add(CFA_XSP16, literal(-2)))
        CFI (cfiCond107) DPH0 load(1, XDATA, add(CFA_XSP16, literal(-1)))
        CFI (cfiCond107) CFA_SP SP+0
        CFI (cfiCond107) CFA_XSP16 add(XSP16, 17)
        CFI Block cfiPicker108 Using cfiCommon1
        CFI (cfiPicker108) NoFunction
        CFI (cfiPicker108) Picker
        MOV     DPL,R2
        MOV     DPH,R3
        CFI EndBlock cfiCond104
        CFI EndBlock cfiCond105
        CFI EndBlock cfiCond106
        CFI EndBlock cfiCond107
        CFI EndBlock cfiPicker108
        REQUIRE ??Subroutine29_0
        ; // Fall through to label ??Subroutine29_0

        RSEG BANKED_CODE:CODE:NOROOT(0)
??Subroutine29_0:
        CFI Block cfiCond109 Using cfiCommon0
        CFI NoFunction
        CFI Conditional ??CrossCallReturnLabel_69
        CFI R6 load(1, XDATA, add(CFA_XSP16, literal(-10)))
        CFI VB load(1, XDATA, add(CFA_XSP16, literal(-9)))
        CFI V0 load(1, XDATA, add(CFA_XSP16, literal(-8)))
        CFI V1 load(1, XDATA, add(CFA_XSP16, literal(-7)))
        CFI R7 load(1, XDATA, add(CFA_XSP16, literal(-6)))
        CFI ?RET_LOW load(1, XDATA, add(CFA_XSP16, literal(-5)))
        CFI ?RET_HIGH load(1, XDATA, add(CFA_XSP16, literal(-4)))
        CFI ?BRET_EXT load(1, XDATA, add(CFA_XSP16, literal(-3)))
        CFI DPL0 load(1, XDATA, add(CFA_XSP16, literal(-2)))
        CFI DPH0 load(1, XDATA, add(CFA_XSP16, literal(-1)))
        CFI CFA_SP SP+0
        CFI CFA_XSP16 add(XSP16, 10)
        CFI Block cfiCond110 Using cfiCommon0
        CFI (cfiCond110) NoFunction
        CFI (cfiCond110) Conditional ??CrossCallReturnLabel_70
        CFI (cfiCond110) R6 load(1, XDATA, add(CFA_XSP16, literal(-19)))
        CFI (cfiCond110) VB load(1, XDATA, add(CFA_XSP16, literal(-18)))
        CFI (cfiCond110) V0 load(1, XDATA, add(CFA_XSP16, literal(-17)))
        CFI (cfiCond110) V1 load(1, XDATA, add(CFA_XSP16, literal(-16)))
        CFI (cfiCond110) V2 load(1, XDATA, add(CFA_XSP16, literal(-15)))
        CFI (cfiCond110) V3 load(1, XDATA, add(CFA_XSP16, literal(-14)))
        CFI (cfiCond110) V4 load(1, XDATA, add(CFA_XSP16, literal(-13)))
        CFI (cfiCond110) V5 load(1, XDATA, add(CFA_XSP16, literal(-12)))
        CFI (cfiCond110) V6 load(1, XDATA, add(CFA_XSP16, literal(-11)))
        CFI (cfiCond110) V7 load(1, XDATA, add(CFA_XSP16, literal(-10)))
        CFI (cfiCond110) V8 load(1, XDATA, add(CFA_XSP16, literal(-9)))
        CFI (cfiCond110) V9 load(1, XDATA, add(CFA_XSP16, literal(-8)))
        CFI (cfiCond110) V10 load(1, XDATA, add(CFA_XSP16, literal(-7)))
        CFI (cfiCond110) R7 load(1, XDATA, add(CFA_XSP16, literal(-6)))
        CFI (cfiCond110) ?RET_LOW load(1, XDATA, add(CFA_XSP16, literal(-5)))
        CFI (cfiCond110) ?RET_HIGH load(1, XDATA, add(CFA_XSP16, literal(-4)))
        CFI (cfiCond110) ?BRET_EXT load(1, XDATA, add(CFA_XSP16, literal(-3)))
        CFI (cfiCond110) DPL0 load(1, XDATA, add(CFA_XSP16, literal(-2)))
        CFI (cfiCond110) DPH0 load(1, XDATA, add(CFA_XSP16, literal(-1)))
        CFI (cfiCond110) CFA_SP SP+0
        CFI (cfiCond110) CFA_XSP16 add(XSP16, 22)
        CFI Block cfiCond111 Using cfiCommon0
        CFI (cfiCond111) NoFunction
        CFI (cfiCond111) Conditional ??CrossCallReturnLabel_71
        CFI (cfiCond111) R6 load(1, XDATA, add(CFA_XSP16, literal(-9)))
        CFI (cfiCond111) VB load(1, XDATA, add(CFA_XSP16, literal(-8)))
        CFI (cfiCond111) V0 load(1, XDATA, add(CFA_XSP16, literal(-7)))
        CFI (cfiCond111) R7 load(1, XDATA, add(CFA_XSP16, literal(-6)))
        CFI (cfiCond111) ?RET_LOW load(1, XDATA, add(CFA_XSP16, literal(-5)))
        CFI (cfiCond111) ?RET_HIGH load(1, XDATA, add(CFA_XSP16, literal(-4)))
        CFI (cfiCond111) ?BRET_EXT load(1, XDATA, add(CFA_XSP16, literal(-3)))
        CFI (cfiCond111) DPL0 load(1, XDATA, add(CFA_XSP16, literal(-2)))
        CFI (cfiCond111) DPH0 load(1, XDATA, add(CFA_XSP16, literal(-1)))
        CFI (cfiCond111) CFA_SP SP+0
        CFI (cfiCond111) CFA_XSP16 add(XSP16, 9)
        CFI Block cfiCond112 Using cfiCommon0
        CFI (cfiCond112) NoFunction
        CFI (cfiCond112) Conditional ??CrossCallReturnLabel_63
        CFI (cfiCond112) R6 load(1, XDATA, add(CFA_XSP16, literal(-19)))
        CFI (cfiCond112) VB load(1, XDATA, add(CFA_XSP16, literal(-18)))
        CFI (cfiCond112) V0 load(1, XDATA, add(CFA_XSP16, literal(-17)))
        CFI (cfiCond112) V1 load(1, XDATA, add(CFA_XSP16, literal(-16)))
        CFI (cfiCond112) V2 load(1, XDATA, add(CFA_XSP16, literal(-15)))
        CFI (cfiCond112) V3 load(1, XDATA, add(CFA_XSP16, literal(-14)))
        CFI (cfiCond112) V4 load(1, XDATA, add(CFA_XSP16, literal(-13)))
        CFI (cfiCond112) V5 load(1, XDATA, add(CFA_XSP16, literal(-12)))
        CFI (cfiCond112) V6 load(1, XDATA, add(CFA_XSP16, literal(-11)))
        CFI (cfiCond112) V7 load(1, XDATA, add(CFA_XSP16, literal(-10)))
        CFI (cfiCond112) V8 load(1, XDATA, add(CFA_XSP16, literal(-9)))
        CFI (cfiCond112) V9 load(1, XDATA, add(CFA_XSP16, literal(-8)))
        CFI (cfiCond112) V10 load(1, XDATA, add(CFA_XSP16, literal(-7)))
        CFI (cfiCond112) R7 load(1, XDATA, add(CFA_XSP16, literal(-6)))
        CFI (cfiCond112) ?RET_LOW load(1, XDATA, add(CFA_XSP16, literal(-5)))
        CFI (cfiCond112) ?RET_HIGH load(1, XDATA, add(CFA_XSP16, literal(-4)))
        CFI (cfiCond112) ?BRET_EXT load(1, XDATA, add(CFA_XSP16, literal(-3)))
        CFI (cfiCond112) DPL0 load(1, XDATA, add(CFA_XSP16, literal(-2)))
        CFI (cfiCond112) DPH0 load(1, XDATA, add(CFA_XSP16, literal(-1)))
        CFI (cfiCond112) CFA_SP SP+0
        CFI (cfiCond112) CFA_XSP16 add(XSP16, 22)
        CFI Block cfiCond113 Using cfiCommon0
        CFI (cfiCond113) NoFunction
        CFI (cfiCond113) Conditional ??CrossCallReturnLabel_64
        CFI (cfiCond113) R6 load(1, XDATA, add(CFA_XSP16, literal(-17)))
        CFI (cfiCond113) VB load(1, XDATA, add(CFA_XSP16, literal(-16)))
        CFI (cfiCond113) V0 load(1, XDATA, add(CFA_XSP16, literal(-15)))
        CFI (cfiCond113) V1 load(1, XDATA, add(CFA_XSP16, literal(-14)))
        CFI (cfiCond113) V2 load(1, XDATA, add(CFA_XSP16, literal(-13)))
        CFI (cfiCond113) V3 load(1, XDATA, add(CFA_XSP16, literal(-12)))
        CFI (cfiCond113) V4 load(1, XDATA, add(CFA_XSP16, literal(-11)))
        CFI (cfiCond113) V5 load(1, XDATA, add(CFA_XSP16, literal(-10)))
        CFI (cfiCond113) V6 load(1, XDATA, add(CFA_XSP16, literal(-9)))
        CFI (cfiCond113) V7 load(1, XDATA, add(CFA_XSP16, literal(-8)))
        CFI (cfiCond113) V8 load(1, XDATA, add(CFA_XSP16, literal(-7)))
        CFI (cfiCond113) R7 load(1, XDATA, add(CFA_XSP16, literal(-6)))
        CFI (cfiCond113) ?RET_LOW load(1, XDATA, add(CFA_XSP16, literal(-5)))
        CFI (cfiCond113) ?RET_HIGH load(1, XDATA, add(CFA_XSP16, literal(-4)))
        CFI (cfiCond113) ?BRET_EXT load(1, XDATA, add(CFA_XSP16, literal(-3)))
        CFI (cfiCond113) DPL0 load(1, XDATA, add(CFA_XSP16, literal(-2)))
        CFI (cfiCond113) DPH0 load(1, XDATA, add(CFA_XSP16, literal(-1)))
        CFI (cfiCond113) CFA_SP SP+0
        CFI (cfiCond113) CFA_XSP16 add(XSP16, 17)
        CFI Block cfiPicker114 Using cfiCommon1
        CFI (cfiPicker114) NoFunction
        CFI (cfiPicker114) Picker
        INC     DPTR
        INC     DPTR
        CFI EndBlock cfiCond109
        CFI EndBlock cfiCond110
        CFI EndBlock cfiCond111
        CFI EndBlock cfiCond112
        CFI EndBlock cfiCond113
        CFI EndBlock cfiPicker114
        REQUIRE ??Subroutine30_0
        ; // Fall through to label ??Subroutine30_0

        RSEG BANKED_CODE:CODE:NOROOT(0)
??Subroutine30_0:
        CFI Block cfiCond115 Using cfiCommon0
        CFI NoFunction
        CFI Conditional ??CrossCallReturnLabel_67
        CFI R6 load(1, XDATA, add(CFA_XSP16, literal(-17)))
        CFI VB load(1, XDATA, add(CFA_XSP16, literal(-16)))
        CFI V0 load(1, XDATA, add(CFA_XSP16, literal(-15)))
        CFI V1 load(1, XDATA, add(CFA_XSP16, literal(-14)))
        CFI V2 load(1, XDATA, add(CFA_XSP16, literal(-13)))
        CFI V3 load(1, XDATA, add(CFA_XSP16, literal(-12)))
        CFI V4 load(1, XDATA, add(CFA_XSP16, literal(-11)))
        CFI V5 load(1, XDATA, add(CFA_XSP16, literal(-10)))
        CFI V6 load(1, XDATA, add(CFA_XSP16, literal(-9)))
        CFI V7 load(1, XDATA, add(CFA_XSP16, literal(-8)))
        CFI V8 load(1, XDATA, add(CFA_XSP16, literal(-7)))
        CFI R7 load(1, XDATA, add(CFA_XSP16, literal(-6)))
        CFI ?RET_LOW load(1, XDATA, add(CFA_XSP16, literal(-5)))
        CFI ?RET_HIGH load(1, XDATA, add(CFA_XSP16, literal(-4)))
        CFI ?BRET_EXT load(1, XDATA, add(CFA_XSP16, literal(-3)))
        CFI DPL0 load(1, XDATA, add(CFA_XSP16, literal(-2)))
        CFI DPH0 load(1, XDATA, add(CFA_XSP16, literal(-1)))
        CFI CFA_SP SP+0
        CFI CFA_XSP16 add(XSP16, 17)
        CFI Block cfiCond116 Using cfiCommon0
        CFI (cfiCond116) NoFunction
        CFI (cfiCond116) Conditional ??CrossCallReturnLabel_68
        CFI (cfiCond116) R6 load(1, XDATA, add(CFA_XSP16, literal(-17)))
        CFI (cfiCond116) VB load(1, XDATA, add(CFA_XSP16, literal(-16)))
        CFI (cfiCond116) V0 load(1, XDATA, add(CFA_XSP16, literal(-15)))
        CFI (cfiCond116) V1 load(1, XDATA, add(CFA_XSP16, literal(-14)))
        CFI (cfiCond116) V2 load(1, XDATA, add(CFA_XSP16, literal(-13)))
        CFI (cfiCond116) V3 load(1, XDATA, add(CFA_XSP16, literal(-12)))
        CFI (cfiCond116) V4 load(1, XDATA, add(CFA_XSP16, literal(-11)))
        CFI (cfiCond116) V5 load(1, XDATA, add(CFA_XSP16, literal(-10)))
        CFI (cfiCond116) V6 load(1, XDATA, add(CFA_XSP16, literal(-9)))
        CFI (cfiCond116) V7 load(1, XDATA, add(CFA_XSP16, literal(-8)))
        CFI (cfiCond116) V8 load(1, XDATA, add(CFA_XSP16, literal(-7)))
        CFI (cfiCond116) R7 load(1, XDATA, add(CFA_XSP16, literal(-6)))
        CFI (cfiCond116) ?RET_LOW load(1, XDATA, add(CFA_XSP16, literal(-5)))
        CFI (cfiCond116) ?RET_HIGH load(1, XDATA, add(CFA_XSP16, literal(-4)))
        CFI (cfiCond116) ?BRET_EXT load(1, XDATA, add(CFA_XSP16, literal(-3)))
        CFI (cfiCond116) DPL0 load(1, XDATA, add(CFA_XSP16, literal(-2)))
        CFI (cfiCond116) DPH0 load(1, XDATA, add(CFA_XSP16, literal(-1)))
        CFI (cfiCond116) CFA_SP SP+0
        CFI (cfiCond116) CFA_XSP16 add(XSP16, 17)
        CFI Block cfiCond117 Using cfiCommon0
        CFI (cfiCond117) NoFunction
        CFI (cfiCond117) Conditional ??CrossCallReturnLabel_69
        CFI (cfiCond117) R6 load(1, XDATA, add(CFA_XSP16, literal(-10)))
        CFI (cfiCond117) VB load(1, XDATA, add(CFA_XSP16, literal(-9)))
        CFI (cfiCond117) V0 load(1, XDATA, add(CFA_XSP16, literal(-8)))
        CFI (cfiCond117) V1 load(1, XDATA, add(CFA_XSP16, literal(-7)))
        CFI (cfiCond117) R7 load(1, XDATA, add(CFA_XSP16, literal(-6)))
        CFI (cfiCond117) ?RET_LOW load(1, XDATA, add(CFA_XSP16, literal(-5)))
        CFI (cfiCond117) ?RET_HIGH load(1, XDATA, add(CFA_XSP16, literal(-4)))
        CFI (cfiCond117) ?BRET_EXT load(1, XDATA, add(CFA_XSP16, literal(-3)))
        CFI (cfiCond117) DPL0 load(1, XDATA, add(CFA_XSP16, literal(-2)))
        CFI (cfiCond117) DPH0 load(1, XDATA, add(CFA_XSP16, literal(-1)))
        CFI (cfiCond117) CFA_SP SP+0
        CFI (cfiCond117) CFA_XSP16 add(XSP16, 10)
        CFI Block cfiCond118 Using cfiCommon0
        CFI (cfiCond118) NoFunction
        CFI (cfiCond118) Conditional ??CrossCallReturnLabel_70
        CFI (cfiCond118) R6 load(1, XDATA, add(CFA_XSP16, literal(-19)))
        CFI (cfiCond118) VB load(1, XDATA, add(CFA_XSP16, literal(-18)))
        CFI (cfiCond118) V0 load(1, XDATA, add(CFA_XSP16, literal(-17)))
        CFI (cfiCond118) V1 load(1, XDATA, add(CFA_XSP16, literal(-16)))
        CFI (cfiCond118) V2 load(1, XDATA, add(CFA_XSP16, literal(-15)))
        CFI (cfiCond118) V3 load(1, XDATA, add(CFA_XSP16, literal(-14)))
        CFI (cfiCond118) V4 load(1, XDATA, add(CFA_XSP16, literal(-13)))
        CFI (cfiCond118) V5 load(1, XDATA, add(CFA_XSP16, literal(-12)))
        CFI (cfiCond118) V6 load(1, XDATA, add(CFA_XSP16, literal(-11)))
        CFI (cfiCond118) V7 load(1, XDATA, add(CFA_XSP16, literal(-10)))
        CFI (cfiCond118) V8 load(1, XDATA, add(CFA_XSP16, literal(-9)))
        CFI (cfiCond118) V9 load(1, XDATA, add(CFA_XSP16, literal(-8)))
        CFI (cfiCond118) V10 load(1, XDATA, add(CFA_XSP16, literal(-7)))
        CFI (cfiCond118) R7 load(1, XDATA, add(CFA_XSP16, literal(-6)))
        CFI (cfiCond118) ?RET_LOW load(1, XDATA, add(CFA_XSP16, literal(-5)))
        CFI (cfiCond118) ?RET_HIGH load(1, XDATA, add(CFA_XSP16, literal(-4)))
        CFI (cfiCond118) ?BRET_EXT load(1, XDATA, add(CFA_XSP16, literal(-3)))
        CFI (cfiCond118) DPL0 load(1, XDATA, add(CFA_XSP16, literal(-2)))
        CFI (cfiCond118) DPH0 load(1, XDATA, add(CFA_XSP16, literal(-1)))
        CFI (cfiCond118) CFA_SP SP+0
        CFI (cfiCond118) CFA_XSP16 add(XSP16, 22)
        CFI Block cfiCond119 Using cfiCommon0
        CFI (cfiCond119) NoFunction
        CFI (cfiCond119) Conditional ??CrossCallReturnLabel_71
        CFI (cfiCond119) R6 load(1, XDATA, add(CFA_XSP16, literal(-9)))
        CFI (cfiCond119) VB load(1, XDATA, add(CFA_XSP16, literal(-8)))
        CFI (cfiCond119) V0 load(1, XDATA, add(CFA_XSP16, literal(-7)))
        CFI (cfiCond119) R7 load(1, XDATA, add(CFA_XSP16, literal(-6)))
        CFI (cfiCond119) ?RET_LOW load(1, XDATA, add(CFA_XSP16, literal(-5)))
        CFI (cfiCond119) ?RET_HIGH load(1, XDATA, add(CFA_XSP16, literal(-4)))
        CFI (cfiCond119) ?BRET_EXT load(1, XDATA, add(CFA_XSP16, literal(-3)))
        CFI (cfiCond119) DPL0 load(1, XDATA, add(CFA_XSP16, literal(-2)))
        CFI (cfiCond119) DPH0 load(1, XDATA, add(CFA_XSP16, literal(-1)))
        CFI (cfiCond119) CFA_SP SP+0
        CFI (cfiCond119) CFA_XSP16 add(XSP16, 9)
        CFI Block cfiCond120 Using cfiCommon0
        CFI (cfiCond120) NoFunction
        CFI (cfiCond120) Conditional ??CrossCallReturnLabel_63
        CFI (cfiCond120) R6 load(1, XDATA, add(CFA_XSP16, literal(-19)))
        CFI (cfiCond120) VB load(1, XDATA, add(CFA_XSP16, literal(-18)))
        CFI (cfiCond120) V0 load(1, XDATA, add(CFA_XSP16, literal(-17)))
        CFI (cfiCond120) V1 load(1, XDATA, add(CFA_XSP16, literal(-16)))
        CFI (cfiCond120) V2 load(1, XDATA, add(CFA_XSP16, literal(-15)))
        CFI (cfiCond120) V3 load(1, XDATA, add(CFA_XSP16, literal(-14)))
        CFI (cfiCond120) V4 load(1, XDATA, add(CFA_XSP16, literal(-13)))
        CFI (cfiCond120) V5 load(1, XDATA, add(CFA_XSP16, literal(-12)))
        CFI (cfiCond120) V6 load(1, XDATA, add(CFA_XSP16, literal(-11)))
        CFI (cfiCond120) V7 load(1, XDATA, add(CFA_XSP16, literal(-10)))
        CFI (cfiCond120) V8 load(1, XDATA, add(CFA_XSP16, literal(-9)))
        CFI (cfiCond120) V9 load(1, XDATA, add(CFA_XSP16, literal(-8)))
        CFI (cfiCond120) V10 load(1, XDATA, add(CFA_XSP16, literal(-7)))
        CFI (cfiCond120) R7 load(1, XDATA, add(CFA_XSP16, literal(-6)))
        CFI (cfiCond120) ?RET_LOW load(1, XDATA, add(CFA_XSP16, literal(-5)))
        CFI (cfiCond120) ?RET_HIGH load(1, XDATA, add(CFA_XSP16, literal(-4)))
        CFI (cfiCond120) ?BRET_EXT load(1, XDATA, add(CFA_XSP16, literal(-3)))
        CFI (cfiCond120) DPL0 load(1, XDATA, add(CFA_XSP16, literal(-2)))
        CFI (cfiCond120) DPH0 load(1, XDATA, add(CFA_XSP16, literal(-1)))
        CFI (cfiCond120) CFA_SP SP+0
        CFI (cfiCond120) CFA_XSP16 add(XSP16, 22)
        CFI Block cfiCond121 Using cfiCommon0
        CFI (cfiCond121) NoFunction
        CFI (cfiCond121) Conditional ??CrossCallReturnLabel_64
        CFI (cfiCond121) R6 load(1, XDATA, add(CFA_XSP16, literal(-17)))
        CFI (cfiCond121) VB load(1, XDATA, add(CFA_XSP16, literal(-16)))
        CFI (cfiCond121) V0 load(1, XDATA, add(CFA_XSP16, literal(-15)))
        CFI (cfiCond121) V1 load(1, XDATA, add(CFA_XSP16, literal(-14)))
        CFI (cfiCond121) V2 load(1, XDATA, add(CFA_XSP16, literal(-13)))
        CFI (cfiCond121) V3 load(1, XDATA, add(CFA_XSP16, literal(-12)))
        CFI (cfiCond121) V4 load(1, XDATA, add(CFA_XSP16, literal(-11)))
        CFI (cfiCond121) V5 load(1, XDATA, add(CFA_XSP16, literal(-10)))
        CFI (cfiCond121) V6 load(1, XDATA, add(CFA_XSP16, literal(-9)))
        CFI (cfiCond121) V7 load(1, XDATA, add(CFA_XSP16, literal(-8)))
        CFI (cfiCond121) V8 load(1, XDATA, add(CFA_XSP16, literal(-7)))
        CFI (cfiCond121) R7 load(1, XDATA, add(CFA_XSP16, literal(-6)))
        CFI (cfiCond121) ?RET_LOW load(1, XDATA, add(CFA_XSP16, literal(-5)))
        CFI (cfiCond121) ?RET_HIGH load(1, XDATA, add(CFA_XSP16, literal(-4)))
        CFI (cfiCond121) ?BRET_EXT load(1, XDATA, add(CFA_XSP16, literal(-3)))
        CFI (cfiCond121) DPL0 load(1, XDATA, add(CFA_XSP16, literal(-2)))
        CFI (cfiCond121) DPH0 load(1, XDATA, add(CFA_XSP16, literal(-1)))
        CFI (cfiCond121) CFA_SP SP+0
        CFI (cfiCond121) CFA_XSP16 add(XSP16, 17)
        CFI Block cfiPicker122 Using cfiCommon1
        CFI (cfiPicker122) NoFunction
        CFI (cfiPicker122) Picker
        INC     DPTR
        INC     DPTR
        CFI EndBlock cfiCond115
        CFI EndBlock cfiCond116
        CFI EndBlock cfiCond117
        CFI EndBlock cfiCond118
        CFI EndBlock cfiCond119
        CFI EndBlock cfiCond120
        CFI EndBlock cfiCond121
        CFI EndBlock cfiPicker122
        REQUIRE ??Subroutine31_0
        ; // Fall through to label ??Subroutine31_0

        RSEG BANKED_CODE:CODE:NOROOT(0)
??Subroutine31_0:
        CFI Block cfiCond123 Using cfiCommon0
        CFI NoFunction
        CFI Conditional ??CrossCallReturnLabel_66
        CFI R6 load(1, XDATA, add(CFA_XSP16, literal(-17)))
        CFI VB load(1, XDATA, add(CFA_XSP16, literal(-16)))
        CFI V0 load(1, XDATA, add(CFA_XSP16, literal(-15)))
        CFI V1 load(1, XDATA, add(CFA_XSP16, literal(-14)))
        CFI V2 load(1, XDATA, add(CFA_XSP16, literal(-13)))
        CFI V3 load(1, XDATA, add(CFA_XSP16, literal(-12)))
        CFI V4 load(1, XDATA, add(CFA_XSP16, literal(-11)))
        CFI V5 load(1, XDATA, add(CFA_XSP16, literal(-10)))
        CFI V6 load(1, XDATA, add(CFA_XSP16, literal(-9)))
        CFI V7 load(1, XDATA, add(CFA_XSP16, literal(-8)))
        CFI V8 load(1, XDATA, add(CFA_XSP16, literal(-7)))
        CFI R7 load(1, XDATA, add(CFA_XSP16, literal(-6)))
        CFI ?RET_LOW load(1, XDATA, add(CFA_XSP16, literal(-5)))
        CFI ?RET_HIGH load(1, XDATA, add(CFA_XSP16, literal(-4)))
        CFI ?BRET_EXT load(1, XDATA, add(CFA_XSP16, literal(-3)))
        CFI DPL0 load(1, XDATA, add(CFA_XSP16, literal(-2)))
        CFI DPH0 load(1, XDATA, add(CFA_XSP16, literal(-1)))
        CFI CFA_SP SP+0
        CFI CFA_XSP16 add(XSP16, 17)
        CFI Block cfiCond124 Using cfiCommon0
        CFI (cfiCond124) NoFunction
        CFI (cfiCond124) Conditional ??CrossCallReturnLabel_67
        CFI (cfiCond124) R6 load(1, XDATA, add(CFA_XSP16, literal(-17)))
        CFI (cfiCond124) VB load(1, XDATA, add(CFA_XSP16, literal(-16)))
        CFI (cfiCond124) V0 load(1, XDATA, add(CFA_XSP16, literal(-15)))
        CFI (cfiCond124) V1 load(1, XDATA, add(CFA_XSP16, literal(-14)))
        CFI (cfiCond124) V2 load(1, XDATA, add(CFA_XSP16, literal(-13)))
        CFI (cfiCond124) V3 load(1, XDATA, add(CFA_XSP16, literal(-12)))
        CFI (cfiCond124) V4 load(1, XDATA, add(CFA_XSP16, literal(-11)))
        CFI (cfiCond124) V5 load(1, XDATA, add(CFA_XSP16, literal(-10)))
        CFI (cfiCond124) V6 load(1, XDATA, add(CFA_XSP16, literal(-9)))
        CFI (cfiCond124) V7 load(1, XDATA, add(CFA_XSP16, literal(-8)))
        CFI (cfiCond124) V8 load(1, XDATA, add(CFA_XSP16, literal(-7)))
        CFI (cfiCond124) R7 load(1, XDATA, add(CFA_XSP16, literal(-6)))
        CFI (cfiCond124) ?RET_LOW load(1, XDATA, add(CFA_XSP16, literal(-5)))
        CFI (cfiCond124) ?RET_HIGH load(1, XDATA, add(CFA_XSP16, literal(-4)))
        CFI (cfiCond124) ?BRET_EXT load(1, XDATA, add(CFA_XSP16, literal(-3)))
        CFI (cfiCond124) DPL0 load(1, XDATA, add(CFA_XSP16, literal(-2)))
        CFI (cfiCond124) DPH0 load(1, XDATA, add(CFA_XSP16, literal(-1)))
        CFI (cfiCond124) CFA_SP SP+0
        CFI (cfiCond124) CFA_XSP16 add(XSP16, 17)
        CFI Block cfiCond125 Using cfiCommon0
        CFI (cfiCond125) NoFunction
        CFI (cfiCond125) Conditional ??CrossCallReturnLabel_68
        CFI (cfiCond125) R6 load(1, XDATA, add(CFA_XSP16, literal(-17)))
        CFI (cfiCond125) VB load(1, XDATA, add(CFA_XSP16, literal(-16)))
        CFI (cfiCond125) V0 load(1, XDATA, add(CFA_XSP16, literal(-15)))
        CFI (cfiCond125) V1 load(1, XDATA, add(CFA_XSP16, literal(-14)))
        CFI (cfiCond125) V2 load(1, XDATA, add(CFA_XSP16, literal(-13)))
        CFI (cfiCond125) V3 load(1, XDATA, add(CFA_XSP16, literal(-12)))
        CFI (cfiCond125) V4 load(1, XDATA, add(CFA_XSP16, literal(-11)))
        CFI (cfiCond125) V5 load(1, XDATA, add(CFA_XSP16, literal(-10)))
        CFI (cfiCond125) V6 load(1, XDATA, add(CFA_XSP16, literal(-9)))
        CFI (cfiCond125) V7 load(1, XDATA, add(CFA_XSP16, literal(-8)))
        CFI (cfiCond125) V8 load(1, XDATA, add(CFA_XSP16, literal(-7)))
        CFI (cfiCond125) R7 load(1, XDATA, add(CFA_XSP16, literal(-6)))
        CFI (cfiCond125) ?RET_LOW load(1, XDATA, add(CFA_XSP16, literal(-5)))
        CFI (cfiCond125) ?RET_HIGH load(1, XDATA, add(CFA_XSP16, literal(-4)))
        CFI (cfiCond125) ?BRET_EXT load(1, XDATA, add(CFA_XSP16, literal(-3)))
        CFI (cfiCond125) DPL0 load(1, XDATA, add(CFA_XSP16, literal(-2)))
        CFI (cfiCond125) DPH0 load(1, XDATA, add(CFA_XSP16, literal(-1)))
        CFI (cfiCond125) CFA_SP SP+0
        CFI (cfiCond125) CFA_XSP16 add(XSP16, 17)
        CFI Block cfiCond126 Using cfiCommon0
        CFI (cfiCond126) NoFunction
        CFI (cfiCond126) Conditional ??CrossCallReturnLabel_69
        CFI (cfiCond126) R6 load(1, XDATA, add(CFA_XSP16, literal(-10)))
        CFI (cfiCond126) VB load(1, XDATA, add(CFA_XSP16, literal(-9)))
        CFI (cfiCond126) V0 load(1, XDATA, add(CFA_XSP16, literal(-8)))
        CFI (cfiCond126) V1 load(1, XDATA, add(CFA_XSP16, literal(-7)))
        CFI (cfiCond126) R7 load(1, XDATA, add(CFA_XSP16, literal(-6)))
        CFI (cfiCond126) ?RET_LOW load(1, XDATA, add(CFA_XSP16, literal(-5)))
        CFI (cfiCond126) ?RET_HIGH load(1, XDATA, add(CFA_XSP16, literal(-4)))
        CFI (cfiCond126) ?BRET_EXT load(1, XDATA, add(CFA_XSP16, literal(-3)))
        CFI (cfiCond126) DPL0 load(1, XDATA, add(CFA_XSP16, literal(-2)))
        CFI (cfiCond126) DPH0 load(1, XDATA, add(CFA_XSP16, literal(-1)))
        CFI (cfiCond126) CFA_SP SP+0
        CFI (cfiCond126) CFA_XSP16 add(XSP16, 10)
        CFI Block cfiCond127 Using cfiCommon0
        CFI (cfiCond127) NoFunction
        CFI (cfiCond127) Conditional ??CrossCallReturnLabel_70
        CFI (cfiCond127) R6 load(1, XDATA, add(CFA_XSP16, literal(-19)))
        CFI (cfiCond127) VB load(1, XDATA, add(CFA_XSP16, literal(-18)))
        CFI (cfiCond127) V0 load(1, XDATA, add(CFA_XSP16, literal(-17)))
        CFI (cfiCond127) V1 load(1, XDATA, add(CFA_XSP16, literal(-16)))
        CFI (cfiCond127) V2 load(1, XDATA, add(CFA_XSP16, literal(-15)))
        CFI (cfiCond127) V3 load(1, XDATA, add(CFA_XSP16, literal(-14)))
        CFI (cfiCond127) V4 load(1, XDATA, add(CFA_XSP16, literal(-13)))
        CFI (cfiCond127) V5 load(1, XDATA, add(CFA_XSP16, literal(-12)))
        CFI (cfiCond127) V6 load(1, XDATA, add(CFA_XSP16, literal(-11)))
        CFI (cfiCond127) V7 load(1, XDATA, add(CFA_XSP16, literal(-10)))
        CFI (cfiCond127) V8 load(1, XDATA, add(CFA_XSP16, literal(-9)))
        CFI (cfiCond127) V9 load(1, XDATA, add(CFA_XSP16, literal(-8)))
        CFI (cfiCond127) V10 load(1, XDATA, add(CFA_XSP16, literal(-7)))
        CFI (cfiCond127) R7 load(1, XDATA, add(CFA_XSP16, literal(-6)))
        CFI (cfiCond127) ?RET_LOW load(1, XDATA, add(CFA_XSP16, literal(-5)))
        CFI (cfiCond127) ?RET_HIGH load(1, XDATA, add(CFA_XSP16, literal(-4)))
        CFI (cfiCond127) ?BRET_EXT load(1, XDATA, add(CFA_XSP16, literal(-3)))
        CFI (cfiCond127) DPL0 load(1, XDATA, add(CFA_XSP16, literal(-2)))
        CFI (cfiCond127) DPH0 load(1, XDATA, add(CFA_XSP16, literal(-1)))
        CFI (cfiCond127) CFA_SP SP+0
        CFI (cfiCond127) CFA_XSP16 add(XSP16, 22)
        CFI Block cfiCond128 Using cfiCommon0
        CFI (cfiCond128) NoFunction
        CFI (cfiCond128) Conditional ??CrossCallReturnLabel_71
        CFI (cfiCond128) R6 load(1, XDATA, add(CFA_XSP16, literal(-9)))
        CFI (cfiCond128) VB load(1, XDATA, add(CFA_XSP16, literal(-8)))
        CFI (cfiCond128) V0 load(1, XDATA, add(CFA_XSP16, literal(-7)))
        CFI (cfiCond128) R7 load(1, XDATA, add(CFA_XSP16, literal(-6)))
        CFI (cfiCond128) ?RET_LOW load(1, XDATA, add(CFA_XSP16, literal(-5)))
        CFI (cfiCond128) ?RET_HIGH load(1, XDATA, add(CFA_XSP16, literal(-4)))
        CFI (cfiCond128) ?BRET_EXT load(1, XDATA, add(CFA_XSP16, literal(-3)))
        CFI (cfiCond128) DPL0 load(1, XDATA, add(CFA_XSP16, literal(-2)))
        CFI (cfiCond128) DPH0 load(1, XDATA, add(CFA_XSP16, literal(-1)))
        CFI (cfiCond128) CFA_SP SP+0
        CFI (cfiCond128) CFA_XSP16 add(XSP16, 9)
        CFI Block cfiCond129 Using cfiCommon0
        CFI (cfiCond129) NoFunction
        CFI (cfiCond129) Conditional ??CrossCallReturnLabel_63
        CFI (cfiCond129) R6 load(1, XDATA, add(CFA_XSP16, literal(-19)))
        CFI (cfiCond129) VB load(1, XDATA, add(CFA_XSP16, literal(-18)))
        CFI (cfiCond129) V0 load(1, XDATA, add(CFA_XSP16, literal(-17)))
        CFI (cfiCond129) V1 load(1, XDATA, add(CFA_XSP16, literal(-16)))
        CFI (cfiCond129) V2 load(1, XDATA, add(CFA_XSP16, literal(-15)))
        CFI (cfiCond129) V3 load(1, XDATA, add(CFA_XSP16, literal(-14)))
        CFI (cfiCond129) V4 load(1, XDATA, add(CFA_XSP16, literal(-13)))
        CFI (cfiCond129) V5 load(1, XDATA, add(CFA_XSP16, literal(-12)))
        CFI (cfiCond129) V6 load(1, XDATA, add(CFA_XSP16, literal(-11)))
        CFI (cfiCond129) V7 load(1, XDATA, add(CFA_XSP16, literal(-10)))
        CFI (cfiCond129) V8 load(1, XDATA, add(CFA_XSP16, literal(-9)))
        CFI (cfiCond129) V9 load(1, XDATA, add(CFA_XSP16, literal(-8)))
        CFI (cfiCond129) V10 load(1, XDATA, add(CFA_XSP16, literal(-7)))
        CFI (cfiCond129) R7 load(1, XDATA, add(CFA_XSP16, literal(-6)))
        CFI (cfiCond129) ?RET_LOW load(1, XDATA, add(CFA_XSP16, literal(-5)))
        CFI (cfiCond129) ?RET_HIGH load(1, XDATA, add(CFA_XSP16, literal(-4)))
        CFI (cfiCond129) ?BRET_EXT load(1, XDATA, add(CFA_XSP16, literal(-3)))
        CFI (cfiCond129) DPL0 load(1, XDATA, add(CFA_XSP16, literal(-2)))
        CFI (cfiCond129) DPH0 load(1, XDATA, add(CFA_XSP16, literal(-1)))
        CFI (cfiCond129) CFA_SP SP+0
        CFI (cfiCond129) CFA_XSP16 add(XSP16, 22)
        CFI Block cfiCond130 Using cfiCommon0
        CFI (cfiCond130) NoFunction
        CFI (cfiCond130) Conditional ??CrossCallReturnLabel_64
        CFI (cfiCond130) R6 load(1, XDATA, add(CFA_XSP16, literal(-17)))
        CFI (cfiCond130) VB load(1, XDATA, add(CFA_XSP16, literal(-16)))
        CFI (cfiCond130) V0 load(1, XDATA, add(CFA_XSP16, literal(-15)))
        CFI (cfiCond130) V1 load(1, XDATA, add(CFA_XSP16, literal(-14)))
        CFI (cfiCond130) V2 load(1, XDATA, add(CFA_XSP16, literal(-13)))
        CFI (cfiCond130) V3 load(1, XDATA, add(CFA_XSP16, literal(-12)))
        CFI (cfiCond130) V4 load(1, XDATA, add(CFA_XSP16, literal(-11)))
        CFI (cfiCond130) V5 load(1, XDATA, add(CFA_XSP16, literal(-10)))
        CFI (cfiCond130) V6 load(1, XDATA, add(CFA_XSP16, literal(-9)))
        CFI (cfiCond130) V7 load(1, XDATA, add(CFA_XSP16, literal(-8)))
        CFI (cfiCond130) V8 load(1, XDATA, add(CFA_XSP16, literal(-7)))
        CFI (cfiCond130) R7 load(1, XDATA, add(CFA_XSP16, literal(-6)))
        CFI (cfiCond130) ?RET_LOW load(1, XDATA, add(CFA_XSP16, literal(-5)))
        CFI (cfiCond130) ?RET_HIGH load(1, XDATA, add(CFA_XSP16, literal(-4)))
        CFI (cfiCond130) ?BRET_EXT load(1, XDATA, add(CFA_XSP16, literal(-3)))
        CFI (cfiCond130) DPL0 load(1, XDATA, add(CFA_XSP16, literal(-2)))
        CFI (cfiCond130) DPH0 load(1, XDATA, add(CFA_XSP16, literal(-1)))
        CFI (cfiCond130) CFA_SP SP+0
        CFI (cfiCond130) CFA_XSP16 add(XSP16, 17)
        CFI Block cfiPicker131 Using cfiCommon1
        CFI (cfiPicker131) NoFunction
        CFI (cfiPicker131) Picker
        INC     DPTR
        INC     DPTR
        CFI EndBlock cfiCond123
        CFI EndBlock cfiCond124
        CFI EndBlock cfiCond125
        CFI EndBlock cfiCond126
        CFI EndBlock cfiCond127
        CFI EndBlock cfiCond128
        CFI EndBlock cfiCond129
        CFI EndBlock cfiCond130
        CFI EndBlock cfiPicker131
        REQUIRE ??Subroutine32_0
        ; // Fall through to label ??Subroutine32_0

        RSEG BANKED_CODE:CODE:NOROOT(0)
??Subroutine32_0:
        CFI Block cfiCond132 Using cfiCommon0
        CFI NoFunction
        CFI Conditional ??CrossCallReturnLabel_65
        CFI R6 load(1, XDATA, add(CFA_XSP16, literal(-17)))
        CFI VB load(1, XDATA, add(CFA_XSP16, literal(-16)))
        CFI V0 load(1, XDATA, add(CFA_XSP16, literal(-15)))
        CFI V1 load(1, XDATA, add(CFA_XSP16, literal(-14)))
        CFI V2 load(1, XDATA, add(CFA_XSP16, literal(-13)))
        CFI V3 load(1, XDATA, add(CFA_XSP16, literal(-12)))
        CFI V4 load(1, XDATA, add(CFA_XSP16, literal(-11)))
        CFI V5 load(1, XDATA, add(CFA_XSP16, literal(-10)))
        CFI V6 load(1, XDATA, add(CFA_XSP16, literal(-9)))
        CFI V7 load(1, XDATA, add(CFA_XSP16, literal(-8)))
        CFI V8 load(1, XDATA, add(CFA_XSP16, literal(-7)))
        CFI R7 load(1, XDATA, add(CFA_XSP16, literal(-6)))
        CFI ?RET_LOW load(1, XDATA, add(CFA_XSP16, literal(-5)))
        CFI ?RET_HIGH load(1, XDATA, add(CFA_XSP16, literal(-4)))
        CFI ?BRET_EXT load(1, XDATA, add(CFA_XSP16, literal(-3)))
        CFI DPL0 load(1, XDATA, add(CFA_XSP16, literal(-2)))
        CFI DPH0 load(1, XDATA, add(CFA_XSP16, literal(-1)))
        CFI CFA_SP SP+0
        CFI CFA_XSP16 add(XSP16, 17)
        CFI Block cfiCond133 Using cfiCommon0
        CFI (cfiCond133) NoFunction
        CFI (cfiCond133) Conditional ??CrossCallReturnLabel_66
        CFI (cfiCond133) R6 load(1, XDATA, add(CFA_XSP16, literal(-17)))
        CFI (cfiCond133) VB load(1, XDATA, add(CFA_XSP16, literal(-16)))
        CFI (cfiCond133) V0 load(1, XDATA, add(CFA_XSP16, literal(-15)))
        CFI (cfiCond133) V1 load(1, XDATA, add(CFA_XSP16, literal(-14)))
        CFI (cfiCond133) V2 load(1, XDATA, add(CFA_XSP16, literal(-13)))
        CFI (cfiCond133) V3 load(1, XDATA, add(CFA_XSP16, literal(-12)))
        CFI (cfiCond133) V4 load(1, XDATA, add(CFA_XSP16, literal(-11)))
        CFI (cfiCond133) V5 load(1, XDATA, add(CFA_XSP16, literal(-10)))
        CFI (cfiCond133) V6 load(1, XDATA, add(CFA_XSP16, literal(-9)))
        CFI (cfiCond133) V7 load(1, XDATA, add(CFA_XSP16, literal(-8)))
        CFI (cfiCond133) V8 load(1, XDATA, add(CFA_XSP16, literal(-7)))
        CFI (cfiCond133) R7 load(1, XDATA, add(CFA_XSP16, literal(-6)))
        CFI (cfiCond133) ?RET_LOW load(1, XDATA, add(CFA_XSP16, literal(-5)))
        CFI (cfiCond133) ?RET_HIGH load(1, XDATA, add(CFA_XSP16, literal(-4)))
        CFI (cfiCond133) ?BRET_EXT load(1, XDATA, add(CFA_XSP16, literal(-3)))
        CFI (cfiCond133) DPL0 load(1, XDATA, add(CFA_XSP16, literal(-2)))
        CFI (cfiCond133) DPH0 load(1, XDATA, add(CFA_XSP16, literal(-1)))
        CFI (cfiCond133) CFA_SP SP+0
        CFI (cfiCond133) CFA_XSP16 add(XSP16, 17)
        CFI Block cfiCond134 Using cfiCommon0
        CFI (cfiCond134) NoFunction
        CFI (cfiCond134) Conditional ??CrossCallReturnLabel_67
        CFI (cfiCond134) R6 load(1, XDATA, add(CFA_XSP16, literal(-17)))
        CFI (cfiCond134) VB load(1, XDATA, add(CFA_XSP16, literal(-16)))
        CFI (cfiCond134) V0 load(1, XDATA, add(CFA_XSP16, literal(-15)))
        CFI (cfiCond134) V1 load(1, XDATA, add(CFA_XSP16, literal(-14)))
        CFI (cfiCond134) V2 load(1, XDATA, add(CFA_XSP16, literal(-13)))
        CFI (cfiCond134) V3 load(1, XDATA, add(CFA_XSP16, literal(-12)))
        CFI (cfiCond134) V4 load(1, XDATA, add(CFA_XSP16, literal(-11)))
        CFI (cfiCond134) V5 load(1, XDATA, add(CFA_XSP16, literal(-10)))
        CFI (cfiCond134) V6 load(1, XDATA, add(CFA_XSP16, literal(-9)))
        CFI (cfiCond134) V7 load(1, XDATA, add(CFA_XSP16, literal(-8)))
        CFI (cfiCond134) V8 load(1, XDATA, add(CFA_XSP16, literal(-7)))
        CFI (cfiCond134) R7 load(1, XDATA, add(CFA_XSP16, literal(-6)))
        CFI (cfiCond134) ?RET_LOW load(1, XDATA, add(CFA_XSP16, literal(-5)))
        CFI (cfiCond134) ?RET_HIGH load(1, XDATA, add(CFA_XSP16, literal(-4)))
        CFI (cfiCond134) ?BRET_EXT load(1, XDATA, add(CFA_XSP16, literal(-3)))
        CFI (cfiCond134) DPL0 load(1, XDATA, add(CFA_XSP16, literal(-2)))
        CFI (cfiCond134) DPH0 load(1, XDATA, add(CFA_XSP16, literal(-1)))
        CFI (cfiCond134) CFA_SP SP+0
        CFI (cfiCond134) CFA_XSP16 add(XSP16, 17)
        CFI Block cfiCond135 Using cfiCommon0
        CFI (cfiCond135) NoFunction
        CFI (cfiCond135) Conditional ??CrossCallReturnLabel_68
        CFI (cfiCond135) R6 load(1, XDATA, add(CFA_XSP16, literal(-17)))
        CFI (cfiCond135) VB load(1, XDATA, add(CFA_XSP16, literal(-16)))
        CFI (cfiCond135) V0 load(1, XDATA, add(CFA_XSP16, literal(-15)))
        CFI (cfiCond135) V1 load(1, XDATA, add(CFA_XSP16, literal(-14)))
        CFI (cfiCond135) V2 load(1, XDATA, add(CFA_XSP16, literal(-13)))
        CFI (cfiCond135) V3 load(1, XDATA, add(CFA_XSP16, literal(-12)))
        CFI (cfiCond135) V4 load(1, XDATA, add(CFA_XSP16, literal(-11)))
        CFI (cfiCond135) V5 load(1, XDATA, add(CFA_XSP16, literal(-10)))
        CFI (cfiCond135) V6 load(1, XDATA, add(CFA_XSP16, literal(-9)))
        CFI (cfiCond135) V7 load(1, XDATA, add(CFA_XSP16, literal(-8)))
        CFI (cfiCond135) V8 load(1, XDATA, add(CFA_XSP16, literal(-7)))
        CFI (cfiCond135) R7 load(1, XDATA, add(CFA_XSP16, literal(-6)))
        CFI (cfiCond135) ?RET_LOW load(1, XDATA, add(CFA_XSP16, literal(-5)))
        CFI (cfiCond135) ?RET_HIGH load(1, XDATA, add(CFA_XSP16, literal(-4)))
        CFI (cfiCond135) ?BRET_EXT load(1, XDATA, add(CFA_XSP16, literal(-3)))
        CFI (cfiCond135) DPL0 load(1, XDATA, add(CFA_XSP16, literal(-2)))
        CFI (cfiCond135) DPH0 load(1, XDATA, add(CFA_XSP16, literal(-1)))
        CFI (cfiCond135) CFA_SP SP+0
        CFI (cfiCond135) CFA_XSP16 add(XSP16, 17)
        CFI Block cfiCond136 Using cfiCommon0
        CFI (cfiCond136) NoFunction
        CFI (cfiCond136) Conditional ??CrossCallReturnLabel_69
        CFI (cfiCond136) R6 load(1, XDATA, add(CFA_XSP16, literal(-10)))
        CFI (cfiCond136) VB load(1, XDATA, add(CFA_XSP16, literal(-9)))
        CFI (cfiCond136) V0 load(1, XDATA, add(CFA_XSP16, literal(-8)))
        CFI (cfiCond136) V1 load(1, XDATA, add(CFA_XSP16, literal(-7)))
        CFI (cfiCond136) R7 load(1, XDATA, add(CFA_XSP16, literal(-6)))
        CFI (cfiCond136) ?RET_LOW load(1, XDATA, add(CFA_XSP16, literal(-5)))
        CFI (cfiCond136) ?RET_HIGH load(1, XDATA, add(CFA_XSP16, literal(-4)))
        CFI (cfiCond136) ?BRET_EXT load(1, XDATA, add(CFA_XSP16, literal(-3)))
        CFI (cfiCond136) DPL0 load(1, XDATA, add(CFA_XSP16, literal(-2)))
        CFI (cfiCond136) DPH0 load(1, XDATA, add(CFA_XSP16, literal(-1)))
        CFI (cfiCond136) CFA_SP SP+0
        CFI (cfiCond136) CFA_XSP16 add(XSP16, 10)
        CFI Block cfiCond137 Using cfiCommon0
        CFI (cfiCond137) NoFunction
        CFI (cfiCond137) Conditional ??CrossCallReturnLabel_70
        CFI (cfiCond137) R6 load(1, XDATA, add(CFA_XSP16, literal(-19)))
        CFI (cfiCond137) VB load(1, XDATA, add(CFA_XSP16, literal(-18)))
        CFI (cfiCond137) V0 load(1, XDATA, add(CFA_XSP16, literal(-17)))
        CFI (cfiCond137) V1 load(1, XDATA, add(CFA_XSP16, literal(-16)))
        CFI (cfiCond137) V2 load(1, XDATA, add(CFA_XSP16, literal(-15)))
        CFI (cfiCond137) V3 load(1, XDATA, add(CFA_XSP16, literal(-14)))
        CFI (cfiCond137) V4 load(1, XDATA, add(CFA_XSP16, literal(-13)))
        CFI (cfiCond137) V5 load(1, XDATA, add(CFA_XSP16, literal(-12)))
        CFI (cfiCond137) V6 load(1, XDATA, add(CFA_XSP16, literal(-11)))
        CFI (cfiCond137) V7 load(1, XDATA, add(CFA_XSP16, literal(-10)))
        CFI (cfiCond137) V8 load(1, XDATA, add(CFA_XSP16, literal(-9)))
        CFI (cfiCond137) V9 load(1, XDATA, add(CFA_XSP16, literal(-8)))
        CFI (cfiCond137) V10 load(1, XDATA, add(CFA_XSP16, literal(-7)))
        CFI (cfiCond137) R7 load(1, XDATA, add(CFA_XSP16, literal(-6)))
        CFI (cfiCond137) ?RET_LOW load(1, XDATA, add(CFA_XSP16, literal(-5)))
        CFI (cfiCond137) ?RET_HIGH load(1, XDATA, add(CFA_XSP16, literal(-4)))
        CFI (cfiCond137) ?BRET_EXT load(1, XDATA, add(CFA_XSP16, literal(-3)))
        CFI (cfiCond137) DPL0 load(1, XDATA, add(CFA_XSP16, literal(-2)))
        CFI (cfiCond137) DPH0 load(1, XDATA, add(CFA_XSP16, literal(-1)))
        CFI (cfiCond137) CFA_SP SP+0
        CFI (cfiCond137) CFA_XSP16 add(XSP16, 22)
        CFI Block cfiCond138 Using cfiCommon0
        CFI (cfiCond138) NoFunction
        CFI (cfiCond138) Conditional ??CrossCallReturnLabel_71
        CFI (cfiCond138) R6 load(1, XDATA, add(CFA_XSP16, literal(-9)))
        CFI (cfiCond138) VB load(1, XDATA, add(CFA_XSP16, literal(-8)))
        CFI (cfiCond138) V0 load(1, XDATA, add(CFA_XSP16, literal(-7)))
        CFI (cfiCond138) R7 load(1, XDATA, add(CFA_XSP16, literal(-6)))
        CFI (cfiCond138) ?RET_LOW load(1, XDATA, add(CFA_XSP16, literal(-5)))
        CFI (cfiCond138) ?RET_HIGH load(1, XDATA, add(CFA_XSP16, literal(-4)))
        CFI (cfiCond138) ?BRET_EXT load(1, XDATA, add(CFA_XSP16, literal(-3)))
        CFI (cfiCond138) DPL0 load(1, XDATA, add(CFA_XSP16, literal(-2)))
        CFI (cfiCond138) DPH0 load(1, XDATA, add(CFA_XSP16, literal(-1)))
        CFI (cfiCond138) CFA_SP SP+0
        CFI (cfiCond138) CFA_XSP16 add(XSP16, 9)
        CFI Block cfiCond139 Using cfiCommon0
        CFI (cfiCond139) NoFunction
        CFI (cfiCond139) Conditional ??CrossCallReturnLabel_63
        CFI (cfiCond139) R6 load(1, XDATA, add(CFA_XSP16, literal(-19)))
        CFI (cfiCond139) VB load(1, XDATA, add(CFA_XSP16, literal(-18)))
        CFI (cfiCond139) V0 load(1, XDATA, add(CFA_XSP16, literal(-17)))
        CFI (cfiCond139) V1 load(1, XDATA, add(CFA_XSP16, literal(-16)))
        CFI (cfiCond139) V2 load(1, XDATA, add(CFA_XSP16, literal(-15)))
        CFI (cfiCond139) V3 load(1, XDATA, add(CFA_XSP16, literal(-14)))
        CFI (cfiCond139) V4 load(1, XDATA, add(CFA_XSP16, literal(-13)))
        CFI (cfiCond139) V5 load(1, XDATA, add(CFA_XSP16, literal(-12)))
        CFI (cfiCond139) V6 load(1, XDATA, add(CFA_XSP16, literal(-11)))
        CFI (cfiCond139) V7 load(1, XDATA, add(CFA_XSP16, literal(-10)))
        CFI (cfiCond139) V8 load(1, XDATA, add(CFA_XSP16, literal(-9)))
        CFI (cfiCond139) V9 load(1, XDATA, add(CFA_XSP16, literal(-8)))
        CFI (cfiCond139) V10 load(1, XDATA, add(CFA_XSP16, literal(-7)))
        CFI (cfiCond139) R7 load(1, XDATA, add(CFA_XSP16, literal(-6)))
        CFI (cfiCond139) ?RET_LOW load(1, XDATA, add(CFA_XSP16, literal(-5)))
        CFI (cfiCond139) ?RET_HIGH load(1, XDATA, add(CFA_XSP16, literal(-4)))
        CFI (cfiCond139) ?BRET_EXT load(1, XDATA, add(CFA_XSP16, literal(-3)))
        CFI (cfiCond139) DPL0 load(1, XDATA, add(CFA_XSP16, literal(-2)))
        CFI (cfiCond139) DPH0 load(1, XDATA, add(CFA_XSP16, literal(-1)))
        CFI (cfiCond139) CFA_SP SP+0
        CFI (cfiCond139) CFA_XSP16 add(XSP16, 22)
        CFI Block cfiCond140 Using cfiCommon0
        CFI (cfiCond140) NoFunction
        CFI (cfiCond140) Conditional ??CrossCallReturnLabel_64
        CFI (cfiCond140) R6 load(1, XDATA, add(CFA_XSP16, literal(-17)))
        CFI (cfiCond140) VB load(1, XDATA, add(CFA_XSP16, literal(-16)))
        CFI (cfiCond140) V0 load(1, XDATA, add(CFA_XSP16, literal(-15)))
        CFI (cfiCond140) V1 load(1, XDATA, add(CFA_XSP16, literal(-14)))
        CFI (cfiCond140) V2 load(1, XDATA, add(CFA_XSP16, literal(-13)))
        CFI (cfiCond140) V3 load(1, XDATA, add(CFA_XSP16, literal(-12)))
        CFI (cfiCond140) V4 load(1, XDATA, add(CFA_XSP16, literal(-11)))
        CFI (cfiCond140) V5 load(1, XDATA, add(CFA_XSP16, literal(-10)))
        CFI (cfiCond140) V6 load(1, XDATA, add(CFA_XSP16, literal(-9)))
        CFI (cfiCond140) V7 load(1, XDATA, add(CFA_XSP16, literal(-8)))
        CFI (cfiCond140) V8 load(1, XDATA, add(CFA_XSP16, literal(-7)))
        CFI (cfiCond140) R7 load(1, XDATA, add(CFA_XSP16, literal(-6)))
        CFI (cfiCond140) ?RET_LOW load(1, XDATA, add(CFA_XSP16, literal(-5)))
        CFI (cfiCond140) ?RET_HIGH load(1, XDATA, add(CFA_XSP16, literal(-4)))
        CFI (cfiCond140) ?BRET_EXT load(1, XDATA, add(CFA_XSP16, literal(-3)))
        CFI (cfiCond140) DPL0 load(1, XDATA, add(CFA_XSP16, literal(-2)))
        CFI (cfiCond140) DPH0 load(1, XDATA, add(CFA_XSP16, literal(-1)))
        CFI (cfiCond140) CFA_SP SP+0
        CFI (cfiCond140) CFA_XSP16 add(XSP16, 17)
        CFI Block cfiPicker141 Using cfiCommon1
        CFI (cfiPicker141) NoFunction
        CFI (cfiPicker141) Picker
        MOVX    A,@DPTR
        MOV     R0,A
        INC     DPTR
        MOVX    A,@DPTR
        MOV     R1,A
        MOV     A,R0
        ORL     A,R1
        RET
        CFI EndBlock cfiCond132
        CFI EndBlock cfiCond133
        CFI EndBlock cfiCond134
        CFI EndBlock cfiCond135
        CFI EndBlock cfiCond136
        CFI EndBlock cfiCond137
        CFI EndBlock cfiCond138
        CFI EndBlock cfiCond139
        CFI EndBlock cfiCond140
        CFI EndBlock cfiPicker141
//  245 

        RSEG BANKED_CODE:CODE:NOROOT(0)
//  246 uint16 sapp_functionEpProcess(uint8 task_id, uint16 events)
sapp_functionEpProcess:
        CFI Block cfiBlock142 Using cfiCommon0
        CFI Function sapp_functionEpProcess
        CODE
//  247 {
        FUNCALL sapp_functionEpProcess, osal_msg_receive
        LOCFRAME ISTACK, 0, STACK
        LOCFRAME PSTACK, 0, STACK
        LOCFRAME XSTACK, 17, STACK
        LOCFRAME IOVERLAY, 0, STATIC
        LOCFRAME DOVERLAY, 0, STATIC
        ARGFRAME ISTACK, 0, STACK
        ARGFRAME PSTACK, 0, STACK
        ARGFRAME XSTACK, 17, STACK
        ARGFRAME IOVERLAY, 0, STATIC
        ARGFRAME DOVERLAY, 0, STATIC
        FUNCALL sapp_functionEpProcess, osal_msg_deallocate
        LOCFRAME ISTACK, 0, STACK
        LOCFRAME PSTACK, 0, STACK
        LOCFRAME XSTACK, 17, STACK
        LOCFRAME IOVERLAY, 0, STATIC
        LOCFRAME DOVERLAY, 0, STATIC
        ARGFRAME ISTACK, 0, STACK
        ARGFRAME PSTACK, 0, STACK
        ARGFRAME XSTACK, 17, STACK
        ARGFRAME IOVERLAY, 0, STATIC
        ARGFRAME DOVERLAY, 0, STATIC
        FUNCALL sapp_functionEpProcess, osal_msg_receive
        LOCFRAME ISTACK, 0, STACK
        LOCFRAME PSTACK, 0, STACK
        LOCFRAME XSTACK, 17, STACK
        LOCFRAME IOVERLAY, 0, STATIC
        LOCFRAME DOVERLAY, 0, STATIC
        ARGFRAME ISTACK, 0, STACK
        ARGFRAME PSTACK, 0, STACK
        ARGFRAME XSTACK, 17, STACK
        ARGFRAME IOVERLAY, 0, STATIC
        ARGFRAME DOVERLAY, 0, STATIC
        FUNCALL sapp_functionEpProcess, HalLedBlink
        LOCFRAME ISTACK, 0, STACK
        LOCFRAME PSTACK, 0, STACK
        LOCFRAME XSTACK, 17, STACK
        LOCFRAME IOVERLAY, 0, STATIC
        LOCFRAME DOVERLAY, 0, STATIC
        ARGFRAME ISTACK, 0, STACK
        ARGFRAME PSTACK, 0, STACK
        ARGFRAME XSTACK, 17, STACK
        ARGFRAME IOVERLAY, 0, STATIC
        ARGFRAME DOVERLAY, 0, STATIC
        FUNCALL sapp_functionEpProcess, osal_start_timerEx
        LOCFRAME ISTACK, 0, STACK
        LOCFRAME PSTACK, 0, STACK
        LOCFRAME XSTACK, 17, STACK
        LOCFRAME IOVERLAY, 0, STATIC
        LOCFRAME DOVERLAY, 0, STATIC
        ARGFRAME ISTACK, 0, STACK
        ARGFRAME PSTACK, 0, STACK
        ARGFRAME XSTACK, 17, STACK
        ARGFRAME IOVERLAY, 0, STATIC
        ARGFRAME DOVERLAY, 0, STATIC
        FUNCALL sapp_functionEpProcess, osal_stop_timerEx
        LOCFRAME ISTACK, 0, STACK
        LOCFRAME PSTACK, 0, STACK
        LOCFRAME XSTACK, 17, STACK
        LOCFRAME IOVERLAY, 0, STATIC
        LOCFRAME DOVERLAY, 0, STATIC
        ARGFRAME ISTACK, 0, STACK
        ARGFRAME PSTACK, 0, STACK
        ARGFRAME XSTACK, 17, STACK
        ARGFRAME IOVERLAY, 0, STATIC
        ARGFRAME DOVERLAY, 0, STATIC
        FUNCALL sapp_functionEpProcess, osal_start_timerEx
        LOCFRAME ISTACK, 0, STACK
        LOCFRAME PSTACK, 0, STACK
        LOCFRAME XSTACK, 17, STACK
        LOCFRAME IOVERLAY, 0, STATIC
        LOCFRAME DOVERLAY, 0, STATIC
        ARGFRAME ISTACK, 0, STACK
        ARGFRAME PSTACK, 0, STACK
        ARGFRAME XSTACK, 17, STACK
        ARGFRAME IOVERLAY, 0, STATIC
        ARGFRAME DOVERLAY, 0, STATIC
        MOV     A,#-0x11
        LCALL   ?BANKED_ENTER_XDATA
        CFI DPH0 load(1, XDATA, add(CFA_XSP16, literal(-1)))
        CFI DPL0 load(1, XDATA, add(CFA_XSP16, literal(-2)))
        CFI ?BRET_EXT load(1, XDATA, add(CFA_XSP16, literal(-3)))
        CFI ?RET_HIGH load(1, XDATA, add(CFA_XSP16, literal(-4)))
        CFI ?RET_LOW load(1, XDATA, add(CFA_XSP16, literal(-5)))
        CFI R7 load(1, XDATA, add(CFA_XSP16, literal(-6)))
        CFI V8 load(1, XDATA, add(CFA_XSP16, literal(-7)))
        CFI V7 load(1, XDATA, add(CFA_XSP16, literal(-8)))
        CFI V6 load(1, XDATA, add(CFA_XSP16, literal(-9)))
        CFI V5 load(1, XDATA, add(CFA_XSP16, literal(-10)))
        CFI V4 load(1, XDATA, add(CFA_XSP16, literal(-11)))
        CFI V3 load(1, XDATA, add(CFA_XSP16, literal(-12)))
        CFI V2 load(1, XDATA, add(CFA_XSP16, literal(-13)))
        CFI V1 load(1, XDATA, add(CFA_XSP16, literal(-14)))
        CFI V0 load(1, XDATA, add(CFA_XSP16, literal(-15)))
        CFI VB load(1, XDATA, add(CFA_XSP16, literal(-16)))
        CFI R6 load(1, XDATA, add(CFA_XSP16, literal(-17)))
        CFI CFA_SP SP+0
        CFI CFA_XSP16 add(XSP16, 17)
        ; Saved register size: 17
        ; Auto size: 0
        MOV     ?V0 + 8,R1
        MOV     ?V0 + 0,R2
        MOV     ?V0 + 1,R3
//  248     afIncomingMSGPacket_t *MSGpkt;
//  249     if(events & SYS_EVENT_MSG)
        MOV     A,R3
        ANL     A,#0x80
        JNZ     $+5
        LJMP    ??sapp_functionEpProcess_0 & 0xFFFF
//  250     {
//  251         MSGpkt = (afIncomingMSGPacket_t *)osal_msg_receive( task_id );
        ; Setup parameters for call to function osal_msg_receive
        SJMP    ??sapp_functionEpProcess_1
//  252         while ( MSGpkt )
//  253         {
//  254             switch ( MSGpkt->hdr.event )
//  255             {
//  256             // 接收到数据包
//  257             case AF_INCOMING_MSG_CMD:
//  258                 {
//  259                     switch ( MSGpkt->clusterId )
//  260                     {
//  261                     case SAPP_PERIODIC_CLUSTERID:
//  262                         if(MSGpkt->endPoint <= funcCount)
//  263                         {
//  264                             struct ep_info_t *ep = &funcList[MSGpkt->endPoint - 1];
//  265                             if(ep->incoming_data)
//  266                                 (*ep->incoming_data)(ep, MSGpkt->srcAddr.addr.shortAddr, MSGpkt->srcAddr.endPoint, &MSGpkt->cmd);
//  267                         }
//  268                         HalLedBlink( HAL_LED_2, 1, 50, 250 );
//  269                         break;
//  270                     }
//  271                 }
//  272                 break;
//  273 
//  274             case ZDO_STATE_CHANGE:
//  275                 {
//  276                     curNwkState = (devStates_t)(MSGpkt->hdr.status);
//  277                     if ( (curNwkState == DEV_ZB_COORD)
//  278                             || (curNwkState == DEV_ROUTER)
//  279                             || (curNwkState == DEV_END_DEVICE) )
//  280                     {
//  281                         int i;
//  282                         int hasTimeOut = 0;
//  283                         for(i = 0; i < funcCount; i++)
//  284                         {
//  285                             struct ep_info_t *ep = &funcList[i];
//  286                             if(ep->nwk_stat_change)
//  287                                 (*ep->nwk_stat_change)(ep);
//  288                             // 重置端点计数器
//  289                             if(ep->time_out && ep->function.cycle)
//  290                             {
//  291                                 ep->timerTick = ep->function.cycle;
//  292                                 hasTimeOut = 1;
//  293                             }
//  294                         }
//  295                         if(hasTimeOut)
//  296                         {
//  297                             // 加入网络成功,启动定时器,为各个端点提供定时
//  298                             osal_start_timerEx(task_id,
//  299                                                SAPP_SEND_PERIODIC_MSG_EVT,
//  300                                                1000);
//  301                         }
//  302                     }
//  303                     else
//  304                         osal_stop_timerEx(task_id, SAPP_SEND_PERIODIC_MSG_EVT);
//  305                 }
//  306                 break;
//  307             case IOPORT_INT_EVENT:
//  308               {
//  309                 OSALIOIntData_t* IOIntData;
//  310                 IOIntData =(OSALIOIntData_t*)MSGpkt;
//  311                 if(IOIntData->endPoint <= funcCount)
??sapp_functionEpProcess_2:
        INC     DPTR
        INC     DPTR
        LCALL   ?Subroutine10 & 0xFFFF
??CrossCallReturnLabel_12:
        JC      ??sapp_functionEpProcess_3
//  312                 {
//  313                     struct ep_info_t *ep = &funcList[IOIntData->endPoint - 1];
        MOV     DPL,R6
        MOV     DPH,R7
        INC     DPTR
        INC     DPTR
        LCALL   ?Subroutine7 & 0xFFFF
??CrossCallReturnLabel_8:
        LCALL   ?Subroutine2 & 0xFFFF
//  314                     if(ep->res_available)
??CrossCallReturnLabel_64:
        JZ      ??sapp_functionEpProcess_3
//  315                         (*ep->res_available)(ep, ResIOInt, IOIntData->arg);
        ; Setup parameters for indirect call
        MOV     DPL,R6
        MOV     DPH,R7
        LCALL   ??Subroutine38_0 & 0xFFFF
//  316                 }
//  317               }
??CrossCallReturnLabel_89:
        MOV     R1,#0x5
        LCALL   ?Subroutine4 & 0xFFFF
??CrossCallReturnLabel_62:
        LCALL   ?CALL_IND
//  318               break;
//  319 #if defined(HAL_IRDEC) && (HAL_IRDEC == TRUE)
//  320             case IRDEC_INT_EVENT:   //
//  321               {
//  322                 OSALIRDecIntData_t* TimerIntData = (OSALIRDecIntData_t*)MSGpkt;
//  323                 if(TimerIntData->endPoint <= funcCount)
//  324                 {
//  325                     struct ep_info_t *ep = &funcList[TimerIntData->endPoint - 1];
//  326                     if(ep->res_available)
//  327                         (*ep->res_available)(ep, ResTimerInt, TimerIntData->data);
//  328                 }
//  329               }
//  330               break;
//  331 #endif
//  332             default:
//  333                 break;
//  334             }
//  335             // Release the memory
//  336             osal_msg_deallocate( (uint8 *)MSGpkt );
??sapp_functionEpProcess_3:
        ; Setup parameters for call to function osal_msg_deallocate
        MOV     A,R6
        MOV     R2,A
        MOV     A,R7
        MOV     R3,A
        LCALL   ??osal_msg_deallocate?relay
//  337             // Next - if one is available
//  338             MSGpkt = (afIncomingMSGPacket_t *)osal_msg_receive( task_id );
        ; Setup parameters for call to function osal_msg_receive
        MOV     R1,?V0 + 8
??sapp_functionEpProcess_1:
        LCALL   ??osal_msg_receive?relay
        MOV     ?V0 + 2,R2
        MOV     ?V0 + 3,R3
        MOV     R6,?V0 + 2
        MOV     R7,?V0 + 3
        MOV     A,R6
        ORL     A,R7
        JNZ     $+5
        LJMP    ??sapp_functionEpProcess_4 & 0xFFFF
        MOV     DPL,R6
        MOV     DPH,R7
        MOVX    A,@DPTR
        ADD     A,#-0x1a
        JZ      ??sapp_functionEpProcess_5
        ADD     A,#0x49
        JZ      ??sapp_functionEpProcess_6
        ADD     A,#-0x1f
        JZ      ??sapp_functionEpProcess_2
        SJMP    ??sapp_functionEpProcess_3
??sapp_functionEpProcess_5:
        INC     DPTR
        INC     DPTR
        INC     DPTR
        INC     DPTR
        MOVX    A,@DPTR
        XRL     A,#0x1
        JNZ     ??sapp_functionEpProcess_7
        INC     DPTR
        MOVX    A,@DPTR
??sapp_functionEpProcess_7:
        JNZ     ??sapp_functionEpProcess_3
        MOV     A,R6
        ADD     A,#0x14
        MOV     DPL,A
        MOV     A,R7
        LCALL   ??Subroutine26_0 & 0xFFFF
??CrossCallReturnLabel_40:
        LCALL   ?Subroutine10 & 0xFFFF
??CrossCallReturnLabel_13:
        JC      ??sapp_functionEpProcess_8
        MOV     A,R6
        ADD     A,#0x14
        MOV     DPL,A
        MOV     A,R7
        LCALL   ??Subroutine26_0 & 0xFFFF
??CrossCallReturnLabel_41:
        LCALL   ?Subroutine7 & 0xFFFF
??CrossCallReturnLabel_9:
        ADDC    A,R1
        MOV     R3,A
        MOV     DPL,R2
        MOV     DPH,R3
        LCALL   ??Subroutine31_0 & 0xFFFF
??CrossCallReturnLabel_66:
        JZ      ??sapp_functionEpProcess_8
        ; Setup parameters for indirect call
        MOV     A,R6
        ADD     A,#0x1f
        MOV     ?V0 + 2,A
        MOV     A,R7
        ADDC    A,#0x0
        MOV     ?V0 + 3,A
        MOV     R0,#?V0 + 2
        LCALL   ?PUSH_XSTACK_I_TWO
        CFI CFA_XSP16 add(XSP16, 19)
        MOV     A,R6
        ADD     A,#0xf
        MOV     DPL,A
        MOV     A,R7
        LCALL   ??Subroutine34_0 & 0xFFFF
??CrossCallReturnLabel_73:
        MOV     R1,A
        LCALL   ?Subroutine8 & 0xFFFF
??CrossCallReturnLabel_94:
        MOV     DPL,R2
        MOV     DPH,R3
        INC     DPTR
        INC     DPTR
        MOVX    A,@DPTR
        MOV     R0,A
        LCALL   ??Subroutine27_0 & 0xFFFF
??CrossCallReturnLabel_57:
        LCALL   ?CALL_IND
        MOV     A,#0x2
        LCALL   ?DEALLOC_XSTACK8
        CFI CFA_XSP16 add(XSP16, 17)
??sapp_functionEpProcess_8:
        ; Setup parameters for call to function HalLedBlink
        MOV     R4,#-0x6
        MOV     R5,#0x0
        MOV     R3,#0x32
        MOV     R2,#0x1
        MOV     R1,#0x2
        LCALL   ??HalLedBlink?relay
        LJMP    ??sapp_functionEpProcess_3 & 0xFFFF
??sapp_functionEpProcess_6:
        INC     DPTR
        MOVX    A,@DPTR
        MOV     DPTR,#curNwkState
        MOVX    @DPTR,A
        XRL     A,#0x9
        JZ      ??sapp_functionEpProcess_9
        MOVX    A,@DPTR
        XRL     A,#0x7
        JZ      ??sapp_functionEpProcess_9
        MOVX    A,@DPTR
        XRL     A,#0x6
        JZ      $+5
        LJMP    ??sapp_functionEpProcess_10 & 0xFFFF
??sapp_functionEpProcess_9:
        MOV     ?V0 + 4,#0x0
        MOV     ?V0 + 2,#0x0
        MOV     ?V0 + 3,#0x0
        SJMP    ??sapp_functionEpProcess_11
??sapp_functionEpProcess_12:
        MOV     A,?V0 + 2
        MOV     B,#0x21
        MUL     AB
        MOV     R0,A
        MOV     R2,B
        MOV     B,#0x21
        MOV     A,?V0 + 3
        LCALL   ??Subroutine25_0 & 0xFFFF
??CrossCallReturnLabel_36:
        MOV     ?V0 + 6,A
        MOV     A,#(funcList >> 8) & 0xff
        ADDC    A,R1
        MOV     ?V0 + 7,A
        MOV     DPL,?V0 + 6
        MOV     DPH,A
        LCALL   ??Subroutine32_0 & 0xFFFF
??CrossCallReturnLabel_65:
        JZ      ??sapp_functionEpProcess_13
        ; Setup parameters for indirect call
        MOV     R2,?V0 + 6
        MOV     R3,?V0 + 7
        MOV     DPL,R2
        MOV     DPH,R3
        LCALL   ??Subroutine27_0 & 0xFFFF
??CrossCallReturnLabel_58:
        LCALL   ?CALL_IND
??sapp_functionEpProcess_13:
        MOV     DPL,?V0 + 6
        MOV     DPH,?V0 + 7
        LCALL   ??Subroutine30_0 & 0xFFFF
??CrossCallReturnLabel_67:
        JZ      ??sapp_functionEpProcess_14
        MOV     DPL,?V0 + 6
        MOV     DPH,?V0 + 7
        INC     DPTR
        INC     DPTR
        INC     DPTR
        INC     DPTR
        INC     DPTR
        INC     DPTR
        INC     DPTR
        INC     DPTR
        INC     DPTR
        INC     DPTR
        MOVX    A,@DPTR
        JZ      ??sapp_functionEpProcess_14
        PUSH    A
        CFI CFA_SP SP+-1
        MOV     A,?V0 + 6
        ADD     A,#0xd
        MOV     DPL,A
        MOV     A,?V0 + 7
        LCALL   ??Subroutine26_0 & 0xFFFF
??CrossCallReturnLabel_42:
        POP     A
        CFI CFA_SP SP+0
        MOVX    @DPTR,A
        MOV     ?V0 + 4,#0x1
??sapp_functionEpProcess_14:
        MOV     A,?V0 + 2
        ADD     A,#0x1
        MOV     ?V0 + 2,A
        MOV     A,?V0 + 3
        ADDC    A,#0x0
        MOV     ?V0 + 3,A
??sapp_functionEpProcess_11:
        MOV     DPTR,#funcCount
        MOVX    A,@DPTR
        MOV     R0,A
        CLR     C
        MOV     A,?V0 + 2
        SUBB    A,R0
        MOV     A,?V0 + 3
        LCALL   ?Subroutine24 & 0xFFFF
??CrossCallReturnLabel_34:
        JC      ??sapp_functionEpProcess_12
        MOV     A,?V0 + 4
        MOV     C,0xE0 /* A   */.0
        JC      $+5
        LJMP    ??sapp_functionEpProcess_3 & 0xFFFF
        ; Setup parameters for call to function osal_start_timerEx
        MOV     R4,#-0x18
        MOV     R5,#0x3
        MOV     R2,#0x1
        MOV     R3,#0x0
        MOV     R1,?V0 + 8
        LCALL   ??osal_start_timerEx?relay
        LJMP    ??sapp_functionEpProcess_3 & 0xFFFF
??sapp_functionEpProcess_10:
        ; Setup parameters for call to function osal_stop_timerEx
        MOV     R2,#0x1
        MOV     R3,#0x0
        MOV     R1,?V0 + 8
        LCALL   ??osal_stop_timerEx?relay
        LJMP    ??sapp_functionEpProcess_3 & 0xFFFF
//  339         }
//  340         // return unprocessed events
//  341         return (events ^ SYS_EVENT_MSG);
??sapp_functionEpProcess_4:
        MOV     R2,?V0 + 0
        MOV     A,?V0 + 1
        XRL     A,#0x80
        MOV     R3,A
        LJMP    ??sapp_functionEpProcess_15 & 0xFFFF
//  342     }
//  343 
//  344     // 定时器时间到, 遍历所有端点看是否有需要调用time_out
//  345     if(events & SAPP_SEND_PERIODIC_MSG_EVT)
??sapp_functionEpProcess_0:
        MOV     A,R2
        MOV     C,0xE0 /* A   */.0
        JC      $+5
        LJMP    ??sapp_functionEpProcess_16 & 0xFFFF
//  346     {
//  347         int i;
//  348         for(i = 0; i < funcCount; i++)
        MOV     R6,#0x0
        MOV     R7,#0x0
        SJMP    ??CrossCallReturnLabel_26
//  349         {
//  350             struct ep_info_t *ep = &funcList[i];
??sapp_functionEpProcess_17:
        LCALL   ?Subroutine20 & 0xFFFF
??CrossCallReturnLabel_39:
        MOV     ?V0 + 2,A
        MOV     A,#(funcList >> 8) & 0xff
        ADDC    A,R1
        MOV     ?V0 + 3,A
//  351             if(ep->time_out && ep->function.cycle)
        MOV     DPL,?V0 + 2
        MOV     DPH,A
        LCALL   ??Subroutine30_0 & 0xFFFF
??CrossCallReturnLabel_68:
        JZ      ??sapp_functionEpProcess_18
        MOV     DPL,?V0 + 2
        MOV     DPH,?V0 + 3
        INC     DPTR
        INC     DPTR
        INC     DPTR
        INC     DPTR
        INC     DPTR
        INC     DPTR
        INC     DPTR
        INC     DPTR
        INC     DPTR
        INC     DPTR
        MOVX    A,@DPTR
        JZ      ??sapp_functionEpProcess_18
//  352             {
//  353                 // 端点需要周期执行
//  354                 ep->timerTick = ep->timerTick - 1;
        MOV     A,?V0 + 2
        ADD     A,#0xd
        MOV     DPL,A
        MOV     A,?V0 + 3
        LCALL   ??Subroutine34_0 & 0xFFFF
??CrossCallReturnLabel_74:
        DEC     A
        MOVX    @DPTR,A
//  355                 if(ep->timerTick == 0)
        JNZ     ??sapp_functionEpProcess_18
//  356                 {
//  357                   // 定时时间到,执行time_out函数
//  358                   (*ep->time_out)(ep);
        ; Setup parameters for indirect call
        MOV     R2,?V0 + 2
        MOV     R3,?V0 + 3
        MOV     DPL,R2
        MOV     DPH,R3
        INC     DPTR
        INC     DPTR
        INC     DPTR
        INC     DPTR
        MOVX    A,@DPTR
        MOV     R0,A
        LCALL   ??Subroutine27_0 & 0xFFFF
??CrossCallReturnLabel_59:
        LCALL   ?CALL_IND
//  359                   ep->timerTick = ep->function.cycle;
        MOV     DPL,?V0 + 2
        MOV     DPH,?V0 + 3
        INC     DPTR
        INC     DPTR
        INC     DPTR
        INC     DPTR
        INC     DPTR
        INC     DPTR
        INC     DPTR
        INC     DPTR
        INC     DPTR
        INC     DPTR
        MOVX    A,@DPTR
        PUSH    A
        CFI CFA_SP SP+-1
        MOV     A,?V0 + 2
        ADD     A,#0xd
        MOV     DPL,A
        MOV     A,?V0 + 3
        LCALL   ??Subroutine26_0 & 0xFFFF
//  360                 }
//  361             }
//  362 #if 0
//  363             if(ep->userTimer && ep->res_available)
//  364             {
//  365                 ep->userTimer = ep->userTimer - 1;
//  366                 if(ep->userTimer <= 1)
//  367                 {
//  368                     (*ep->res_available)(ep, ResUserTimer, NULL);
//  369                     ep->userTimer = 0;
//  370                 }
//  371             }
//  372 #endif
//  373         }
??CrossCallReturnLabel_43:
        POP     A
        CFI CFA_SP SP+0
        MOVX    @DPTR,A
??sapp_functionEpProcess_18:
        LCALL   ?Subroutine18 & 0xFFFF
??CrossCallReturnLabel_26:
        LCALL   ?Subroutine3 & 0xFFFF
??CrossCallReturnLabel_3:
        JC      ??sapp_functionEpProcess_17
//  374         // 重新启动定时器
//  375         osal_start_timerEx(task_id, SAPP_SEND_PERIODIC_MSG_EVT, 1000);
        ; Setup parameters for call to function osal_start_timerEx
        MOV     R4,#-0x18
        MOV     R5,#0x3
        MOV     R2,#0x1
        MOV     R3,#0x0
        MOV     R1,?V0 + 8
        LCALL   ??osal_start_timerEx?relay
//  376         // return unprocessed events
//  377         return (events ^ SAPP_SEND_PERIODIC_MSG_EVT);
        MOV     A,?V0 + 0
        XRL     A,#0x1
        MOV     R2,A
        MOV     R3,?V0 + 1
        SJMP    ??sapp_functionEpProcess_15
//  378     }
//  379     // Discard unknown events
//  380     return 0;
??sapp_functionEpProcess_16:
        MOV     R2,#0x0
        MOV     R3,#0x0
??sapp_functionEpProcess_15:
        MOV     R7,#0x9
        LJMP    ?BANKED_LEAVE_XDATA
        CFI EndBlock cfiBlock142
//  381 }

        RSEG BANKED_CODE:CODE:NOROOT(0)
?Subroutine13:
        CFI Block cfiCond143 Using cfiCommon0
        CFI NoFunction
        CFI Conditional ??CrossCallReturnLabel_76
        CFI R6 load(1, XDATA, add(CFA_XSP16, literal(-19)))
        CFI VB load(1, XDATA, add(CFA_XSP16, literal(-18)))
        CFI V0 load(1, XDATA, add(CFA_XSP16, literal(-17)))
        CFI V1 load(1, XDATA, add(CFA_XSP16, literal(-16)))
        CFI V2 load(1, XDATA, add(CFA_XSP16, literal(-15)))
        CFI V3 load(1, XDATA, add(CFA_XSP16, literal(-14)))
        CFI V4 load(1, XDATA, add(CFA_XSP16, literal(-13)))
        CFI V5 load(1, XDATA, add(CFA_XSP16, literal(-12)))
        CFI V6 load(1, XDATA, add(CFA_XSP16, literal(-11)))
        CFI V7 load(1, XDATA, add(CFA_XSP16, literal(-10)))
        CFI V8 load(1, XDATA, add(CFA_XSP16, literal(-9)))
        CFI V9 load(1, XDATA, add(CFA_XSP16, literal(-8)))
        CFI V10 load(1, XDATA, add(CFA_XSP16, literal(-7)))
        CFI R7 load(1, XDATA, add(CFA_XSP16, literal(-6)))
        CFI ?RET_LOW load(1, XDATA, add(CFA_XSP16, literal(-5)))
        CFI ?RET_HIGH load(1, XDATA, add(CFA_XSP16, literal(-4)))
        CFI ?BRET_EXT load(1, XDATA, add(CFA_XSP16, literal(-3)))
        CFI DPL0 load(1, XDATA, add(CFA_XSP16, literal(-2)))
        CFI DPH0 load(1, XDATA, add(CFA_XSP16, literal(-1)))
        CFI CFA_SP SP+0
        CFI CFA_XSP16 add(XSP16, 22)
        CFI Block cfiCond144 Using cfiCommon0
        CFI (cfiCond144) NoFunction
        CFI (cfiCond144) Conditional ??CrossCallReturnLabel_77
        CFI (cfiCond144) R6 load(1, XDATA, add(CFA_XSP16, literal(-19)))
        CFI (cfiCond144) VB load(1, XDATA, add(CFA_XSP16, literal(-18)))
        CFI (cfiCond144) V0 load(1, XDATA, add(CFA_XSP16, literal(-17)))
        CFI (cfiCond144) V1 load(1, XDATA, add(CFA_XSP16, literal(-16)))
        CFI (cfiCond144) V2 load(1, XDATA, add(CFA_XSP16, literal(-15)))
        CFI (cfiCond144) V3 load(1, XDATA, add(CFA_XSP16, literal(-14)))
        CFI (cfiCond144) V4 load(1, XDATA, add(CFA_XSP16, literal(-13)))
        CFI (cfiCond144) V5 load(1, XDATA, add(CFA_XSP16, literal(-12)))
        CFI (cfiCond144) V6 load(1, XDATA, add(CFA_XSP16, literal(-11)))
        CFI (cfiCond144) V7 load(1, XDATA, add(CFA_XSP16, literal(-10)))
        CFI (cfiCond144) V8 load(1, XDATA, add(CFA_XSP16, literal(-9)))
        CFI (cfiCond144) V9 load(1, XDATA, add(CFA_XSP16, literal(-8)))
        CFI (cfiCond144) V10 load(1, XDATA, add(CFA_XSP16, literal(-7)))
        CFI (cfiCond144) R7 load(1, XDATA, add(CFA_XSP16, literal(-6)))
        CFI (cfiCond144) ?RET_LOW load(1, XDATA, add(CFA_XSP16, literal(-5)))
        CFI (cfiCond144) ?RET_HIGH load(1, XDATA, add(CFA_XSP16, literal(-4)))
        CFI (cfiCond144) ?BRET_EXT load(1, XDATA, add(CFA_XSP16, literal(-3)))
        CFI (cfiCond144) DPL0 load(1, XDATA, add(CFA_XSP16, literal(-2)))
        CFI (cfiCond144) DPH0 load(1, XDATA, add(CFA_XSP16, literal(-1)))
        CFI (cfiCond144) CFA_SP SP+0
        CFI (cfiCond144) CFA_XSP16 add(XSP16, 22)
        CFI Block cfiPicker145 Using cfiCommon1
        CFI (cfiPicker145) NoFunction
        CFI (cfiPicker145) Picker
        MOV     A,R2
        ADD     A,#0xe
        CFI EndBlock cfiCond143
        CFI EndBlock cfiCond144
        CFI EndBlock cfiPicker145
        REQUIRE ??Subroutine33_0
        ; // Fall through to label ??Subroutine33_0

        RSEG BANKED_CODE:CODE:NOROOT(0)
??Subroutine33_0:
        CFI Block cfiCond146 Using cfiCommon0
        CFI NoFunction
        CFI Conditional ??CrossCallReturnLabel_75
        CFI DPL0 Frame(CFA_SP, 4)
        CFI DPH0 Frame(CFA_SP, 5)
        CFI CFA_SP SP+-5
        CFI Block cfiCond147 Using cfiCommon0
        CFI (cfiCond147) NoFunction
        CFI (cfiCond147) Conditional ??CrossCallReturnLabel_76
        CFI (cfiCond147) R6 load(1, XDATA, add(CFA_XSP16, literal(-19)))
        CFI (cfiCond147) VB load(1, XDATA, add(CFA_XSP16, literal(-18)))
        CFI (cfiCond147) V0 load(1, XDATA, add(CFA_XSP16, literal(-17)))
        CFI (cfiCond147) V1 load(1, XDATA, add(CFA_XSP16, literal(-16)))
        CFI (cfiCond147) V2 load(1, XDATA, add(CFA_XSP16, literal(-15)))
        CFI (cfiCond147) V3 load(1, XDATA, add(CFA_XSP16, literal(-14)))
        CFI (cfiCond147) V4 load(1, XDATA, add(CFA_XSP16, literal(-13)))
        CFI (cfiCond147) V5 load(1, XDATA, add(CFA_XSP16, literal(-12)))
        CFI (cfiCond147) V6 load(1, XDATA, add(CFA_XSP16, literal(-11)))
        CFI (cfiCond147) V7 load(1, XDATA, add(CFA_XSP16, literal(-10)))
        CFI (cfiCond147) V8 load(1, XDATA, add(CFA_XSP16, literal(-9)))
        CFI (cfiCond147) V9 load(1, XDATA, add(CFA_XSP16, literal(-8)))
        CFI (cfiCond147) V10 load(1, XDATA, add(CFA_XSP16, literal(-7)))
        CFI (cfiCond147) R7 load(1, XDATA, add(CFA_XSP16, literal(-6)))
        CFI (cfiCond147) ?RET_LOW load(1, XDATA, add(CFA_XSP16, literal(-5)))
        CFI (cfiCond147) ?RET_HIGH load(1, XDATA, add(CFA_XSP16, literal(-4)))
        CFI (cfiCond147) ?BRET_EXT load(1, XDATA, add(CFA_XSP16, literal(-3)))
        CFI (cfiCond147) DPL0 load(1, XDATA, add(CFA_XSP16, literal(-2)))
        CFI (cfiCond147) DPH0 load(1, XDATA, add(CFA_XSP16, literal(-1)))
        CFI (cfiCond147) CFA_SP SP+0
        CFI (cfiCond147) CFA_XSP16 add(XSP16, 22)
        CFI Block cfiCond148 Using cfiCommon0
        CFI (cfiCond148) NoFunction
        CFI (cfiCond148) Conditional ??CrossCallReturnLabel_77
        CFI (cfiCond148) R6 load(1, XDATA, add(CFA_XSP16, literal(-19)))
        CFI (cfiCond148) VB load(1, XDATA, add(CFA_XSP16, literal(-18)))
        CFI (cfiCond148) V0 load(1, XDATA, add(CFA_XSP16, literal(-17)))
        CFI (cfiCond148) V1 load(1, XDATA, add(CFA_XSP16, literal(-16)))
        CFI (cfiCond148) V2 load(1, XDATA, add(CFA_XSP16, literal(-15)))
        CFI (cfiCond148) V3 load(1, XDATA, add(CFA_XSP16, literal(-14)))
        CFI (cfiCond148) V4 load(1, XDATA, add(CFA_XSP16, literal(-13)))
        CFI (cfiCond148) V5 load(1, XDATA, add(CFA_XSP16, literal(-12)))
        CFI (cfiCond148) V6 load(1, XDATA, add(CFA_XSP16, literal(-11)))
        CFI (cfiCond148) V7 load(1, XDATA, add(CFA_XSP16, literal(-10)))
        CFI (cfiCond148) V8 load(1, XDATA, add(CFA_XSP16, literal(-9)))
        CFI (cfiCond148) V9 load(1, XDATA, add(CFA_XSP16, literal(-8)))
        CFI (cfiCond148) V10 load(1, XDATA, add(CFA_XSP16, literal(-7)))
        CFI (cfiCond148) R7 load(1, XDATA, add(CFA_XSP16, literal(-6)))
        CFI (cfiCond148) ?RET_LOW load(1, XDATA, add(CFA_XSP16, literal(-5)))
