///////////////////////////////////////////////////////////////////////////////
//                                                                            /
// IAR C/C++ Compiler V8.10.1.10194/W32 for 8051        02/Sep/2019  17:51:13 /
// Copyright 2004-2011 IAR Systems AB.                                        /
//                                                                            /
//    Core               =  plain                                             /
//    Code model         =  banked                                            /
//    Data model         =  large                                             /
//    Calling convention =  xdata reentrant                                   /
//    Constant location  =  data_rom                                          /
//    Dptr setup         =  1,16                                              /
//    Source file        =  C:\Users\Administrator\Desktop\ZStack-CC2530-r200 /
//                          _1\Components\stack\zdo\ZDApp.c                   /
//    Command line       =  -f C:\Users\Administrator\Desktop\ZStack-CC2530-r /
//                          200_1\Projects\SappWsn\..\zstack\Tools\CC2530DB\f /
//                          8wEndev.cfg (-DCPU32MHZ -DROOT=__near_func        /
//                          -DMAC_CFG_TX_DATA_MAX=3 -DMAC_CFG_TX_MAX=6        /
//                          -DMAC_CFG_RX_MAX=3) -f C:\Users\Administrator\Des /
//                          ktop\ZStack-CC2530-r200_1\Projects\SappWsn\..\zst /
//                          ack\Tools\CC2530DB\f8wConfig.cfg (-DZIGBEEPRO     /
//                          -DSECURE=0 -DZG_SECURE_DYNAMIC=0 -DREFLECTOR      /
//                          -DDEFAULT_CHANLIST=0x00000800                     /
//                          -DZDAPP_CONFIG_PAN_ID=0x94127                     /
//                          -DNWK_START_DELAY=100 -DEXTENDED_JOINING_RANDOM_M /
//                          ASK=0x007F -DBEACON_REQUEST_DELAY=100             /
//                          -DBEACON_REQ_DELAY_MASK=0x00FF                    /
//                          -DLINK_STATUS_JITTER_MASK=0x007F                  /
//                          -DROUTE_EXPIRY_TIME=30 -DAPSC_ACK_WAIT_DURATION_P /
//                          OLLED=3000 -DNWK_INDIRECT_MSG_TIMEOUT=7           /
//                          -DMAX_RREQ_ENTRIES=8 -DAPSC_MAX_FRAME_RETRIES=3   /
//                          -DNWK_MAX_DATA_RETRIES=2                          /
//                          -DMAX_POLL_FAILURE_RETRIES=2 -DMAX_BCAST=9        /
//                          -DAPS_MAX_GROUPS=16 -DMAX_RTG_ENTRIES=40          /
//                          -DNWK_MAX_BINDING_ENTRIES=4                       /
//                          -DMAX_BINDING_CLUSTER_IDS=4                       /
//                          "-DDEFAULT_KEY={0x01, 0x03, 0x05, 0x07, 0x09,     /
//                          0x0B, 0x0D, 0x0F, 0x00, 0x02, 0x04, 0x06, 0x08,   /
//                          0x0A, 0x0C, 0x0D}" -DMAC_MAX_FRAME_SIZE=116       /
//                          -DZDNWKMGR_MIN_TRANSMISSIONS=20 "-DCONST=const    /
//                          __code" -DGENERIC=__generic                       /
//                          -DRFD_RCVC_ALWAYS_ON=FALSE -DPOLL_RATE=1000       /
//                          -DQUEUED_POLL_RATE=100 -DRESPONSE_POLL_RATE=100)  /
//                          -DREJOIN_POLL_RATE=440 C:\Users\Administrator\Des /
//                          ktop\ZStack-CC2530-r200_1\Components\stack\zdo\ZD /
//                          App.c -D NWK_AUTO_POLL -D ZTOOL_P1 -D xMT_TASK    /
//                          -D xMT_SYS_FUNC -D MT_ZDO_FUNC -D SAPP_ZSTACK     /
//                          -lC C:\Users\Administrator\Desktop\ZStack-CC2530- /
//                          r200_1\Projects\SappWsn\EndDeviceEB\List\ -lA     /
//                          C:\Users\Administrator\Desktop\ZStack-CC2530-r200 /
//                          _1\Projects\SappWsn\EndDeviceEB\List\             /
//                          --diag_suppress Pe001,Pa010 -o                    /
//                          C:\Users\Administrator\Desktop\ZStack-CC2530-r200 /
//                          _1\Projects\SappWsn\EndDeviceEB\Obj\ -e           /
//                          --no_code_motion --debug --core=plain             /
//                          --dptr=16,1 --data_model=large                    /
//                          --code_model=banked --calling_convention=xdata_re /
//                          entrant --place_constants=data_rom                /
//                          --nr_virtual_regs 16 -I                           /
//                          C:\Users\Administrator\Desktop\ZStack-CC2530-r200 /
//                          _1\Projects\SappWsn\ -I                           /
//                          C:\Users\Administrator\Desktop\ZStack-CC2530-r200 /
//                          _1\Projects\SappWsn\Source\ -I                    /
//                          C:\Users\Administrator\Desktop\ZStack-CC2530-r200 /
//                          _1\Projects\SappWsn\..\zstack\ZMain\TI2530DB\ -I  /
//                          C:\Users\Administrator\Desktop\ZStack-CC2530-r200 /
//                          _1\Projects\SappWsn\..\..\Components\hal\include\ /
//                           -I C:\Users\Administrator\Desktop\ZStack-CC2530- /
//                          r200_1\Projects\SappWsn\..\..\Components\hal\targ /
//                          et\CC2530EB\ -I C:\Users\Administrator\Desktop\ZS /
//                          tack-CC2530-r200_1\Projects\SappWsn\..\..\Compone /
//                          nts\mac\include\ -I C:\Users\Administrator\Deskto /
//                          p\ZStack-CC2530-r200_1\Projects\SappWsn\..\..\Com /
//                          ponents\mac\high_level\ -I                        /
//                          C:\Users\Administrator\Desktop\ZStack-CC2530-r200 /
//                          _1\Projects\SappWsn\..\..\Components\mac\low_leve /
//                          l\srf04\ -I C:\Users\Administrator\Desktop\ZStack /
//                          -CC2530-r200_1\Projects\SappWsn\..\..\Components\ /
//                          mac\low_level\srf04\single_chip\ -I               /
//                          C:\Users\Administrator\Desktop\ZStack-CC2530-r200 /
//                          _1\Projects\SappWsn\..\..\Components\mt\ -I       /
//                          C:\Users\Administrator\Desktop\ZStack-CC2530-r200 /
//                          _1\Projects\SappWsn\..\..\Components\osal\include /
//                          \ -I C:\Users\Administrator\Desktop\ZStack-CC2530 /
//                          -r200_1\Projects\SappWsn\..\..\Components\service /
//                          s\saddr\ -I C:\Users\Administrator\Desktop\ZStack /
//                          -CC2530-r200_1\Projects\SappWsn\..\..\Components\ /
//                          services\sdata\ -I C:\Users\Administrator\Desktop /
//                          \ZStack-CC2530-r200_1\Projects\SappWsn\..\..\Comp /
//                          onents\stack\af\ -I C:\Users\Administrator\Deskto /
//                          p\ZStack-CC2530-r200_1\Projects\SappWsn\..\..\Com /
//                          ponents\stack\nwk\ -I C:\Users\Administrator\Desk /
//                          top\ZStack-CC2530-r200_1\Projects\SappWsn\..\..\C /
//                          omponents\stack\sapi\ -I                          /
//                          C:\Users\Administrator\Desktop\ZStack-CC2530-r200 /
//                          _1\Projects\SappWsn\..\..\Components\stack\sec\   /
//                          -I C:\Users\Administrator\Desktop\ZStack-CC2530-r /
//                          200_1\Projects\SappWsn\..\..\Components\stack\sys /
//                          \ -I C:\Users\Administrator\Desktop\ZStack-CC2530 /
//                          -r200_1\Projects\SappWsn\..\..\Components\stack\z /
//                          do\ -I C:\Users\Administrator\Desktop\ZStack-CC25 /
//                          30-r200_1\Projects\SappWsn\..\..\Components\zmac\ /
//                           -I C:\Users\Administrator\Desktop\ZStack-CC2530- /
//                          r200_1\Projects\SappWsn\..\..\Components\zmac\f8w /
//                          \ -Ohz --require_prototypes                       /
//    List file          =  C:\Users\Administrator\Desktop\ZStack-CC2530-r200 /
//                          _1\Projects\SappWsn\EndDeviceEB\List\ZDApp.s51    /
//                                                                            /
//                                                                            /
///////////////////////////////////////////////////////////////////////////////

        NAME ZDApp

        RTMODEL "__SystemLibrary", "CLib"
        RTMODEL "__calling_convention", "xdata_reentrant"
        RTMODEL "__code_model", "banked"
        RTMODEL "__core", "plain"
        RTMODEL "__data_model", "large"
        RTMODEL "__dptr_size", "16"
        RTMODEL "__extended_stack", "disabled"
        RTMODEL "__location_for_constants", "data"
        RTMODEL "__number_of_dptrs", "1"
        RTMODEL "__rt_version", "1"

        RSEG DOVERLAY:DATA:NOROOT(0)
        RSEG IOVERLAY:IDATA:NOROOT(0)
        RSEG ISTACK:IDATA:NOROOT(0)
        RSEG PSTACK:XDATA:NOROOT(0)
        RSEG XSTACK:XDATA:NOROOT(0)

        EXTERN ?ALLOC_XSTACK8
        EXTERN ?BANKED_ENTER_XDATA
        EXTERN ?BANKED_LEAVE_XDATA
        EXTERN ?BDISPATCH
        EXTERN ?BRET
        EXTERN ?CALL_IND
        EXTERN ?DEALLOC_XSTACK8
        EXTERN ?L_ADD_TO_X
        EXTERN ?L_MOV_X
        EXTERN ?PUSH_XSTACK8_X_TWO
        EXTERN ?PUSH_XSTACK_I_ONE
        EXTERN ?PUSH_XSTACK_I_THREE
        EXTERN ?PUSH_XSTACK_I_TWO
        EXTERN ?US_SWITCH_SPARSE
        EXTERN ?V0
        EXTERN ?XLOAD_R2345
        EXTERN ?XSP
        EXTERN ?XSTACK_DISP0_8
        EXTERN ?XSTORE_R2345
        EXTERN __INIT_XDATA_I
        EXTERN __INIT_XDATA_Z

        PUBLIC ??AddrMgrWriteNVRequest?relay
        FUNCTION ??AddrMgrWriteNVRequest?relay,0203H
        PUBLIC ??ZDAppCheckForHoldKey?relay
        FUNCTION ??ZDAppCheckForHoldKey?relay,0203H
        PUBLIC ??ZDAppDetermineDeviceType?relay
        FUNCTION ??ZDAppDetermineDeviceType?relay,0203H
        PUBLIC ??ZDApp_AnnounceNewAddress?relay
        FUNCTION ??ZDApp_AnnounceNewAddress?relay,0203H
        PUBLIC ??ZDApp_ChangeMatchDescRespPermission?relay
        FUNCTION ??ZDApp_ChangeMatchDescRespPermission?relay,0203H
        PUBLIC ??ZDApp_CoordStartPANIDConflictCB?relay
        FUNCTION ??ZDApp_CoordStartPANIDConflictCB?relay,0203H
        PUBLIC ??ZDApp_DeviceAuthEvt?relay
        FUNCTION ??ZDApp_DeviceAuthEvt?relay,0203H
        PUBLIC ??ZDApp_DeviceConfigured?relay
        FUNCTION ??ZDApp_DeviceConfigured?relay,0203H
        PUBLIC ??ZDApp_InMsgCB?relay
        FUNCTION ??ZDApp_InMsgCB?relay,0203H
        PUBLIC ??ZDApp_Init?relay
        FUNCTION ??ZDApp_Init?relay,0203H
        PUBLIC ??ZDApp_InitUserDesc?relay
        FUNCTION ??ZDApp_InitUserDesc?relay,0203H
        PUBLIC ??ZDApp_InitZdoCBFunc?relay
        FUNCTION ??ZDApp_InitZdoCBFunc?relay,0203H
        PUBLIC ??ZDApp_JoinReq?relay
        FUNCTION ??ZDApp_JoinReq?relay,0203H
        PUBLIC ??ZDApp_LeaveCtrlBypass?relay
        FUNCTION ??ZDApp_LeaveCtrlBypass?relay,0203H
        PUBLIC ??ZDApp_LeaveCtrlInit?relay
        FUNCTION ??ZDApp_LeaveCtrlInit?relay,0203H
        PUBLIC ??ZDApp_LeaveCtrlReset?relay
        FUNCTION ??ZDApp_LeaveCtrlReset?relay,0203H
        PUBLIC ??ZDApp_LeaveCtrlSet?relay
        FUNCTION ??ZDApp_LeaveCtrlSet?relay,0203H
        PUBLIC ??ZDApp_LeaveCtrlStartup?relay
        FUNCTION ??ZDApp_LeaveCtrlStartup?relay,0203H
        PUBLIC ??ZDApp_LeaveReset?relay
        FUNCTION ??ZDApp_LeaveReset?relay,0203H
        PUBLIC ??ZDApp_LeaveUpdate?relay
        FUNCTION ??ZDApp_LeaveUpdate?relay,0203H
        PUBLIC ??ZDApp_NVUpdate?relay
        FUNCTION ??ZDApp_NVUpdate?relay,0203H
        PUBLIC ??ZDApp_NetworkDiscoveryReq?relay
        FUNCTION ??ZDApp_NetworkDiscoveryReq?relay,0203H
        PUBLIC ??ZDApp_NetworkInit?relay
        FUNCTION ??ZDApp_NetworkInit?relay,0203H
        PUBLIC ??ZDApp_NetworkStartEvt?relay
        FUNCTION ??ZDApp_NetworkStartEvt?relay,0203H
        PUBLIC ??ZDApp_NodeProfileSync?relay
        FUNCTION ??ZDApp_NodeProfileSync?relay,0203H
        PUBLIC ??ZDApp_NwkDescListProcessing?relay
        FUNCTION ??ZDApp_NwkDescListProcessing?relay,0203H
        PUBLIC ??ZDApp_NwkStateUpdateCB?relay
        FUNCTION ??ZDApp_NwkStateUpdateCB?relay,0203H
        PUBLIC ??ZDApp_ProcessMsgCBs?relay
        FUNCTION ??ZDApp_ProcessMsgCBs?relay,0203H
        PUBLIC ??ZDApp_ProcessNetworkJoin?relay
        FUNCTION ??ZDApp_ProcessNetworkJoin?relay,0203H
        PUBLIC ??ZDApp_ProcessOSALMsg?relay
        FUNCTION ??ZDApp_ProcessOSALMsg?relay,0203H
        PUBLIC ??ZDApp_ProcessSecEvent?relay
        FUNCTION ??ZDApp_ProcessSecEvent?relay,0203H
        PUBLIC ??ZDApp_ProcessSecMsg?relay
        FUNCTION ??ZDApp_ProcessSecMsg?relay,0203H
        PUBLIC ??ZDApp_ReadNetworkRestoreState?relay
        FUNCTION ??ZDApp_ReadNetworkRestoreState?relay,0203H
        PUBLIC ??ZDApp_RegisterCBs?relay
        FUNCTION ??ZDApp_RegisterCBs?relay,0203H
        PUBLIC ??ZDApp_ResetNwkKey?relay
        FUNCTION ??ZDApp_ResetNwkKey?relay,0203H
        PUBLIC ??ZDApp_ResetTimerCancel?relay
        FUNCTION ??ZDApp_ResetTimerCancel?relay,0203H
        PUBLIC ??ZDApp_ResetTimerStart?relay
        FUNCTION ??ZDApp_ResetTimerStart?relay,0203H
        PUBLIC ??ZDApp_RestoreNetworkState?relay
        FUNCTION ??ZDApp_RestoreNetworkState?relay,0203H
        PUBLIC ??ZDApp_RestoreNwkKey?relay
        FUNCTION ??ZDApp_RestoreNwkKey?relay,0203H
        PUBLIC ??ZDApp_SaveNetworkStateEvt?relay
        FUNCTION ??ZDApp_SaveNetworkStateEvt?relay,0203H
        PUBLIC ??ZDApp_SaveNwkKey?relay
        FUNCTION ??ZDApp_SaveNwkKey?relay,0203H
        PUBLIC ??ZDApp_SecInit?relay
        FUNCTION ??ZDApp_SecInit?relay,0203H
        PUBLIC ??ZDApp_SendEventMsg?relay
        FUNCTION ??ZDApp_SendEventMsg?relay,0203H
        PUBLIC ??ZDApp_SendMsg?relay
        FUNCTION ??ZDApp_SendMsg?relay,0203H
        PUBLIC ??ZDApp_StartJoiningCycle?relay
        FUNCTION ??ZDApp_StartJoiningCycle?relay,0203H
        PUBLIC ??ZDApp_StopJoiningCycle?relay
        FUNCTION ??ZDApp_StopJoiningCycle?relay,0203H
        PUBLIC ??ZDApp_event_loop?relay
        FUNCTION ??ZDApp_event_loop?relay,0203H
        PUBLIC ??ZDOInitDevice?relay
        FUNCTION ??ZDOInitDevice?relay,0203H
        PUBLIC ??ZDO_AddrChangeIndicationCB?relay
        FUNCTION ??ZDO_AddrChangeIndicationCB?relay,0203H
        PUBLIC ??ZDO_ConcentratorIndicationCB?relay
        FUNCTION ??ZDO_ConcentratorIndicationCB?relay,0203H
        PUBLIC ??ZDO_DeregisterForZdoCB?relay
        FUNCTION ??ZDO_DeregisterForZdoCB?relay,0203H
        PUBLIC ??ZDO_JoinConfirmCB?relay
        FUNCTION ??ZDO_JoinConfirmCB?relay,0203H
        PUBLIC ??ZDO_JoinIndicationCB?relay
        FUNCTION ??ZDO_JoinIndicationCB?relay,0203H
        PUBLIC ??ZDO_LeaveCnf?relay
        FUNCTION ??ZDO_LeaveCnf?relay,0203H
        PUBLIC ??ZDO_LeaveInd?relay
        FUNCTION ??ZDO_LeaveInd?relay,0203H
        PUBLIC ??ZDO_ManytoOneFailureIndicationCB?relay
        FUNCTION ??ZDO_ManytoOneFailureIndicationCB?relay,0203H
        PUBLIC ??ZDO_NetworkDiscoveryConfirmCB?relay
        FUNCTION ??ZDO_NetworkDiscoveryConfirmCB?relay,0203H
        PUBLIC ??ZDO_NetworkFormationConfirmCB?relay
        FUNCTION ??ZDO_NetworkFormationConfirmCB?relay,0203H
        PUBLIC ??ZDO_PollConfirmCB?relay
        FUNCTION ??ZDO_PollConfirmCB?relay,0203H
        PUBLIC ??ZDO_RegisterForZdoCB?relay
        FUNCTION ??ZDO_RegisterForZdoCB?relay,0203H
        PUBLIC ??ZDO_SrcRtgIndCB?relay
        FUNCTION ??ZDO_SrcRtgIndCB?relay,0203H
        PUBLIC ??ZDO_StartRouterConfirmCB?relay
        FUNCTION ??ZDO_StartRouterConfirmCB?relay,0203H
        PUBLIC ??ZDO_SyncIndicationCB?relay
        FUNCTION ??ZDO_SyncIndicationCB?relay,0203H
        PUBLIC ??ZDO_UpdateDeviceIndication?relay
        FUNCTION ??ZDO_UpdateDeviceIndication?relay,0203H
        PUBLIC ??ZDO_beaconNotifyIndCB?relay
        FUNCTION ??ZDO_beaconNotifyIndCB?relay,0203H
        PUBLIC AddrMgrWriteNVRequest
        FUNCTION AddrMgrWriteNVRequest,0203H
        ARGFRAME XSTACK, 0, STACK
        PUBLIC ZDAppCheckForHoldKey
        FUNCTION ZDAppCheckForHoldKey,0203H
        ARGFRAME XSTACK, 0, STACK
        PUBLIC ZDAppDetermineDeviceType
        FUNCTION ZDAppDetermineDeviceType,021203H
        ARGFRAME XSTACK, 12, STACK
        ARGFRAME IOVERLAY, 0, STATIC
        ARGFRAME DOVERLAY, 0, STATIC
        LOCFRAME ISTACK, 2, STACK
        PUBLIC ZDAppNwkAddr
        PUBLIC ZDAppTaskID
        PUBLIC ZDApp_AnnounceNewAddress
        FUNCTION ZDApp_AnnounceNewAddress,021203H
        ARGFRAME XSTACK, 12, STACK
        ARGFRAME IOVERLAY, 0, STATIC
        ARGFRAME DOVERLAY, 0, STATIC
        LOCFRAME XSTACK, 11, STACK
        PUBLIC ZDApp_AutoFindMode_epDesc
        PUBLIC ZDApp_ChangeMatchDescRespPermission
        FUNCTION ZDApp_ChangeMatchDescRespPermission,021203H
        ARGFRAME XSTACK, 0, STACK
        LOCFRAME XSTACK, 9, STACK
        PUBLIC ZDApp_CoordStartPANIDConflictCB
        FUNCTION ZDApp_CoordStartPANIDConflictCB,0203H
        ARGFRAME XSTACK, 0, STACK
        PUBLIC ZDApp_DeviceAuthEvt
        FUNCTION ZDApp_DeviceAuthEvt,021203H
        ARGFRAME XSTACK, 9, STACK
        ARGFRAME IOVERLAY, 0, STATIC
        ARGFRAME DOVERLAY, 0, STATIC
        LOCFRAME ISTACK, 2, STACK
        PUBLIC ZDApp_DeviceConfigured
        FUNCTION ZDApp_DeviceConfigured,021203H
        ARGFRAME XSTACK, 0, STACK
        LOCFRAME XSTACK, 16, STACK
        PUBLIC ZDApp_InMsgCB
        FUNCTION ZDApp_InMsgCB,021203H
        ARGFRAME XSTACK, 0, STACK
        LOCFRAME XSTACK, 14, STACK
        PUBLIC ZDApp_Init
        FUNCTION ZDApp_Init,021203H
        ARGFRAME XSTACK, 0, STACK
        LOCFRAME XSTACK, 9, STACK
        PUBLIC ZDApp_InitUserDesc
        FUNCTION ZDApp_InitUserDesc,021203H
        ARGFRAME XSTACK, 9, STACK
        ARGFRAME IOVERLAY, 0, STATIC
        ARGFRAME DOVERLAY, 0, STATIC
        LOCFRAME XSTACK, 31, STACK
        PUBLIC ZDApp_InitZdoCBFunc
        FUNCTION ZDApp_InitZdoCBFunc,0203H
        ARGFRAME XSTACK, 9, STACK
        ARGFRAME IOVERLAY, 0, STATIC
        ARGFRAME DOVERLAY, 0, STATIC
        LOCFRAME ISTACK, 2, STACK
        PUBLIC ZDApp_JoinReq
        FUNCTION ZDApp_JoinReq,021203H
        ARGFRAME XSTACK, 4, STACK
        LOCFRAME XSTACK, 18, STACK
        PUBLIC ZDApp_LeaveCtrl
        PUBLIC ZDApp_LeaveCtrlBypass
        FUNCTION ZDApp_LeaveCtrlBypass,0203H
        ARGFRAME XSTACK, 0, STACK
        LOCFRAME ISTACK, 2, STACK
        PUBLIC ZDApp_LeaveCtrlInit
        FUNCTION ZDApp_LeaveCtrlInit,021203H
        ARGFRAME XSTACK, 12, STACK
        ARGFRAME IOVERLAY, 0, STATIC
        ARGFRAME DOVERLAY, 0, STATIC
        LOCFRAME XSTACK, 14, STACK
        PUBLIC ZDApp_LeaveCtrlReset
        FUNCTION ZDApp_LeaveCtrlReset,021203H
        ARGFRAME XSTACK, 0, STACK
        ARGFRAME IOVERLAY, 0, STATIC
        ARGFRAME DOVERLAY, 0, STATIC
        LOCFRAME XSTACK, 14, STACK
        PUBLIC ZDApp_LeaveCtrlSet
        FUNCTION ZDApp_LeaveCtrlSet,021203H
        ARGFRAME XSTACK, 9, STACK
        ARGFRAME IOVERLAY, 0, STATIC
        ARGFRAME DOVERLAY, 0, STATIC
        LOCFRAME XSTACK, 14, STACK
        PUBLIC ZDApp_LeaveCtrlStartup
        FUNCTION ZDApp_LeaveCtrlStartup,021203H
        ARGFRAME XSTACK, 12, STACK
        ARGFRAME IOVERLAY, 0, STATIC
        ARGFRAME DOVERLAY, 0, STATIC
        LOCFRAME ISTACK, 2, STACK
        PUBLIC ZDApp_LeaveReset
        FUNCTION ZDApp_LeaveReset,021203H
        ARGFRAME XSTACK, 10, STACK
        ARGFRAME IOVERLAY, 0, STATIC
        ARGFRAME DOVERLAY, 0, STATIC
        LOCFRAME XSTACK, 9, STACK
        PUBLIC ZDApp_LeaveUpdate
        FUNCTION ZDApp_LeaveUpdate,0203H
        ARGFRAME XSTACK, 0, STACK
        PUBLIC ZDApp_NVUpdate
        FUNCTION ZDApp_NVUpdate,0203H
        ARGFRAME XSTACK, 0, STACK
        PUBLIC ZDApp_NetworkDiscoveryReq
        FUNCTION ZDApp_NetworkDiscoveryReq,021203H
        ARGFRAME XSTACK, 0, STACK
        LOCFRAME XSTACK, 12, STACK
        PUBLIC ZDApp_NetworkInit
        FUNCTION ZDApp_NetworkInit,021203H
        ARGFRAME XSTACK, 12, STACK
        ARGFRAME IOVERLAY, 0, STATIC
        ARGFRAME DOVERLAY, 0, STATIC
        LOCFRAME ISTACK, 2, STACK
        PUBLIC ZDApp_NetworkStartEvt
        FUNCTION ZDApp_NetworkStartEvt,021203H
        ARGFRAME XSTACK, 0, STACK
        LOCFRAME ISTACK, 2, STACK
        PUBLIC ZDApp_NodeProfileSync
        FUNCTION ZDApp_NodeProfileSync,021203H
        ARGFRAME XSTACK, 14, STACK
        ARGFRAME IOVERLAY, 0, STATIC
        ARGFRAME DOVERLAY, 0, STATIC
        LOCFRAME XSTACK, 9, STACK
        PUBLIC ZDApp_NwkDescListProcessing
        FUNCTION ZDApp_NwkDescListProcessing,021203H
        ARGFRAME XSTACK, 11, STACK
        ARGFRAME IOVERLAY, 0, STATIC
        ARGFRAME DOVERLAY, 0, STATIC
        LOCFRAME XSTACK, 14, STACK
        PUBLIC ZDApp_NwkStateUpdateCB
        FUNCTION ZDApp_NwkStateUpdateCB,021203H
        ARGFRAME XSTACK, 0, STACK
        LOCFRAME ISTACK, 2, STACK
        PUBLIC ZDApp_ProcessMsgCBs
        FUNCTION ZDApp_ProcessMsgCBs,0a1203H
        ARGFRAME XSTACK, 11, STACK
        ARGFRAME IOVERLAY, 0, STATIC
        ARGFRAME DOVERLAY, 0, STATIC
        LOCFRAME XSTACK, 31, STACK
        PUBLIC ZDApp_ProcessNetworkJoin
        FUNCTION ZDApp_ProcessNetworkJoin,021203H
        ARGFRAME XSTACK, 11, STACK
        ARGFRAME IOVERLAY, 0, STATIC
        ARGFRAME DOVERLAY, 0, STATIC
        LOCFRAME XSTACK, 12, STACK
        PUBLIC ZDApp_ProcessOSALMsg
        FUNCTION ZDApp_ProcessOSALMsg,021203H
        ARGFRAME XSTACK, 10, STACK
        ARGFRAME IOVERLAY, 0, STATIC
        ARGFRAME DOVERLAY, 0, STATIC
        LOCFRAME XSTACK, 15, STACK
        PUBLIC ZDApp_ProcessSecEvent
        FUNCTION ZDApp_ProcessSecEvent,021203H
        ARGFRAME XSTACK, 0, STACK
        LOCFRAME XSTACK, 9, STACK
        PUBLIC ZDApp_ProcessSecMsg
        FUNCTION ZDApp_ProcessSecMsg,021203H
        ARGFRAME XSTACK, 0, STACK
        LOCFRAME ISTACK, 2, STACK
        PUBLIC ZDApp_ReadNetworkRestoreState
        FUNCTION ZDApp_ReadNetworkRestoreState,021203H
        ARGFRAME XSTACK, 0, STACK
        LOCFRAME XSTACK, 9, STACK
        PUBLIC ZDApp_RegisterCBs
        FUNCTION ZDApp_RegisterCBs,021203H
        ARGFRAME XSTACK, 9, STACK
        ARGFRAME IOVERLAY, 0, STATIC
        ARGFRAME DOVERLAY, 0, STATIC
        LOCFRAME ISTACK, 2, STACK
        PUBLIC ZDApp_ResetNwkKey
        FUNCTION ZDApp_ResetNwkKey,021203H
        ARGFRAME XSTACK, 0, STACK
        LOCFRAME XSTACK, 35, STACK
        PUBLIC ZDApp_ResetTimerCancel
        FUNCTION ZDApp_ResetTimerCancel,021203H
        ARGFRAME XSTACK, 0, STACK
        ARGFRAME IOVERLAY, 0, STATIC
        ARGFRAME DOVERLAY, 0, STATIC
        LOCFRAME ISTACK, 2, STACK
        PUBLIC ZDApp_ResetTimerStart
        FUNCTION ZDApp_ResetTimerStart,021203H
        ARGFRAME XSTACK, 9, STACK
        ARGFRAME IOVERLAY, 0, STATIC
        ARGFRAME DOVERLAY, 0, STATIC
        LOCFRAME ISTACK, 2, STACK
        PUBLIC ZDApp_RestoreNetworkState
        FUNCTION ZDApp_RestoreNetworkState,021203H
        ARGFRAME XSTACK, 0, STACK
        LOCFRAME XSTACK, 9, STACK
        PUBLIC ZDApp_RestoreNwkKey
        FUNCTION ZDApp_RestoreNwkKey,021203H
        ARGFRAME XSTACK, 0, STACK
        LOCFRAME XSTACK, 37, STACK
        PUBLIC ZDApp_SaveNetworkStateEvt
        FUNCTION ZDApp_SaveNetworkStateEvt,0203H
        ARGFRAME XSTACK, 0, STACK
        PUBLIC ZDApp_SaveNwkKey
        FUNCTION ZDApp_SaveNwkKey,021203H
        ARGFRAME XSTACK, 9, STACK
        ARGFRAME IOVERLAY, 0, STATIC
        ARGFRAME DOVERLAY, 0, STATIC
        LOCFRAME XSTACK, 37, STACK
        PUBLIC ZDApp_SavedPollRate
        PUBLIC ZDApp_SecInit
        FUNCTION ZDApp_SecInit,021203H
        ARGFRAME XSTACK, 0, STACK
        LOCFRAME XSTACK, 9, STACK
        PUBLIC ZDApp_SendEventMsg
        FUNCTION ZDApp_SendEventMsg,021203H
        ARGFRAME XSTACK, 0, STACK
        LOCFRAME XSTACK, 9, STACK
        PUBLIC ZDApp_SendMsg
        FUNCTION ZDApp_SendMsg,021203H
        ARGFRAME XSTACK, 14, STACK
        ARGFRAME IOVERLAY, 0, STATIC
        ARGFRAME DOVERLAY, 0, STATIC
        LOCFRAME ISTACK, 1, STACK
        LOCFRAME XSTACK, 19, STACK
        PUBLIC ZDApp_StartJoiningCycle
        FUNCTION ZDApp_StartJoiningCycle,021203H
        ARGFRAME XSTACK, 0, STACK
        LOCFRAME ISTACK, 2, STACK
        PUBLIC ZDApp_StopJoiningCycle
        FUNCTION ZDApp_StopJoiningCycle,0203H
        ARGFRAME XSTACK, 0, STACK
        LOCFRAME ISTACK, 2, STACK
        PUBLIC ZDApp_epDesc
        PUBLIC ZDApp_event_loop
        FUNCTION ZDApp_event_loop,021203H
        ARGFRAME XSTACK, 0, STACK
        LOCFRAME XSTACK, 10, STACK
        PUBLIC ZDOInitDevice
        FUNCTION ZDOInitDevice,021203H
        ARGFRAME XSTACK, 9, STACK
        ARGFRAME IOVERLAY, 0, STATIC
        ARGFRAME DOVERLAY, 0, STATIC
        LOCFRAME XSTACK, 12, STACK
        PUBLIC ZDO_AddrChangeIndicationCB
        FUNCTION ZDO_AddrChangeIndicationCB,021203H
        ARGFRAME XSTACK, 0, STACK
        LOCFRAME XSTACK, 12, STACK
        PUBLIC ZDO_ConcentratorIndicationCB
        FUNCTION ZDO_ConcentratorIndicationCB,0203H
        ARGFRAME XSTACK, 0, STACK
        LOCFRAME ISTACK, 1, STACK
        LOCFRAME XSTACK, 14, STACK
        PUBLIC ZDO_DeregisterForZdoCB
        FUNCTION ZDO_DeregisterForZdoCB,0203H
        ARGFRAME XSTACK, 0, STACK
        LOCFRAME ISTACK, 2, STACK
        PUBLIC ZDO_JoinConfirmCB
        FUNCTION ZDO_JoinConfirmCB,021203H
        ARGFRAME XSTACK, 0, STACK
        LOCFRAME ISTACK, 1, STACK
        LOCFRAME XSTACK, 14, STACK
        PUBLIC ZDO_JoinIndicationCB
        FUNCTION ZDO_JoinIndicationCB,0203H
        ARGFRAME XSTACK, 1, STACK
        PUBLIC ZDO_LeaveCnf
        FUNCTION ZDO_LeaveCnf,021203H
        ARGFRAME XSTACK, 0, STACK
        LOCFRAME XSTACK, 10, STACK
        PUBLIC ZDO_LeaveInd
        FUNCTION ZDO_LeaveInd,021203H
        ARGFRAME XSTACK, 0, STACK
        LOCFRAME XSTACK, 10, STACK
        PUBLIC ZDO_ManytoOneFailureIndicationCB
        FUNCTION ZDO_ManytoOneFailureIndicationCB,021203H
        ARGFRAME XSTACK, 0, STACK
        LOCFRAME ISTACK, 2, STACK
        PUBLIC ZDO_NetworkDiscoveryConfirmCB
        FUNCTION ZDO_NetworkDiscoveryConfirmCB,021203H
        ARGFRAME XSTACK, 0, STACK
        LOCFRAME ISTACK, 3, STACK
        LOCFRAME XSTACK, 3, STACK
        PUBLIC ZDO_NetworkFormationConfirmCB
        FUNCTION ZDO_NetworkFormationConfirmCB,021203H
        ARGFRAME XSTACK, 0, STACK
        LOCFRAME XSTACK, 9, STACK
        PUBLIC ZDO_PollConfirmCB
        FUNCTION ZDO_PollConfirmCB,0203H
        ARGFRAME XSTACK, 0, STACK
        PUBLIC ZDO_RegisterForZdoCB
        FUNCTION ZDO_RegisterForZdoCB,0203H
        ARGFRAME XSTACK, 0, STACK
        LOCFRAME ISTACK, 2, STACK
        PUBLIC ZDO_SrcRtgIndCB
        FUNCTION ZDO_SrcRtgIndCB,0203H
        ARGFRAME XSTACK, 0, STACK
        LOCFRAME ISTACK, 1, STACK
        LOCFRAME XSTACK, 14, STACK
        PUBLIC ZDO_StartRouterConfirmCB
        FUNCTION ZDO_StartRouterConfirmCB,021203H
        ARGFRAME XSTACK, 0, STACK
        LOCFRAME XSTACK, 9, STACK
        PUBLIC ZDO_SyncIndicationCB
        FUNCTION ZDO_SyncIndicationCB,021203H
        ARGFRAME XSTACK, 0, STACK
        LOCFRAME XSTACK, 9, STACK
        PUBLIC ZDO_UpdateDeviceIndication
        FUNCTION ZDO_UpdateDeviceIndication,0203H
        ARGFRAME XSTACK, 0, STACK
        PUBLIC ZDO_UseExtendedPANID
        PUBLIC ZDO_beaconNotifyIndCB
        FUNCTION ZDO_beaconNotifyIndCB,021203H
        ARGFRAME XSTACK, 0, STACK
        LOCFRAME ISTACK, 1, STACK
        LOCFRAME XSTACK, 14, STACK
        PUBWEAK __Constant_1
        PUBWEAK __Constant_3e8
        PUBLIC _tmpRejoinState
        PUBLIC continueJoining
        PUBLIC devStartMode
        PUBLIC devState
        PUBLIC nwkFrameCounterChanges
        PUBLIC nwkStatus
        PUBLIC retryCnt
        PUBLIC zdappMgmtNwkDiscReqInProgress
        PUBLIC zdappMgmtNwkDiscRspAddr
        PUBLIC zdappMgmtNwkDiscRspTransSeq
        PUBLIC zdappMgmtNwkDiscStartIndex
        PUBLIC zdappMgmtSavedNwkState
        PUBLIC zdoCBFunc
        PUBLIC zdoDiscCounter
        
        CFI Names cfiNames0
        CFI StackFrame CFA_SP SP IDATA
        CFI StackFrame CFA_PSP16 PSP16 XDATA
        CFI StackFrame CFA_XSP16 XSP16 XDATA
        CFI StaticOverlayFrame CFA_IOVERLAY IOVERLAY
        CFI StaticOverlayFrame CFA_DOVERLAY DOVERLAY
        CFI Resource `PSW.CY`:1, `B.BR0`:1, `B.BR1`:1, `B.BR2`:1, `B.BR3`:1
        CFI Resource `B.BR4`:1, `B.BR5`:1, `B.BR6`:1, `B.BR7`:1, `VB.BR8`:1
        CFI Resource `VB.BR9`:1, `VB.BR10`:1, `VB.BR11`:1, `VB.BR12`:1
        CFI Resource `VB.BR13`:1, `VB.BR14`:1, `VB.BR15`:1, VB:8, B:8, A:8
        CFI Resource PSW:8, DPL0:8, DPH0:8, R0:8, R1:8, R2:8, R3:8, R4:8, R5:8
        CFI Resource R6:8, R7:8, V0:8, V1:8, V2:8, V3:8, V4:8, V5:8, V6:8, V7:8
        CFI Resource V8:8, V9:8, V10:8, V11:8, V12:8, V13:8, V14:8, V15:8, SP:8
        CFI Resource PSPH:8, PSPL:8, PSP16:16, XSPH:8, XSPL:8, XSP16:16
        CFI VirtualResource ?RET:24
        CFI Resource ?BRET_EXT:8
        CFI VirtualResource ?RET_HIGH:8, ?RET_LOW:8
        CFI ResourceParts PSP16 PSPH, PSPL
        CFI ResourceParts XSP16 XSPH, XSPL
        CFI ResourceParts ?RET ?BRET_EXT, ?RET_HIGH, ?RET_LOW
        CFI EndNames cfiNames0
        
        CFI Common cfiCommon0 Using cfiNames0
        CFI CodeAlign 1
        CFI DataAlign -1
        CFI ReturnAddress ?RET CODE
        CFI CFA_DOVERLAY Used
        CFI CFA_IOVERLAY Used
        CFI CFA_SP SP+-3
        CFI CFA_PSP16 PSP16+0
        CFI CFA_XSP16 XSP16+0
        CFI `PSW.CY` SameValue
        CFI `B.BR0` SameValue
        CFI `B.BR1` SameValue
        CFI `B.BR2` SameValue
        CFI `B.BR3` SameValue
        CFI `B.BR4` SameValue
        CFI `B.BR5` SameValue
        CFI `B.BR6` SameValue
        CFI `B.BR7` SameValue
        CFI `VB.BR8` SameValue
        CFI `VB.BR9` SameValue
        CFI `VB.BR10` SameValue
        CFI `VB.BR11` SameValue
        CFI `VB.BR12` SameValue
        CFI `VB.BR13` SameValue
        CFI `VB.BR14` SameValue
        CFI `VB.BR15` SameValue
        CFI VB SameValue
        CFI B Undefined
        CFI A Undefined
        CFI PSW SameValue
        CFI DPL0 SameValue
        CFI DPH0 SameValue
        CFI R0 Undefined
        CFI R1 Undefined
        CFI R2 Undefined
        CFI R3 Undefined
        CFI R4 Undefined
        CFI R5 Undefined
        CFI R6 SameValue
        CFI R7 SameValue
        CFI V0 SameValue
        CFI V1 SameValue
        CFI V2 SameValue
        CFI V3 SameValue
        CFI V4 SameValue
        CFI V5 SameValue
        CFI V6 SameValue
        CFI V7 SameValue
        CFI V8 SameValue
        CFI V9 SameValue
        CFI V10 SameValue
        CFI V11 SameValue
        CFI V12 SameValue
        CFI V13 SameValue
        CFI V14 SameValue
        CFI V15 SameValue
        CFI PSPH Undefined
        CFI PSPL Undefined
        CFI XSPH Undefined
        CFI XSPL Undefined
        CFI ?RET Concat
        CFI ?BRET_EXT Frame(CFA_SP, 3)
        CFI ?RET_HIGH Frame(CFA_SP, 2)
        CFI ?RET_LOW Frame(CFA_SP, 1)
        CFI EndCommon cfiCommon0
        
        
        CFI Common cfiCommon1 Using cfiNames0
        CFI CodeAlign 1
        CFI DataAlign -1
        CFI ReturnAddress ?RET CODE
        CFI CFA_DOVERLAY Used
        CFI CFA_IOVERLAY Used
        CFI CFA_SP SP+-2
        CFI CFA_PSP16 PSP16+0
        CFI CFA_XSP16 XSP16+0
        CFI `PSW.CY` SameValue
        CFI `B.BR0` SameValue
        CFI `B.BR1` SameValue
        CFI `B.BR2` SameValue
        CFI `B.BR3` SameValue
        CFI `B.BR4` SameValue
        CFI `B.BR5` SameValue
        CFI `B.BR6` SameValue
        CFI `B.BR7` SameValue
        CFI `VB.BR8` SameValue
        CFI `VB.BR9` SameValue
        CFI `VB.BR10` SameValue
        CFI `VB.BR11` SameValue
        CFI `VB.BR12` SameValue
        CFI `VB.BR13` SameValue
        CFI `VB.BR14` SameValue
        CFI `VB.BR15` SameValue
        CFI VB SameValue
        CFI B SameValue
        CFI A SameValue
        CFI PSW SameValue
        CFI DPL0 SameValue
        CFI DPH0 SameValue
        CFI R0 SameValue
        CFI R1 SameValue
        CFI R2 SameValue
        CFI R3 SameValue
        CFI R4 SameValue
        CFI R5 SameValue
        CFI R6 SameValue
        CFI R7 SameValue
        CFI V0 SameValue
        CFI V1 SameValue
        CFI V2 SameValue
        CFI V3 SameValue
        CFI V4 SameValue
        CFI V5 SameValue
        CFI V6 SameValue
        CFI V7 SameValue
        CFI V8 SameValue
        CFI V9 SameValue
        CFI V10 SameValue
        CFI V11 SameValue
        CFI V12 SameValue
        CFI V13 SameValue
        CFI V14 SameValue
        CFI V15 SameValue
        CFI PSPH Undefined
        CFI PSPL Undefined
        CFI XSPH Undefined
        CFI XSPL Undefined
        CFI ?RET Concat
        CFI ?BRET_EXT SameValue
        CFI ?RET_HIGH Frame(CFA_SP, 2)
        CFI ?RET_LOW Frame(CFA_SP, 1)
        CFI EndCommon cfiCommon1
        
NLME_GetExtAddr     SYMBOL "NLME_GetExtAddr"
ZDO_Init            SYMBOL "ZDO_Init"
afRegister          SYMBOL "afRegister"
ZDSecMgrInit        SYMBOL "ZDSecMgrInit"
osal_set_event      SYMBOL "osal_set_event"
ZDO_StartDevice     SYMBOL "ZDO_StartDevice"
osal_msg_deallocate SYMBOL "osal_msg_deallocate"
osal_msg_receive    SYMBOL "osal_msg_receive"
ZDO_UpdateNwkStatus SYMBOL "ZDO_UpdateNwkStatus"
osal_start_timerEx  SYMBOL "osal_start_timerEx"
zgWriteStartupOptions SYMBOL "zgWriteStartupOptions"
ZDSecMgrSaveTCLinkKey SYMBOL "ZDSecMgrSaveTCLinkKey"
zgInitItems         SYMBOL "zgInitItems"
ZDConfig_InitDescriptors SYMBOL "ZDConfig_InitDescriptors"
osal_rand           SYMBOL "osal_rand"
NLME_SetBroadcastFilter SYMBOL "NLME_SetBroadcastFilter"
zgReadStartupOptions SYMBOL "zgReadStartupOptions"
nwk_ExtPANIDValid   SYMBOL "nwk_ExtPANIDValid"
osal_pwrmgr_device  SYMBOL "osal_pwrmgr_device"
NLME_GetEnergyThreshold SYMBOL "NLME_GetEnergyThreshold"
NLME_SetEnergyThreshold SYMBOL "NLME_SetEnergyThreshold"
NLME_SetPollRate    SYMBOL "NLME_SetPollRate"
NLME_InitNV         SYMBOL "NLME_InitNV"
NLME_RestoreFromNV  SYMBOL "NLME_RestoreFromNV"
NLME_GetShortAddr   SYMBOL "NLME_GetShortAddr"
sAddrExtCpy         SYMBOL "sAddrExtCpy"
osal_memset         SYMBOL "osal_memset"
osal_nv_item_init   SYMBOL "osal_nv_item_init"
osal_nv_read        SYMBOL "osal_nv_read"
ZDP_IncomingData    SYMBOL "ZDP_IncomingData"
NLME_JoinRequest    SYMBOL "NLME_JoinRequest"
ZMacSetReq          SYMBOL "ZMacSetReq"
NLME_ReJoinRequest  SYMBOL "NLME_ReJoinRequest"
NLME_SetQueuedPollRate SYMBOL "NLME_SetQueuedPollRate"
NLME_SetResponseRate SYMBOL "NLME_SetResponseRate"
ZDO_ParseAddrRsp    SYMBOL "ZDO_ParseAddrRsp"
ZDO_UpdateAddrManager SYMBOL "ZDO_UpdateAddrManager"
osal_mem_free       SYMBOL "osal_mem_free"
ZDO_ParseBindUnbindReq SYMBOL "ZDO_ParseBindUnbindReq"
ZDO_ProcessBindUnbindReq SYMBOL "ZDO_ProcessBindUnbindReq"
ZDO_RegisterForZDOMsg SYMBOL "ZDO_RegisterForZDOMsg"
ZDSecMgrTransportKeyInd SYMBOL "ZDSecMgrTransportKeyInd"
ZDSecMgrSwitchKeyInd SYMBOL "ZDSecMgrSwitchKeyInd"
nwkNeighborInitTable SYMBOL "nwkNeighborInitTable"
NLME_NwkDiscTerm    SYMBOL "NLME_NwkDiscTerm"
SSP_ReadNwkActiveKey SYMBOL "SSP_ReadNwkActiveKey"
osal_nv_write       SYMBOL "osal_nv_write"
osal_stop_timerEx   SYMBOL "osal_stop_timerEx"
NLME_NetworkDiscoveryRequest SYMBOL "NLME_NetworkDiscoveryRequest"
osal_msg_allocate   SYMBOL "osal_msg_allocate"
osal_memcpy         SYMBOL "osal_memcpy"
osal_msg_send       SYMBOL "osal_msg_send"
nwk_getNwkDescList  SYMBOL "nwk_getNwkDescList"
sAddrExtCmp         SYMBOL "sAddrExtCmp"
osal_mem_alloc      SYMBOL "osal_mem_alloc"
NLME_GetCoordShortAddr SYMBOL "NLME_GetCoordShortAddr"
RTG_MTORouteReq     SYMBOL "RTG_MTORouteReq"
ZDP_GenericRsp      SYMBOL "ZDP_GenericRsp"
afSetMatch          SYMBOL "afSetMatch"
osal_get_timeoutEx  SYMBOL "osal_get_timeoutEx"
APSME_HoldDataRequests SYMBOL "APSME_HoldDataRequests"
ZDP_DeviceAnnce     SYMBOL "ZDP_DeviceAnnce"
??APSME_HoldDataRequests?relay SYMBOL "?relay", APSME_HoldDataRequests
??NLME_GetCoordShortAddr?relay SYMBOL "?relay", NLME_GetCoordShortAddr
??NLME_GetEnergyThreshold?relay SYMBOL "?relay", NLME_GetEnergyThreshold
??NLME_GetExtAddr?relay SYMBOL "?relay", NLME_GetExtAddr
??NLME_GetShortAddr?relay SYMBOL "?relay", NLME_GetShortAddr
??NLME_InitNV?relay SYMBOL "?relay", NLME_InitNV
??NLME_JoinRequest?relay SYMBOL "?relay", NLME_JoinRequest
??NLME_NetworkDiscoveryRequest?relay SYMBOL "?relay", NLME_NetworkDiscoveryRequest
??NLME_NwkDiscTerm?relay SYMBOL "?relay", NLME_NwkDiscTerm
??NLME_ReJoinRequest?relay SYMBOL "?relay", NLME_ReJoinRequest
??NLME_RestoreFromNV?relay SYMBOL "?relay", NLME_RestoreFromNV
??NLME_SetBroadcastFilter?relay SYMBOL "?relay", NLME_SetBroadcastFilter
??NLME_SetEnergyThreshold?relay SYMBOL "?relay", NLME_SetEnergyThreshold
??NLME_SetPollRate?relay SYMBOL "?relay", NLME_SetPollRate
??NLME_SetQueuedPollRate?relay SYMBOL "?relay", NLME_SetQueuedPollRate
??NLME_SetResponseRate?relay SYMBOL "?relay", NLME_SetResponseRate
??RTG_MTORouteReq?relay SYMBOL "?relay", RTG_MTORouteReq
??SSP_ReadNwkActiveKey?relay SYMBOL "?relay", SSP_ReadNwkActiveKey
??ZDConfig_InitDescriptors?relay SYMBOL "?relay", ZDConfig_InitDescriptors
??ZDO_Init?relay    SYMBOL "?relay", ZDO_Init
??ZDO_ParseAddrRsp?relay SYMBOL "?relay", ZDO_ParseAddrRsp
??ZDO_ParseBindUnbindReq?relay SYMBOL "?relay", ZDO_ParseBindUnbindReq
??ZDO_ProcessBindUnbindReq?relay SYMBOL "?relay", ZDO_ProcessBindUnbindReq
??ZDO_RegisterForZDOMsg?relay SYMBOL "?relay", ZDO_RegisterForZDOMsg
??ZDO_StartDevice?relay SYMBOL "?relay", ZDO_StartDevice
??ZDO_UpdateAddrManager?relay SYMBOL "?relay", ZDO_UpdateAddrManager
??ZDO_UpdateNwkStatus?relay SYMBOL "?relay", ZDO_UpdateNwkStatus
??ZDP_DeviceAnnce?relay SYMBOL "?relay", ZDP_DeviceAnnce
??ZDP_GenericRsp?relay SYMBOL "?relay", ZDP_GenericRsp
??ZDP_IncomingData?relay SYMBOL "?relay", ZDP_IncomingData
??ZDSecMgrInit?relay SYMBOL "?relay", ZDSecMgrInit
??ZDSecMgrSaveTCLinkKey?relay SYMBOL "?relay", ZDSecMgrSaveTCLinkKey
??ZDSecMgrSwitchKeyInd?relay SYMBOL "?relay", ZDSecMgrSwitchKeyInd
??ZDSecMgrTransportKeyInd?relay SYMBOL "?relay", ZDSecMgrTransportKeyInd
??ZMacSetReq?relay  SYMBOL "?relay", ZMacSetReq
??afRegister?relay  SYMBOL "?relay", afRegister
??afSetMatch?relay  SYMBOL "?relay", afSetMatch
??nwkNeighborInitTable?relay SYMBOL "?relay", nwkNeighborInitTable
??nwk_ExtPANIDValid?relay SYMBOL "?relay", nwk_ExtPANIDValid
??nwk_getNwkDescList?relay SYMBOL "?relay", nwk_getNwkDescList
??osal_get_timeoutEx?relay SYMBOL "?relay", osal_get_timeoutEx
??osal_mem_alloc?relay SYMBOL "?relay", osal_mem_alloc
??osal_mem_free?relay SYMBOL "?relay", osal_mem_free
??osal_memcpy?relay SYMBOL "?relay", osal_memcpy
??osal_memset?relay SYMBOL "?relay", osal_memset
??osal_msg_allocate?relay SYMBOL "?relay", osal_msg_allocate
??osal_msg_deallocate?relay SYMBOL "?relay", osal_msg_deallocate
??osal_msg_receive?relay SYMBOL "?relay", osal_msg_receive
??osal_msg_send?relay SYMBOL "?relay", osal_msg_send
??osal_nv_item_init?relay SYMBOL "?relay", osal_nv_item_init
??osal_nv_read?relay SYMBOL "?relay", osal_nv_read
??osal_nv_write?relay SYMBOL "?relay", osal_nv_write
??osal_pwrmgr_device?relay SYMBOL "?relay", osal_pwrmgr_device
??osal_rand?relay   SYMBOL "?relay", osal_rand
??osal_set_event?relay SYMBOL "?relay", osal_set_event
??osal_start_timerEx?relay SYMBOL "?relay", osal_start_timerEx
??osal_stop_timerEx?relay SYMBOL "?relay", osal_stop_timerEx
??sAddrExtCmp?relay SYMBOL "?relay", sAddrExtCmp
??sAddrExtCpy?relay SYMBOL "?relay", sAddrExtCpy
??zgInitItems?relay SYMBOL "?relay", zgInitItems
??zgReadStartupOptions?relay SYMBOL "?relay", zgReadStartupOptions
??zgWriteStartupOptions?relay SYMBOL "?relay", zgWriteStartupOptions
AddrMgrWriteNVRequest SYMBOL "AddrMgrWriteNVRequest"
??AddrMgrWriteNVRequest?relay SYMBOL "?relay", AddrMgrWriteNVRequest
ZDAppCheckForHoldKey SYMBOL "ZDAppCheckForHoldKey"
??ZDAppCheckForHoldKey?relay SYMBOL "?relay", ZDAppCheckForHoldKey
ZDAppDetermineDeviceType SYMBOL "ZDAppDetermineDeviceType"
??ZDAppDetermineDeviceType?relay SYMBOL "?relay", ZDAppDetermineDeviceType
ZDApp_AnnounceNewAddress SYMBOL "ZDApp_AnnounceNewAddress"
??ZDApp_AnnounceNewAddress?relay SYMBOL "?relay", ZDApp_AnnounceNewAddress
ZDApp_ChangeMatchDescRespPermission SYMBOL "ZDApp_ChangeMatchDescRespPermission"
??ZDApp_ChangeMatchDescRespPermission?relay SYMBOL "?relay", ZDApp_ChangeMatchDescRespPermission
ZDApp_CoordStartPANIDConflictCB SYMBOL "ZDApp_CoordStartPANIDConflictCB"
??ZDApp_CoordStartPANIDConflictCB?relay SYMBOL "?relay", ZDApp_CoordStartPANIDConflictCB
ZDApp_DeviceAuthEvt SYMBOL "ZDApp_DeviceAuthEvt"
??ZDApp_DeviceAuthEvt?relay SYMBOL "?relay", ZDApp_DeviceAuthEvt
ZDApp_DeviceConfigured SYMBOL "ZDApp_DeviceConfigured"
??ZDApp_DeviceConfigured?relay SYMBOL "?relay", ZDApp_DeviceConfigured
ZDApp_InMsgCB       SYMBOL "ZDApp_InMsgCB"
??ZDApp_InMsgCB?relay SYMBOL "?relay", ZDApp_InMsgCB
ZDApp_Init          SYMBOL "ZDApp_Init"
??ZDApp_Init?relay  SYMBOL "?relay", ZDApp_Init
ZDApp_InitUserDesc  SYMBOL "ZDApp_InitUserDesc"
??ZDApp_InitUserDesc?relay SYMBOL "?relay", ZDApp_InitUserDesc
ZDApp_InitZdoCBFunc SYMBOL "ZDApp_InitZdoCBFunc"
??ZDApp_InitZdoCBFunc?relay SYMBOL "?relay", ZDApp_InitZdoCBFunc
ZDApp_JoinReq       SYMBOL "ZDApp_JoinReq"
??ZDApp_JoinReq?relay SYMBOL "?relay", ZDApp_JoinReq
ZDApp_LeaveCtrlBypass SYMBOL "ZDApp_LeaveCtrlBypass"
??ZDApp_LeaveCtrlBypass?relay SYMBOL "?relay", ZDApp_LeaveCtrlBypass
ZDApp_LeaveCtrlInit SYMBOL "ZDApp_LeaveCtrlInit"
??ZDApp_LeaveCtrlInit?relay SYMBOL "?relay", ZDApp_LeaveCtrlInit
ZDApp_LeaveCtrlReset SYMBOL "ZDApp_LeaveCtrlReset"
??ZDApp_LeaveCtrlReset?relay SYMBOL "?relay", ZDApp_LeaveCtrlReset
ZDApp_LeaveCtrlSet  SYMBOL "ZDApp_LeaveCtrlSet"
??ZDApp_LeaveCtrlSet?relay SYMBOL "?relay", ZDApp_LeaveCtrlSet
ZDApp_LeaveCtrlStartup SYMBOL "ZDApp_LeaveCtrlStartup"
??ZDApp_LeaveCtrlStartup?relay SYMBOL "?relay", ZDApp_LeaveCtrlStartup
ZDApp_LeaveReset    SYMBOL "ZDApp_LeaveReset"
??ZDApp_LeaveReset?relay SYMBOL "?relay", ZDApp_LeaveReset
ZDApp_LeaveUpdate   SYMBOL "ZDApp_LeaveUpdate"
??ZDApp_LeaveUpdate?relay SYMBOL "?relay", ZDApp_LeaveUpdate
ZDApp_NVUpdate      SYMBOL "ZDApp_NVUpdate"
??ZDApp_NVUpdate?relay SYMBOL "?relay", ZDApp_NVUpdate
ZDApp_NetworkDiscoveryReq SYMBOL "ZDApp_NetworkDiscoveryReq"
??ZDApp_NetworkDiscoveryReq?relay SYMBOL "?relay", ZDApp_NetworkDiscoveryReq
ZDApp_NetworkInit   SYMBOL "ZDApp_NetworkInit"
??ZDApp_NetworkInit?relay SYMBOL "?relay", ZDApp_NetworkInit
ZDApp_NetworkStartEvt SYMBOL "ZDApp_NetworkStartEvt"
??ZDApp_NetworkStartEvt?relay SYMBOL "?relay", ZDApp_NetworkStartEvt
ZDApp_NodeProfileSync SYMBOL "ZDApp_NodeProfileSync"
??ZDApp_NodeProfileSync?relay SYMBOL "?relay", ZDApp_NodeProfileSync
ZDApp_NwkDescListProcessing SYMBOL "ZDApp_NwkDescListProcessing"
??ZDApp_NwkDescListProcessing?relay SYMBOL "?relay", ZDApp_NwkDescListProcessing
ZDApp_NwkStateUpdateCB SYMBOL "ZDApp_NwkStateUpdateCB"
??ZDApp_NwkStateUpdateCB?relay SYMBOL "?relay", ZDApp_NwkStateUpdateCB
ZDApp_ProcessMsgCBs SYMBOL "ZDApp_ProcessMsgCBs"
??ZDApp_ProcessMsgCBs?relay SYMBOL "?relay", ZDApp_ProcessMsgCBs
ZDApp_ProcessNetworkJoin SYMBOL "ZDApp_ProcessNetworkJoin"
??ZDApp_ProcessNetworkJoin?relay SYMBOL "?relay", ZDApp_ProcessNetworkJoin
ZDApp_ProcessOSALMsg SYMBOL "ZDApp_ProcessOSALMsg"
??ZDApp_ProcessOSALMsg?relay SYMBOL "?relay", ZDApp_ProcessOSALMsg
ZDApp_ProcessSecEvent SYMBOL "ZDApp_ProcessSecEvent"
??ZDApp_ProcessSecEvent?relay SYMBOL "?relay", ZDApp_ProcessSecEvent
ZDApp_ProcessSecMsg SYMBOL "ZDApp_ProcessSecMsg"
??ZDApp_ProcessSecMsg?relay SYMBOL "?relay", ZDApp_ProcessSecMsg
ZDApp_ReadNetworkRestoreState SYMBOL "ZDApp_ReadNetworkRestoreState"
??ZDApp_ReadNetworkRestoreState?relay SYMBOL "?relay", ZDApp_ReadNetworkRestoreState
ZDApp_RegisterCBs   SYMBOL "ZDApp_RegisterCBs"
??ZDApp_RegisterCBs?relay SYMBOL "?relay", ZDApp_RegisterCBs
ZDApp_ResetNwkKey   SYMBOL "ZDApp_ResetNwkKey"
??ZDApp_ResetNwkKey?relay SYMBOL "?relay", ZDApp_ResetNwkKey
ZDApp_ResetTimerCancel SYMBOL "ZDApp_ResetTimerCancel"
??ZDApp_ResetTimerCancel?relay SYMBOL "?relay", ZDApp_ResetTimerCancel
ZDApp_ResetTimerStart SYMBOL "ZDApp_ResetTimerStart"
??ZDApp_ResetTimerStart?relay SYMBOL "?relay", ZDApp_ResetTimerStart
ZDApp_RestoreNetworkState SYMBOL "ZDApp_RestoreNetworkState"
??ZDApp_RestoreNetworkState?relay SYMBOL "?relay", ZDApp_RestoreNetworkState
ZDApp_RestoreNwkKey SYMBOL "ZDApp_RestoreNwkKey"
??ZDApp_RestoreNwkKey?relay SYMBOL "?relay", ZDApp_RestoreNwkKey
ZDApp_SaveNetworkStateEvt SYMBOL "ZDApp_SaveNetworkStateEvt"
??ZDApp_SaveNetworkStateEvt?relay SYMBOL "?relay", ZDApp_SaveNetworkStateEvt
ZDApp_SaveNwkKey    SYMBOL "ZDApp_SaveNwkKey"
??ZDApp_SaveNwkKey?relay SYMBOL "?relay", ZDApp_SaveNwkKey
ZDApp_SecInit       SYMBOL "ZDApp_SecInit"
??ZDApp_SecInit?relay SYMBOL "?relay", ZDApp_SecInit
ZDApp_SendEventMsg  SYMBOL "ZDApp_SendEventMsg"
??ZDApp_SendEventMsg?relay SYMBOL "?relay", ZDApp_SendEventMsg
ZDApp_SendMsg       SYMBOL "ZDApp_SendMsg"
??ZDApp_SendMsg?relay SYMBOL "?relay", ZDApp_SendMsg
ZDApp_StartJoiningCycle SYMBOL "ZDApp_StartJoiningCycle"
??ZDApp_StartJoiningCycle?relay SYMBOL "?relay", ZDApp_StartJoiningCycle
ZDApp_StopJoiningCycle SYMBOL "ZDApp_StopJoiningCycle"
??ZDApp_StopJoiningCycle?relay SYMBOL "?relay", ZDApp_StopJoiningCycle
ZDApp_event_loop    SYMBOL "ZDApp_event_loop"
??ZDApp_event_loop?relay SYMBOL "?relay", ZDApp_event_loop
ZDOInitDevice       SYMBOL "ZDOInitDevice"
??ZDOInitDevice?relay SYMBOL "?relay", ZDOInitDevice
ZDO_AddrChangeIndicationCB SYMBOL "ZDO_AddrChangeIndicationCB"
??ZDO_AddrChangeIndicationCB?relay SYMBOL "?relay", ZDO_AddrChangeIndicationCB
ZDO_ConcentratorIndicationCB SYMBOL "ZDO_ConcentratorIndicationCB"
??ZDO_ConcentratorIndicationCB?relay SYMBOL "?relay", ZDO_ConcentratorIndicationCB
ZDO_DeregisterForZdoCB SYMBOL "ZDO_DeregisterForZdoCB"
??ZDO_DeregisterForZdoCB?relay SYMBOL "?relay", ZDO_DeregisterForZdoCB
ZDO_JoinConfirmCB   SYMBOL "ZDO_JoinConfirmCB"
??ZDO_JoinConfirmCB?relay SYMBOL "?relay", ZDO_JoinConfirmCB
ZDO_JoinIndicationCB SYMBOL "ZDO_JoinIndicationCB"
??ZDO_JoinIndicationCB?relay SYMBOL "?relay", ZDO_JoinIndicationCB
ZDO_LeaveCnf        SYMBOL "ZDO_LeaveCnf"
??ZDO_LeaveCnf?relay SYMBOL "?relay", ZDO_LeaveCnf
ZDO_LeaveInd        SYMBOL "ZDO_LeaveInd"
??ZDO_LeaveInd?relay SYMBOL "?relay", ZDO_LeaveInd
ZDO_ManytoOneFailureIndicationCB SYMBOL "ZDO_ManytoOneFailureIndicationCB"
??ZDO_ManytoOneFailureIndicationCB?relay SYMBOL "?relay", ZDO_ManytoOneFailureIndicationCB
ZDO_NetworkDiscoveryConfirmCB SYMBOL "ZDO_NetworkDiscoveryConfirmCB"
??ZDO_NetworkDiscoveryConfirmCB?relay SYMBOL "?relay", ZDO_NetworkDiscoveryConfirmCB
ZDO_NetworkFormationConfirmCB SYMBOL "ZDO_NetworkFormationConfirmCB"
??ZDO_NetworkFormationConfirmCB?relay SYMBOL "?relay", ZDO_NetworkFormationConfirmCB
ZDO_PollConfirmCB   SYMBOL "ZDO_PollConfirmCB"
??ZDO_PollConfirmCB?relay SYMBOL "?relay", ZDO_PollConfirmCB
ZDO_RegisterForZdoCB SYMBOL "ZDO_RegisterForZdoCB"
??ZDO_RegisterForZdoCB?relay SYMBOL "?relay", ZDO_RegisterForZdoCB
ZDO_SrcRtgIndCB     SYMBOL "ZDO_SrcRtgIndCB"
??ZDO_SrcRtgIndCB?relay SYMBOL "?relay", ZDO_SrcRtgIndCB
ZDO_StartRouterConfirmCB SYMBOL "ZDO_StartRouterConfirmCB"
??ZDO_StartRouterConfirmCB?relay SYMBOL "?relay", ZDO_StartRouterConfirmCB
ZDO_SyncIndicationCB SYMBOL "ZDO_SyncIndicationCB"
??ZDO_SyncIndicationCB?relay SYMBOL "?relay", ZDO_SyncIndicationCB
ZDO_UpdateDeviceIndication SYMBOL "ZDO_UpdateDeviceIndication"
??ZDO_UpdateDeviceIndication?relay SYMBOL "?relay", ZDO_UpdateDeviceIndication
ZDO_beaconNotifyIndCB SYMBOL "ZDO_beaconNotifyIndCB"
??ZDO_beaconNotifyIndCB?relay SYMBOL "?relay", ZDO_beaconNotifyIndCB

        EXTERN NLME_GetExtAddr
        FUNCTION NLME_GetExtAddr,0202H
        ARGFRAME ISTACK, 0, STACK
        ARGFRAME PSTACK, 0, STACK
        ARGFRAME XSTACK, 10, STACK
        ARGFRAME IOVERLAY, 0, STATIC
        ARGFRAME DOVERLAY, 0, STATIC
        EXTERN ZDO_Init
        FUNCTION ZDO_Init,0202H
        ARGFRAME ISTACK, 0, STACK
        ARGFRAME PSTACK, 0, STACK
        ARGFRAME XSTACK, 9, STACK
        ARGFRAME IOVERLAY, 0, STATIC
        ARGFRAME DOVERLAY, 0, STATIC
        EXTERN afRegister
        FUNCTION afRegister,0202H
        ARGFRAME ISTACK, 0, STACK
        ARGFRAME PSTACK, 0, STACK
        ARGFRAME XSTACK, 9, STACK
        ARGFRAME IOVERLAY, 0, STATIC
        ARGFRAME DOVERLAY, 0, STATIC
        EXTERN ZDSecMgrInit
        FUNCTION ZDSecMgrInit,0202H
        ARGFRAME ISTACK, 0, STACK
        ARGFRAME PSTACK, 0, STACK
        ARGFRAME XSTACK, 12, STACK
        ARGFRAME IOVERLAY, 0, STATIC
        ARGFRAME DOVERLAY, 0, STATIC
        EXTERN osal_set_event
        FUNCTION osal_set_event,0202H
        ARGFRAME ISTACK, 2, STACK
        ARGFRAME PSTACK, 0, STACK
        ARGFRAME XSTACK, 12, STACK
        ARGFRAME IOVERLAY, 0, STATIC
        ARGFRAME DOVERLAY, 0, STATIC
        EXTERN ZDO_StartDevice
        FUNCTION ZDO_StartDevice,0202H
        ARGFRAME ISTACK, 0, STACK
        ARGFRAME PSTACK, 0, STACK
        ARGFRAME XSTACK, 10, STACK
        ARGFRAME IOVERLAY, 0, STATIC
        ARGFRAME DOVERLAY, 0, STATIC
        EXTERN osal_msg_deallocate
        FUNCTION osal_msg_deallocate,0202H
        ARGFRAME ISTACK, 0, STACK
        ARGFRAME PSTACK, 0, STACK
        ARGFRAME XSTACK, 10, STACK
        ARGFRAME IOVERLAY, 0, STATIC
        ARGFRAME DOVERLAY, 0, STATIC
        EXTERN osal_msg_receive
        FUNCTION osal_msg_receive,0202H
        ARGFRAME ISTACK, 0, STACK
        ARGFRAME PSTACK, 0, STACK
        ARGFRAME XSTACK, 10, STACK
        ARGFRAME IOVERLAY, 0, STATIC
        ARGFRAME DOVERLAY, 0, STATIC
        EXTERN ZDO_UpdateNwkStatus
        FUNCTION ZDO_UpdateNwkStatus,0202H
        ARGFRAME ISTACK, 0, STACK
        ARGFRAME PSTACK, 0, STACK
        ARGFRAME XSTACK, 10, STACK
        ARGFRAME IOVERLAY, 0, STATIC
        ARGFRAME DOVERLAY, 0, STATIC
        EXTERN osal_start_timerEx
        FUNCTION osal_start_timerEx,0202H
        ARGFRAME ISTACK, 2, STACK
        ARGFRAME PSTACK, 0, STACK
        ARGFRAME XSTACK, 10, STACK
        ARGFRAME IOVERLAY, 0, STATIC
        ARGFRAME DOVERLAY, 0, STATIC
        EXTERN zgWriteStartupOptions
        FUNCTION zgWriteStartupOptions,0202H
        ARGFRAME ISTACK, 0, STACK
        ARGFRAME PSTACK, 0, STACK
        ARGFRAME XSTACK, 12, STACK
        ARGFRAME IOVERLAY, 0, STATIC
        ARGFRAME DOVERLAY, 0, STATIC
        EXTERN Onboard_soft_reset
        FUNCTION Onboard_soft_reset,0202H
        ARGFRAME ISTACK, 0, STACK
        ARGFRAME PSTACK, 0, STACK
        ARGFRAME XSTACK, 10, STACK
        ARGFRAME IOVERLAY, 0, STATIC
        ARGFRAME DOVERLAY, 0, STATIC
        EXTERN ZDSecMgrSaveTCLinkKey
        FUNCTION ZDSecMgrSaveTCLinkKey,0202H
        ARGFRAME ISTACK, 0, STACK
        ARGFRAME PSTACK, 0, STACK
        ARGFRAME XSTACK, 9, STACK
        ARGFRAME IOVERLAY, 0, STATIC
        ARGFRAME DOVERLAY, 0, STATIC
        EXTERN zgInitItems
        FUNCTION zgInitItems,0202H
        ARGFRAME ISTACK, 0, STACK
        ARGFRAME PSTACK, 0, STACK
        ARGFRAME XSTACK, 12, STACK
        ARGFRAME IOVERLAY, 0, STATIC
        ARGFRAME DOVERLAY, 0, STATIC
        EXTERN ZDConfig_InitDescriptors
        FUNCTION ZDConfig_InitDescriptors,0202H
        ARGFRAME ISTACK, 0, STACK
        ARGFRAME PSTACK, 0, STACK
        ARGFRAME XSTACK, 12, STACK
        ARGFRAME IOVERLAY, 0, STATIC
        ARGFRAME DOVERLAY, 0, STATIC
        EXTERN osal_rand
        FUNCTION osal_rand,0202H
        ARGFRAME ISTACK, 0, STACK
        ARGFRAME PSTACK, 0, STACK
        ARGFRAME XSTACK, 12, STACK
        ARGFRAME IOVERLAY, 0, STATIC
        ARGFRAME DOVERLAY, 0, STATIC
        EXTERN NLME_SetBroadcastFilter
        FUNCTION NLME_SetBroadcastFilter,0202H
        ARGFRAME ISTACK, 0, STACK
        ARGFRAME PSTACK, 0, STACK
        ARGFRAME XSTACK, 12, STACK
        ARGFRAME IOVERLAY, 0, STATIC
        ARGFRAME DOVERLAY, 0, STATIC
        EXTERN zgReadStartupOptions
        FUNCTION zgReadStartupOptions,0202H
        ARGFRAME ISTACK, 0, STACK
        ARGFRAME PSTACK, 0, STACK
        ARGFRAME XSTACK, 9, STACK
        ARGFRAME IOVERLAY, 0, STATIC
        ARGFRAME DOVERLAY, 0, STATIC
        EXTERN nwk_ExtPANIDValid
        FUNCTION nwk_ExtPANIDValid,0202H
        ARGFRAME ISTACK, 2, STACK
        ARGFRAME PSTACK, 0, STACK
        ARGFRAME XSTACK, 14, STACK
        ARGFRAME IOVERLAY, 0, STATIC
        ARGFRAME DOVERLAY, 0, STATIC
        EXTERN osal_pwrmgr_device
        FUNCTION osal_pwrmgr_device,0202H
        ARGFRAME ISTACK, 2, STACK
        ARGFRAME PSTACK, 0, STACK
        ARGFRAME XSTACK, 0, STACK
        ARGFRAME IOVERLAY, 0, STATIC
        ARGFRAME DOVERLAY, 0, STATIC
        EXTERN NLME_GetEnergyThreshold
        FUNCTION NLME_GetEnergyThreshold,0202H
        ARGFRAME ISTACK, 2, STACK
        ARGFRAME PSTACK, 0, STACK
        ARGFRAME XSTACK, 0, STACK
        ARGFRAME IOVERLAY, 0, STATIC
        ARGFRAME DOVERLAY, 0, STATIC
        EXTERN NLME_SetEnergyThreshold
        FUNCTION NLME_SetEnergyThreshold,0202H
        ARGFRAME ISTACK, 2, STACK
        ARGFRAME PSTACK, 0, STACK
        ARGFRAME XSTACK, 0, STACK
        ARGFRAME IOVERLAY, 0, STATIC
        ARGFRAME DOVERLAY, 0, STATIC
        EXTERN NLME_SetPollRate
        FUNCTION NLME_SetPollRate,0202H
        ARGFRAME ISTACK, 2, STACK
        ARGFRAME PSTACK, 0, STACK
        ARGFRAME XSTACK, 12, STACK
        ARGFRAME IOVERLAY, 0, STATIC
        ARGFRAME DOVERLAY, 0, STATIC
        EXTERN NLME_InitNV
        FUNCTION NLME_InitNV,0202H
        ARGFRAME ISTACK, 0, STACK
        ARGFRAME PSTACK, 0, STACK
        ARGFRAME XSTACK, 9, STACK
        ARGFRAME IOVERLAY, 0, STATIC
        ARGFRAME DOVERLAY, 0, STATIC
        EXTERN NLME_RestoreFromNV
        FUNCTION NLME_RestoreFromNV,0202H
        ARGFRAME ISTACK, 0, STACK
        ARGFRAME PSTACK, 0, STACK
        ARGFRAME XSTACK, 9, STACK
        ARGFRAME IOVERLAY, 0, STATIC
        ARGFRAME DOVERLAY, 0, STATIC
        EXTERN NLME_GetShortAddr
        FUNCTION NLME_GetShortAddr,0202H
        ARGFRAME ISTACK, 0, STACK
        ARGFRAME PSTACK, 0, STACK
        ARGFRAME XSTACK, 12, STACK
        ARGFRAME IOVERLAY, 0, STATIC
        ARGFRAME DOVERLAY, 0, STATIC
        EXTERN sAddrExtCpy
        FUNCTION sAddrExtCpy,0202H
        ARGFRAME ISTACK, 0, STACK
        ARGFRAME PSTACK, 0, STACK
        ARGFRAME XSTACK, 14, STACK
        ARGFRAME IOVERLAY, 0, STATIC
        ARGFRAME DOVERLAY, 0, STATIC
        EXTERN osal_memset
        FUNCTION osal_memset,0202H
        ARGFRAME ISTACK, 0, STACK
        ARGFRAME PSTACK, 0, STACK
        ARGFRAME XSTACK, 33, STACK
        ARGFRAME IOVERLAY, 0, STATIC
        ARGFRAME DOVERLAY, 0, STATIC
        EXTERN osal_nv_item_init
        FUNCTION osal_nv_item_init,0202H
        ARGFRAME ISTACK, 0, STACK
        ARGFRAME PSTACK, 0, STACK
        ARGFRAME XSTACK, 29, STACK
        ARGFRAME IOVERLAY, 0, STATIC
        ARGFRAME DOVERLAY, 0, STATIC
        EXTERN osal_nv_read
        FUNCTION osal_nv_read,0202H
        ARGFRAME ISTACK, 0, STACK
        ARGFRAME PSTACK, 0, STACK
        ARGFRAME XSTACK, 37, STACK
        ARGFRAME IOVERLAY, 0, STATIC
        ARGFRAME DOVERLAY, 0, STATIC
        EXTERN ZDP_IncomingData
        FUNCTION ZDP_IncomingData,0202H
        ARGFRAME ISTACK, 0, STACK
        ARGFRAME PSTACK, 0, STACK
        ARGFRAME XSTACK, 11, STACK
        ARGFRAME IOVERLAY, 0, STATIC
        ARGFRAME DOVERLAY, 0, STATIC
        EXTERN NLME_JoinRequest
        FUNCTION NLME_JoinRequest,0202H
        ARGFRAME ISTACK, 0, STACK
        ARGFRAME PSTACK, 0, STACK
        ARGFRAME XSTACK, 18, STACK
        ARGFRAME IOVERLAY, 0, STATIC
        ARGFRAME DOVERLAY, 0, STATIC
        EXTERN ZMacSetReq
        FUNCTION ZMacSetReq,0202H
        ARGFRAME ISTACK, 0, STACK
        ARGFRAME PSTACK, 0, STACK
        ARGFRAME XSTACK, 12, STACK
        ARGFRAME IOVERLAY, 0, STATIC
        ARGFRAME DOVERLAY, 0, STATIC
        EXTERN NLME_ReJoinRequest
        FUNCTION NLME_ReJoinRequest,0202H
        ARGFRAME ISTACK, 0, STACK
        ARGFRAME PSTACK, 0, STACK
        ARGFRAME XSTACK, 11, STACK
        ARGFRAME IOVERLAY, 0, STATIC
        ARGFRAME DOVERLAY, 0, STATIC
        EXTERN NLME_SetQueuedPollRate
        FUNCTION NLME_SetQueuedPollRate,0202H
        ARGFRAME ISTACK, 0, STACK
        ARGFRAME PSTACK, 0, STACK
        ARGFRAME XSTACK, 12, STACK
        ARGFRAME IOVERLAY, 0, STATIC
        ARGFRAME DOVERLAY, 0, STATIC
        EXTERN NLME_SetResponseRate
        FUNCTION NLME_SetResponseRate,0202H
        ARGFRAME ISTACK, 0, STACK
        ARGFRAME PSTACK, 0, STACK
        ARGFRAME XSTACK, 12, STACK
        ARGFRAME IOVERLAY, 0, STATIC
        ARGFRAME DOVERLAY, 0, STATIC
        EXTERN ZDO_ParseAddrRsp
        FUNCTION ZDO_ParseAddrRsp,0202H
        ARGFRAME ISTACK, 0, STACK
        ARGFRAME PSTACK, 0, STACK
        ARGFRAME XSTACK, 31, STACK
        ARGFRAME IOVERLAY, 0, STATIC
        ARGFRAME DOVERLAY, 0, STATIC
        EXTERN ZDO_UpdateAddrManager
        FUNCTION ZDO_UpdateAddrManager,0202H
        ARGFRAME ISTACK, 0, STACK
        ARGFRAME PSTACK, 0, STACK
        ARGFRAME XSTACK, 31, STACK
        ARGFRAME IOVERLAY, 0, STATIC
        ARGFRAME DOVERLAY, 0, STATIC
        EXTERN osal_mem_free
        FUNCTION osal_mem_free,0202H
        ARGFRAME ISTACK, 0, STACK
        ARGFRAME PSTACK, 0, STACK
        ARGFRAME XSTACK, 31, STACK
        ARGFRAME IOVERLAY, 0, STATIC
        ARGFRAME DOVERLAY, 0, STATIC
        EXTERN ZDO_ParseBindUnbindReq
        FUNCTION ZDO_ParseBindUnbindReq,0202H
        ARGFRAME ISTACK, 0, STACK
        ARGFRAME PSTACK, 0, STACK
        ARGFRAME XSTACK, 31, STACK
        ARGFRAME IOVERLAY, 0, STATIC
        ARGFRAME DOVERLAY, 0, STATIC
        EXTERN ZDO_ProcessBindUnbindReq
        FUNCTION ZDO_ProcessBindUnbindReq,0202H
        ARGFRAME ISTACK, 0, STACK
        ARGFRAME PSTACK, 0, STACK
        ARGFRAME XSTACK, 31, STACK
        ARGFRAME IOVERLAY, 0, STATIC
        ARGFRAME DOVERLAY, 0, STATIC
        EXTERN ZDO_RegisterForZDOMsg
        FUNCTION ZDO_RegisterForZDOMsg,0202H
        ARGFRAME ISTACK, 2, STACK
        ARGFRAME PSTACK, 0, STACK
        ARGFRAME XSTACK, 0, STACK
        ARGFRAME IOVERLAY, 0, STATIC
        ARGFRAME DOVERLAY, 0, STATIC
        EXTERN ZDSecMgrTransportKeyInd
        FUNCTION ZDSecMgrTransportKeyInd,0202H
        ARGFRAME ISTACK, 2, STACK
        ARGFRAME PSTACK, 0, STACK
        ARGFRAME XSTACK, 0, STACK
        ARGFRAME IOVERLAY, 0, STATIC
        ARGFRAME DOVERLAY, 0, STATIC
        EXTERN ZDSecMgrSwitchKeyInd
        FUNCTION ZDSecMgrSwitchKeyInd,0202H
        ARGFRAME ISTACK, 2, STACK
        ARGFRAME PSTACK, 0, STACK
        ARGFRAME XSTACK, 0, STACK
        ARGFRAME IOVERLAY, 0, STATIC
        ARGFRAME DOVERLAY, 0, STATIC
        EXTERN nwkNeighborInitTable
        FUNCTION nwkNeighborInitTable,0202H
        ARGFRAME ISTACK, 0, STACK
        ARGFRAME PSTACK, 0, STACK
        ARGFRAME XSTACK, 12, STACK
        ARGFRAME IOVERLAY, 0, STATIC
        ARGFRAME DOVERLAY, 0, STATIC
        EXTERN NLME_NwkDiscTerm
        FUNCTION NLME_NwkDiscTerm,0202H
        ARGFRAME ISTACK, 0, STACK
        ARGFRAME PSTACK, 0, STACK
        ARGFRAME XSTACK, 12, STACK
        ARGFRAME IOVERLAY, 0, STATIC
        ARGFRAME DOVERLAY, 0, STATIC
        EXTERN SSP_ReadNwkActiveKey
        FUNCTION SSP_ReadNwkActiveKey,0202H
        ARGFRAME ISTACK, 0, STACK
        ARGFRAME PSTACK, 0, STACK
        ARGFRAME XSTACK, 33, STACK
        ARGFRAME IOVERLAY, 0, STATIC
        ARGFRAME DOVERLAY, 0, STATIC
        EXTERN osal_nv_write
        FUNCTION osal_nv_write,0202H
        ARGFRAME ISTACK, 0, STACK
        ARGFRAME PSTACK, 0, STACK
        ARGFRAME XSTACK, 37, STACK
        ARGFRAME IOVERLAY, 0, STATIC
        ARGFRAME DOVERLAY, 0, STATIC
        EXTERN osal_stop_timerEx
        FUNCTION osal_stop_timerEx,0202H
        ARGFRAME ISTACK, 2, STACK
        ARGFRAME PSTACK, 0, STACK
        ARGFRAME XSTACK, 0, STACK
        ARGFRAME IOVERLAY, 0, STATIC
        ARGFRAME DOVERLAY, 0, STATIC
        EXTERN NLME_NetworkDiscoveryRequest
        FUNCTION NLME_NetworkDiscoveryRequest,0202H
        ARGFRAME ISTACK, 0, STACK
        ARGFRAME PSTACK, 0, STACK
        ARGFRAME XSTACK, 12, STACK
        ARGFRAME IOVERLAY, 0, STATIC
        ARGFRAME DOVERLAY, 0, STATIC
        EXTERN osal_msg_allocate
        FUNCTION osal_msg_allocate,0202H
        ARGFRAME ISTACK, 0, STACK
        ARGFRAME PSTACK, 0, STACK
        ARGFRAME XSTACK, 16, STACK
        ARGFRAME IOVERLAY, 0, STATIC
        ARGFRAME DOVERLAY, 0, STATIC
        EXTERN osal_memcpy
        FUNCTION osal_memcpy,0202H
        ARGFRAME ISTACK, 0, STACK
        ARGFRAME PSTACK, 0, STACK
        ARGFRAME XSTACK, 19, STACK
        ARGFRAME IOVERLAY, 0, STATIC
        ARGFRAME DOVERLAY, 0, STATIC
        EXTERN osal_msg_send
        FUNCTION osal_msg_send,0202H
        ARGFRAME ISTACK, 0, STACK
        ARGFRAME PSTACK, 0, STACK
        ARGFRAME XSTACK, 16, STACK
        ARGFRAME IOVERLAY, 0, STATIC
        ARGFRAME DOVERLAY, 0, STATIC
        EXTERN nwk_getNwkDescList
        FUNCTION nwk_getNwkDescList,0202H
        ARGFRAME ISTACK, 0, STACK
        ARGFRAME PSTACK, 0, STACK
        ARGFRAME XSTACK, 14, STACK
        ARGFRAME IOVERLAY, 0, STATIC
        ARGFRAME DOVERLAY, 0, STATIC
        EXTERN sAddrExtCmp
        FUNCTION sAddrExtCmp,0202H
        ARGFRAME ISTACK, 0, STACK
        ARGFRAME PSTACK, 0, STACK
        ARGFRAME XSTACK, 14, STACK
        ARGFRAME IOVERLAY, 0, STATIC
        ARGFRAME DOVERLAY, 0, STATIC
        EXTERN osal_mem_alloc
        FUNCTION osal_mem_alloc,0202H
        ARGFRAME ISTACK, 0, STACK
        ARGFRAME PSTACK, 0, STACK
        ARGFRAME XSTACK, 14, STACK
        ARGFRAME IOVERLAY, 0, STATIC
        ARGFRAME DOVERLAY, 0, STATIC
        EXTERN NLME_GetCoordShortAddr
        FUNCTION NLME_GetCoordShortAddr,0202H
        ARGFRAME ISTACK, 0, STACK
        ARGFRAME PSTACK, 0, STACK
        ARGFRAME XSTACK, 10, STACK
        ARGFRAME IOVERLAY, 0, STATIC
        ARGFRAME DOVERLAY, 0, STATIC
        EXTERN RTG_MTORouteReq
        FUNCTION RTG_MTORouteReq,0202H
        ARGFRAME ISTACK, 2, STACK
        ARGFRAME PSTACK, 0, STACK
        ARGFRAME XSTACK, 0, STACK
        ARGFRAME IOVERLAY, 0, STATIC
        ARGFRAME DOVERLAY, 0, STATIC
        EXTERN ZDP_GenericRsp
        FUNCTION ZDP_GenericRsp,0202H
        ARGFRAME ISTACK, 0, STACK
        ARGFRAME PSTACK, 0, STACK
        ARGFRAME XSTACK, 14, STACK
        ARGFRAME IOVERLAY, 0, STATIC
        ARGFRAME DOVERLAY, 0, STATIC
        EXTERN afSetMatch
        FUNCTION afSetMatch,0202H
        ARGFRAME ISTACK, 0, STACK
        ARGFRAME PSTACK, 0, STACK
        ARGFRAME XSTACK, 9, STACK
        ARGFRAME IOVERLAY, 0, STATIC
        ARGFRAME DOVERLAY, 0, STATIC
        EXTERN osal_get_timeoutEx
        FUNCTION osal_get_timeoutEx,0202H
        ARGFRAME ISTACK, 2, STACK
        ARGFRAME PSTACK, 0, STACK
        ARGFRAME XSTACK, 0, STACK
        ARGFRAME IOVERLAY, 0, STATIC
        ARGFRAME DOVERLAY, 0, STATIC
        EXTERN APSME_HoldDataRequests
        FUNCTION APSME_HoldDataRequests,0202H
        ARGFRAME ISTACK, 0, STACK
        ARGFRAME PSTACK, 0, STACK
        ARGFRAME XSTACK, 10, STACK
        ARGFRAME IOVERLAY, 0, STATIC
        ARGFRAME DOVERLAY, 0, STATIC
        EXTERN ZDP_DeviceAnnce
        FUNCTION ZDP_DeviceAnnce,0202H
        ARGFRAME ISTACK, 0, STACK
        ARGFRAME PSTACK, 0, STACK
        ARGFRAME XSTACK, 11, STACK
        ARGFRAME IOVERLAY, 0, STATIC
        ARGFRAME DOVERLAY, 0, STATIC
        EXTERN ??APSME_HoldDataRequests?relay
        FUNCTION ??APSME_HoldDataRequests?relay,00H
        EXTERN ??NLME_GetCoordShortAddr?relay
        FUNCTION ??NLME_GetCoordShortAddr?relay,00H
        EXTERN ??NLME_GetEnergyThreshold?relay
        FUNCTION ??NLME_GetEnergyThreshold?relay,00H
        EXTERN ??NLME_GetExtAddr?relay
        FUNCTION ??NLME_GetExtAddr?relay,00H
        EXTERN ??NLME_GetShortAddr?relay
        FUNCTION ??NLME_GetShortAddr?relay,00H
        EXTERN ??NLME_InitNV?relay
        FUNCTION ??NLME_InitNV?relay,00H
        EXTERN ??NLME_JoinRequest?relay
        FUNCTION ??NLME_JoinRequest?relay,00H
        EXTERN ??NLME_NetworkDiscoveryRequest?relay
        FUNCTION ??NLME_NetworkDiscoveryRequest?relay,00H
        EXTERN ??NLME_NwkDiscTerm?relay
        FUNCTION ??NLME_NwkDiscTerm?relay,00H
        EXTERN ??NLME_ReJoinRequest?relay
        FUNCTION ??NLME_ReJoinRequest?relay,00H
        EXTERN ??NLME_RestoreFromNV?relay
        FUNCTION ??NLME_RestoreFromNV?relay,00H
        EXTERN ??NLME_SetBroadcastFilter?relay
        FUNCTION ??NLME_SetBroadcastFilter?relay,00H
        EXTERN ??NLME_SetEnergyThreshold?relay
        FUNCTION ??NLME_SetEnergyThreshold?relay,00H
        EXTERN ??NLME_SetPollRate?relay
        FUNCTION ??NLME_SetPollRate?relay,00H
        EXTERN ??NLME_SetQueuedPollRate?relay
        FUNCTION ??NLME_SetQueuedPollRate?relay,00H
        EXTERN ??NLME_SetResponseRate?relay
        FUNCTION ??NLME_SetResponseRate?relay,00H
        EXTERN ??RTG_MTORouteReq?relay
        FUNCTION ??RTG_MTORouteReq?relay,00H
        EXTERN ??SSP_ReadNwkActiveKey?relay
        FUNCTION ??SSP_ReadNwkActiveKey?relay,00H
        EXTERN ??ZDConfig_InitDescriptors?relay
        FUNCTION ??ZDConfig_InitDescriptors?relay,00H
        EXTERN ??ZDO_Init?relay
        FUNCTION ??ZDO_Init?relay,00H
        EXTERN ??ZDO_ParseAddrRsp?relay
        FUNCTION ??ZDO_ParseAddrRsp?relay,00H
        EXTERN ??ZDO_ParseBindUnbindReq?relay
        FUNCTION ??ZDO_ParseBindUnbindReq?relay,00H
        EXTERN ??ZDO_ProcessBindUnbindReq?relay
        FUNCTION ??ZDO_ProcessBindUnbindReq?relay,00H
        EXTERN ??ZDO_RegisterForZDOMsg?relay
        FUNCTION ??ZDO_RegisterForZDOMsg?relay,00H
        EXTERN ??ZDO_StartDevice?relay
        FUNCTION ??ZDO_StartDevice?relay,00H
        EXTERN ??ZDO_UpdateAddrManager?relay
        FUNCTION ??ZDO_UpdateAddrManager?relay,00H
        EXTERN ??ZDO_UpdateNwkStatus?relay
        FUNCTION ??ZDO_UpdateNwkStatus?relay,00H
        EXTERN ??ZDP_DeviceAnnce?relay
        FUNCTION ??ZDP_DeviceAnnce?relay,00H
        EXTERN ??ZDP_GenericRsp?relay
        FUNCTION ??ZDP_GenericRsp?relay,00H
        EXTERN ??ZDP_IncomingData?relay
        FUNCTION ??ZDP_IncomingData?relay,00H
        EXTERN ??ZDSecMgrInit?relay
        FUNCTION ??ZDSecMgrInit?relay,00H
        EXTERN ??ZDSecMgrSaveTCLinkKey?relay
        FUNCTION ??ZDSecMgrSaveTCLinkKey?relay,00H
        EXTERN ??ZDSecMgrSwitchKeyInd?relay
        FUNCTION ??ZDSecMgrSwitchKeyInd?relay,00H
        EXTERN ??ZDSecMgrTransportKeyInd?relay
        FUNCTION ??ZDSecMgrTransportKeyInd?relay,00H
        EXTERN ??ZMacSetReq?relay
        FUNCTION ??ZMacSetReq?relay,00H
        EXTERN ??afRegister?relay
        FUNCTION ??afRegister?relay,00H
        EXTERN ??afSetMatch?relay
        FUNCTION ??afSetMatch?relay,00H
        EXTERN ??nwkNeighborInitTable?relay
        FUNCTION ??nwkNeighborInitTable?relay,00H
        EXTERN ??nwk_ExtPANIDValid?relay
        FUNCTION ??nwk_ExtPANIDValid?relay,00H
        EXTERN ??nwk_getNwkDescList?relay
        FUNCTION ??nwk_getNwkDescList?relay,00H
        EXTERN ??osal_get_timeoutEx?relay
        FUNCTION ??osal_get_timeoutEx?relay,00H
        EXTERN ??osal_mem_alloc?relay
        FUNCTION ??osal_mem_alloc?relay,00H
        EXTERN ??osal_mem_free?relay
        FUNCTION ??osal_mem_free?relay,00H
        EXTERN ??osal_memcpy?relay
        FUNCTION ??osal_memcpy?relay,00H
        EXTERN ??osal_memset?relay
        FUNCTION ??osal_memset?relay,00H
        EXTERN ??osal_msg_allocate?relay
        FUNCTION ??osal_msg_allocate?relay,00H
        EXTERN ??osal_msg_deallocate?relay
        FUNCTION ??osal_msg_deallocate?relay,00H
        EXTERN ??osal_msg_receive?relay
        FUNCTION ??osal_msg_receive?relay,00H
        EXTERN ??osal_msg_send?relay
        FUNCTION ??osal_msg_send?relay,00H
        EXTERN ??osal_nv_item_init?relay
        FUNCTION ??osal_nv_item_init?relay,00H
        EXTERN ??osal_nv_read?relay
        FUNCTION ??osal_nv_read?relay,00H
        EXTERN ??osal_nv_write?relay
        FUNCTION ??osal_nv_write?relay,00H
        EXTERN ??osal_pwrmgr_device?relay
        FUNCTION ??osal_pwrmgr_device?relay,00H
        EXTERN ??osal_rand?relay
        FUNCTION ??osal_rand?relay,00H
        EXTERN ??osal_set_event?relay
        FUNCTION ??osal_set_event?relay,00H
        EXTERN ??osal_start_timerEx?relay
        FUNCTION ??osal_start_timerEx?relay,00H
        EXTERN ??osal_stop_timerEx?relay
        FUNCTION ??osal_stop_timerEx?relay,00H
        EXTERN ??sAddrExtCmp?relay
        FUNCTION ??sAddrExtCmp?relay,00H
        EXTERN ??sAddrExtCpy?relay
        FUNCTION ??sAddrExtCpy?relay,00H
        EXTERN ??zgInitItems?relay
        FUNCTION ??zgInitItems?relay,00H
        EXTERN ??zgReadStartupOptions?relay
        FUNCTION ??zgReadStartupOptions?relay,00H
        EXTERN ??zgWriteStartupOptions?relay
        FUNCTION ??zgWriteStartupOptions?relay,00H
        EXTERN AIB_apsUseExtendedPANID
        EXTERN AIB_apsUseInsecureJoin
        EXTERN NWK_TaskID
        EXTERN NwkDescList
        EXTERN ZDO_Config_Node_Descriptor
        EXTERN _NIB
        EXTERN epList
        EXTERN gMIN_TREE_LINK_COST
        EXTERN nwkFrameCounter
        EXTERN zgConcentratorEnable
        EXTERN zgConfigPANID
        EXTERN zgDefaultStartingScanDuration
        EXTERN zgDeviceLogicalType
        EXTERN zgStackProfile

// C:\Users\Administrator\Desktop\ZStack-CC2530-r200_1\Components\stack\zdo\ZDApp.c
//    1 /**************************************************************************************************
//    2   Filename:       ZDApp.c
//    3   Revised:        $Date: 2011-04-13 10:12:34 -0700 (Wed, 13 Apr 2011) $
//    4   Revision:       $Revision: 25678 $
//    5 
//    6   Description:    This file contains the interface to the Zigbee Device Application. This is the
//    7                   Application part that the user can change. This also contains the Task functions.
//    8 
//    9 
//   10   Copyright 2004-2011 Texas Instruments Incorporated. All rights reserved.
//   11 
//   12   IMPORTANT: Your use of this Software is limited to those specific rights
//   13   granted under the terms of a software license agreement between the user
//   14   who downloaded the software, his/her employer (which must be your employer)
//   15   and Texas Instruments Incorporated (the "License").  You may not use this
//   16   Software unless you agree to abide by the terms of the License. The License
//   17   limits your use, and you acknowledge, that the Software may not be modified,
//   18   copied or distributed unless embedded on a Texas Instruments microcontroller
//   19   or used solely and exclusively in conjunction with a Texas Instruments radio
//   20   frequency transceiver, which is integrated into your product.  Other than for
//   21   the foregoing purpose, you may not use, reproduce, copy, prepare derivative
//   22   works of, modify, distribute, perform, display or sell this Software and/or
//   23   its documentation for any purpose.
//   24 
//   25   YOU FURTHER ACKNOWLEDGE AND AGREE THAT THE SOFTWARE AND DOCUMENTATION ARE
//   26   PROVIDED AS IS?WITHOUT WARRANTY OF ANY KIND, EITHER EXPRESS OR IMPLIED,
//   27   INCLUDING WITHOUT LIMITATION, ANY WARRANTY OF MERCHANTABILITY, TITLE,
//   28   NON-INFRINGEMENT AND FITNESS FOR A PARTICULAR PURPOSE. IN NO EVENT SHALL
//   29   TEXAS INSTRUMENTS OR ITS LICENSORS BE LIABLE OR OBLIGATED UNDER CONTRACT,
//   30   NEGLIGENCE, STRICT LIABILITY, CONTRIBUTION, BREACH OF WARRANTY, OR OTHER
//   31   LEGAL EQUITABLE THEORY ANY DIRECT OR INDIRECT DAMAGES OR EXPENSES
//   32   INCLUDING BUT NOT LIMITED TO ANY INCIDENTAL, SPECIAL, INDIRECT, PUNITIVE
//   33   OR CONSEQUENTIAL DAMAGES, LOST PROFITS OR LOST DATA, COST OF PROCUREMENT
//   34   OF SUBSTITUTE GOODS, TECHNOLOGY, SERVICES, OR ANY CLAIMS BY THIRD PARTIES
//   35   (INCLUDING BUT NOT LIMITED TO ANY DEFENSE THEREOF), OR OTHER SIMILAR COSTS.
//   36 
//   37   Should you have any questions regarding your right to use this Software,
//   38   contact Texas Instruments Incorporated at www.TI.com.
//   39 **************************************************************************************************/
//   40 
//   41 /*********************************************************************
//   42  * INCLUDES
//   43  */
//   44 
//   45 #include "ZComDef.h"
//   46 #include "ZMac.h"
//   47 #include "OSAL.h"
//   48 #include "OSAL_Tasks.h"
//   49 #include "OSAL_PwrMgr.h"
//   50 #include "OSAL_Nv.h"
//   51 #include "AF.h"
//   52 #include "APSMEDE.h"
//   53 #include "NLMEDE.h"
//   54 #include "AddrMgr.h"
//   55 #include "ZDProfile.h"
//   56 #include "ZDObject.h"
//   57 #include "ZDConfig.h"
//   58 #include "ZDSecMgr.h"
//   59 #include "ZDApp.h"
//   60 #include "DebugTrace.h"
//   61 #include "nwk_util.h"
//   62 #include "OnBoard.h"
//   63 #include "ZGlobals.h"
//   64 #include "ZDNwkMgr.h"
//   65 #include "rtg.h"
//   66 
//   67 #include "ssp.h"
//   68 
//   69 /* HAL */
//   70 #include "hal_led.h"
//   71 #include "hal_lcd.h"
//   72 #include "hal_key.h"
//   73 
//   74 #if defined( MT_MAC_FUNC ) || defined( MT_MAC_CB_FUNC )
//   75   #error "ERROR! MT_MAC functionalities should be disabled on ZDO devices"
//   76 #endif
//   77 
//   78 /*********************************************************************
//   79  * CONSTANTS
//   80  */
//   81 
//   82 #if !defined( NWK_START_DELAY )
//   83   #define NWK_START_DELAY             100   // in milliseconds
//   84 #endif
//   85 
//   86 #if !defined( LEAVE_RESET_DELAY )
//   87   #define LEAVE_RESET_DELAY           5000  // in milliseconds
//   88 #endif
//   89 
//   90 // Init ZDO, but hold and wait for application to start the joining or
//   91 // forming network
//   92 #define ZDO_INIT_HOLD_NWK_START       0xFFFF
//   93 
//   94 #if !defined( EXTENDED_JOINING_RANDOM_MASK )
//   95   #define EXTENDED_JOINING_RANDOM_MASK 0x007F
//   96 #endif
//   97 
//   98 #if !defined( BEACON_REQUEST_DELAY )
//   99   #define BEACON_REQUEST_DELAY        100   // in milliseconds
//  100 #endif
//  101 
//  102 #if !defined( BEACON_REQ_DELAY_MASK )
//  103   #define BEACON_REQ_DELAY_MASK       0x007F
//  104 #endif
//  105 
//  106 #define MAX_RESUME_RETRY            3
//  107 
//  108 #define MAX_DEVICE_UNAUTH_TIMEOUT   5000  // 5 seconds
//  109 
//  110 // Beacon Order Settings (see NLMEDE.h)
//  111 #define DEFAULT_BEACON_ORDER        BEACON_ORDER_NO_BEACONS
//  112 #define DEFAULT_SUPERFRAME_ORDER    DEFAULT_BEACON_ORDER
//  113 
//  114 #if !defined( MAX_NWK_FRAMECOUNTER_CHANGES )
//  115   // The number of times the frame counter can change before
//  116   // saving to NV
//  117   #define MAX_NWK_FRAMECOUNTER_CHANGES    1000
//  118 #endif
//  119 
//  120 // Leave control bits
//  121 #define ZDAPP_LEAVE_CTRL_INIT 0
//  122 #define ZDAPP_LEAVE_CTRL_SET  1
//  123 #define ZDAPP_LEAVE_CTRL_RA   2
//  124 
//  125 // Address Manager Stub Implementation
//  126 #define ZDApp_NwkWriteNVRequest AddrMgrWriteNVRequest
//  127 
//  128 
//  129 #if !defined ZDO_NV_SAVE_RFDs
//  130 #define ZDO_NV_SAVE_RFDs  TRUE
//  131 #endif
//  132 
//  133 // Delay time before updating NWK NV data to force fewer writes during high activity.
//  134 #if ZDO_NV_SAVE_RFDs
//  135 #define ZDAPP_UPDATE_NWK_NV_TIME 700
//  136 #else
//  137 #define ZDAPP_UPDATE_NWK_NV_TIME 65000
//  138 #endif
//  139 
//  140 /*********************************************************************
//  141  * GLOBAL VARIABLES
//  142  */
//  143 
//  144 #if defined( LCD_SUPPORTED )
//  145   uint8 MatchRsps = 0;
//  146 #endif
//  147 

        RSEG XDATA_I:XDATA:NOROOT(0)
//  148 uint8 zdoDiscCounter = 1;
zdoDiscCounter:
        DATA8
        DS 1
        REQUIRE `?<Initializer for zdoDiscCounter>`
        REQUIRE __INIT_XDATA_I
//  149 

        RSEG XDATA_Z:XDATA:NOROOT(0)
        DATA8
//  150 zAddrType_t ZDAppNwkAddr;
ZDAppNwkAddr:
        DS 9
        REQUIRE __INIT_XDATA_Z
//  151 

        RSEG XDATA_Z:XDATA:NOROOT(0)
        DATA8
//  152 uint8 zdappMgmtNwkDiscRspTransSeq;
zdappMgmtNwkDiscRspTransSeq:
        DS 1
        REQUIRE __INIT_XDATA_Z

        RSEG XDATA_Z:XDATA:NOROOT(0)
        DATA8
//  153 uint8 zdappMgmtNwkDiscReqInProgress = FALSE;
zdappMgmtNwkDiscReqInProgress:
        DS 1
        REQUIRE __INIT_XDATA_Z

        RSEG XDATA_Z:XDATA:NOROOT(0)
        DATA8
//  154 zAddrType_t zdappMgmtNwkDiscRspAddr;
zdappMgmtNwkDiscRspAddr:
        DS 9
        REQUIRE __INIT_XDATA_Z

        RSEG XDATA_Z:XDATA:NOROOT(0)
        DATA8
//  155 uint8 zdappMgmtNwkDiscStartIndex;
zdappMgmtNwkDiscStartIndex:
        DS 1
        REQUIRE __INIT_XDATA_Z

        RSEG XDATA_Z:XDATA:NOROOT(0)
        DATA8
//  156 uint8 zdappMgmtSavedNwkState;
zdappMgmtSavedNwkState:
        DS 1
        REQUIRE __INIT_XDATA_Z
//  157 

        RSEG XDATA_Z:XDATA:NOROOT(0)
        DATA16
//  158 uint16 nwkFrameCounterChanges = 0;
nwkFrameCounterChanges:
        DS 2
        REQUIRE __INIT_XDATA_Z

        RSEG XDATA_I:XDATA:NOROOT(0)
//  159 uint8 continueJoining = TRUE;
continueJoining:
        DATA8
        DS 1
        REQUIRE `?<Initializer for continueJoining>`
        REQUIRE __INIT_XDATA_I
//  160 

        RSEG XDATA_Z:XDATA:NOROOT(0)
        DATA8
//  161 uint8  _tmpRejoinState;
_tmpRejoinState:
        DS 1
        REQUIRE __INIT_XDATA_Z
//  162 
//  163 // The extended PanID used in ZDO layer for rejoin.

        RSEG XDATA_Z:XDATA:NOROOT(0)
        DATA8
//  164 uint8 ZDO_UseExtendedPANID[Z_EXTADDR_LEN];
ZDO_UseExtendedPANID:
        DS 8
        REQUIRE __INIT_XDATA_Z
//  165 

        RSEG XDATA_Z:XDATA:NOROOT(0)
        DATA8
//  166 pfnZdoCb zdoCBFunc[MAX_ZDO_CB_FUNC];
zdoCBFunc:
        DS 12
        REQUIRE __INIT_XDATA_Z
//  167 
//  168 /*********************************************************************
//  169  * EXTERNAL VARIABLES
//  170  */
//  171 
//  172 /*********************************************************************
//  173  * EXTERNAL FUNCTIONS
//  174  */
//  175 
//  176 /*********************************************************************
//  177  * LOCAL FUNCTIONS
//  178  */
//  179 
//  180 void ZDApp_NetworkStartEvt( void );
//  181 void ZDApp_DeviceAuthEvt( void );
//  182 void ZDApp_SaveNetworkStateEvt( void );
//  183 
//  184 uint8 ZDApp_ReadNetworkRestoreState( void );
//  185 uint8 ZDApp_RestoreNetworkState( void );
//  186 void ZDAppDetermineDeviceType( void );
//  187 void ZDApp_InitUserDesc( void );
//  188 void ZDAppCheckForHoldKey( void );
//  189 void ZDApp_ProcessOSALMsg( osal_event_hdr_t *msgPtr );
//  190 void ZDApp_ProcessNetworkJoin( void );
//  191 void ZDApp_SetCoordAddress( uint8 endPoint, uint8 dstEP );
//  192 uint8 ZDApp_RestoreNwkKey( void );
//  193 networkDesc_t* ZDApp_NwkDescListProcessing(void);
//  194 
//  195 void ZDApp_SecInit( uint8 state );
//  196 UINT16 ZDApp_ProcessSecEvent( uint8 task_id, UINT16 events );
//  197 void ZDApp_ProcessSecMsg( osal_event_hdr_t *msgPtr );
//  198 
//  199 void ZDApp_SendMsg( uint8 taskID, uint8 cmd, uint8 len, uint8 *buf );
//  200 
//  201 void ZDApp_ResetTimerStart( uint16 delay );
//  202 void ZDApp_ResetTimerCancel( void );
//  203 void ZDApp_LeaveCtrlInit( void );
//  204 void ZDApp_LeaveCtrlSet( uint8 ra );
//  205 uint8 ZDApp_LeaveCtrlBypass( void );
//  206 void ZDApp_LeaveCtrlStartup( devStates_t* state, uint16* startDelay );
//  207 void ZDApp_LeaveUpdate( uint16 nwkAddr, uint8* extAddr,
//  208                         uint8 removeChildren );
//  209 void ZDApp_NodeProfileSync( uint8 stackProfile );
//  210 void ZDApp_ProcessMsgCBs( zdoIncomingMsg_t *inMsg );
//  211 void ZDApp_RegisterCBs( void );
//  212 void ZDApp_InitZdoCBFunc(void);
//  213 
//  214 /*********************************************************************
//  215  * LOCAL VARIABLES
//  216  */
//  217 

        RSEG XDATA_Z:XDATA:NOROOT(0)
        DATA8
//  218 uint8 ZDAppTaskID;
ZDAppTaskID:
        DS 1
        REQUIRE __INIT_XDATA_Z

        RSEG XDATA_Z:XDATA:NOROOT(0)
        DATA8
//  219 uint8 nwkStatus;
nwkStatus:
        DS 1
        REQUIRE __INIT_XDATA_Z

        RSEG XDATA_Z:XDATA:NOROOT(0)
        DATA16
//  220 endPointDesc_t *ZDApp_AutoFindMode_epDesc = (endPointDesc_t *)NULL;
ZDApp_AutoFindMode_epDesc:
        DS 2
        REQUIRE __INIT_XDATA_Z

        RSEG XDATA_Z:XDATA:NOROOT(0)
        DATA8
//  221 uint8 ZDApp_LeaveCtrl;
ZDApp_LeaveCtrl:
        DS 1
        REQUIRE __INIT_XDATA_Z
//  222 
//  223 #if defined( HOLD_AUTO_START )
//  224   devStates_t devState = DEV_HOLD;
//  225 #else

        RSEG XDATA_I:XDATA:NOROOT(0)
//  226   devStates_t devState = DEV_INIT;
devState:
        DATA8
        DS 1
        REQUIRE `?<Initializer for devState>`
        REQUIRE __INIT_XDATA_I
//  227 #endif
//  228 
//  229 #if ( ZG_BUILD_RTRONLY_TYPE ) || ( ZG_BUILD_ENDDEVICE_TYPE )

        RSEG XDATA_Z:XDATA:NOROOT(0)
        DATA8
//  230   devStartModes_t devStartMode = MODE_JOIN;     // Assume joining
devStartMode:
        DS 1
        REQUIRE __INIT_XDATA_Z
//  231   //devStartModes_t devStartMode = MODE_RESUME; // if already "directly joined"
//  232                         // to parent. Set to make the device do an Orphan scan.
//  233 #else
//  234   // Set the default to coodinator
//  235   devStartModes_t devStartMode = MODE_HARD;
//  236 #endif
//  237 

        RSEG XDATA_Z:XDATA:NOROOT(0)
        DATA8
//  238 uint8 retryCnt;
retryCnt:
        DS 1
        REQUIRE __INIT_XDATA_Z
//  239 

        RSEG XDATA_I:XDATA:NOROOT(0)
//  240 endPointDesc_t ZDApp_epDesc =
ZDApp_epDesc:
        DATA8
        DS 6
        REQUIRE `?<Initializer for ZDApp_epDesc>`
        REQUIRE __INIT_XDATA_I
//  241 {
//  242   ZDO_EP,
//  243   &ZDAppTaskID,
//  244   (SimpleDescriptionFormat_t *)NULL,  // No Simple description for ZDO
//  245   (afNetworkLatencyReq_t)0            // No Network Latency req
//  246 };
//  247 

        RSEG XDATA_I:XDATA:NOROOT(0)
//  248 uint16 ZDApp_SavedPollRate = POLL_RATE;
ZDApp_SavedPollRate:
        DATA16
        DS 2
        REQUIRE `?<Initializer for ZDApp_SavedPollRate>`
        REQUIRE __INIT_XDATA_I
//  249 
//  250 /*********************************************************************
//  251  * @fn      ZDApp_Init
//  252  *
//  253  * @brief   ZDApp Initialization function.
//  254  *
//  255  * @param   task_id - ZDApp Task ID
//  256  *
//  257  * @return  None
//  258  */

        RSEG BANKED_CODE:CODE:NOROOT(0)
//  259 void ZDApp_Init( uint8 task_id )
ZDApp_Init:
        CFI Block cfiBlock0 Using cfiCommon0
        CFI Function ZDApp_Init
        CODE
//  260 {
        FUNCALL ZDApp_Init, NLME_GetExtAddr
        LOCFRAME ISTACK, 0, STACK
        LOCFRAME PSTACK, 0, STACK
        LOCFRAME XSTACK, 9, STACK
        LOCFRAME IOVERLAY, 0, STATIC
        LOCFRAME DOVERLAY, 0, STATIC
        ARGFRAME ISTACK, 0, STACK
        ARGFRAME PSTACK, 0, STACK
        ARGFRAME XSTACK, 9, STACK
        ARGFRAME IOVERLAY, 0, STATIC
        ARGFRAME DOVERLAY, 0, STATIC
        FUNCALL ZDApp_Init, ZDO_Init
        LOCFRAME ISTACK, 0, STACK
        LOCFRAME PSTACK, 0, STACK
        LOCFRAME XSTACK, 9, STACK
        LOCFRAME IOVERLAY, 0, STATIC
        LOCFRAME DOVERLAY, 0, STATIC
        ARGFRAME ISTACK, 0, STACK
        ARGFRAME PSTACK, 0, STACK
        ARGFRAME XSTACK, 9, STACK
        ARGFRAME IOVERLAY, 0, STATIC
        ARGFRAME DOVERLAY, 0, STATIC
        FUNCALL ZDApp_Init, afRegister
        LOCFRAME ISTACK, 0, STACK
        LOCFRAME PSTACK, 0, STACK
        LOCFRAME XSTACK, 9, STACK
        LOCFRAME IOVERLAY, 0, STATIC
        LOCFRAME DOVERLAY, 0, STATIC
        ARGFRAME ISTACK, 0, STACK
        ARGFRAME PSTACK, 0, STACK
        ARGFRAME XSTACK, 9, STACK
        ARGFRAME IOVERLAY, 0, STATIC
        ARGFRAME DOVERLAY, 0, STATIC
        FUNCALL ZDApp_Init, ZDApp_InitUserDesc
        LOCFRAME ISTACK, 0, STACK
        LOCFRAME PSTACK, 0, STACK
        LOCFRAME XSTACK, 9, STACK
        LOCFRAME IOVERLAY, 0, STATIC
        LOCFRAME DOVERLAY, 0, STATIC
        ARGFRAME ISTACK, 0, STACK
        ARGFRAME PSTACK, 0, STACK
        ARGFRAME XSTACK, 9, STACK
        ARGFRAME IOVERLAY, 0, STATIC
        ARGFRAME DOVERLAY, 0, STATIC
        FUNCALL ZDApp_Init, ZDOInitDevice
        LOCFRAME ISTACK, 0, STACK
        LOCFRAME PSTACK, 0, STACK
        LOCFRAME XSTACK, 9, STACK
        LOCFRAME IOVERLAY, 0, STATIC
        LOCFRAME DOVERLAY, 0, STATIC
        ARGFRAME ISTACK, 0, STACK
        ARGFRAME PSTACK, 0, STACK
        ARGFRAME XSTACK, 9, STACK
        ARGFRAME IOVERLAY, 0, STATIC
        ARGFRAME DOVERLAY, 0, STATIC
        FUNCALL ZDApp_Init, ZDOInitDevice
        LOCFRAME ISTACK, 0, STACK
        LOCFRAME PSTACK, 0, STACK
        LOCFRAME XSTACK, 9, STACK
        LOCFRAME IOVERLAY, 0, STATIC
        LOCFRAME DOVERLAY, 0, STATIC
        ARGFRAME ISTACK, 0, STACK
        ARGFRAME PSTACK, 0, STACK
        ARGFRAME XSTACK, 9, STACK
        ARGFRAME IOVERLAY, 0, STATIC
        ARGFRAME DOVERLAY, 0, STATIC
        FUNCALL ZDApp_Init, ZDApp_InitZdoCBFunc
        LOCFRAME ISTACK, 0, STACK
        LOCFRAME PSTACK, 0, STACK
        LOCFRAME XSTACK, 9, STACK
        LOCFRAME IOVERLAY, 0, STATIC
        LOCFRAME DOVERLAY, 0, STATIC
        ARGFRAME ISTACK, 0, STACK
        ARGFRAME PSTACK, 0, STACK
        ARGFRAME XSTACK, 9, STACK
        ARGFRAME IOVERLAY, 0, STATIC
        ARGFRAME DOVERLAY, 0, STATIC
        FUNCALL ZDApp_Init, ZDApp_RegisterCBs
        LOCFRAME ISTACK, 0, STACK
        LOCFRAME PSTACK, 0, STACK
        LOCFRAME XSTACK, 9, STACK
        LOCFRAME IOVERLAY, 0, STATIC
        LOCFRAME DOVERLAY, 0, STATIC
        ARGFRAME ISTACK, 0, STACK
        ARGFRAME PSTACK, 0, STACK
        ARGFRAME XSTACK, 9, STACK
        ARGFRAME IOVERLAY, 0, STATIC
        ARGFRAME DOVERLAY, 0, STATIC
        MOV     A,#-0x9
        LCALL   ?BANKED_ENTER_XDATA
        CFI DPH0 load(1, XDATA, add(CFA_XSP16, literal(-1)))
        CFI DPL0 load(1, XDATA, add(CFA_XSP16, literal(-2)))
        CFI ?BRET_EXT load(1, XDATA, add(CFA_XSP16, literal(-3)))
        CFI ?RET_HIGH load(1, XDATA, add(CFA_XSP16, literal(-4)))
        CFI ?RET_LOW load(1, XDATA, add(CFA_XSP16, literal(-5)))
        CFI R7 load(1, XDATA, add(CFA_XSP16, literal(-6)))
        CFI V0 load(1, XDATA, add(CFA_XSP16, literal(-7)))
        CFI VB load(1, XDATA, add(CFA_XSP16, literal(-8)))
        CFI R6 load(1, XDATA, add(CFA_XSP16, literal(-9)))
        CFI CFA_SP SP+0
        CFI CFA_XSP16 add(XSP16, 9)
        ; Saved register size: 9
        ; Auto size: 0
        MOV     A,R1
//  261   // Save the task ID
//  262   ZDAppTaskID = task_id;
        MOV     DPTR,#ZDAppTaskID
        MOVX    @DPTR,A
//  263 
//  264   // Initialize the ZDO global device short address storage
//  265   ZDAppNwkAddr.addrMode = Addr16Bit;
        MOV     DPTR,#ZDAppNwkAddr + 8
        MOV     A,#0x2
        MOVX    @DPTR,A
//  266   ZDAppNwkAddr.addr.shortAddr = INVALID_NODE_ADDR;
        MOV     DPTR,#ZDAppNwkAddr
        MOV     A,#-0x2
        MOVX    @DPTR,A
        INC     DPTR
        INC     A
        MOVX    @DPTR,A
//  267   (void)NLME_GetExtAddr();  // Load the saveExtAddr pointer.
        ; Setup parameters for call to function NLME_GetExtAddr
        LCALL   ??NLME_GetExtAddr?relay
//  268 
//  269   // Check for manual "Hold Auto Start"
//  270   ZDAppCheckForHoldKey();
//  271 
//  272   // Initialize ZDO items and setup the device - type of device to create.
//  273   ZDO_Init();
        ; Setup parameters for call to function ZDO_Init
        LCALL   ??ZDO_Init?relay
//  274 
//  275   // Register the endpoint description with the AF
//  276   // This task doesn't have a Simple description, but we still need
//  277   // to register the endpoint.
//  278   afRegister( (endPointDesc_t *)&ZDApp_epDesc );
        ; Setup parameters for call to function afRegister
        MOV     R2,#ZDApp_epDesc & 0xff
        MOV     R3,#(ZDApp_epDesc >> 8) & 0xff
        LCALL   ??afRegister?relay
//  279 
//  280 #if defined( ZDO_USERDESC_RESPONSE )
//  281   ZDApp_InitUserDesc();
        ; Setup parameters for call to function ZDApp_InitUserDesc
        LCALL   ??ZDApp_InitUserDesc?relay
//  282 #endif // ZDO_USERDESC_RESPONSE
//  283 
//  284   // Start the device?
//  285   if ( devState != DEV_HOLD )
        MOV     DPTR,#devState
        MOVX    A,@DPTR
        JZ      ??ZDApp_Init_0
//  286   {
//  287     ZDOInitDevice( 0 );
        ; Setup parameters for call to function ZDOInitDevice
        MOV     R2,#0x0
        MOV     R3,#0x0
        SJMP    ??ZDApp_Init_1
//  288   }
//  289   else
//  290   {
//  291     ZDOInitDevice( ZDO_INIT_HOLD_NWK_START );
??ZDApp_Init_0:
        ; Setup parameters for call to function ZDOInitDevice
        MOV     R2,#-0x1
        MOV     R3,#-0x1
??ZDApp_Init_1:
        LCALL   ??ZDOInitDevice?relay
//  292 #if 0
//  293     // Blink LED to indicate HOLD_START
//  294     HalLedBlink ( HAL_LED_4, 0, 50, 500 );
//  295 #endif
//  296   }
//  297 
//  298   // Initialize the ZDO callback function pointers zdoCBFunc[]
//  299   ZDApp_InitZdoCBFunc();
        ; Setup parameters for call to function ZDApp_InitZdoCBFunc
        LCALL   ??ZDApp_InitZdoCBFunc?relay
//  300 
//  301   ZDApp_RegisterCBs();
        ; Setup parameters for call to function ZDApp_RegisterCBs
        LCALL   ??ZDApp_RegisterCBs?relay
//  302 } /* ZDApp_Init() */
        LJMP    ??Subroutine48_0 & 0xFFFF
        CFI EndBlock cfiBlock0
//  303 
//  304 /*********************************************************************
//  305  * @fn          ZDApp_SecInit
//  306  *
//  307  * @brief       ZDApp initialize security.
//  308  *
//  309  * @param       state - device initialization state
//  310  *
//  311  * @return      none
//  312  */

        RSEG BANKED_CODE:CODE:NOROOT(0)
//  313 void ZDApp_SecInit( uint8 state )
ZDApp_SecInit:
        CFI Block cfiBlock1 Using cfiCommon0
        CFI Function ZDApp_SecInit
        CODE
//  314 {
        FUNCALL ZDApp_SecInit, ZDSecMgrInit
        LOCFRAME ISTACK, 0, STACK
        LOCFRAME PSTACK, 0, STACK
        LOCFRAME XSTACK, 9, STACK
        LOCFRAME IOVERLAY, 0, STATIC
        LOCFRAME DOVERLAY, 0, STATIC
        ARGFRAME ISTACK, 0, STACK
        ARGFRAME PSTACK, 0, STACK
        ARGFRAME XSTACK, 9, STACK
        ARGFRAME IOVERLAY, 0, STATIC
        ARGFRAME DOVERLAY, 0, STATIC
        MOV     A,#-0x9
        LCALL   ?BANKED_ENTER_XDATA
        CFI DPH0 load(1, XDATA, add(CFA_XSP16, literal(-1)))
        CFI DPL0 load(1, XDATA, add(CFA_XSP16, literal(-2)))
        CFI ?BRET_EXT load(1, XDATA, add(CFA_XSP16, literal(-3)))
        CFI ?RET_HIGH load(1, XDATA, add(CFA_XSP16, literal(-4)))
        CFI ?RET_LOW load(1, XDATA, add(CFA_XSP16, literal(-5)))
        CFI R7 load(1, XDATA, add(CFA_XSP16, literal(-6)))
        CFI V0 load(1, XDATA, add(CFA_XSP16, literal(-7)))
        CFI VB load(1, XDATA, add(CFA_XSP16, literal(-8)))
        CFI R6 load(1, XDATA, add(CFA_XSP16, literal(-9)))
        CFI CFA_SP SP+0
        CFI CFA_XSP16 add(XSP16, 9)
        ; Saved register size: 9
        ; Auto size: 0
//  315   uint8 zgPreConfigKey[SEC_KEY_LEN];
//  316 
//  317   if ( ZG_SECURE_ENABLED && ZG_BUILD_COORDINATOR_TYPE && ZG_DEVICE_COORDINATOR_TYPE )
//  318   {
//  319     // Set the Trust Center bit
//  320     ZDO_Config_Node_Descriptor.ServerMask |= PRIM_TRUST_CENTER;
//  321   }
//  322 
//  323   if ( ZG_CHECK_SECURITY_MODE == ZG_SECURITY_PRO_HIGH )
//  324   {
//  325     ZDO_Config_Node_Descriptor.CapabilityFlags |= CAPINFO_SECURITY_CAPABLE;
//  326   }
//  327 
//  328   // Initialize ZigBee Device Security Manager
//  329   ZDSecMgrInit(state);
        ; Setup parameters for call to function ZDSecMgrInit
        LCALL   ??ZDSecMgrInit?relay
//  330 
//  331   if ( ZG_SECURE_ENABLED )
//  332   {
//  333     if ( state != ZDO_INITDEV_RESTORED_NETWORK_STATE )
//  334     {
//  335       nwkFrameCounter = 0;
//  336 
//  337       if( _NIB.nwkKeyLoaded == FALSE )
//  338       {
//  339         if ( ( ZG_BUILD_COORDINATOR_TYPE && ZG_DEVICE_COORDINATOR_TYPE          ) ||
//  340              ( ( zgSecurityMode == ZG_SECURITY_RESIDENTIAL ) && zgPreConfigKeys )    )
//  341         {
//  342             ZDSecMgrReadKeyFromNv(ZCD_NV_PRECFGKEY, zgPreConfigKey);
//  343             SSP_UpdateNwkKey( zgPreConfigKey, 0);
//  344             SSP_SwitchNwkKey( 0 );
//  345 
//  346             // clear local copy of key
//  347             osal_memset(zgPreConfigKey, 0x00, SEC_KEY_LEN);
//  348         }
//  349       }
//  350     }
//  351   }
//  352 }
        LJMP    ??Subroutine48_0 & 0xFFFF
        CFI EndBlock cfiBlock1
//  353 
//  354 /*********************************************************************
//  355  * @fn      ZDApp_event_loop()
//  356  *
//  357  * @brief   Main event loop for Zigbee device objects task. This function
//  358  *          should be called at periodic intervals.
//  359  *
//  360  * @param   task_id - Task ID
//  361  * @param   events  - Bitmap of events
//  362  *
//  363  * @return  none
//  364  */

        RSEG BANKED_CODE:CODE:NOROOT(0)
//  365 UINT16 ZDApp_event_loop( uint8 task_id, UINT16 events )
ZDApp_event_loop:
        CFI Block cfiBlock2 Using cfiCommon0
        CFI Function ZDApp_event_loop
        CODE
//  366 {
        FUNCALL ZDApp_event_loop, osal_set_event
        LOCFRAME ISTACK, 0, STACK
        LOCFRAME PSTACK, 0, STACK
        LOCFRAME XSTACK, 10, STACK
        LOCFRAME IOVERLAY, 0, STATIC
        LOCFRAME DOVERLAY, 0, STATIC
        ARGFRAME ISTACK, 0, STACK
        ARGFRAME PSTACK, 0, STACK
        ARGFRAME XSTACK, 10, STACK
        ARGFRAME IOVERLAY, 0, STATIC
        ARGFRAME DOVERLAY, 0, STATIC
        FUNCALL ZDApp_event_loop, ZDO_StartDevice
        LOCFRAME ISTACK, 0, STACK
        LOCFRAME PSTACK, 0, STACK
        LOCFRAME XSTACK, 10, STACK
        LOCFRAME IOVERLAY, 0, STATIC
        LOCFRAME DOVERLAY, 0, STATIC
        ARGFRAME ISTACK, 0, STACK
        ARGFRAME PSTACK, 0, STACK
        ARGFRAME XSTACK, 10, STACK
        ARGFRAME IOVERLAY, 0, STATIC
        ARGFRAME DOVERLAY, 0, STATIC
        FUNCALL ZDApp_event_loop, ZDApp_ProcessOSALMsg
        LOCFRAME ISTACK, 0, STACK
        LOCFRAME PSTACK, 0, STACK
        LOCFRAME XSTACK, 10, STACK
        LOCFRAME IOVERLAY, 0, STATIC
        LOCFRAME DOVERLAY, 0, STATIC
        ARGFRAME ISTACK, 0, STACK
        ARGFRAME PSTACK, 0, STACK
        ARGFRAME XSTACK, 10, STACK
        ARGFRAME IOVERLAY, 0, STATIC
        ARGFRAME DOVERLAY, 0, STATIC
        FUNCALL ZDApp_event_loop, osal_msg_deallocate
        LOCFRAME ISTACK, 0, STACK
        LOCFRAME PSTACK, 0, STACK
        LOCFRAME XSTACK, 10, STACK
        LOCFRAME IOVERLAY, 0, STATIC
        LOCFRAME DOVERLAY, 0, STATIC
        ARGFRAME ISTACK, 0, STACK
        ARGFRAME PSTACK, 0, STACK
        ARGFRAME XSTACK, 10, STACK
        ARGFRAME IOVERLAY, 0, STATIC
        ARGFRAME DOVERLAY, 0, STATIC
        FUNCALL ZDApp_event_loop, osal_msg_receive
        LOCFRAME ISTACK, 0, STACK
        LOCFRAME PSTACK, 0, STACK
        LOCFRAME XSTACK, 10, STACK
        LOCFRAME IOVERLAY, 0, STATIC
        LOCFRAME DOVERLAY, 0, STATIC
        ARGFRAME ISTACK, 0, STACK
        ARGFRAME PSTACK, 0, STACK
        ARGFRAME XSTACK, 10, STACK
        ARGFRAME IOVERLAY, 0, STATIC
        ARGFRAME DOVERLAY, 0, STATIC
        FUNCALL ZDApp_event_loop, ZDO_UpdateNwkStatus
        LOCFRAME ISTACK, 0, STACK
        LOCFRAME PSTACK, 0, STACK
        LOCFRAME XSTACK, 10, STACK
        LOCFRAME IOVERLAY, 0, STATIC
        LOCFRAME DOVERLAY, 0, STATIC
        ARGFRAME ISTACK, 0, STACK
        ARGFRAME PSTACK, 0, STACK
        ARGFRAME XSTACK, 10, STACK
        ARGFRAME IOVERLAY, 0, STATIC
        ARGFRAME DOVERLAY, 0, STATIC
        FUNCALL ZDApp_event_loop, osal_start_timerEx
        LOCFRAME ISTACK, 0, STACK
        LOCFRAME PSTACK, 0, STACK
        LOCFRAME XSTACK, 10, STACK
        LOCFRAME IOVERLAY, 0, STATIC
        LOCFRAME DOVERLAY, 0, STATIC
        ARGFRAME ISTACK, 0, STACK
        ARGFRAME PSTACK, 0, STACK
        ARGFRAME XSTACK, 10, STACK
        ARGFRAME IOVERLAY, 0, STATIC
        ARGFRAME DOVERLAY, 0, STATIC
        FUNCALL ZDApp_event_loop, zgWriteStartupOptions
        LOCFRAME ISTACK, 0, STACK
        LOCFRAME PSTACK, 0, STACK
        LOCFRAME XSTACK, 10, STACK
        LOCFRAME IOVERLAY, 0, STATIC
        LOCFRAME DOVERLAY, 0, STATIC
        ARGFRAME ISTACK, 0, STACK
        ARGFRAME PSTACK, 0, STACK
        ARGFRAME XSTACK, 10, STACK
        ARGFRAME IOVERLAY, 0, STATIC
        ARGFRAME DOVERLAY, 0, STATIC
        FUNCALL ZDApp_event_loop, Onboard_soft_reset
        LOCFRAME ISTACK, 0, STACK
        LOCFRAME PSTACK, 0, STACK
        LOCFRAME XSTACK, 10, STACK
        LOCFRAME IOVERLAY, 0, STATIC
        LOCFRAME DOVERLAY, 0, STATIC
        ARGFRAME ISTACK, 0, STACK
        ARGFRAME PSTACK, 0, STACK
        ARGFRAME XSTACK, 10, STACK
        ARGFRAME IOVERLAY, 0, STATIC
        ARGFRAME DOVERLAY, 0, STATIC
        MOV     A,#-0xa
        LCALL   ?BANKED_ENTER_XDATA
        CFI DPH0 load(1, XDATA, add(CFA_XSP16, literal(-1)))
        CFI DPL0 load(1, XDATA, add(CFA_XSP16, literal(-2)))
        CFI ?BRET_EXT load(1, XDATA, add(CFA_XSP16, literal(-3)))
        CFI ?RET_HIGH load(1, XDATA, add(CFA_XSP16, literal(-4)))
        CFI ?RET_LOW load(1, XDATA, add(CFA_XSP16, literal(-5)))
        CFI R7 load(1, XDATA, add(CFA_XSP16, literal(-6)))
        CFI V1 load(1, XDATA, add(CFA_XSP16, literal(-7)))
        CFI V0 load(1, XDATA, add(CFA_XSP16, literal(-8)))
        CFI VB load(1, XDATA, add(CFA_XSP16, literal(-9)))
        CFI R6 load(1, XDATA, add(CFA_XSP16, literal(-10)))
        CFI CFA_SP SP+0
        CFI CFA_XSP16 add(XSP16, 10)
        ; Saved register size: 10
        ; Auto size: 0
        MOV     A,R2
        MOV     R6,A
        MOV     A,R3
        MOV     R7,A
//  367   uint8 *msg_ptr;
//  368 
//  369   if ( events & SYS_EVENT_MSG )
        ANL     A,#0x80
        JNZ     ??ZDApp_event_loop_0
//  370   {
//  371     while ( (msg_ptr = osal_msg_receive( ZDAppTaskID )) )
//  372     {
//  373       ZDApp_ProcessOSALMsg( (osal_event_hdr_t *)msg_ptr );
//  374 
//  375       // Release the memory
//  376       osal_msg_deallocate( msg_ptr );
//  377     }
//  378 
//  379     // Return unprocessed events
//  380     return (events ^ SYS_EVENT_MSG);
//  381   }
//  382 
//  383   if ( events & ZDO_NETWORK_INIT )
        MOV     A,R6
        MOV     C,0xE0 /* A   */.0
        JNC     ??ZDApp_event_loop_1
//  384   {
//  385     // Initialize apps and start the network
//  386     devState = DEV_INIT;
        MOV     DPTR,#devState
        MOV     A,#0x1
        LCALL   ??Subroutine41_0 & 0xFFFF
//  387     osal_set_event( ZDAppTaskID, ZDO_STATE_CHANGE_EVT );
//  388 
//  389     ZDO_StartDevice( (uint8)ZDO_Config_Node_Descriptor.LogicalType, devStartMode,
//  390                      DEFAULT_BEACON_ORDER, DEFAULT_SUPERFRAME_ORDER );
??CrossCallReturnLabel_60:
        ; Setup parameters for call to function ZDO_StartDevice
        MOV     R4,#0xf
        MOV     R3,#0xf
        MOV     DPTR,#devStartMode
        MOVX    A,@DPTR
        MOV     R2,A
        MOV     DPTR,#ZDO_Config_Node_Descriptor
        MOVX    A,@DPTR
        ANL     A,#0x7
        MOV     R1,A
        LCALL   ??ZDO_StartDevice?relay
//  391 
//  392     // Return unprocessed events
//  393     return (events ^ ZDO_NETWORK_INIT);
        MOV     A,R6
        XRL     A,#0x1
??ZDApp_event_loop_2:
        MOV     R2,A
        MOV     A,R7
??ZDApp_event_loop_3:
        MOV     R3,A
        SJMP    ??ZDApp_event_loop_4
//  394   }
??ZDApp_event_loop_5:
        ; Setup parameters for call to function ZDApp_ProcessOSALMsg
        LCALL   ??ZDApp_ProcessOSALMsg?relay
        ; Setup parameters for call to function osal_msg_deallocate
        MOV     R2,?V0 + 0
        MOV     R3,?V0 + 1
        LCALL   ??osal_msg_deallocate?relay
??ZDApp_event_loop_0:
        ; Setup parameters for call to function osal_msg_receive
        MOV     DPTR,#ZDAppTaskID
        MOVX    A,@DPTR
        MOV     R1,A
        LCALL   ??osal_msg_receive?relay
        MOV     ?V0 + 0,R2
        MOV     ?V0 + 1,R3
        MOV     R1,?V0 + 1
        MOV     A,R2
        ORL     A,R1
        JNZ     ??ZDApp_event_loop_5
        MOV     A,R6
        MOV     R2,A
        MOV     A,R7
        XRL     A,#0x80
        SJMP    ??ZDApp_event_loop_3
//  395 
//  396   if ( ZSTACK_ROUTER_BUILD )
//  397   {
//  398     if ( events & ZDO_NETWORK_START )
//  399     {
//  400       ZDApp_NetworkStartEvt();
//  401 
//  402       // Return unprocessed events
//  403       return (events ^ ZDO_NETWORK_START);
//  404     }
//  405 
//  406     if ( events & ZDO_ROUTER_START )
//  407     {
//  408       if ( nwkStatus == ZSuccess )
//  409       {
//  410         if ( devState == DEV_END_DEVICE )
//  411           devState = DEV_ROUTER;
//  412 
//  413         osal_pwrmgr_device( PWRMGR_ALWAYS_ON );
//  414       }
//  415       else
//  416       {
//  417         // remain as end device!!
//  418       }
//  419       osal_set_event( ZDAppTaskID, ZDO_STATE_CHANGE_EVT );
//  420 
//  421       // Return unprocessed events
//  422       return (events ^ ZDO_ROUTER_START);
//  423     }
//  424   }
//  425 
//  426   if ( events & ZDO_STATE_CHANGE_EVT )
??ZDApp_event_loop_1:
        ANL     A,#0x10
        JZ      ??ZDApp_event_loop_6
//  427   {
//  428     ZDO_UpdateNwkStatus( devState );
        ; Setup parameters for call to function ZDO_UpdateNwkStatus
        MOV     DPTR,#devState
        MOVX    A,@DPTR
        MOV     R1,A
        LCALL   ??ZDO_UpdateNwkStatus?relay
//  429 
//  430     // At start up, do one MTO route discovery if the device is a concentrator
//  431     if ( zgConcentratorEnable == TRUE )
        MOV     DPTR,#zgConcentratorEnable
        MOVX    A,@DPTR
        XRL     A,#0x1
        JNZ     ??CrossCallReturnLabel_78
//  432     {
//  433       // Start next event
//  434       osal_start_timerEx( NWK_TaskID, NWK_MTO_RTG_REQ_EVT, 100 );
        ; Setup parameters for call to function osal_start_timerEx
        MOV     R4,#0x64
        MOV     R5,#0x0
        MOV     R2,#0x0
        MOV     R3,#0x8
        MOV     DPTR,#NWK_TaskID
        LCALL   ??Subroutine47_0 & 0xFFFF
//  435     }
//  436 
//  437     // Return unprocessed events
//  438     return (events ^ ZDO_STATE_CHANGE_EVT);
??CrossCallReturnLabel_78:
        MOV     A,R6
        XRL     A,#0x10
        SJMP    ??ZDApp_event_loop_2
//  439   }
//  440 
//  441   if ( events & ZDO_COMMAND_CNF )
??ZDApp_event_loop_6:
        MOV     A,R6
        ANL     A,#0x8
        JZ      ??ZDApp_event_loop_7
//  442   {
//  443     // User defined logic
//  444 
//  445     // Return unprocessed events
//  446     return (events ^ ZDO_COMMAND_CNF);
        MOV     A,R6
        XRL     A,#0x8
        MOV     R2,A
        SJMP    ??ZDApp_event_loop_4
//  447   }
//  448 
//  449   if ( events & ZDO_NWK_UPDATE_NV )
??ZDApp_event_loop_7:
        MOV     A,R7
        ANL     A,#0x2
        JZ      ??ZDApp_event_loop_8
//  450   {
//  451     ZDApp_SaveNetworkStateEvt();
//  452 
//  453     // Return unprocessed events
//  454     return (events ^ ZDO_NWK_UPDATE_NV);
        MOV     A,R7
        XRL     A,#0x2
        SJMP    ??ZDApp_event_loop_3
//  455   }
//  456 
//  457   if ( events & ZDO_DEVICE_RESET )
??ZDApp_event_loop_8:
        MOV     A,R6
        ANL     A,#0x4
        JZ      ??ZDApp_event_loop_9
//  458   {
//  459 #ifdef ZBA_FALLBACK_NWKKEY
//  460     if ( devState == DEV_END_DEVICE_UNAUTH )
//  461     {
//  462       ZDSecMgrFallbackNwkKey();
//  463     }
//  464     else
//  465 #endif
//  466     {
//  467       // Set the NV startup option to force a "new" join.
//  468       zgWriteStartupOptions( ZG_STARTUP_SET, ZCD_STARTOPT_DEFAULT_NETWORK_STATE );
        ; Setup parameters for call to function zgWriteStartupOptions
        MOV     R2,#0x2
        MOV     R1,#-0x1
        LCALL   ??zgWriteStartupOptions?relay
//  469 
//  470       // The device has been in the UNAUTH state, so reset
//  471       // Note: there will be no return from this call
//  472       SystemResetSoft();
        ; Setup parameters for call to function Onboard_soft_reset
        LCALL   Onboard_soft_reset & 0xFFFF
//  473     }
//  474   }
//  475 
//  476   if ( ZG_SECURE_ENABLED )
//  477   {
//  478     return ( ZDApp_ProcessSecEvent( task_id, events ) );
//  479   }
//  480   else
//  481   {
//  482     // Discard or make more handlers
//  483     return 0;
??ZDApp_event_loop_9:
        MOV     R2,#0x0
        MOV     R3,#0x0
//  484   }
??ZDApp_event_loop_4:
        LJMP    ??Subroutine46_0 & 0xFFFF
        CFI EndBlock cfiBlock2
//  485 }
//  486 
//  487 /*********************************************************************
//  488  * @fn      ZDApp_ProcessSecEvent()
//  489  *
//  490  * @brief   Process incoming security events.
//  491  *
//  492  * @param   task_id - Task ID
//  493  * @param   events  - Bitmap of events
//  494  *
//  495  * @return  none
//  496  */

        RSEG BANKED_CODE:CODE:NOROOT(0)
//  497 UINT16 ZDApp_ProcessSecEvent( uint8 task_id, UINT16 events )
ZDApp_ProcessSecEvent:
        CFI Block cfiBlock3 Using cfiCommon0
        CFI Function ZDApp_ProcessSecEvent
        CODE
//  498 {
        FUNCALL ZDApp_ProcessSecEvent, ZDApp_DeviceAuthEvt
        LOCFRAME ISTACK, 0, STACK
        LOCFRAME PSTACK, 0, STACK
        LOCFRAME XSTACK, 9, STACK
        LOCFRAME IOVERLAY, 0, STATIC
        LOCFRAME DOVERLAY, 0, STATIC
        ARGFRAME ISTACK, 0, STACK
        ARGFRAME PSTACK, 0, STACK
        ARGFRAME XSTACK, 9, STACK
        ARGFRAME IOVERLAY, 0, STATIC
        ARGFRAME DOVERLAY, 0, STATIC
        FUNCALL ZDApp_ProcessSecEvent, ZDApp_SaveNwkKey
        LOCFRAME ISTACK, 0, STACK
        LOCFRAME PSTACK, 0, STACK
        LOCFRAME XSTACK, 9, STACK
        LOCFRAME IOVERLAY, 0, STATIC
        LOCFRAME DOVERLAY, 0, STATIC
        ARGFRAME ISTACK, 0, STACK
        ARGFRAME PSTACK, 0, STACK
        ARGFRAME XSTACK, 9, STACK
        ARGFRAME IOVERLAY, 0, STATIC
        ARGFRAME DOVERLAY, 0, STATIC
        FUNCALL ZDApp_ProcessSecEvent, ZDSecMgrSaveTCLinkKey
        LOCFRAME ISTACK, 0, STACK
        LOCFRAME PSTACK, 0, STACK
        LOCFRAME XSTACK, 9, STACK
        LOCFRAME IOVERLAY, 0, STATIC
        LOCFRAME DOVERLAY, 0, STATIC
        ARGFRAME ISTACK, 0, STACK
        ARGFRAME PSTACK, 0, STACK
        ARGFRAME XSTACK, 9, STACK
        ARGFRAME IOVERLAY, 0, STATIC
        ARGFRAME DOVERLAY, 0, STATIC
        MOV     A,#-0x9
        LCALL   ?BANKED_ENTER_XDATA
        CFI DPH0 load(1, XDATA, add(CFA_XSP16, literal(-1)))
        CFI DPL0 load(1, XDATA, add(CFA_XSP16, literal(-2)))
        CFI ?BRET_EXT load(1, XDATA, add(CFA_XSP16, literal(-3)))
        CFI ?RET_HIGH load(1, XDATA, add(CFA_XSP16, literal(-4)))
        CFI ?RET_LOW load(1, XDATA, add(CFA_XSP16, literal(-5)))
        CFI R7 load(1, XDATA, add(CFA_XSP16, literal(-6)))
        CFI V0 load(1, XDATA, add(CFA_XSP16, literal(-7)))
        CFI VB load(1, XDATA, add(CFA_XSP16, literal(-8)))
        CFI R6 load(1, XDATA, add(CFA_XSP16, literal(-9)))
        CFI CFA_SP SP+0
        CFI CFA_XSP16 add(XSP16, 9)
        ; Saved register size: 9
        ; Auto size: 0
        MOV     A,R2
        MOV     R6,A
        MOV     A,R3
        MOV     R7,A
//  499   (void)task_id;  // Intentionally unreferenced parameter
//  500 
//  501   if ( ZSTACK_ROUTER_BUILD )
//  502   {
//  503     if ( events & ZDO_NEW_DEVICE )
//  504     {
//  505       // process the new device event
//  506       if ( ZDSecMgrNewDeviceEvent() == TRUE )
//  507       {
//  508         osal_start_timerEx( ZDAppTaskID, ZDO_NEW_DEVICE, 1000 );
//  509       }
//  510 
//  511       // Return unprocessed events
//  512       return (events ^ ZDO_NEW_DEVICE);
//  513     }
//  514   }
//  515 
//  516   if ( (ZG_CHECK_SECURITY_MODE == ZG_SECURITY_PRO_HIGH)
//  517       || (ZG_CHECK_SECURITY_MODE == ZG_SECURITY_SE_STANDARD) )
//  518   {
//  519     if ( ZG_BUILD_COORDINATOR_TYPE && ZG_DEVICE_COORDINATOR_TYPE )
//  520     {
//  521       if ( events & ZDO_SECMGR_EVENT )
//  522       {
//  523         ZDSecMgrEvent();
//  524 
//  525         // Return unprocessed events
//  526         return (events ^ ZDO_SECMGR_EVENT);
//  527       }
//  528     }
//  529   }
//  530 
//  531   if ( events & ZDO_DEVICE_AUTH )
        MOV     A,R6
        ANL     A,#0x80
        JZ      ??ZDApp_ProcessSecEvent_0
//  532   {
//  533     ZDApp_DeviceAuthEvt();
        ; Setup parameters for call to function ZDApp_DeviceAuthEvt
        LCALL   ??ZDApp_DeviceAuthEvt?relay
//  534 
//  535     // Return unprocessed events
//  536     return (events ^ ZDO_DEVICE_AUTH);
        MOV     A,R6
        XRL     A,#0x80
        MOV     R2,A
        MOV     A,R7
??ZDApp_ProcessSecEvent_1:
        MOV     R3,A
        SJMP    ??ZDApp_ProcessSecEvent_2
//  537   }
//  538 
//  539   if ( events & ZDO_FRAMECOUNTER_CHANGE )
??ZDApp_ProcessSecEvent_0:
        MOV     A,R7
        ANL     A,#0x4
        JZ      ??ZDApp_ProcessSecEvent_3
//  540   {
//  541     if ( nwkFrameCounterChanges++ > MAX_NWK_FRAMECOUNTER_CHANGES )
        MOV     DPTR,#nwkFrameCounterChanges
        LCALL   ??Subroutine43_0 & 0xFFFF
??CrossCallReturnLabel_64:
        MOV     A,R0
        ADD     A,#0x1
        MOV     R2,A
        MOV     A,R1
        ADDC    A,#0x0
        MOV     R3,A
        MOV     DPTR,#nwkFrameCounterChanges
        LCALL   ??Subroutine58_0 & 0xFFFF
??CrossCallReturnLabel_109:
        CLR     C
        MOV     A,R0
        SUBB    A,#-0x17
        MOV     A,R1
        SUBB    A,#0x3
        JC      ??ZDApp_ProcessSecEvent_4
//  542     {
//  543       ZDApp_SaveNwkKey();
        ; Setup parameters for call to function ZDApp_SaveNwkKey
        LCALL   ??ZDApp_SaveNwkKey?relay
//  544     }
//  545 
//  546     // Return unprocessed events
//  547     return (events ^ ZDO_FRAMECOUNTER_CHANGE);
??ZDApp_ProcessSecEvent_4:
        MOV     A,R6
        MOV     R2,A
        MOV     A,R7
        XRL     A,#0x4
        SJMP    ??ZDApp_ProcessSecEvent_1
//  548   }
//  549 
//  550   if ( events & ZDO_APS_FRAMECOUNTER_CHANGE )
??ZDApp_ProcessSecEvent_3:
        MOV     A,R7
        ANL     A,#0x10
        JZ      ??ZDApp_ProcessSecEvent_5
//  551   {
//  552 #if defined (NV_RESTORE)
//  553     ZDSecMgrSaveApsLinkKey();
//  554 #endif // (NV_RESTORE)
//  555 
//  556     // Return unprocessed events
//  557     return (events ^ ZDO_APS_FRAMECOUNTER_CHANGE);
        MOV     A,R7
        XRL     A,#0x10
        SJMP    ??ZDApp_ProcessSecEvent_1
//  558   }
//  559 
//  560   if ( events & ZDO_TCLK_FRAMECOUNTER_CHANGE )
??ZDApp_ProcessSecEvent_5:
        MOV     A,R7
        ANL     A,#0x8
        JZ      ??ZDApp_ProcessSecEvent_6
//  561   {
//  562     ZDSecMgrSaveTCLinkKey();
        ; Setup parameters for call to function ZDSecMgrSaveTCLinkKey
        LCALL   ??ZDSecMgrSaveTCLinkKey?relay
//  563 
//  564     // Return unprocessed events
//  565     return (events ^ ZDO_TCLK_FRAMECOUNTER_CHANGE);
        MOV     A,R6
        MOV     R2,A
        MOV     A,R7
        XRL     A,#0x8
        SJMP    ??ZDApp_ProcessSecEvent_1
//  566   }
//  567 
//  568   // Discard or make more handlers
//  569   return 0;
??ZDApp_ProcessSecEvent_6:
        MOV     R2,#0x0
        MOV     R3,#0x0
??ZDApp_ProcessSecEvent_2:
        LJMP    ??Subroutine48_0 & 0xFFFF
        CFI EndBlock cfiBlock3
//  570 }
//  571 
//  572 /*********************************************************************
//  573  * Application Functions
//  574  */
//  575 
//  576 /*********************************************************************
//  577  * @fn      ZDOInitDevice
//  578  *
//  579  * @brief   Start the device in the network.  This function will read
//  580  *   ZCD_NV_STARTUP_OPTION (NV item) to determine whether or not to
//  581  *   restore the network state of the device.
//  582  *
//  583  * @param   startDelay - timeDelay to start device (in milliseconds).
//  584  *                       There is a jitter added to this delay:
//  585  *                       ((NWK_START_DELAY + startDelay)
//  586  *                       + (osal_rand() & EXTENDED_JOINING_RANDOM_MASK))
//  587  *                       When startDelay is set to ZDO_INIT_HOLD_NWK_START
//  588  *                       this function will hold the network init. Application
//  589  *                       can start the device.
//  590  *
//  591  * NOTE:    If the application would like to force a "new" join, the
//  592  *          application should set the ZCD_STARTOPT_DEFAULT_NETWORK_STATE
//  593  *          bit in the ZCD_NV_STARTUP_OPTION NV item before calling
//  594  *          this function. "new" join means to not restore the network
//  595  *          state of the device. Use zgWriteStartupOptions() to set these
//  596  *          options.
//  597  *
//  598  * @return
//  599  *    ZDO_INITDEV_RESTORED_NETWORK_STATE  - The device's network state was
//  600  *          restored.
//  601  *    ZDO_INITDEV_NEW_NETWORK_STATE - The network state was initialized.
//  602  *          This could mean that ZCD_NV_STARTUP_OPTION said to not restore, or
//  603  *          it could mean that there was no network state to restore.
//  604  *    ZDO_INITDEV_LEAVE_NOT_STARTED - Before the reset, a network leave was issued
//  605  *          with the rejoin option set to TRUE.  So, the device was not
//  606  *          started in the network (one time only).  The next time this
//  607  *          function is called it will start.
//  608  */

        RSEG BANKED_CODE:CODE:NOROOT(0)
//  609 uint8 ZDOInitDevice( uint16 startDelay )
ZDOInitDevice:
        CFI Block cfiBlock4 Using cfiCommon0
        CFI Function ZDOInitDevice
        CODE
//  610 {
        FUNCALL ZDOInitDevice, zgInitItems
        LOCFRAME ISTACK, 0, STACK
        LOCFRAME PSTACK, 0, STACK
        LOCFRAME XSTACK, 12, STACK
        LOCFRAME IOVERLAY, 0, STATIC
        LOCFRAME DOVERLAY, 0, STATIC
        ARGFRAME ISTACK, 0, STACK
        ARGFRAME PSTACK, 0, STACK
        ARGFRAME XSTACK, 12, STACK
        ARGFRAME IOVERLAY, 0, STATIC
        ARGFRAME DOVERLAY, 0, STATIC
        FUNCALL ZDOInitDevice, ZDConfig_InitDescriptors
        LOCFRAME ISTACK, 0, STACK
        LOCFRAME PSTACK, 0, STACK
        LOCFRAME XSTACK, 12, STACK
        LOCFRAME IOVERLAY, 0, STATIC
        LOCFRAME DOVERLAY, 0, STATIC
        ARGFRAME ISTACK, 0, STACK
        ARGFRAME PSTACK, 0, STACK
        ARGFRAME XSTACK, 12, STACK
        ARGFRAME IOVERLAY, 0, STATIC
        ARGFRAME DOVERLAY, 0, STATIC
        FUNCALL ZDOInitDevice, ZDAppDetermineDeviceType
        LOCFRAME ISTACK, 0, STACK
        LOCFRAME PSTACK, 0, STACK
        LOCFRAME XSTACK, 12, STACK
        LOCFRAME IOVERLAY, 0, STATIC
        LOCFRAME DOVERLAY, 0, STATIC
        ARGFRAME ISTACK, 0, STACK
        ARGFRAME PSTACK, 0, STACK
        ARGFRAME XSTACK, 12, STACK
        ARGFRAME IOVERLAY, 0, STATIC
        ARGFRAME DOVERLAY, 0, STATIC
        FUNCALL ZDOInitDevice, osal_rand
        LOCFRAME ISTACK, 0, STACK
        LOCFRAME PSTACK, 0, STACK
        LOCFRAME XSTACK, 12, STACK
        LOCFRAME IOVERLAY, 0, STATIC
        LOCFRAME DOVERLAY, 0, STATIC
        ARGFRAME ISTACK, 0, STACK
        ARGFRAME PSTACK, 0, STACK
        ARGFRAME XSTACK, 12, STACK
        ARGFRAME IOVERLAY, 0, STATIC
        ARGFRAME DOVERLAY, 0, STATIC
        FUNCALL ZDOInitDevice, ZDSecMgrInit
        LOCFRAME ISTACK, 0, STACK
        LOCFRAME PSTACK, 0, STACK
        LOCFRAME XSTACK, 12, STACK
        LOCFRAME IOVERLAY, 0, STATIC
        LOCFRAME DOVERLAY, 0, STATIC
        ARGFRAME ISTACK, 0, STACK
        ARGFRAME PSTACK, 0, STACK
        ARGFRAME XSTACK, 12, STACK
        ARGFRAME IOVERLAY, 0, STATIC
        ARGFRAME DOVERLAY, 0, STATIC
        FUNCALL ZDOInitDevice, ZDApp_LeaveCtrlInit
        LOCFRAME ISTACK, 0, STACK
        LOCFRAME PSTACK, 0, STACK
        LOCFRAME XSTACK, 12, STACK
        LOCFRAME IOVERLAY, 0, STATIC
        LOCFRAME DOVERLAY, 0, STATIC
        ARGFRAME ISTACK, 0, STACK
        ARGFRAME PSTACK, 0, STACK
        ARGFRAME XSTACK, 12, STACK
        ARGFRAME IOVERLAY, 0, STATIC
        ARGFRAME DOVERLAY, 0, STATIC
        FUNCALL ZDOInitDevice, ZDApp_LeaveCtrlStartup
        LOCFRAME ISTACK, 0, STACK
        LOCFRAME PSTACK, 0, STACK
        LOCFRAME XSTACK, 12, STACK
        LOCFRAME IOVERLAY, 0, STATIC
        LOCFRAME DOVERLAY, 0, STATIC
        ARGFRAME ISTACK, 0, STACK
        ARGFRAME PSTACK, 0, STACK
        ARGFRAME XSTACK, 12, STACK
        ARGFRAME IOVERLAY, 0, STATIC
        ARGFRAME DOVERLAY, 0, STATIC
        FUNCALL ZDOInitDevice, zgWriteStartupOptions
        LOCFRAME ISTACK, 0, STACK
        LOCFRAME PSTACK, 0, STACK
        LOCFRAME XSTACK, 12, STACK
        LOCFRAME IOVERLAY, 0, STATIC
        LOCFRAME DOVERLAY, 0, STATIC
        ARGFRAME ISTACK, 0, STACK
        ARGFRAME PSTACK, 0, STACK
        ARGFRAME XSTACK, 12, STACK
        ARGFRAME IOVERLAY, 0, STATIC
        ARGFRAME DOVERLAY, 0, STATIC
        FUNCALL ZDOInitDevice, osal_set_event
        LOCFRAME ISTACK, 0, STACK
        LOCFRAME PSTACK, 0, STACK
        LOCFRAME XSTACK, 12, STACK
        LOCFRAME IOVERLAY, 0, STATIC
        LOCFRAME DOVERLAY, 0, STATIC
        ARGFRAME ISTACK, 0, STACK
        ARGFRAME PSTACK, 0, STACK
        ARGFRAME XSTACK, 12, STACK
        ARGFRAME IOVERLAY, 0, STATIC
        ARGFRAME DOVERLAY, 0, STATIC
        FUNCALL ZDOInitDevice, ZDApp_NetworkInit
        LOCFRAME ISTACK, 0, STACK
        LOCFRAME PSTACK, 0, STACK
        LOCFRAME XSTACK, 12, STACK
        LOCFRAME IOVERLAY, 0, STATIC
        LOCFRAME DOVERLAY, 0, STATIC
        ARGFRAME ISTACK, 0, STACK
        ARGFRAME PSTACK, 0, STACK
        ARGFRAME XSTACK, 12, STACK
        ARGFRAME IOVERLAY, 0, STATIC
        ARGFRAME DOVERLAY, 0, STATIC
        FUNCALL ZDOInitDevice, NLME_SetBroadcastFilter
        LOCFRAME ISTACK, 0, STACK
        LOCFRAME PSTACK, 0, STACK
        LOCFRAME XSTACK, 12, STACK
        LOCFRAME IOVERLAY, 0, STATIC
        LOCFRAME DOVERLAY, 0, STATIC
        ARGFRAME ISTACK, 0, STACK
        ARGFRAME PSTACK, 0, STACK
        ARGFRAME XSTACK, 12, STACK
        ARGFRAME IOVERLAY, 0, STATIC
        ARGFRAME DOVERLAY, 0, STATIC
        MOV     A,#-0xa
        LCALL   ?BANKED_ENTER_XDATA
        CFI DPH0 load(1, XDATA, add(CFA_XSP16, literal(-1)))
        CFI DPL0 load(1, XDATA, add(CFA_XSP16, literal(-2)))
        CFI ?BRET_EXT load(1, XDATA, add(CFA_XSP16, literal(-3)))
        CFI ?RET_HIGH load(1, XDATA, add(CFA_XSP16, literal(-4)))
        CFI ?RET_LOW load(1, XDATA, add(CFA_XSP16, literal(-5)))
        CFI R7 load(1, XDATA, add(CFA_XSP16, literal(-6)))
        CFI V1 load(1, XDATA, add(CFA_XSP16, literal(-7)))
        CFI V0 load(1, XDATA, add(CFA_XSP16, literal(-8)))
        CFI VB load(1, XDATA, add(CFA_XSP16, literal(-9)))
        CFI R6 load(1, XDATA, add(CFA_XSP16, literal(-10)))
        CFI CFA_SP SP+0
        CFI CFA_XSP16 add(XSP16, 10)
        ; Saved register size: 10
        ; Auto size: 2
        MOV     A,#-0x2
        LCALL   ?ALLOC_XSTACK8
        CFI CFA_XSP16 add(XSP16, 12)
        LCALL   ?Subroutine14 & 0xFFFF
//  611   uint8 networkStateNV = ZDO_INITDEV_NEW_NETWORK_STATE;
//  612   uint16 extendedDelay = 0;
//  613 
//  614   if ( devState == DEV_HOLD )
??CrossCallReturnLabel_114:
        MOV     DPTR,#devState
        MOVX    A,@DPTR
        JNZ     ??ZDOInitDevice_0
//  615   {
//  616     // Initialize the RAM items table, in case an NV item has been updated.
//  617     zgInitItems( FALSE );
        ; Setup parameters for call to function zgInitItems
        MOV     R1,#0x0
        LCALL   ??zgInitItems?relay
//  618   }
//  619 
//  620   ZDConfig_InitDescriptors();
??ZDOInitDevice_0:
        ; Setup parameters for call to function ZDConfig_InitDescriptors
        LCALL   ??ZDConfig_InitDescriptors?relay
//  621   //devtag.071807.todo - fix this temporary solution
//  622   _NIB.CapabilityFlags = ZDO_Config_Node_Descriptor.CapabilityFlags;
        MOV     DPTR,#ZDO_Config_Node_Descriptor + 2
        MOVX    A,@DPTR
        MOV     DPTR,#_NIB + 14
        MOVX    @DPTR,A
//  623 
//  624 #if defined ( NV_RESTORE )
//  625   // Get Keypad directly to see if a reset nv is needed.
//  626   // Hold down the SW_BYPASS_NV key (defined in OnBoard.h)
//  627   // while booting to skip past NV Restore.
//  628   if ( HalKeyRead() == SW_BYPASS_NV )
//  629     networkStateNV = ZDO_INITDEV_NEW_NETWORK_STATE;
//  630   else
//  631   {
//  632     // Determine if NV should be restored
//  633     networkStateNV = ZDApp_ReadNetworkRestoreState();
//  634   }
//  635 
//  636   if ( networkStateNV == ZDO_INITDEV_RESTORED_NETWORK_STATE )
//  637   {
//  638     networkStateNV = ZDApp_RestoreNetworkState();
//  639   }
//  640   else
//  641   {
//  642     // Wipe out the network state in NV
//  643     NLME_InitNV();
//  644     NLME_SetDefaultNV();
//  645     // clear NWK key values
//  646     ZDSecMgrClearNVKeyValues();
//  647   }
//  648 #endif
//  649 
//  650   if ( networkStateNV == ZDO_INITDEV_NEW_NETWORK_STATE )
//  651   {
//  652     ZDAppDetermineDeviceType();
        ; Setup parameters for call to function ZDAppDetermineDeviceType
        LCALL   ??ZDAppDetermineDeviceType?relay
//  653 
//  654     // Only delay if joining network - not restoring network state
//  655     extendedDelay = (uint16)((NWK_START_DELAY + startDelay)
//  656               + (osal_rand() & EXTENDED_JOINING_RANDOM_MASK));
        ; Setup parameters for call to function osal_rand
        LCALL   ??osal_rand?relay
        MOV     DPL,?XSP + 0
        MOV     DPH,?XSP + 1
        MOV     A,R2
        ANL     A,#0x7f
        MOV     R0,A
        MOVX    A,@DPTR
        ADD     A,R0
        MOV     R0,A
        INC     DPTR
        MOVX    A,@DPTR
        ADDC    A,#0x0
        MOV     R1,A
        MOV     A,R0
        ADD     A,#0x64
        MOV     R6,A
        MOV     A,R1
        ADDC    A,#0x0
        MOV     R7,A
//  657   }
//  658 
//  659   // Initialize the security for type of device
//  660   ZDApp_SecInit( networkStateNV );
        ; Setup parameters for call to function ZDSecMgrInit
        MOV     R1,#0x1
        LCALL   ??ZDSecMgrInit?relay
//  661 
//  662   if( ZDO_INIT_HOLD_NWK_START != startDelay )
        MOV     DPL,?XSP + 0
        MOV     DPH,?XSP + 1
        MOVX    A,@DPTR
        CPL     A
        JNZ     ??ZDOInitDevice_1
        INC     DPTR
        MOVX    A,@DPTR
        CPL     A
??ZDOInitDevice_1:
        JZ      ??ZDOInitDevice_2
//  663   {
//  664     devState = DEV_INIT;    // Remove the Hold state
        MOV     DPTR,#devState
        MOV     A,#0x1
        MOVX    @DPTR,A
//  665 
//  666     // Initialize leave control logic
//  667     ZDApp_LeaveCtrlInit();
        ; Setup parameters for call to function ZDApp_LeaveCtrlInit
        LCALL   ??ZDApp_LeaveCtrlInit?relay
//  668 
//  669     // Check leave control reset settings
//  670     ZDApp_LeaveCtrlStartup( &devState, &startDelay );
        ; Setup parameters for call to function ZDApp_LeaveCtrlStartup
        MOV     DPL,?XSP + 0
        MOV     DPH,?XSP + 1
        MOV     R4,DPL
        MOV     R5,DPH
        MOV     R2,#devState & 0xff
        MOV     R3,#(devState >> 8) & 0xff
        LCALL   ??ZDApp_LeaveCtrlStartup?relay
//  671 
//  672     // Leave may make the hold state come back
//  673     if ( devState == DEV_HOLD )
        MOV     DPTR,#devState
        MOVX    A,@DPTR
        JNZ     ??ZDOInitDevice_3
//  674     {
//  675       // Set the NV startup option to force a "new" join.
//  676       zgWriteStartupOptions( ZG_STARTUP_SET, ZCD_STARTOPT_DEFAULT_NETWORK_STATE );
        ; Setup parameters for call to function zgWriteStartupOptions
        MOV     R2,#0x2
        MOV     R1,#-0x1
        LCALL   ??zgWriteStartupOptions?relay
//  677 
//  678       // Notify the applications
//  679       osal_set_event( ZDAppTaskID, ZDO_STATE_CHANGE_EVT );
        ; Setup parameters for call to function osal_set_event
        LCALL   ?Subroutine19 & 0xFFFF
//  680 
//  681       return ( ZDO_INITDEV_LEAVE_NOT_STARTED );   // Don't join - (one time).
??CrossCallReturnLabel_51:
        MOV     R1,#0x2
        SJMP    ??ZDOInitDevice_4
//  682     }
//  683 
//  684     // Trigger the network start
//  685     ZDApp_NetworkInit( extendedDelay );
??ZDOInitDevice_3:
        ; Setup parameters for call to function ZDApp_NetworkInit
        MOV     A,R6
        MOV     R2,A
        MOV     A,R7
        MOV     R3,A
        LCALL   ??ZDApp_NetworkInit?relay
//  686   }
//  687 
//  688   // set broadcast address mask to support broadcast filtering
//  689   NLME_SetBroadcastFilter( ZDO_Config_Node_Descriptor.CapabilityFlags );
??ZDOInitDevice_2:
        ; Setup parameters for call to function NLME_SetBroadcastFilter
        MOV     DPTR,#ZDO_Config_Node_Descriptor + 2
        MOVX    A,@DPTR
        MOV     R1,A
        LCALL   ??NLME_SetBroadcastFilter?relay
//  690 
//  691   return ( networkStateNV );
        MOV     R1,#0x1
        CFI EndBlock cfiBlock4
??ZDOInitDevice_4:
        REQUIRE ?Subroutine7
        ; // Fall through to label ?Subroutine7
//  692 }

        RSEG BANKED_CODE:CODE:NOROOT(0)
?Subroutine7:
        CFI Block cfiBlock5 Using cfiCommon0
        CFI NoFunction
        CFI CFA_SP SP+0
        CFI CFA_XSP16 add(XSP16, 12)
        CFI VB load(1, XDATA, add(CFA_XSP16, literal(-9)))
        CFI DPL0 load(1, XDATA, add(CFA_XSP16, literal(-2)))
        CFI DPH0 load(1, XDATA, add(CFA_XSP16, literal(-1)))
        CFI R6 load(1, XDATA, add(CFA_XSP16, literal(-10)))
        CFI R7 load(1, XDATA, add(CFA_XSP16, literal(-6)))
        CFI V0 load(1, XDATA, add(CFA_XSP16, literal(-8)))
        CFI V1 load(1, XDATA, add(CFA_XSP16, literal(-7)))
        CFI ?BRET_EXT load(1, XDATA, add(CFA_XSP16, literal(-3)))
        CFI ?RET_HIGH load(1, XDATA, add(CFA_XSP16, literal(-4)))
        CFI ?RET_LOW load(1, XDATA, add(CFA_XSP16, literal(-5)))
        MOV     A,#0x2
        LJMP    ??Subroutine45_0 & 0xFFFF
        CFI EndBlock cfiBlock5

        RSEG BANKED_CODE:CODE:NOROOT(0)
?Subroutine19:
        CFI Block cfiCond6 Using cfiCommon0
        CFI NoFunction
        CFI Conditional ??CrossCallReturnLabel_51
        CFI R6 load(1, XDATA, add(CFA_XSP16, literal(-10)))
        CFI VB load(1, XDATA, add(CFA_XSP16, literal(-9)))
        CFI V0 load(1, XDATA, add(CFA_XSP16, literal(-8)))
        CFI V1 load(1, XDATA, add(CFA_XSP16, literal(-7)))
        CFI R7 load(1, XDATA, add(CFA_XSP16, literal(-6)))
        CFI ?RET_LOW load(1, XDATA, add(CFA_XSP16, literal(-5)))
        CFI ?RET_HIGH load(1, XDATA, add(CFA_XSP16, literal(-4)))
        CFI ?BRET_EXT load(1, XDATA, add(CFA_XSP16, literal(-3)))
        CFI DPL0 load(1, XDATA, add(CFA_XSP16, literal(-2)))
        CFI DPH0 load(1, XDATA, add(CFA_XSP16, literal(-1)))
        CFI CFA_SP SP+0
        CFI CFA_XSP16 add(XSP16, 12)
        CFI Block cfiCond7 Using cfiCommon0
        CFI (cfiCond7) NoFunction
        CFI (cfiCond7) Conditional ??CrossCallReturnLabel_52
        CFI (cfiCond7) R6 load(1, XDATA, add(CFA_XSP16, literal(-10)))
        CFI (cfiCond7) VB load(1, XDATA, add(CFA_XSP16, literal(-9)))
        CFI (cfiCond7) V0 load(1, XDATA, add(CFA_XSP16, literal(-8)))
        CFI (cfiCond7) V1 load(1, XDATA, add(CFA_XSP16, literal(-7)))
        CFI (cfiCond7) R7 load(1, XDATA, add(CFA_XSP16, literal(-6)))
        CFI (cfiCond7) ?RET_LOW load(1, XDATA, add(CFA_XSP16, literal(-5)))
        CFI (cfiCond7) ?RET_HIGH load(1, XDATA, add(CFA_XSP16, literal(-4)))
        CFI (cfiCond7) ?BRET_EXT load(1, XDATA, add(CFA_XSP16, literal(-3)))
        CFI (cfiCond7) DPL0 load(1, XDATA, add(CFA_XSP16, literal(-2)))
        CFI (cfiCond7) DPH0 load(1, XDATA, add(CFA_XSP16, literal(-1)))
        CFI (cfiCond7) CFA_SP SP+0
        CFI (cfiCond7) CFA_XSP16 add(XSP16, 12)
        CFI Block cfiCond8 Using cfiCommon0
        CFI (cfiCond8) NoFunction
        CFI (cfiCond8) Conditional ??CrossCallReturnLabel_53
        CFI (cfiCond8) R6 load(1, XDATA, add(CFA_XSP16, literal(-10)))
        CFI (cfiCond8) VB load(1, XDATA, add(CFA_XSP16, literal(-9)))
        CFI (cfiCond8) V0 load(1, XDATA, add(CFA_XSP16, literal(-8)))
        CFI (cfiCond8) V1 load(1, XDATA, add(CFA_XSP16, literal(-7)))
        CFI (cfiCond8) R7 load(1, XDATA, add(CFA_XSP16, literal(-6)))
        CFI (cfiCond8) ?RET_LOW load(1, XDATA, add(CFA_XSP16, literal(-5)))
        CFI (cfiCond8) ?RET_HIGH load(1, XDATA, add(CFA_XSP16, literal(-4)))
        CFI (cfiCond8) ?BRET_EXT load(1, XDATA, add(CFA_XSP16, literal(-3)))
        CFI (cfiCond8) DPL0 load(1, XDATA, add(CFA_XSP16, literal(-2)))
        CFI (cfiCond8) DPH0 load(1, XDATA, add(CFA_XSP16, literal(-1)))
        CFI (cfiCond8) CFA_SP SP+0
        CFI (cfiCond8) CFA_XSP16 add(XSP16, 12)
        CFI Block cfiCond9 Using cfiCommon0
        CFI (cfiCond9) NoFunction
        CFI (cfiCond9) Conditional ??CrossCallReturnLabel_54
        CFI (cfiCond9) R6 load(1, XDATA, add(CFA_XSP16, literal(-12)))
        CFI (cfiCond9) VB load(1, XDATA, add(CFA_XSP16, literal(-11)))
        CFI (cfiCond9) V0 load(1, XDATA, add(CFA_XSP16, literal(-10)))
        CFI (cfiCond9) V1 load(1, XDATA, add(CFA_XSP16, literal(-9)))
        CFI (cfiCond9) V2 load(1, XDATA, add(CFA_XSP16, literal(-8)))
        CFI (cfiCond9) V3 load(1, XDATA, add(CFA_XSP16, literal(-7)))
        CFI (cfiCond9) R7 load(1, XDATA, add(CFA_XSP16, literal(-6)))
        CFI (cfiCond9) ?RET_LOW load(1, XDATA, add(CFA_XSP16, literal(-5)))
        CFI (cfiCond9) ?RET_HIGH load(1, XDATA, add(CFA_XSP16, literal(-4)))
        CFI (cfiCond9) ?BRET_EXT load(1, XDATA, add(CFA_XSP16, literal(-3)))
        CFI (cfiCond9) DPL0 load(1, XDATA, add(CFA_XSP16, literal(-2)))
        CFI (cfiCond9) DPH0 load(1, XDATA, add(CFA_XSP16, literal(-1)))
        CFI (cfiCond9) CFA_SP SP+0
        CFI (cfiCond9) CFA_XSP16 add(XSP16, 12)
        CFI Block cfiPicker10 Using cfiCommon1
        CFI (cfiPicker10) NoFunction
        CFI (cfiPicker10) Picker
        MOV     R2,#0x10
        CFI EndBlock cfiCond6
        CFI EndBlock cfiCond7
        CFI EndBlock cfiCond8
        CFI EndBlock cfiCond9
        CFI EndBlock cfiPicker10
        REQUIRE ??Subroutine40_0
        ; // Fall through to label ??Subroutine40_0

        RSEG BANKED_CODE:CODE:NOROOT(0)
??Subroutine40_0:
        CFI Block cfiCond11 Using cfiCommon0
        CFI NoFunction
        CFI Conditional ??CrossCallReturnLabel_55
        CFI DPL0 Frame(CFA_SP, 4)
        CFI DPH0 Frame(CFA_SP, 5)
        CFI CFA_SP SP+-5
        CFI Block cfiCond12 Using cfiCommon0
        CFI (cfiCond12) NoFunction
        CFI (cfiCond12) Conditional ??CrossCallReturnLabel_56
        CFI (cfiCond12) R6 load(1, XDATA, add(CFA_XSP16, literal(-9)))
        CFI (cfiCond12) VB load(1, XDATA, add(CFA_XSP16, literal(-8)))
        CFI (cfiCond12) V0 load(1, XDATA, add(CFA_XSP16, literal(-7)))
        CFI (cfiCond12) R7 load(1, XDATA, add(CFA_XSP16, literal(-6)))
        CFI (cfiCond12) ?RET_LOW load(1, XDATA, add(CFA_XSP16, literal(-5)))
        CFI (cfiCond12) ?RET_HIGH load(1, XDATA, add(CFA_XSP16, literal(-4)))
        CFI (cfiCond12) ?BRET_EXT load(1, XDATA, add(CFA_XSP16, literal(-3)))
        CFI (cfiCond12) DPL0 load(1, XDATA, add(CFA_XSP16, literal(-2)))
        CFI (cfiCond12) DPH0 load(1, XDATA, add(CFA_XSP16, literal(-1)))
        CFI (cfiCond12) CFA_SP SP+0
        CFI (cfiCond12) CFA_XSP16 add(XSP16, 9)
        CFI Block cfiCond13 Using cfiCommon0
        CFI (cfiCond13) NoFunction
        CFI (cfiCond13) Conditional ??CrossCallReturnLabel_56
        CFI (cfiCond13) R6 load(1, XDATA, add(CFA_XSP16, literal(-9)))
        CFI (cfiCond13) VB load(1, XDATA, add(CFA_XSP16, literal(-8)))
        CFI (cfiCond13) V0 load(1, XDATA, add(CFA_XSP16, literal(-7)))
        CFI (cfiCond13) R7 load(1, XDATA, add(CFA_XSP16, literal(-6)))
        CFI (cfiCond13) ?RET_LOW load(1, XDATA, add(CFA_XSP16, literal(-5)))
        CFI (cfiCond13) ?RET_HIGH load(1, XDATA, add(CFA_XSP16, literal(-4)))
        CFI (cfiCond13) ?BRET_EXT load(1, XDATA, add(CFA_XSP16, literal(-3)))
        CFI (cfiCond13) DPL0 load(1, XDATA, add(CFA_XSP16, literal(-2)))
        CFI (cfiCond13) DPH0 load(1, XDATA, add(CFA_XSP16, literal(-1)))
        CFI (cfiCond13) CFA_SP SP+0
        CFI (cfiCond13) CFA_XSP16 add(XSP16, 9)
        CFI Block cfiCond14 Using cfiCommon0
        CFI (cfiCond14) NoFunction
        CFI (cfiCond14) Conditional ??CrossCallReturnLabel_57
        CFI (cfiCond14) DPL0 Frame(CFA_SP, 4)
        CFI (cfiCond14) DPH0 Frame(CFA_SP, 5)
        CFI (cfiCond14) CFA_SP SP+-5
        CFI Block cfiCond15 Using cfiCommon0
        CFI (cfiCond15) NoFunction
        CFI (cfiCond15) Conditional ??CrossCallReturnLabel_51
        CFI (cfiCond15) R6 load(1, XDATA, add(CFA_XSP16, literal(-10)))
        CFI (cfiCond15) VB load(1, XDATA, add(CFA_XSP16, literal(-9)))
        CFI (cfiCond15) V0 load(1, XDATA, add(CFA_XSP16, literal(-8)))
        CFI (cfiCond15) V1 load(1, XDATA, add(CFA_XSP16, literal(-7)))
        CFI (cfiCond15) R7 load(1, XDATA, add(CFA_XSP16, literal(-6)))
        CFI (cfiCond15) ?RET_LOW load(1, XDATA, add(CFA_XSP16, literal(-5)))
        CFI (cfiCond15) ?RET_HIGH load(1, XDATA, add(CFA_XSP16, literal(-4)))
        CFI (cfiCond15) ?BRET_EXT load(1, XDATA, add(CFA_XSP16, literal(-3)))
        CFI (cfiCond15) DPL0 load(1, XDATA, add(CFA_XSP16, literal(-2)))
        CFI (cfiCond15) DPH0 load(1, XDATA, add(CFA_XSP16, literal(-1)))
        CFI (cfiCond15) CFA_SP SP+0
        CFI (cfiCond15) CFA_XSP16 add(XSP16, 12)
        CFI Block cfiCond16 Using cfiCommon0
        CFI (cfiCond16) NoFunction
        CFI (cfiCond16) Conditional ??CrossCallReturnLabel_52
        CFI (cfiCond16) R6 load(1, XDATA, add(CFA_XSP16, literal(-10)))
        CFI (cfiCond16) VB load(1, XDATA, add(CFA_XSP16, literal(-9)))
        CFI (cfiCond16) V0 load(1, XDATA, add(CFA_XSP16, literal(-8)))
        CFI (cfiCond16) V1 load(1, XDATA, add(CFA_XSP16, literal(-7)))
        CFI (cfiCond16) R7 load(1, XDATA, add(CFA_XSP16, literal(-6)))
        CFI (cfiCond16) ?RET_LOW load(1, XDATA, add(CFA_XSP16, literal(-5)))
        CFI (cfiCond16) ?RET_HIGH load(1, XDATA, add(CFA_XSP16, literal(-4)))
        CFI (cfiCond16) ?BRET_EXT load(1, XDATA, add(CFA_XSP16, literal(-3)))
        CFI (cfiCond16) DPL0 load(1, XDATA, add(CFA_XSP16, literal(-2)))
        CFI (cfiCond16) DPH0 load(1, XDATA, add(CFA_XSP16, literal(-1)))
        CFI (cfiCond16) CFA_SP SP+0
        CFI (cfiCond16) CFA_XSP16 add(XSP16, 12)
        CFI Block cfiCond17 Using cfiCommon0
        CFI (cfiCond17) NoFunction
        CFI (cfiCond17) Conditional ??CrossCallReturnLabel_53
        CFI (cfiCond17) R6 load(1, XDATA, add(CFA_XSP16, literal(-10)))
        CFI (cfiCond17) VB load(1, XDATA, add(CFA_XSP16, literal(-9)))
        CFI (cfiCond17) V0 load(1, XDATA, add(CFA_XSP16, literal(-8)))
        CFI (cfiCond17) V1 load(1, XDATA, add(CFA_XSP16, literal(-7)))
        CFI (cfiCond17) R7 load(1, XDATA, add(CFA_XSP16, literal(-6)))
        CFI (cfiCond17) ?RET_LOW load(1, XDATA, add(CFA_XSP16, literal(-5)))
        CFI (cfiCond17) ?RET_HIGH load(1, XDATA, add(CFA_XSP16, literal(-4)))
        CFI (cfiCond17) ?BRET_EXT load(1, XDATA, add(CFA_XSP16, literal(-3)))
        CFI (cfiCond17) DPL0 load(1, XDATA, add(CFA_XSP16, literal(-2)))
        CFI (cfiCond17) DPH0 load(1, XDATA, add(CFA_XSP16, literal(-1)))
        CFI (cfiCond17) CFA_SP SP+0
        CFI (cfiCond17) CFA_XSP16 add(XSP16, 12)
        CFI Block cfiCond18 Using cfiCommon0
        CFI (cfiCond18) NoFunction
        CFI (cfiCond18) Conditional ??CrossCallReturnLabel_54
        CFI (cfiCond18) R6 load(1, XDATA, add(CFA_XSP16, literal(-12)))
        CFI (cfiCond18) VB load(1, XDATA, add(CFA_XSP16, literal(-11)))
        CFI (cfiCond18) V0 load(1, XDATA, add(CFA_XSP16, literal(-10)))
        CFI (cfiCond18) V1 load(1, XDATA, add(CFA_XSP16, literal(-9)))
        CFI (cfiCond18) V2 load(1, XDATA, add(CFA_XSP16, literal(-8)))
        CFI (cfiCond18) V3 load(1, XDATA, add(CFA_XSP16, literal(-7)))
        CFI (cfiCond18) R7 load(1, XDATA, add(CFA_XSP16, literal(-6)))
        CFI (cfiCond18) ?RET_LOW load(1, XDATA, add(CFA_XSP16, literal(-5)))
        CFI (cfiCond18) ?RET_HIGH load(1, XDATA, add(CFA_XSP16, literal(-4)))
        CFI (cfiCond18) ?BRET_EXT load(1, XDATA, add(CFA_XSP16, literal(-3)))
        CFI (cfiCond18) DPL0 load(1, XDATA, add(CFA_XSP16, literal(-2)))
        CFI (cfiCond18) DPH0 load(1, XDATA, add(CFA_XSP16, literal(-1)))
        CFI (cfiCond18) CFA_SP SP+0
        CFI (cfiCond18) CFA_XSP16 add(XSP16, 12)
        CFI Block cfiPicker19 Using cfiCommon1
        CFI (cfiPicker19) NoFunction
        CFI (cfiPicker19) Picker
        MOV     R3,#0x0
        MOV     DPTR,#ZDAppTaskID
        MOVX    A,@DPTR
        MOV     R1,A
        LCALL   ??osal_set_event?relay
        RET
        CFI EndBlock cfiCond11
        CFI EndBlock cfiCond12
        CFI EndBlock cfiCond13
        CFI EndBlock cfiCond14
        CFI EndBlock cfiCond15
        CFI EndBlock cfiCond16
        CFI EndBlock cfiCond17
        CFI EndBlock cfiCond18
        CFI EndBlock cfiPicker19
//  693 
//  694 /*********************************************************************
//  695  * @fn      ZDApp_ReadNetworkRestoreState
//  696  *
//  697  * @brief   Read the ZCD_NV_STARTUP_OPTION NV Item to state whether
//  698  *          or not to restore the network state.
//  699  *          If the read value has the ZCD_STARTOPT_DEFAULT_NETWORK_STATE
//  700  *          bit set return the ZDO_INITDEV_NEW_NETWORK_STATE.
//  701  *
//  702  * @param   none
//  703  *
//  704  * @return  ZDO_INITDEV_NEW_NETWORK_STATE
//  705  *          or ZDO_INITDEV_RESTORED_NETWORK_STATE based on whether or
//  706  *          not ZCD_STARTOPT_DEFAULT_NETWORK_STATE bit is set in
//  707  *          ZCD_NV_STARTUP_OPTION
//  708  */

        RSEG BANKED_CODE:CODE:NOROOT(0)
//  709 uint8 ZDApp_ReadNetworkRestoreState( void )
ZDApp_ReadNetworkRestoreState:
        CFI Block cfiBlock20 Using cfiCommon0
        CFI Function ZDApp_ReadNetworkRestoreState
        CODE
//  710 {
        FUNCALL ZDApp_ReadNetworkRestoreState, zgReadStartupOptions
        LOCFRAME ISTACK, 0, STACK
        LOCFRAME PSTACK, 0, STACK
        LOCFRAME XSTACK, 9, STACK
        LOCFRAME IOVERLAY, 0, STATIC
        LOCFRAME DOVERLAY, 0, STATIC
        ARGFRAME ISTACK, 0, STACK
        ARGFRAME PSTACK, 0, STACK
        ARGFRAME XSTACK, 9, STACK
        ARGFRAME IOVERLAY, 0, STATIC
        ARGFRAME DOVERLAY, 0, STATIC
        MOV     A,#-0x9
        LCALL   ?BANKED_ENTER_XDATA
        CFI DPH0 load(1, XDATA, add(CFA_XSP16, literal(-1)))
        CFI DPL0 load(1, XDATA, add(CFA_XSP16, literal(-2)))
        CFI ?BRET_EXT load(1, XDATA, add(CFA_XSP16, literal(-3)))
        CFI ?RET_HIGH load(1, XDATA, add(CFA_XSP16, literal(-4)))
        CFI ?RET_LOW load(1, XDATA, add(CFA_XSP16, literal(-5)))
        CFI R7 load(1, XDATA, add(CFA_XSP16, literal(-6)))
        CFI V0 load(1, XDATA, add(CFA_XSP16, literal(-7)))
        CFI VB load(1, XDATA, add(CFA_XSP16, literal(-8)))
        CFI R6 load(1, XDATA, add(CFA_XSP16, literal(-9)))
        CFI CFA_SP SP+0
        CFI CFA_XSP16 add(XSP16, 9)
        ; Saved register size: 9
        ; Auto size: 0
//  711   uint8 networkStateNV = ZDO_INITDEV_RESTORED_NETWORK_STATE;
        MOV     R6,#0x0
//  712 
//  713   // Look for the New Network State option.
//  714   if ( zgReadStartupOptions() & ZCD_STARTOPT_DEFAULT_NETWORK_STATE )
        ; Setup parameters for call to function zgReadStartupOptions
        LCALL   ??zgReadStartupOptions?relay
        MOV     A,R1
        MOV     C,0xE0 /* A   */.1
        JNC     ??ZDApp_ReadNetworkRestoreState_0
//  715   {
//  716     networkStateNV = ZDO_INITDEV_NEW_NETWORK_STATE;
        INC     R6
//  717   }
//  718 
//  719   return ( networkStateNV );
??ZDApp_ReadNetworkRestoreState_0:
        MOV     A,R6
        MOV     R1,A
        LJMP    ??Subroutine48_0 & 0xFFFF
        CFI EndBlock cfiBlock20
//  720 }
//  721 
//  722 /*********************************************************************
//  723  * @fn      ZDAppDetermineDeviceType()
//  724  *
//  725  * @brief   Determines the type of device to start.
//  726  *
//  727  *          Looks at zgDeviceLogicalType and determines what type of
//  728  *          device to start.  The types are:
//  729  *            ZG_DEVICETYPE_COORDINATOR
//  730  *            ZG_DEVICETYPE_ROUTER
//  731  *            ZG_DEVICETYPE_ENDDEVICE
//  732  *
//  733  * @param   none
//  734  *
//  735  * @return  none
//  736  */

        RSEG BANKED_CODE:CODE:NOROOT(0)
//  737 void ZDAppDetermineDeviceType( void )
ZDAppDetermineDeviceType:
        CFI Block cfiBlock21 Using cfiCommon0
        CFI Function ZDAppDetermineDeviceType
        CODE
//  738 {
        FUNCALL ZDAppDetermineDeviceType, nwk_ExtPANIDValid
        LOCFRAME ISTACK, 2, STACK
        LOCFRAME PSTACK, 0, STACK
        LOCFRAME XSTACK, 0, STACK
        LOCFRAME IOVERLAY, 0, STATIC
        LOCFRAME DOVERLAY, 0, STATIC
        ARGFRAME ISTACK, 2, STACK
        ARGFRAME PSTACK, 0, STACK
        ARGFRAME XSTACK, 0, STACK
        ARGFRAME IOVERLAY, 0, STATIC
        ARGFRAME DOVERLAY, 0, STATIC
        PUSH    DPL
        CFI DPL0 Frame(CFA_SP, 4)
        CFI CFA_SP SP+-4
        PUSH    DPH
        CFI DPH0 Frame(CFA_SP, 5)
        CFI CFA_SP SP+-5
        ; Saved register size: 2
        ; Auto size: 0
//  739   if ( zgDeviceLogicalType == ZG_DEVICETYPE_COORDINATOR )
        MOV     DPTR,#zgDeviceLogicalType
        MOVX    A,@DPTR
        JNZ     ??ZDAppDetermineDeviceType_0
//  740   {
//  741     devStartMode = MODE_HARD;     // Start as a coordinator
        MOV     DPTR,#devStartMode
        MOV     A,#0x2
        MOVX    @DPTR,A
//  742     ZDO_Config_Node_Descriptor.LogicalType = NODETYPE_COORDINATOR;
        MOV     DPTR,#ZDO_Config_Node_Descriptor
        MOVX    A,@DPTR
        ANL     A,#0xf8
        SJMP    ??ZDAppDetermineDeviceType_1
//  743   }
//  744   else
//  745   {
//  746     if ( zgDeviceLogicalType == ZG_DEVICETYPE_ROUTER  )
??ZDAppDetermineDeviceType_0:
        XRL     A,#0x1
        JNZ     ??ZDAppDetermineDeviceType_2
//  747       ZDO_Config_Node_Descriptor.LogicalType = NODETYPE_ROUTER;
        MOV     DPTR,#ZDO_Config_Node_Descriptor
        MOVX    A,@DPTR
        ANL     A,#0xf8
        ORL     A,#0x1
        SJMP    ??ZDAppDetermineDeviceType_3
//  748     else if ( zgDeviceLogicalType == ZG_DEVICETYPE_ENDDEVICE )
??ZDAppDetermineDeviceType_2:
        MOVX    A,@DPTR
        XRL     A,#0x2
        JNZ     ??ZDAppDetermineDeviceType_4
//  749       ZDO_Config_Node_Descriptor.LogicalType = NODETYPE_DEVICE;
        MOV     DPTR,#ZDO_Config_Node_Descriptor
        MOVX    A,@DPTR
        ANL     A,#0xf8
        ORL     A,#0x2
??ZDAppDetermineDeviceType_3:
        MOVX    @DPTR,A
//  750 
//  751     // If AIB_apsUseExtendedPANID is set to a non-zero value by commissioning
//  752     // The device shall do rejoin the network. Otherwise, do normal join
//  753     if ( nwk_ExtPANIDValid( AIB_apsUseExtendedPANID ) == false )
??ZDAppDetermineDeviceType_4:
        ; Setup parameters for call to function nwk_ExtPANIDValid
        MOV     R2,#AIB_apsUseExtendedPANID & 0xff
        MOV     R3,#(AIB_apsUseExtendedPANID >> 8) & 0xff
        LCALL   ??nwk_ExtPANIDValid?relay
        MOV     A,R1
        MOV     DPTR,#devStartMode
        JNZ     ??ZDAppDetermineDeviceType_5
//  754     {
//  755       devStartMode = MODE_JOIN;     // Assume joining
        CLR     A
        SJMP    ??ZDAppDetermineDeviceType_1
//  756     }
//  757     else
//  758     {
//  759       devStartMode = MODE_REJOIN;
??ZDAppDetermineDeviceType_5:
        MOV     A,#0x3
??ZDAppDetermineDeviceType_1:
        MOVX    @DPTR,A
//  760     }
//  761   }
//  762 }
        LJMP    ?Subroutine2 & 0xFFFF
        CFI EndBlock cfiBlock21
//  763 
//  764 /*********************************************************************
//  765  * @fn      ZDApp_NetworkStartEvt()
//  766  *
//  767  * @brief   Process the Network Start Event
//  768  *
//  769  * @param   none
//  770  *
//  771  * @return  none
//  772  */

        RSEG BANKED_CODE:CODE:NOROOT(0)
//  773 void ZDApp_NetworkStartEvt( void )
ZDApp_NetworkStartEvt:
        CFI Block cfiBlock22 Using cfiCommon0
        CFI Function ZDApp_NetworkStartEvt
        CODE
//  774 {
        FUNCALL ZDApp_NetworkStartEvt, osal_pwrmgr_device
        LOCFRAME ISTACK, 2, STACK
        LOCFRAME PSTACK, 0, STACK
        LOCFRAME XSTACK, 0, STACK
        LOCFRAME IOVERLAY, 0, STATIC
        LOCFRAME DOVERLAY, 0, STATIC
        ARGFRAME ISTACK, 2, STACK
        ARGFRAME PSTACK, 0, STACK
        ARGFRAME XSTACK, 0, STACK
        ARGFRAME IOVERLAY, 0, STATIC
        ARGFRAME DOVERLAY, 0, STATIC
        FUNCALL ZDApp_NetworkStartEvt, osal_set_event
        LOCFRAME ISTACK, 2, STACK
        LOCFRAME PSTACK, 0, STACK
        LOCFRAME XSTACK, 0, STACK
        LOCFRAME IOVERLAY, 0, STATIC
        LOCFRAME DOVERLAY, 0, STATIC
        ARGFRAME ISTACK, 2, STACK
        ARGFRAME PSTACK, 0, STACK
        ARGFRAME XSTACK, 0, STACK
        ARGFRAME IOVERLAY, 0, STATIC
        ARGFRAME DOVERLAY, 0, STATIC
        FUNCALL ZDApp_NetworkStartEvt, NLME_GetEnergyThreshold
        LOCFRAME ISTACK, 2, STACK
        LOCFRAME PSTACK, 0, STACK
        LOCFRAME XSTACK, 0, STACK
        LOCFRAME IOVERLAY, 0, STATIC
        LOCFRAME DOVERLAY, 0, STATIC
        ARGFRAME ISTACK, 2, STACK
        ARGFRAME PSTACK, 0, STACK
        ARGFRAME XSTACK, 0, STACK
        ARGFRAME IOVERLAY, 0, STATIC
        ARGFRAME DOVERLAY, 0, STATIC
        FUNCALL ZDApp_NetworkStartEvt, NLME_GetEnergyThreshold
        LOCFRAME ISTACK, 2, STACK
        LOCFRAME PSTACK, 0, STACK
        LOCFRAME XSTACK, 0, STACK
        LOCFRAME IOVERLAY, 0, STATIC
        LOCFRAME DOVERLAY, 0, STATIC
        ARGFRAME ISTACK, 2, STACK
        ARGFRAME PSTACK, 0, STACK
        ARGFRAME XSTACK, 0, STACK
        ARGFRAME IOVERLAY, 0, STATIC
        ARGFRAME DOVERLAY, 0, STATIC
        FUNCALL ZDApp_NetworkStartEvt, NLME_SetEnergyThreshold
        LOCFRAME ISTACK, 2, STACK
        LOCFRAME PSTACK, 0, STACK
        LOCFRAME XSTACK, 0, STACK
        LOCFRAME IOVERLAY, 0, STATIC
        LOCFRAME DOVERLAY, 0, STATIC
        ARGFRAME ISTACK, 2, STACK
        ARGFRAME PSTACK, 0, STACK
        ARGFRAME XSTACK, 0, STACK
        ARGFRAME IOVERLAY, 0, STATIC
        ARGFRAME DOVERLAY, 0, STATIC
        FUNCALL ZDApp_NetworkStartEvt, osal_set_event
        LOCFRAME ISTACK, 2, STACK
        LOCFRAME PSTACK, 0, STACK
        LOCFRAME XSTACK, 0, STACK
        LOCFRAME IOVERLAY, 0, STATIC
        LOCFRAME DOVERLAY, 0, STATIC
        ARGFRAME ISTACK, 2, STACK
        ARGFRAME PSTACK, 0, STACK
        ARGFRAME XSTACK, 0, STACK
        ARGFRAME IOVERLAY, 0, STATIC
        ARGFRAME DOVERLAY, 0, STATIC
        FUNCALL ZDApp_NetworkStartEvt, osal_set_event
        LOCFRAME ISTACK, 2, STACK
        LOCFRAME PSTACK, 0, STACK
        LOCFRAME XSTACK, 0, STACK
        LOCFRAME IOVERLAY, 0, STATIC
        LOCFRAME DOVERLAY, 0, STATIC
        ARGFRAME ISTACK, 2, STACK
        ARGFRAME PSTACK, 0, STACK
        ARGFRAME XSTACK, 0, STACK
        ARGFRAME IOVERLAY, 0, STATIC
        ARGFRAME DOVERLAY, 0, STATIC
        PUSH    DPL
        CFI DPL0 Frame(CFA_SP, 4)
        CFI CFA_SP SP+-4
        PUSH    DPH
        CFI DPH0 Frame(CFA_SP, 5)
        CFI CFA_SP SP+-5
        ; Saved register size: 2
        ; Auto size: 0
//  775   if ( nwkStatus == ZSuccess )
        MOV     DPTR,#nwkStatus
        MOVX    A,@DPTR
        JNZ     ??ZDApp_NetworkStartEvt_0
//  776   {
//  777     // Successfully started a ZigBee network
//  778     if ( devState == DEV_COORD_STARTING )
        MOV     DPTR,#devState
        MOVX    A,@DPTR
        XRL     A,#0x8
        JNZ     ??ZDApp_NetworkStartEvt_1
//  779     {
//  780       devState = DEV_ZB_COORD;
        MOV     A,#0x9
        MOVX    @DPTR,A
//  781     }
//  782 
//  783     osal_pwrmgr_device( PWRMGR_ALWAYS_ON );
??ZDApp_NetworkStartEvt_1:
        ; Setup parameters for call to function osal_pwrmgr_device
        MOV     R1,#0x0
        LCALL   ??osal_pwrmgr_device?relay
//  784     osal_set_event( ZDAppTaskID, ZDO_STATE_CHANGE_EVT );
        ; Setup parameters for call to function osal_set_event
        SJMP    ??ZDApp_NetworkStartEvt_2
//  785   }
//  786   else
//  787   {
//  788     // Try again with a higher energy threshold !!
//  789     if ( ( NLME_GetEnergyThreshold() + ENERGY_SCAN_INCREMENT ) < 0xff )
??ZDApp_NetworkStartEvt_0:
        ; Setup parameters for call to function NLME_GetEnergyThreshold
        LCALL   ??NLME_GetEnergyThreshold?relay
        MOV     A,R1
        ADD     A,#0x10
        MOV     R0,A
        CLR     A
        ADDC    A,#0x0
        MOV     R1,A
        MOV     A,R0
        SUBB    A,#-0x1
        MOV     A,R1
        SUBB    A,#0x0
        CLR     C
        XRL     A,PSW
        RLC     A
        JNC     ??ZDApp_NetworkStartEvt_3
//  790     {
//  791       NLME_SetEnergyThreshold( (uint8)(NLME_GetEnergyThreshold() + ENERGY_SCAN_INCREMENT) );
        ; Setup parameters for call to function NLME_SetEnergyThreshold
        ; Setup parameters for call to function NLME_GetEnergyThreshold
        LCALL   ??NLME_GetEnergyThreshold?relay
        MOV     A,R1
        ADD     A,#0x10
        MOV     R1,A
        LCALL   ??NLME_SetEnergyThreshold?relay
//  792       osal_set_event( ZDAppTaskID, ZDO_NETWORK_INIT );
        ; Setup parameters for call to function osal_set_event
        MOV     R2,#0x1
        SJMP    ??ZDApp_NetworkStartEvt_4
//  793     }
//  794     else
//  795     {
//  796       // Failed to start network. Enter a dormant state (until user intervenes)
//  797       devState = DEV_INIT;
??ZDApp_NetworkStartEvt_3:
        MOV     DPTR,#devState
        MOV     A,#0x1
        MOVX    @DPTR,A
//  798       osal_set_event( ZDAppTaskID, ZDO_STATE_CHANGE_EVT );
        ; Setup parameters for call to function osal_set_event
??ZDApp_NetworkStartEvt_2:
        MOV     R2,#0x10
//  799     }
//  800   }
??ZDApp_NetworkStartEvt_4:
        LCALL   ??Subroutine40_0 & 0xFFFF
//  801 }
??CrossCallReturnLabel_55:
        LJMP    ?Subroutine2 & 0xFFFF
        CFI EndBlock cfiBlock22
//  802 
//  803 /*********************************************************************
//  804  * @fn      ZDApp_DeviceAuthEvt()
//  805  *
//  806  * @brief   Process the Device Authentic Event
//  807  *
//  808  * @param   none
//  809  *
//  810  * @return  none
//  811  */

        RSEG BANKED_CODE:CODE:NOROOT(0)
//  812 void ZDApp_DeviceAuthEvt( void )
ZDApp_DeviceAuthEvt:
        CFI Block cfiBlock23 Using cfiCommon0
        CFI Function ZDApp_DeviceAuthEvt
        CODE
//  813 {
        FUNCALL ZDApp_DeviceAuthEvt, ZDApp_ResetTimerCancel
        LOCFRAME ISTACK, 2, STACK
        LOCFRAME PSTACK, 0, STACK
        LOCFRAME XSTACK, 0, STACK
        LOCFRAME IOVERLAY, 0, STATIC
        LOCFRAME DOVERLAY, 0, STATIC
        ARGFRAME ISTACK, 2, STACK
        ARGFRAME PSTACK, 0, STACK
        ARGFRAME XSTACK, 0, STACK
        ARGFRAME IOVERLAY, 0, STATIC
        ARGFRAME DOVERLAY, 0, STATIC
        FUNCALL ZDApp_DeviceAuthEvt, osal_set_event
        LOCFRAME ISTACK, 2, STACK
        LOCFRAME PSTACK, 0, STACK
        LOCFRAME XSTACK, 0, STACK
        LOCFRAME IOVERLAY, 0, STATIC
        LOCFRAME DOVERLAY, 0, STATIC
        ARGFRAME ISTACK, 2, STACK
        ARGFRAME PSTACK, 0, STACK
        ARGFRAME XSTACK, 0, STACK
        ARGFRAME IOVERLAY, 0, STATIC
        ARGFRAME DOVERLAY, 0, STATIC
        FUNCALL ZDApp_DeviceAuthEvt, ZDApp_SaveNwkKey
        LOCFRAME ISTACK, 2, STACK
        LOCFRAME PSTACK, 0, STACK
        LOCFRAME XSTACK, 0, STACK
        LOCFRAME IOVERLAY, 0, STATIC
        LOCFRAME DOVERLAY, 0, STATIC
        ARGFRAME ISTACK, 2, STACK
        ARGFRAME PSTACK, 0, STACK
        ARGFRAME XSTACK, 0, STACK
        ARGFRAME IOVERLAY, 0, STATIC
        ARGFRAME DOVERLAY, 0, STATIC
        FUNCALL ZDApp_DeviceAuthEvt, ZDApp_AnnounceNewAddress
        LOCFRAME ISTACK, 2, STACK
        LOCFRAME PSTACK, 0, STACK
        LOCFRAME XSTACK, 0, STACK
        LOCFRAME IOVERLAY, 0, STATIC
        LOCFRAME DOVERLAY, 0, STATIC
        ARGFRAME ISTACK, 2, STACK
        ARGFRAME PSTACK, 0, STACK
        ARGFRAME XSTACK, 0, STACK
        ARGFRAME IOVERLAY, 0, STATIC
        ARGFRAME DOVERLAY, 0, STATIC
        FUNCALL ZDApp_DeviceAuthEvt, NLME_SetPollRate
        LOCFRAME ISTACK, 2, STACK
        LOCFRAME PSTACK, 0, STACK
        LOCFRAME XSTACK, 0, STACK
        LOCFRAME IOVERLAY, 0, STATIC
        LOCFRAME DOVERLAY, 0, STATIC
        ARGFRAME ISTACK, 2, STACK
        ARGFRAME PSTACK, 0, STACK
        ARGFRAME XSTACK, 0, STACK
        ARGFRAME IOVERLAY, 0, STATIC
        ARGFRAME DOVERLAY, 0, STATIC
        PUSH    DPL
        CFI DPL0 Frame(CFA_SP, 4)
        CFI CFA_SP SP+-4
        PUSH    DPH
        CFI DPH0 Frame(CFA_SP, 5)
        CFI CFA_SP SP+-5
        ; Saved register size: 2
        ; Auto size: 0
//  814   // received authentication from trust center
//  815   if ( devState == DEV_END_DEVICE_UNAUTH )
        MOV     DPTR,#devState
        MOVX    A,@DPTR
        XRL     A,#0x5
        JNZ     ??ZDApp_DeviceAuthEvt_0
//  816   {
//  817     // Stop the reset timer so it doesn't reset
//  818     ZDApp_ResetTimerCancel();
        ; Setup parameters for call to function ZDApp_ResetTimerCancel
        LCALL   ??ZDApp_ResetTimerCancel?relay
//  819 
//  820     devState = DEV_END_DEVICE;
        LCALL   ?Subroutine9 & 0xFFFF
//  821     osal_set_event( ZDAppTaskID, ZDO_STATE_CHANGE_EVT );
//  822 
//  823     // Set the Power Manager Device
//  824 #if defined ( POWER_SAVING )
//  825     osal_pwrmgr_device( PWRMGR_BATTERY );
//  826 #endif
//  827 
//  828     if ( ZSTACK_ROUTER_BUILD )
//  829     {
//  830       if ( ZDO_Config_Node_Descriptor.LogicalType != NODETYPE_DEVICE )
//  831       {
//  832         // NOTE: first two parameters are not used, see NLMEDE.h for details
//  833         NLME_StartRouterRequest( 0, 0, false );
//  834       }
//  835     }
//  836 
//  837     // Notify to save info into NV
//  838     ZDApp_NVUpdate();
//  839 
//  840     // Save off the security
//  841     ZDApp_SaveNwkKey();
??CrossCallReturnLabel_58:
        ; Setup parameters for call to function ZDApp_SaveNwkKey
        LCALL   ??ZDApp_SaveNwkKey?relay
//  842 
//  843     ZDApp_AnnounceNewAddress();
        ; Setup parameters for call to function ZDApp_AnnounceNewAddress
        LCALL   ??ZDApp_AnnounceNewAddress?relay
//  844 
//  845     if ( (ZDO_Config_Node_Descriptor.CapabilityFlags & CAPINFO_RCVR_ON_IDLE) == 0 )
        MOV     DPTR,#ZDO_Config_Node_Descriptor + 2
        MOVX    A,@DPTR
        MOV     C,0xE0 /* A   */.3
        JC      ??ZDApp_DeviceAuthEvt_0
//  846     {
//  847       NLME_SetPollRate( ZDApp_SavedPollRate );
        ; Setup parameters for call to function NLME_SetPollRate
        MOV     DPTR,#ZDApp_SavedPollRate
        MOVX    A,@DPTR
        MOV     R2,A
        INC     DPTR
        MOVX    A,@DPTR
        MOV     R3,A
        LCALL   ??NLME_SetPollRate?relay
//  848     }
//  849   }
//  850   else
//  851   {
//  852     ZDApp_NVUpdate();
//  853   }
//  854 }
??ZDApp_DeviceAuthEvt_0:
        LJMP    ?Subroutine2 & 0xFFFF
        CFI EndBlock cfiBlock23

        RSEG BANKED_CODE:CODE:NOROOT(0)
?Subroutine9:
        CFI Block cfiCond24 Using cfiCommon0
        CFI NoFunction
        CFI Conditional ??CrossCallReturnLabel_58
        CFI DPL0 Frame(CFA_SP, 4)
        CFI DPH0 Frame(CFA_SP, 5)
        CFI CFA_SP SP+-5
        CFI Block cfiCond25 Using cfiCommon0
        CFI (cfiCond25) NoFunction
        CFI (cfiCond25) Conditional ??CrossCallReturnLabel_59
        CFI (cfiCond25) R6 load(1, XDATA, add(CFA_XSP16, literal(-10)))
        CFI (cfiCond25) VB load(1, XDATA, add(CFA_XSP16, literal(-9)))
        CFI (cfiCond25) V0 load(1, XDATA, add(CFA_XSP16, literal(-8)))
        CFI (cfiCond25) V1 load(1, XDATA, add(CFA_XSP16, literal(-7)))
        CFI (cfiCond25) R7 load(1, XDATA, add(CFA_XSP16, literal(-6)))
        CFI (cfiCond25) ?RET_LOW load(1, XDATA, add(CFA_XSP16, literal(-5)))
        CFI (cfiCond25) ?RET_HIGH load(1, XDATA, add(CFA_XSP16, literal(-4)))
        CFI (cfiCond25) ?BRET_EXT load(1, XDATA, add(CFA_XSP16, literal(-3)))
        CFI (cfiCond25) DPL0 load(1, XDATA, add(CFA_XSP16, literal(-2)))
        CFI (cfiCond25) DPH0 load(1, XDATA, add(CFA_XSP16, literal(-1)))
        CFI (cfiCond25) CFA_SP SP+0
        CFI (cfiCond25) CFA_XSP16 add(XSP16, 12)
        CFI Block cfiPicker26 Using cfiCommon1
        CFI (cfiPicker26) NoFunction
        CFI (cfiPicker26) Picker
        MOV     DPTR,#devState
        MOV     A,#0x6
        CFI EndBlock cfiCond24
        CFI EndBlock cfiCond25
        CFI EndBlock cfiPicker26
        REQUIRE ??Subroutine41_0
        ; // Fall through to label ??Subroutine41_0

        RSEG BANKED_CODE:CODE:NOROOT(0)
??Subroutine41_0:
        CFI Block cfiCond27 Using cfiCommon0
        CFI NoFunction
        CFI Conditional ??CrossCallReturnLabel_60
        CFI R6 load(1, XDATA, add(CFA_XSP16, literal(-10)))
        CFI VB load(1, XDATA, add(CFA_XSP16, literal(-9)))
        CFI V0 load(1, XDATA, add(CFA_XSP16, literal(-8)))
        CFI V1 load(1, XDATA, add(CFA_XSP16, literal(-7)))
        CFI R7 load(1, XDATA, add(CFA_XSP16, literal(-6)))
        CFI ?RET_LOW load(1, XDATA, add(CFA_XSP16, literal(-5)))
        CFI ?RET_HIGH load(1, XDATA, add(CFA_XSP16, literal(-4)))
        CFI ?BRET_EXT load(1, XDATA, add(CFA_XSP16, literal(-3)))
        CFI DPL0 load(1, XDATA, add(CFA_XSP16, literal(-2)))
        CFI DPH0 load(1, XDATA, add(CFA_XSP16, literal(-1)))
        CFI CFA_SP SP+0
        CFI CFA_XSP16 add(XSP16, 10)
        CFI Block cfiCond28 Using cfiCommon0
        CFI (cfiCond28) NoFunction
        CFI (cfiCond28) Conditional ??CrossCallReturnLabel_58
        CFI (cfiCond28) DPL0 Frame(CFA_SP, 4)
        CFI (cfiCond28) DPH0 Frame(CFA_SP, 5)
        CFI (cfiCond28) CFA_SP SP+-5
        CFI Block cfiCond29 Using cfiCommon0
        CFI (cfiCond29) NoFunction
        CFI (cfiCond29) Conditional ??CrossCallReturnLabel_59
        CFI (cfiCond29) R6 load(1, XDATA, add(CFA_XSP16, literal(-10)))
        CFI (cfiCond29) VB load(1, XDATA, add(CFA_XSP16, literal(-9)))
        CFI (cfiCond29) V0 load(1, XDATA, add(CFA_XSP16, literal(-8)))
        CFI (cfiCond29) V1 load(1, XDATA, add(CFA_XSP16, literal(-7)))
        CFI (cfiCond29) R7 load(1, XDATA, add(CFA_XSP16, literal(-6)))
        CFI (cfiCond29) ?RET_LOW load(1, XDATA, add(CFA_XSP16, literal(-5)))
        CFI (cfiCond29) ?RET_HIGH load(1, XDATA, add(CFA_XSP16, literal(-4)))
        CFI (cfiCond29) ?BRET_EXT load(1, XDATA, add(CFA_XSP16, literal(-3)))
        CFI (cfiCond29) DPL0 load(1, XDATA, add(CFA_XSP16, literal(-2)))
        CFI (cfiCond29) DPH0 load(1, XDATA, add(CFA_XSP16, literal(-1)))
        CFI (cfiCond29) CFA_SP SP+0
        CFI (cfiCond29) CFA_XSP16 add(XSP16, 12)
        CFI Block cfiPicker30 Using cfiCommon1
        CFI (cfiPicker30) NoFunction
        CFI (cfiPicker30) Picker
        MOVX    @DPTR,A
        ; Setup parameters for call to function osal_set_event
        ; Setup parameters for call to function osal_set_event
        ; Setup parameters for call to function osal_set_event
        MOV     R2,#0x10
        MOV     R3,#0x0
        MOV     DPTR,#ZDAppTaskID
        MOVX    A,@DPTR
        MOV     R1,A
        LCALL   ??osal_set_event?relay
        RET
        CFI EndBlock cfiCond27
        CFI EndBlock cfiCond28
        CFI EndBlock cfiCond29
        CFI EndBlock cfiPicker30
//  855 
//  856 /*********************************************************************
//  857  * @fn      ZDApp_SaveNetworkStateEvt()
//  858  *
//  859  * @brief   Process the Save the Network State Event
//  860  *
//  861  * @param   none
//  862  *
//  863  * @return  none
//  864  */

        RSEG BANKED_CODE:CODE:NOROOT(0)
//  865 void ZDApp_SaveNetworkStateEvt( void )
ZDApp_SaveNetworkStateEvt:
        CFI Block cfiBlock31 Using cfiCommon0
        CFI Function ZDApp_SaveNetworkStateEvt
        CODE
//  866 {
        ; Saved register size: 0
        ; Auto size: 0
//  867 #if defined ( NV_RESTORE )
//  868  #if defined ( NV_TURN_OFF_RADIO )
//  869   // Turn off the radio's receiver during an NV update
//  870   uint8 RxOnIdle;
//  871   uint8 x = false;
//  872   ZMacGetReq( ZMacRxOnIdle, &RxOnIdle );
//  873   ZMacSetReq( ZMacRxOnIdle, &x );
//  874  #endif
//  875 
//  876   // Update the Network State in NV
//  877   NLME_UpdateNV( NWK_NV_NIB_ENABLE        |
//  878                  NWK_NV_DEVICELIST_ENABLE |
//  879                  NWK_NV_BINDING_ENABLE    |
//  880                  NWK_NV_ADDRMGR_ENABLE );
//  881 
//  882   // Reset the NV startup option to resume from NV by
//  883   // clearing the "New" join option.
//  884   zgWriteStartupOptions( FALSE, ZCD_STARTOPT_DEFAULT_NETWORK_STATE );
//  885 
//  886  #if defined ( NV_TURN_OFF_RADIO )
//  887   ZMacSetReq( ZMacRxOnIdle, &RxOnIdle );
//  888  #endif
//  889 #endif  // NV_RESTORE
//  890 }
        LJMP    ?BRET
        CFI EndBlock cfiBlock31
//  891 
//  892 /*********************************************************************
//  893  * @fn      ZDApp_RestoreNetworkState()
//  894  *
//  895  * @brief   This function will restore the network state of the
//  896  *          device if the network state is stored in NV.
//  897  *
//  898  * @param   none
//  899  *
//  900  * @return
//  901  *    ZDO_INITDEV_RESTORED_NETWORK_STATE  - The device's network state was
//  902  *          restored.
//  903  *    ZDO_INITDEV_NEW_NETWORK_STATE - The network state was not used.
//  904  *          This could mean that zgStartupOption said to not restore, or
//  905  *          it could mean that there was no network state to restore.
//  906  *
//  907  */

        RSEG BANKED_CODE:CODE:NOROOT(0)
//  908 uint8 ZDApp_RestoreNetworkState( void )
ZDApp_RestoreNetworkState:
        CFI Block cfiBlock32 Using cfiCommon0
        CFI Function ZDApp_RestoreNetworkState
        CODE
//  909 {
        FUNCALL ZDApp_RestoreNetworkState, NLME_InitNV
        LOCFRAME ISTACK, 0, STACK
        LOCFRAME PSTACK, 0, STACK
        LOCFRAME XSTACK, 9, STACK
        LOCFRAME IOVERLAY, 0, STATIC
        LOCFRAME DOVERLAY, 0, STATIC
        ARGFRAME ISTACK, 0, STACK
        ARGFRAME PSTACK, 0, STACK
        ARGFRAME XSTACK, 9, STACK
        ARGFRAME IOVERLAY, 0, STATIC
        ARGFRAME DOVERLAY, 0, STATIC
        FUNCALL ZDApp_RestoreNetworkState, NLME_RestoreFromNV
        LOCFRAME ISTACK, 0, STACK
        LOCFRAME PSTACK, 0, STACK
        LOCFRAME XSTACK, 9, STACK
        LOCFRAME IOVERLAY, 0, STATIC
        LOCFRAME DOVERLAY, 0, STATIC
        ARGFRAME ISTACK, 0, STACK
        ARGFRAME PSTACK, 0, STACK
        ARGFRAME XSTACK, 9, STACK
        ARGFRAME IOVERLAY, 0, STATIC
        ARGFRAME DOVERLAY, 0, STATIC
        FUNCALL ZDApp_RestoreNetworkState, NLME_GetShortAddr
        LOCFRAME ISTACK, 0, STACK
        LOCFRAME PSTACK, 0, STACK
        LOCFRAME XSTACK, 9, STACK
        LOCFRAME IOVERLAY, 0, STATIC
        LOCFRAME DOVERLAY, 0, STATIC
        ARGFRAME ISTACK, 0, STACK
        ARGFRAME PSTACK, 0, STACK
        ARGFRAME XSTACK, 9, STACK
        ARGFRAME IOVERLAY, 0, STATIC
        ARGFRAME DOVERLAY, 0, STATIC
        FUNCALL ZDApp_RestoreNetworkState, sAddrExtCpy
        LOCFRAME ISTACK, 0, STACK
        LOCFRAME PSTACK, 0, STACK
        LOCFRAME XSTACK, 9, STACK
        LOCFRAME IOVERLAY, 0, STATIC
        LOCFRAME DOVERLAY, 0, STATIC
        ARGFRAME ISTACK, 0, STACK
        ARGFRAME PSTACK, 0, STACK
        ARGFRAME XSTACK, 9, STACK
        ARGFRAME IOVERLAY, 0, STATIC
        ARGFRAME DOVERLAY, 0, STATIC
        MOV     A,#-0x9
        LCALL   ?BANKED_ENTER_XDATA
        CFI DPH0 load(1, XDATA, add(CFA_XSP16, literal(-1)))
        CFI DPL0 load(1, XDATA, add(CFA_XSP16, literal(-2)))
        CFI ?BRET_EXT load(1, XDATA, add(CFA_XSP16, literal(-3)))
        CFI ?RET_HIGH load(1, XDATA, add(CFA_XSP16, literal(-4)))
        CFI ?RET_LOW load(1, XDATA, add(CFA_XSP16, literal(-5)))
        CFI R7 load(1, XDATA, add(CFA_XSP16, literal(-6)))
        CFI V0 load(1, XDATA, add(CFA_XSP16, literal(-7)))
        CFI VB load(1, XDATA, add(CFA_XSP16, literal(-8)))
        CFI R6 load(1, XDATA, add(CFA_XSP16, literal(-9)))
        CFI CFA_SP SP+0
        CFI CFA_XSP16 add(XSP16, 9)
        ; Saved register size: 9
        ; Auto size: 0
//  910   uint8 nvStat;
//  911 
//  912   // Initialize NWK NV items
//  913   nvStat = NLME_InitNV();
        ; Setup parameters for call to function NLME_InitNV
        LCALL   ??NLME_InitNV?relay
        MOV     A,R1
        MOV     R6,A
//  914 
//  915   if ( nvStat != NV_OPER_FAILED )
        MOV     A,#0xa
        XRL     A,R6
        JZ      ??ZDApp_RestoreNetworkState_0
//  916   {
//  917     if ( NLME_RestoreFromNV() )
        ; Setup parameters for call to function NLME_RestoreFromNV
        LCALL   ??NLME_RestoreFromNV?relay
        MOV     A,R1
        JZ      ??ZDApp_RestoreNetworkState_0
//  918     {
//  919       // Are we a coordinator
//  920       ZDAppNwkAddr.addr.shortAddr = NLME_GetShortAddr();
        ; Setup parameters for call to function NLME_GetShortAddr
        LCALL   ??NLME_GetShortAddr?relay
        MOV     DPTR,#ZDAppNwkAddr
        LCALL   ??Subroutine58_0 & 0xFFFF
//  921       if ( ZDAppNwkAddr.addr.shortAddr == 0 )
??CrossCallReturnLabel_110:
        MOV     DPTR,#ZDAppNwkAddr
        LCALL   ?Subroutine16 & 0xFFFF
??CrossCallReturnLabel_10:
        JNZ     ??ZDApp_RestoreNetworkState_1
//  922         ZDO_Config_Node_Descriptor.LogicalType = NODETYPE_COORDINATOR;
        MOV     DPTR,#ZDO_Config_Node_Descriptor
        MOVX    A,@DPTR
        ANL     A,#0xf8
        MOVX    @DPTR,A
//  923       devStartMode = MODE_RESUME;
??ZDApp_RestoreNetworkState_1:
        MOV     DPTR,#devStartMode
        MOV     A,#0x1
        LCALL   ?Subroutine11 & 0xFFFF
//  924       osal_cpyExtAddr( ZDO_UseExtendedPANID, _NIB.extendedPANID );
//  925     }
//  926     else
//  927       nvStat = NV_ITEM_UNINIT;
//  928 
//  929     if ( ZG_SECURE_ENABLED )
//  930     {
//  931       nwkFrameCounterChanges = 0;
//  932 
//  933       if ( ZG_BUILD_COORDINATOR_TYPE && ZG_DEVICE_COORDINATOR_TYPE )
//  934       {
//  935         ZDApp_RestoreNwkKey();
//  936       }
//  937     }
//  938 
//  939     // The default for RxOnWhenIdle is true for Routers and false for end devices
//  940     // [setup in the NLME_RestoreFromNV()].  Change it here if you want something
//  941     // other than default.
//  942   }
//  943 
//  944   if ( nvStat == ZSUCCESS )
??CrossCallReturnLabel_2:
        MOV     A,R6
        JNZ     ??ZDApp_RestoreNetworkState_0
//  945     return ( ZDO_INITDEV_RESTORED_NETWORK_STATE );
        MOV     R1,#0x0
        SJMP    ??ZDApp_RestoreNetworkState_2
//  946   else
//  947     return ( ZDO_INITDEV_NEW_NETWORK_STATE );
??ZDApp_RestoreNetworkState_0:
        MOV     R1,#0x1
??ZDApp_RestoreNetworkState_2:
        LJMP    ??Subroutine48_0 & 0xFFFF
        CFI EndBlock cfiBlock32
//  948 }
//  949 
//  950 /*********************************************************************
//  951  * @fn      ZDApp_InitUserDesc()
//  952  *
//  953  * @brief   Initialize the User Descriptor, the descriptor is read from NV
//  954  *          when needed.  If you want to initialize the User descriptor to
//  955  *          something other than all zero, do it here.
//  956  *
//  957  * @param   none
//  958  *
//  959  * @return  none
//  960  */

        RSEG BANKED_CODE:CODE:NOROOT(0)
//  961 void ZDApp_InitUserDesc( void )
ZDApp_InitUserDesc:
        CFI Block cfiBlock33 Using cfiCommon0
        CFI Function ZDApp_InitUserDesc
        CODE
//  962 {
        FUNCALL ZDApp_InitUserDesc, osal_memset
        LOCFRAME ISTACK, 0, STACK
        LOCFRAME PSTACK, 0, STACK
        LOCFRAME XSTACK, 27, STACK
        LOCFRAME IOVERLAY, 0, STATIC
        LOCFRAME DOVERLAY, 0, STATIC
        ARGFRAME ISTACK, 0, STACK
        ARGFRAME PSTACK, 0, STACK
        ARGFRAME XSTACK, 27, STACK
        ARGFRAME IOVERLAY, 0, STATIC
        ARGFRAME DOVERLAY, 0, STATIC
        FUNCALL ZDApp_InitUserDesc, osal_nv_item_init
        LOCFRAME ISTACK, 0, STACK
        LOCFRAME PSTACK, 0, STACK
        LOCFRAME XSTACK, 29, STACK
        LOCFRAME IOVERLAY, 0, STATIC
        LOCFRAME DOVERLAY, 0, STATIC
        ARGFRAME ISTACK, 0, STACK
        ARGFRAME PSTACK, 0, STACK
        ARGFRAME XSTACK, 29, STACK
        ARGFRAME IOVERLAY, 0, STATIC
        ARGFRAME DOVERLAY, 0, STATIC
        FUNCALL ZDApp_InitUserDesc, osal_nv_read
        LOCFRAME ISTACK, 0, STACK
        LOCFRAME PSTACK, 0, STACK
        LOCFRAME XSTACK, 31, STACK
        LOCFRAME IOVERLAY, 0, STATIC
        LOCFRAME DOVERLAY, 0, STATIC
        ARGFRAME ISTACK, 0, STACK
        ARGFRAME PSTACK, 0, STACK
        ARGFRAME XSTACK, 31, STACK
        ARGFRAME IOVERLAY, 0, STATIC
        ARGFRAME DOVERLAY, 0, STATIC
        MOV     A,#-0xa
        LCALL   ?BANKED_ENTER_XDATA
        CFI DPH0 load(1, XDATA, add(CFA_XSP16, literal(-1)))
        CFI DPL0 load(1, XDATA, add(CFA_XSP16, literal(-2)))
        CFI ?BRET_EXT load(1, XDATA, add(CFA_XSP16, literal(-3)))
        CFI ?RET_HIGH load(1, XDATA, add(CFA_XSP16, literal(-4)))
        CFI ?RET_LOW load(1, XDATA, add(CFA_XSP16, literal(-5)))
        CFI R7 load(1, XDATA, add(CFA_XSP16, literal(-6)))
        CFI V1 load(1, XDATA, add(CFA_XSP16, literal(-7)))
        CFI V0 load(1, XDATA, add(CFA_XSP16, literal(-8)))
        CFI VB load(1, XDATA, add(CFA_XSP16, literal(-9)))
        CFI R6 load(1, XDATA, add(CFA_XSP16, literal(-10)))
        CFI CFA_SP SP+0
        CFI CFA_XSP16 add(XSP16, 10)
        ; Saved register size: 10
        ; Auto size: 17
        MOV     A,#-0x11
        LCALL   ?ALLOC_XSTACK8
        CFI CFA_XSP16 add(XSP16, 27)
//  963   UserDescriptorFormat_t ZDO_DefaultUserDescriptor;
//  964 
//  965   // Initialize the User Descriptor, the descriptor is read from NV
//  966   // when needed.  If you want to initialize the User descriptor to something
//  967   // other than all zero, do it here.
//  968   osal_memset( &ZDO_DefaultUserDescriptor, 0, sizeof( UserDescriptorFormat_t ) );
        ; Setup parameters for call to function osal_memset
        MOV     R4,#0x11
        LCALL   ?Subroutine32 & 0xFFFF
//  969   if ( ZSUCCESS == osal_nv_item_init( ZCD_NV_USERDESC,
//  970          sizeof(UserDescriptorFormat_t), (void*)&ZDO_DefaultUserDescriptor ) )
??CrossCallReturnLabel_36:
        LCALL   ?PUSH_XSTACK_I_TWO
        CFI CFA_XSP16 add(XSP16, 29)
        MOV     R4,#0x11
        MOV     R5,#0x0
        MOV     R2,#-0x7f
        MOV     R3,#0x0
        LCALL   ??osal_nv_item_init?relay
        MOV     A,#0x2
        LCALL   ?DEALLOC_XSTACK8
        CFI CFA_XSP16 add(XSP16, 27)
        MOV     A,R1
        JNZ     ??ZDApp_InitUserDesc_0
//  971   {
//  972     if ( ZSUCCESS == osal_nv_read( ZCD_NV_USERDESC, 0,
//  973          sizeof(UserDescriptorFormat_t), (void*)&ZDO_DefaultUserDescriptor ) )
        ; Setup parameters for call to function osal_nv_read
        MOV     R0,#?V0 + 0
        LCALL   ?PUSH_XSTACK_I_TWO
        CFI CFA_XSP16 add(XSP16, 29)
        MOV     ?V0 + 0,#0x11
        MOV     ?V0 + 1,#0x0
        MOV     R0,#?V0 + 0
        LCALL   ?PUSH_XSTACK_I_TWO
        CFI CFA_XSP16 add(XSP16, 31)
        MOV     R4,#0x0
        MOV     R5,#0x0
        MOV     R2,#-0x7f
        LCALL   ?Subroutine34 & 0xFFFF
??CrossCallReturnLabel_38:
        LCALL   ?DEALLOC_XSTACK8
        CFI CFA_XSP16 add(XSP16, 27)
        MOV     A,R1
        JNZ     ??ZDApp_InitUserDesc_0
//  974     {
//  975       if ( ZDO_DefaultUserDescriptor.len != 0 )
        MOV     DPL,?XSP + 0
        MOV     DPH,?XSP + 1
        MOVX    A,@DPTR
        JZ      ??ZDApp_InitUserDesc_0
//  976       {
//  977         ZDO_Config_Node_Descriptor.UserDescAvail = TRUE;
        MOV     DPTR,#ZDO_Config_Node_Descriptor
        MOVX    A,@DPTR
        SETB    0xE0 /* A   */.4
        MOVX    @DPTR,A
//  978       }
//  979     }
//  980   }
//  981 }
??ZDApp_InitUserDesc_0:
        MOV     A,#0x11
        LJMP    ??Subroutine45_0 & 0xFFFF
        CFI EndBlock cfiBlock33
//  982 
//  983 /*********************************************************************
//  984  * @fn      ZDAppCheckForHoldKey()
//  985  *
//  986  * @brief   Check for key to set the device into Hold Auto Start
//  987  *
//  988  * @param   none
//  989  *
//  990  * @return  none
//  991  */

        RSEG BANKED_CODE:CODE:NOROOT(0)
//  992 void ZDAppCheckForHoldKey( void )
ZDAppCheckForHoldKey:
        CFI Block cfiBlock34 Using cfiCommon0
        CFI Function ZDAppCheckForHoldKey
        CODE
//  993 {
        ; Saved register size: 0
        ; Auto size: 0
//  994 #if (defined HAL_KEY) && (HAL_KEY == TRUE)
//  995   // Get Keypad directly to see if a HOLD_START is needed.
//  996   // Hold down the SW_BYPASS_START key (see OnBoard.h)
//  997   // while booting to avoid starting up the device.
//  998   if ( HalKeyRead () == SW_BYPASS_START)
//  999   {
// 1000     // Change the device state to HOLD on start up
// 1001     devState = DEV_HOLD;
// 1002   }
// 1003 #endif // HAL_KEY
// 1004 }
        LJMP    ?BRET
        CFI EndBlock cfiBlock34
// 1005 
// 1006 /*********************************************************************
// 1007  * @fn      ZDApp_ProcessOSALMsg()
// 1008  *
// 1009  * @brief   Process the incoming task message.
// 1010  *
// 1011  * @param   msgPtr - message to process
// 1012  *
// 1013  * @return  none
// 1014  */

        RSEG BANKED_CODE:CODE:NOROOT(0)
// 1015 void ZDApp_ProcessOSALMsg( osal_event_hdr_t *msgPtr )
ZDApp_ProcessOSALMsg:
        CFI Block cfiBlock35 Using cfiCommon0
        CFI Function ZDApp_ProcessOSALMsg
        CODE
// 1016 {
        FUNCALL ZDApp_ProcessOSALMsg, ZDP_IncomingData
        LOCFRAME ISTACK, 0, STACK
        LOCFRAME PSTACK, 0, STACK
        LOCFRAME XSTACK, 11, STACK
        LOCFRAME IOVERLAY, 0, STATIC
        LOCFRAME DOVERLAY, 0, STATIC
        ARGFRAME ISTACK, 0, STACK
        ARGFRAME PSTACK, 0, STACK
        ARGFRAME XSTACK, 11, STACK
        ARGFRAME IOVERLAY, 0, STATIC
        ARGFRAME DOVERLAY, 0, STATIC
        FUNCALL ZDApp_ProcessOSALMsg, ZDApp_ProcessMsgCBs
        LOCFRAME ISTACK, 0, STACK
        LOCFRAME PSTACK, 0, STACK
        LOCFRAME XSTACK, 11, STACK
        LOCFRAME IOVERLAY, 0, STATIC
        LOCFRAME DOVERLAY, 0, STATIC
        ARGFRAME ISTACK, 0, STACK
        ARGFRAME PSTACK, 0, STACK
        ARGFRAME XSTACK, 11, STACK
        ARGFRAME IOVERLAY, 0, STATIC
        ARGFRAME DOVERLAY, 0, STATIC
        FUNCALL ZDApp_ProcessOSALMsg, ZDApp_NwkDescListProcessing
        LOCFRAME ISTACK, 0, STACK
        LOCFRAME PSTACK, 0, STACK
        LOCFRAME XSTACK, 11, STACK
        LOCFRAME IOVERLAY, 0, STATIC
        LOCFRAME DOVERLAY, 0, STATIC
        ARGFRAME ISTACK, 0, STACK
        ARGFRAME PSTACK, 0, STACK
        ARGFRAME XSTACK, 11, STACK
        ARGFRAME IOVERLAY, 0, STATIC
        ARGFRAME DOVERLAY, 0, STATIC
        FUNCALL ZDApp_ProcessOSALMsg, ZDApp_NodeProfileSync
        LOCFRAME ISTACK, 0, STACK
        LOCFRAME PSTACK, 0, STACK
        LOCFRAME XSTACK, 11, STACK
        LOCFRAME IOVERLAY, 0, STATIC
        LOCFRAME DOVERLAY, 0, STATIC
        ARGFRAME ISTACK, 0, STACK
        ARGFRAME PSTACK, 0, STACK
        ARGFRAME XSTACK, 11, STACK
        ARGFRAME IOVERLAY, 0, STATIC
        ARGFRAME DOVERLAY, 0, STATIC
        FUNCALL ZDApp_ProcessOSALMsg, NLME_JoinRequest
        LOCFRAME ISTACK, 0, STACK
        LOCFRAME PSTACK, 0, STACK
        LOCFRAME XSTACK, 15, STACK
        LOCFRAME IOVERLAY, 0, STATIC
        LOCFRAME DOVERLAY, 0, STATIC
        ARGFRAME ISTACK, 0, STACK
        ARGFRAME PSTACK, 0, STACK
        ARGFRAME XSTACK, 15, STACK
        ARGFRAME IOVERLAY, 0, STATIC
        ARGFRAME DOVERLAY, 0, STATIC
        FUNCALL ZDApp_ProcessOSALMsg, osal_rand
        LOCFRAME ISTACK, 0, STACK
        LOCFRAME PSTACK, 0, STACK
        LOCFRAME XSTACK, 11, STACK
        LOCFRAME IOVERLAY, 0, STATIC
        LOCFRAME DOVERLAY, 0, STATIC
        ARGFRAME ISTACK, 0, STACK
        ARGFRAME PSTACK, 0, STACK
        ARGFRAME XSTACK, 11, STACK
        ARGFRAME IOVERLAY, 0, STATIC
        ARGFRAME DOVERLAY, 0, STATIC
        FUNCALL ZDApp_ProcessOSALMsg, ZDApp_NetworkInit
        LOCFRAME ISTACK, 0, STACK
        LOCFRAME PSTACK, 0, STACK
        LOCFRAME XSTACK, 11, STACK
        LOCFRAME IOVERLAY, 0, STATIC
        LOCFRAME DOVERLAY, 0, STATIC
        ARGFRAME ISTACK, 0, STACK
        ARGFRAME PSTACK, 0, STACK
        ARGFRAME XSTACK, 11, STACK
        ARGFRAME IOVERLAY, 0, STATIC
        ARGFRAME DOVERLAY, 0, STATIC
        FUNCALL ZDApp_ProcessOSALMsg, osal_rand
        LOCFRAME ISTACK, 0, STACK
        LOCFRAME PSTACK, 0, STACK
        LOCFRAME XSTACK, 11, STACK
        LOCFRAME IOVERLAY, 0, STATIC
        LOCFRAME DOVERLAY, 0, STATIC
        ARGFRAME ISTACK, 0, STACK
        ARGFRAME PSTACK, 0, STACK
        ARGFRAME XSTACK, 11, STACK
        ARGFRAME IOVERLAY, 0, STATIC
        ARGFRAME DOVERLAY, 0, STATIC
        FUNCALL ZDApp_ProcessOSALMsg, ZMacSetReq
        LOCFRAME ISTACK, 0, STACK
        LOCFRAME PSTACK, 0, STACK
        LOCFRAME XSTACK, 11, STACK
        LOCFRAME IOVERLAY, 0, STATIC
        LOCFRAME DOVERLAY, 0, STATIC
        ARGFRAME ISTACK, 0, STACK
        ARGFRAME PSTACK, 0, STACK
        ARGFRAME XSTACK, 11, STACK
        ARGFRAME IOVERLAY, 0, STATIC
        ARGFRAME DOVERLAY, 0, STATIC
        FUNCALL ZDApp_ProcessOSALMsg, ZMacSetReq
        LOCFRAME ISTACK, 0, STACK
        LOCFRAME PSTACK, 0, STACK
        LOCFRAME XSTACK, 11, STACK
        LOCFRAME IOVERLAY, 0, STATIC
        LOCFRAME DOVERLAY, 0, STATIC
        ARGFRAME ISTACK, 0, STACK
        ARGFRAME PSTACK, 0, STACK
        ARGFRAME XSTACK, 11, STACK
        ARGFRAME IOVERLAY, 0, STATIC
        ARGFRAME DOVERLAY, 0, STATIC
        FUNCALL ZDApp_ProcessOSALMsg, ZMacSetReq
        LOCFRAME ISTACK, 0, STACK
        LOCFRAME PSTACK, 0, STACK
        LOCFRAME XSTACK, 11, STACK
        LOCFRAME IOVERLAY, 0, STATIC
        LOCFRAME DOVERLAY, 0, STATIC
        ARGFRAME ISTACK, 0, STACK
        ARGFRAME PSTACK, 0, STACK
        ARGFRAME XSTACK, 11, STACK
        ARGFRAME IOVERLAY, 0, STATIC
        ARGFRAME DOVERLAY, 0, STATIC
        FUNCALL ZDApp_ProcessOSALMsg, NLME_ReJoinRequest
        LOCFRAME ISTACK, 0, STACK
        LOCFRAME PSTACK, 0, STACK
        LOCFRAME XSTACK, 11, STACK
        LOCFRAME IOVERLAY, 0, STATIC
        LOCFRAME DOVERLAY, 0, STATIC
        ARGFRAME ISTACK, 0, STACK
        ARGFRAME PSTACK, 0, STACK
        ARGFRAME XSTACK, 11, STACK
        ARGFRAME IOVERLAY, 0, STATIC
        ARGFRAME DOVERLAY, 0, STATIC
        FUNCALL ZDApp_ProcessOSALMsg, osal_rand
        LOCFRAME ISTACK, 0, STACK
        LOCFRAME PSTACK, 0, STACK
        LOCFRAME XSTACK, 11, STACK
        LOCFRAME IOVERLAY, 0, STATIC
        LOCFRAME DOVERLAY, 0, STATIC
        ARGFRAME ISTACK, 0, STACK
        ARGFRAME PSTACK, 0, STACK
        ARGFRAME XSTACK, 11, STACK
        ARGFRAME IOVERLAY, 0, STATIC
        ARGFRAME DOVERLAY, 0, STATIC
        FUNCALL ZDApp_ProcessOSALMsg, ZDApp_NetworkInit
        LOCFRAME ISTACK, 0, STACK
        LOCFRAME PSTACK, 0, STACK
        LOCFRAME XSTACK, 11, STACK
        LOCFRAME IOVERLAY, 0, STATIC
        LOCFRAME DOVERLAY, 0, STATIC
        ARGFRAME ISTACK, 0, STACK
        ARGFRAME PSTACK, 0, STACK
        ARGFRAME XSTACK, 11, STACK
        ARGFRAME IOVERLAY, 0, STATIC
        ARGFRAME DOVERLAY, 0, STATIC
        FUNCALL ZDApp_ProcessOSALMsg, NLME_SetPollRate
        LOCFRAME ISTACK, 0, STACK
        LOCFRAME PSTACK, 0, STACK
        LOCFRAME XSTACK, 11, STACK
        LOCFRAME IOVERLAY, 0, STATIC
        LOCFRAME DOVERLAY, 0, STATIC
        ARGFRAME ISTACK, 0, STACK
        ARGFRAME PSTACK, 0, STACK
        ARGFRAME XSTACK, 11, STACK
        ARGFRAME IOVERLAY, 0, STATIC
        ARGFRAME DOVERLAY, 0, STATIC
        FUNCALL ZDApp_ProcessOSALMsg, NLME_SetQueuedPollRate
        LOCFRAME ISTACK, 0, STACK
        LOCFRAME PSTACK, 0, STACK
        LOCFRAME XSTACK, 11, STACK
        LOCFRAME IOVERLAY, 0, STATIC
        LOCFRAME DOVERLAY, 0, STATIC
        ARGFRAME ISTACK, 0, STACK
        ARGFRAME PSTACK, 0, STACK
        ARGFRAME XSTACK, 11, STACK
        ARGFRAME IOVERLAY, 0, STATIC
        ARGFRAME DOVERLAY, 0, STATIC
        FUNCALL ZDApp_ProcessOSALMsg, NLME_SetResponseRate
        LOCFRAME ISTACK, 0, STACK
        LOCFRAME PSTACK, 0, STACK
        LOCFRAME XSTACK, 11, STACK
        LOCFRAME IOVERLAY, 0, STATIC
        LOCFRAME DOVERLAY, 0, STATIC
        ARGFRAME ISTACK, 0, STACK
        ARGFRAME PSTACK, 0, STACK
        ARGFRAME XSTACK, 11, STACK
        ARGFRAME IOVERLAY, 0, STATIC
        ARGFRAME DOVERLAY, 0, STATIC
        FUNCALL ZDApp_ProcessOSALMsg, osal_rand
        LOCFRAME ISTACK, 0, STACK
        LOCFRAME PSTACK, 0, STACK
        LOCFRAME XSTACK, 11, STACK
        LOCFRAME IOVERLAY, 0, STATIC
        LOCFRAME DOVERLAY, 0, STATIC
        ARGFRAME ISTACK, 0, STACK
        ARGFRAME PSTACK, 0, STACK
        ARGFRAME XSTACK, 11, STACK
        ARGFRAME IOVERLAY, 0, STATIC
        ARGFRAME DOVERLAY, 0, STATIC
        FUNCALL ZDApp_ProcessOSALMsg, ZDApp_NetworkInit
        LOCFRAME ISTACK, 0, STACK
        LOCFRAME PSTACK, 0, STACK
        LOCFRAME XSTACK, 11, STACK
        LOCFRAME IOVERLAY, 0, STATIC
        LOCFRAME DOVERLAY, 0, STATIC
        ARGFRAME ISTACK, 0, STACK
        ARGFRAME PSTACK, 0, STACK
        ARGFRAME XSTACK, 11, STACK
        ARGFRAME IOVERLAY, 0, STATIC
        ARGFRAME DOVERLAY, 0, STATIC
        FUNCALL ZDApp_ProcessOSALMsg, ZDApp_ProcessNetworkJoin
        LOCFRAME ISTACK, 0, STACK
        LOCFRAME PSTACK, 0, STACK
        LOCFRAME XSTACK, 11, STACK
        LOCFRAME IOVERLAY, 0, STATIC
        LOCFRAME DOVERLAY, 0, STATIC
        ARGFRAME ISTACK, 0, STACK
        ARGFRAME PSTACK, 0, STACK
        ARGFRAME XSTACK, 11, STACK
        ARGFRAME IOVERLAY, 0, STATIC
        ARGFRAME DOVERLAY, 0, STATIC
        FUNCALL ZDApp_ProcessOSALMsg, sAddrExtCpy
        LOCFRAME ISTACK, 0, STACK
        LOCFRAME PSTACK, 0, STACK
        LOCFRAME XSTACK, 11, STACK
        LOCFRAME IOVERLAY, 0, STATIC
        LOCFRAME DOVERLAY, 0, STATIC
        ARGFRAME ISTACK, 0, STACK
        ARGFRAME PSTACK, 0, STACK
        ARGFRAME XSTACK, 11, STACK
        ARGFRAME IOVERLAY, 0, STATIC
        ARGFRAME DOVERLAY, 0, STATIC
        FUNCALL ZDApp_ProcessOSALMsg, ZDApp_NetworkInit
        LOCFRAME ISTACK, 0, STACK
        LOCFRAME PSTACK, 0, STACK
        LOCFRAME XSTACK, 11, STACK
        LOCFRAME IOVERLAY, 0, STATIC
        LOCFRAME DOVERLAY, 0, STATIC
        ARGFRAME ISTACK, 0, STACK
        ARGFRAME PSTACK, 0, STACK
        ARGFRAME XSTACK, 11, STACK
        ARGFRAME IOVERLAY, 0, STATIC
        ARGFRAME DOVERLAY, 0, STATIC
        MOV     A,#-0xa
        LCALL   ?BANKED_ENTER_XDATA
        CFI DPH0 load(1, XDATA, add(CFA_XSP16, literal(-1)))
        CFI DPL0 load(1, XDATA, add(CFA_XSP16, literal(-2)))
        CFI ?BRET_EXT load(1, XDATA, add(CFA_XSP16, literal(-3)))
        CFI ?RET_HIGH load(1, XDATA, add(CFA_XSP16, literal(-4)))
        CFI ?RET_LOW load(1, XDATA, add(CFA_XSP16, literal(-5)))
        CFI R7 load(1, XDATA, add(CFA_XSP16, literal(-6)))
        CFI V1 load(1, XDATA, add(CFA_XSP16, literal(-7)))
        CFI V0 load(1, XDATA, add(CFA_XSP16, literal(-8)))
        CFI VB load(1, XDATA, add(CFA_XSP16, literal(-9)))
        CFI R6 load(1, XDATA, add(CFA_XSP16, literal(-10)))
        CFI CFA_SP SP+0
        CFI CFA_XSP16 add(XSP16, 10)
        ; Saved register size: 10
        ; Auto size: 1
        MOV     A,#-0x1
        LCALL   ?ALLOC_XSTACK8
        CFI CFA_XSP16 add(XSP16, 11)
// 1017   // Data Confirmation message fields
// 1018   uint8 sentEP;       // This should always be 0
// 1019   uint8 sentStatus;
// 1020   afDataConfirm_t *afDataConfirm;
// 1021   uint8 tmp;
// 1022 
// 1023   switch ( msgPtr->event )
        MOV     DPL,R2
        MOV     DPH,R3
        MOVX    A,@DPTR
        DEC     A
        JZ      ??ZDApp_ProcessOSALMsg_0
        DEC     A
        JNZ     $+5
        LJMP    ??ZDApp_ProcessOSALMsg_1 & 0xFFFF
        DEC     A
        JNZ     $+5
        LJMP    ??ZDApp_ProcessOSALMsg_2 & 0xFFFF
        ADD     A,#-0x17
        JZ      ??ZDApp_ProcessOSALMsg_3
        ADD     A,#0x47
        JZ      ??ZDApp_ProcessOSALMsg_4
        LJMP    ??ZDApp_ProcessOSALMsg_5 & 0xFFFF
// 1024   {
// 1025     // Incoming ZDO Message
// 1026     case AF_INCOMING_MSG_CMD:
// 1027       ZDP_IncomingData( (afIncomingMSGPacket_t *)msgPtr );
??ZDApp_ProcessOSALMsg_3:
        ; Setup parameters for call to function ZDP_IncomingData
        LCALL   ??ZDP_IncomingData?relay
// 1028       break;
        LJMP    ??ZDApp_ProcessOSALMsg_5 & 0xFFFF
// 1029 
// 1030     case ZDO_CB_MSG:
// 1031       ZDApp_ProcessMsgCBs( (zdoIncomingMsg_t *)msgPtr );
??ZDApp_ProcessOSALMsg_4:
        ; Setup parameters for call to function ZDApp_ProcessMsgCBs
        LCALL   ??ZDApp_ProcessMsgCBs?relay
// 1032       break;
        LJMP    ??ZDApp_ProcessOSALMsg_5 & 0xFFFF
// 1033 
// 1034     case AF_DATA_CONFIRM_CMD:
// 1035       // This message is received as a confirmation of a data packet sent.
// 1036       // The status is of ZStatus_t type [defined in NLMEDE.h]
// 1037       // The message fields are defined in AF.h
// 1038       afDataConfirm = (afDataConfirm_t *)msgPtr;
// 1039       sentEP = afDataConfirm->endpoint;
// 1040       sentStatus = afDataConfirm->hdr.status;
// 1041 
// 1042       // Action taken when confirmation is received.
// 1043 #if defined ( ZIGBEE_FREQ_AGILITY )
// 1044       if ( pZDNwkMgr_ProcessDataConfirm )
// 1045         pZDNwkMgr_ProcessDataConfirm( afDataConfirm );
// 1046 #endif
// 1047       (void)sentEP;
// 1048       (void)sentStatus;
// 1049       break;
// 1050 
// 1051     case ZDO_NWK_DISC_CNF:
// 1052       if (devState != DEV_NWK_DISC)
??ZDApp_ProcessOSALMsg_0:
        MOV     DPTR,#devState
        MOVX    A,@DPTR
        XRL     A,#0x2
        JZ      $+5
        LJMP    ??ZDApp_ProcessOSALMsg_5 & 0xFFFF
// 1053         break;
// 1054 
// 1055       if ( ZG_BUILD_JOINING_TYPE && ZG_DEVICE_JOINING_TYPE )
        MOV     DPTR,#zgDeviceLogicalType
        MOVX    A,@DPTR
        XRL     A,#0x1
        JZ      ??ZDApp_ProcessOSALMsg_6
        MOVX    A,@DPTR
        XRL     A,#0x2
        JZ      $+5
        LJMP    ??ZDApp_ProcessOSALMsg_5 & 0xFFFF
// 1056       {
// 1057         // Process the network discovery scan results and choose a parent
// 1058         // device to join/rejoin itself
// 1059         networkDesc_t *pChosenNwk;
// 1060         if ( ( (pChosenNwk = ZDApp_NwkDescListProcessing()) != NULL ) && (zdoDiscCounter > NUM_DISC_ATTEMPTS) )
??ZDApp_ProcessOSALMsg_6:
        ; Setup parameters for call to function ZDApp_NwkDescListProcessing
        LCALL   ??ZDApp_NwkDescListProcessing?relay
        MOV     ?V0 + 0,R2
        MOV     ?V0 + 1,R3
        MOV     R0,?V0 + 0
        MOV     R1,?V0 + 1
        MOV     A,R0
        MOV     R6,A
        MOV     A,R1
        MOV     R7,A
        MOV     A,R0
        ORL     A,R1
        JNZ     $+5
        LJMP    ??ZDApp_ProcessOSALMsg_7 & 0xFFFF
        MOV     DPTR,#zdoDiscCounter
        MOVX    A,@DPTR
        CLR     C
        SUBB    A,#0x3
        JNC     $+5
        LJMP    ??ZDApp_ProcessOSALMsg_7 & 0xFFFF
// 1061         {
// 1062           if ( devStartMode == MODE_JOIN )
        MOV     DPTR,#devStartMode
        MOVX    A,@DPTR
        JNZ     ??ZDApp_ProcessOSALMsg_8
// 1063           {
// 1064             devState = DEV_NWK_JOINING;
        MOV     DPTR,#devState
        MOV     A,#0x3
        LCALL   ?Subroutine12 & 0xFFFF
// 1065 
// 1066             ZDApp_NodeProfileSync( pChosenNwk->stackProfile);
??CrossCallReturnLabel_4:
        MOVX    A,@DPTR
        MOV     R1,A
        LCALL   ??ZDApp_NodeProfileSync?relay
// 1067 
// 1068             if ( NLME_JoinRequest( pChosenNwk->extendedPANID, pChosenNwk->panId,
// 1069                                   pChosenNwk->logicalChannel,
// 1070                                   ZDO_Config_Node_Descriptor.CapabilityFlags,
// 1071                                   pChosenNwk->chosenRouter, pChosenNwk->chosenRouterDepth ) != ZSuccess )
        ; Setup parameters for call to function NLME_JoinRequest
        MOV     DPL,R6
        MOV     DPH,R7
        INC     DPTR
        INC     DPTR
        INC     DPTR
        INC     DPTR
        INC     DPTR
        INC     DPTR
        INC     DPTR
        INC     DPTR
        INC     DPTR
        INC     DPTR
        MOVX    A,@DPTR
        MOV     ?V0 + 0,A
        MOV     R0,#?V0 + 0
        LCALL   ?PUSH_XSTACK_I_ONE
        CFI CFA_XSP16 add(XSP16, 12)
        MOV     DPL,R6
        MOV     DPH,R7
        INC     DPTR
        INC     DPTR
        INC     DPTR
        INC     DPTR
        INC     DPTR
        INC     DPTR
        INC     DPTR
        LCALL   ?PUSH_XSTACK8_X_TWO
        CFI CFA_XSP16 add(XSP16, 14)
        MOV     DPTR,#ZDO_Config_Node_Descriptor + 2
        MOVX    A,@DPTR
        MOV     ?V0 + 0,A
        MOV     R0,#?V0 + 0
        LCALL   ?PUSH_XSTACK_I_ONE
        CFI CFA_XSP16 add(XSP16, 15)
        MOV     DPL,R6
        MOV     DPH,R7
        INC     DPTR
        INC     DPTR
        MOVX    A,@DPTR
        MOV     R1,A
        MOV     DPL,R6
        MOV     DPH,R7
        MOVX    A,@DPTR
        MOV     R4,A
        INC     DPTR
        MOVX    A,@DPTR
        LCALL   ?Subroutine33 & 0xFFFF
// 1072             {
// 1073               ZDApp_NetworkInit( (uint16)(NWK_START_DELAY
// 1074                                           + ((uint16)(osal_rand()& EXTENDED_JOINING_RANDOM_MASK))) );
// 1075             }
// 1076           } // if ( devStartMode == MODE_JOIN )
??CrossCallReturnLabel_62:
        LCALL   ??NLME_JoinRequest?relay
        MOV     A,#0x4
        LCALL   ?DEALLOC_XSTACK8
        CFI CFA_XSP16 add(XSP16, 11)
        SJMP    ??ZDApp_ProcessOSALMsg_9
// 1077           else if ( devStartMode == MODE_REJOIN )
??ZDApp_ProcessOSALMsg_8:
        XRL     A,#0x3
        JNZ     ??CrossCallReturnLabel_28
// 1078           {
// 1079             devState = DEV_NWK_REJOIN;
        MOV     DPTR,#devState
        MOV     A,#0x4
        MOVX    @DPTR,A
// 1080 
// 1081             // Before trying to do rejoin, check if the device has a valid short address
// 1082             // If not, generate a random short address for itself
// 1083             if ( _NIB.nwkDevAddress == INVALID_NODE_ADDR )
        MOV     DPTR,#_NIB + 20
        MOVX    A,@DPTR
        XRL     A,#0xfe
        JNZ     ??ZDApp_ProcessOSALMsg_10
        INC     DPTR
        MOVX    A,@DPTR
        CPL     A
??ZDApp_ProcessOSALMsg_10:
        JNZ     ??ZDApp_ProcessOSALMsg_11
// 1084             {
// 1085               _NIB.nwkDevAddress = osal_rand();
        ; Setup parameters for call to function osal_rand
        LCALL   ??osal_rand?relay
        MOV     DPTR,#_NIB + 20
        LCALL   ??Subroutine58_0 & 0xFFFF
// 1086               ZMacSetReq( ZMacShortAddress, (byte*)&_NIB.nwkDevAddress );
??CrossCallReturnLabel_111:
        ; Setup parameters for call to function ZMacSetReq
        MOV     R2,#(_NIB + 20) & 0xff
        MOV     R3,#((_NIB + 20) >> 8) & 0xff
        MOV     R1,#0x53
        LCALL   ??ZMacSetReq?relay
// 1087             }
// 1088 
// 1089             if ( ZG_SECURE_ENABLED )
// 1090             {
// 1091               ZDApp_RestoreNwkKey();
// 1092             }
// 1093 
// 1094             // Check if the device has a valid PanID, if not, set it to the discovered Pan
// 1095             if ( _NIB.nwkPanId == INVALID_PAN_ID )
??ZDApp_ProcessOSALMsg_11:
        MOV     DPTR,#_NIB + 33
        MOVX    A,@DPTR
        XRL     A,#0xfe
        JNZ     ??ZDApp_ProcessOSALMsg_12
        INC     DPTR
        MOVX    A,@DPTR
        CPL     A
??ZDApp_ProcessOSALMsg_12:
        JNZ     ??ZDApp_ProcessOSALMsg_13
// 1096             {
// 1097               _NIB.nwkPanId = pChosenNwk->panId;
        LCALL   ?Subroutine18 & 0xFFFF
??CrossCallReturnLabel_68:
        MOV     DPTR,#_NIB + 33
        MOV     A,R0
        MOVX    @DPTR,A
        INC     DPTR
        MOV     A,R1
        MOVX    @DPTR,A
// 1098               ZMacSetReq( ZMacPanId, (byte*)&(_NIB.nwkPanId) );
        ; Setup parameters for call to function ZMacSetReq
        MOV     R2,#(_NIB + 33) & 0xff
        MOV     R3,#((_NIB + 33) >> 8) & 0xff
        MOV     R1,#0x50
        LCALL   ??ZMacSetReq?relay
// 1099             }
// 1100 
// 1101             tmp = true;
??ZDApp_ProcessOSALMsg_13:
        MOV     DPL,?XSP + 0
        MOV     DPH,?XSP + 1
        MOV     A,#0x1
        MOVX    @DPTR,A
// 1102             ZMacSetReq( ZMacRxOnIdle, &tmp ); // Set receiver always on during rejoin
        ; Setup parameters for call to function ZMacSetReq
        MOV     R2,DPL
        MOV     R3,DPH
        MOV     R1,#0x52
        LCALL   ??ZMacSetReq?relay
// 1103             if ( NLME_ReJoinRequest( ZDO_UseExtendedPANID, pChosenNwk->logicalChannel) != ZSuccess )
        ; Setup parameters for call to function NLME_ReJoinRequest
        MOV     DPL,R6
        MOV     DPH,R7
        INC     DPTR
        INC     DPTR
        MOVX    A,@DPTR
        MOV     R1,A
        MOV     R2,#ZDO_UseExtendedPANID & 0xff
        MOV     R3,#(ZDO_UseExtendedPANID >> 8) & 0xff
        LCALL   ??NLME_ReJoinRequest?relay
??ZDApp_ProcessOSALMsg_9:
        MOV     A,R1
        JZ      ??CrossCallReturnLabel_28
// 1104             {
// 1105               ZDApp_NetworkInit( (uint16)(NWK_START_DELAY
// 1106                                           + ((uint16)(osal_rand()& EXTENDED_JOINING_RANDOM_MASK))) );
        ; Setup parameters for call to function ZDApp_NetworkInit
        ; Setup parameters for call to function osal_rand
        LCALL   ?Subroutine27 & 0xFFFF
// 1107             }
// 1108           } // else if ( devStartMode == MODE_REJOIN )
// 1109 
// 1110           if ( ZDO_Config_Node_Descriptor.CapabilityFlags & CAPINFO_RCVR_ON_IDLE )
??CrossCallReturnLabel_28:
        MOV     DPTR,#ZDO_Config_Node_Descriptor + 2
        MOVX    A,@DPTR
        MOV     C,0xE0 /* A   */.3
        JNC     ??ZDApp_ProcessOSALMsg_5
// 1111           {
// 1112             // The receiver is on, turn network layer polling off.
// 1113             NLME_SetPollRate( 0 );
        ; Setup parameters for call to function NLME_SetPollRate
        LCALL   ?Subroutine26 & 0xFFFF
// 1114             NLME_SetQueuedPollRate( 0 );
// 1115             NLME_SetResponseRate( 0 );
// 1116           }
// 1117           else
// 1118           {
// 1119             if ( (ZG_SECURE_ENABLED) && (devStartMode == MODE_JOIN) )
// 1120             {
// 1121               ZDApp_SavedPollRate = zgPollRate;
// 1122               NLME_SetPollRate( zgRejoinPollRate );
// 1123             }
// 1124           }
// 1125         }
??CrossCallReturnLabel_26:
        SJMP    ??ZDApp_ProcessOSALMsg_5
// 1126         else
// 1127         {
// 1128           if ( continueJoining )
??ZDApp_ProcessOSALMsg_7:
        MOV     DPTR,#continueJoining
        MOVX    A,@DPTR
        JZ      ??ZDApp_ProcessOSALMsg_5
// 1129           {
// 1130     #if defined ( MANAGED_SCAN )
// 1131             ZDApp_NetworkInit( MANAGEDSCAN_DELAY_BETWEEN_SCANS );
// 1132     #else
// 1133             zdoDiscCounter++;
        MOV     DPTR,#zdoDiscCounter
        MOVX    A,@DPTR
        INC     A
        MOVX    @DPTR,A
// 1134             ZDApp_NetworkInit( (uint16)(BEACON_REQUEST_DELAY
// 1135                   + ((uint16)(osal_rand()& BEACON_REQ_DELAY_MASK))) );
        ; Setup parameters for call to function ZDApp_NetworkInit
        ; Setup parameters for call to function osal_rand
        LCALL   ??osal_rand?relay
        MOV     A,R2
        ADD     A,#0x64
        MOV     R2,A
        CLR     A
        ADDC    A,#0x0
        MOV     R3,A
        SJMP    ??ZDApp_ProcessOSALMsg_14
// 1136     #endif
// 1137           }
// 1138         }
// 1139       }
// 1140       break;
// 1141 
// 1142     case ZDO_NWK_JOIN_IND:
// 1143       if ( ZG_BUILD_JOINING_TYPE && ZG_DEVICE_JOINING_TYPE )
??ZDApp_ProcessOSALMsg_1:
        MOV     DPTR,#zgDeviceLogicalType
        MOVX    A,@DPTR
        XRL     A,#0x1
        JZ      ??ZDApp_ProcessOSALMsg_15
        MOVX    A,@DPTR
        XRL     A,#0x2
        JNZ     ??ZDApp_ProcessOSALMsg_5
// 1144       {
// 1145         ZDApp_ProcessNetworkJoin();
??ZDApp_ProcessOSALMsg_15:
        ; Setup parameters for call to function ZDApp_ProcessNetworkJoin
        LCALL   ??ZDApp_ProcessNetworkJoin?relay
        SJMP    ??ZDApp_ProcessOSALMsg_5
// 1146       }
// 1147       break;
// 1148 
// 1149     case ZDO_NWK_JOIN_REQ:
// 1150       if ( ZG_BUILD_JOINING_TYPE && ZG_DEVICE_JOINING_TYPE )
??ZDApp_ProcessOSALMsg_2:
        MOV     DPTR,#zgDeviceLogicalType
        MOVX    A,@DPTR
        XRL     A,#0x1
        JZ      ??ZDApp_ProcessOSALMsg_16
        MOVX    A,@DPTR
        XRL     A,#0x2
        JNZ     ??ZDApp_ProcessOSALMsg_5
// 1151       {
// 1152         retryCnt = 0;
??ZDApp_ProcessOSALMsg_16:
        MOV     DPTR,#retryCnt
        CLR     A
        MOVX    @DPTR,A
// 1153         devStartMode = MODE_RESUME;
        MOV     DPTR,#devStartMode
        INC     A
        MOVX    @DPTR,A
// 1154         _tmpRejoinState = true;
        MOV     DPTR,#_tmpRejoinState
        LCALL   ?Subroutine11 & 0xFFFF
// 1155         osal_cpyExtAddr( ZDO_UseExtendedPANID, _NIB.extendedPANID );
// 1156         zgDefaultStartingScanDuration = BEACON_ORDER_60_MSEC;
??CrossCallReturnLabel_3:
        MOV     DPTR,#zgDefaultStartingScanDuration
        MOV     A,#0x2
        MOVX    @DPTR,A
// 1157         ZDApp_NetworkInit( 0 );
        ; Setup parameters for call to function ZDApp_NetworkInit
        MOV     R2,#0x0
        MOV     R3,#0x0
??ZDApp_ProcessOSALMsg_14:
        LCALL   ??ZDApp_NetworkInit?relay
// 1158       }
// 1159       break;
// 1160 
// 1161     default:
// 1162       if ( ZG_SECURE_ENABLED )
// 1163         ZDApp_ProcessSecMsg( msgPtr );
// 1164       break;
// 1165   }
// 1166 
// 1167 }
??ZDApp_ProcessOSALMsg_5:
        MOV     A,#0x1
        LJMP    ??Subroutine45_0 & 0xFFFF
        CFI EndBlock cfiBlock35

        RSEG BANKED_CODE:CODE:NOROOT(0)
?Subroutine33:
        CFI Block cfiCond36 Using cfiCommon0
        CFI NoFunction
        CFI Conditional ??CrossCallReturnLabel_62
        CFI R6 load(1, XDATA, add(CFA_XSP16, literal(-10)))
        CFI VB load(1, XDATA, add(CFA_XSP16, literal(-9)))
        CFI V0 load(1, XDATA, add(CFA_XSP16, literal(-8)))
        CFI V1 load(1, XDATA, add(CFA_XSP16, literal(-7)))
        CFI R7 load(1, XDATA, add(CFA_XSP16, literal(-6)))
        CFI ?RET_LOW load(1, XDATA, add(CFA_XSP16, literal(-5)))
        CFI ?RET_HIGH load(1, XDATA, add(CFA_XSP16, literal(-4)))
        CFI ?BRET_EXT load(1, XDATA, add(CFA_XSP16, literal(-3)))
        CFI DPL0 load(1, XDATA, add(CFA_XSP16, literal(-2)))
        CFI DPH0 load(1, XDATA, add(CFA_XSP16, literal(-1)))
        CFI CFA_SP SP+0
        CFI CFA_XSP16 add(XSP16, 15)
        CFI Block cfiCond37 Using cfiCommon0
        CFI (cfiCond37) NoFunction
        CFI (cfiCond37) Conditional ??CrossCallReturnLabel_63
        CFI (cfiCond37) R6 load(1, XDATA, add(CFA_XSP16, literal(-14)))
        CFI (cfiCond37) VB load(1, XDATA, add(CFA_XSP16, literal(-13)))
        CFI (cfiCond37) V0 load(1, XDATA, add(CFA_XSP16, literal(-12)))
        CFI (cfiCond37) V1 load(1, XDATA, add(CFA_XSP16, literal(-11)))
        CFI (cfiCond37) V2 load(1, XDATA, add(CFA_XSP16, literal(-10)))
        CFI (cfiCond37) V3 load(1, XDATA, add(CFA_XSP16, literal(-9)))
        CFI (cfiCond37) V4 load(1, XDATA, add(CFA_XSP16, literal(-8)))
        CFI (cfiCond37) V5 load(1, XDATA, add(CFA_XSP16, literal(-7)))
        CFI (cfiCond37) R7 load(1, XDATA, add(CFA_XSP16, literal(-6)))
        CFI (cfiCond37) ?RET_LOW load(1, XDATA, add(CFA_XSP16, literal(-5)))
        CFI (cfiCond37) ?RET_HIGH load(1, XDATA, add(CFA_XSP16, literal(-4)))
        CFI (cfiCond37) ?BRET_EXT load(1, XDATA, add(CFA_XSP16, literal(-3)))
        CFI (cfiCond37) DPL0 load(1, XDATA, add(CFA_XSP16, literal(-2)))
        CFI (cfiCond37) DPH0 load(1, XDATA, add(CFA_XSP16, literal(-1)))
        CFI (cfiCond37) CFA_SP SP+0
        CFI (cfiCond37) CFA_XSP16 add(XSP16, 14)
        CFI Block cfiPicker38 Using cfiCommon1
        CFI (cfiPicker38) NoFunction
        CFI (cfiPicker38) Picker
        MOV     R5,A
        CFI EndBlock cfiCond36
        CFI EndBlock cfiCond37
        CFI EndBlock cfiPicker38
        REQUIRE ??Subroutine42_0
        ; // Fall through to label ??Subroutine42_0

        RSEG BANKED_CODE:CODE:NOROOT(0)
??Subroutine42_0:
        CFI Block cfiCond39 Using cfiCommon0
        CFI NoFunction
        CFI Conditional ??CrossCallReturnLabel_61
        CFI R6 load(1, XDATA, add(CFA_XSP16, literal(-14)))
        CFI VB load(1, XDATA, add(CFA_XSP16, literal(-13)))
        CFI V0 load(1, XDATA, add(CFA_XSP16, literal(-12)))
        CFI V1 load(1, XDATA, add(CFA_XSP16, literal(-11)))
        CFI V2 load(1, XDATA, add(CFA_XSP16, literal(-10)))
        CFI V3 load(1, XDATA, add(CFA_XSP16, literal(-9)))
        CFI V4 load(1, XDATA, add(CFA_XSP16, literal(-8)))
        CFI V5 load(1, XDATA, add(CFA_XSP16, literal(-7)))
        CFI R7 load(1, XDATA, add(CFA_XSP16, literal(-6)))
        CFI ?RET_LOW load(1, XDATA, add(CFA_XSP16, literal(-5)))
        CFI ?RET_HIGH load(1, XDATA, add(CFA_XSP16, literal(-4)))
        CFI ?BRET_EXT load(1, XDATA, add(CFA_XSP16, literal(-3)))
        CFI DPL0 load(1, XDATA, add(CFA_XSP16, literal(-2)))
        CFI DPH0 load(1, XDATA, add(CFA_XSP16, literal(-1)))
        CFI CFA_SP SP+0
        CFI CFA_XSP16 add(XSP16, 14)
        CFI Block cfiCond40 Using cfiCommon0
        CFI (cfiCond40) NoFunction
        CFI (cfiCond40) Conditional ??CrossCallReturnLabel_62
        CFI (cfiCond40) R6 load(1, XDATA, add(CFA_XSP16, literal(-10)))
        CFI (cfiCond40) VB load(1, XDATA, add(CFA_XSP16, literal(-9)))
        CFI (cfiCond40) V0 load(1, XDATA, add(CFA_XSP16, literal(-8)))
        CFI (cfiCond40) V1 load(1, XDATA, add(CFA_XSP16, literal(-7)))
        CFI (cfiCond40) R7 load(1, XDATA, add(CFA_XSP16, literal(-6)))
        CFI (cfiCond40) ?RET_LOW load(1, XDATA, add(CFA_XSP16, literal(-5)))
        CFI (cfiCond40) ?RET_HIGH load(1, XDATA, add(CFA_XSP16, literal(-4)))
        CFI (cfiCond40) ?BRET_EXT load(1, XDATA, add(CFA_XSP16, literal(-3)))
        CFI (cfiCond40) DPL0 load(1, XDATA, add(CFA_XSP16, literal(-2)))
        CFI (cfiCond40) DPH0 load(1, XDATA, add(CFA_XSP16, literal(-1)))
        CFI (cfiCond40) CFA_SP SP+0
        CFI (cfiCond40) CFA_XSP16 add(XSP16, 15)
        CFI Block cfiCond41 Using cfiCommon0
        CFI (cfiCond41) NoFunction
        CFI (cfiCond41) Conditional ??CrossCallReturnLabel_63
        CFI (cfiCond41) R6 load(1, XDATA, add(CFA_XSP16, literal(-14)))
        CFI (cfiCond41) VB load(1, XDATA, add(CFA_XSP16, literal(-13)))
        CFI (cfiCond41) V0 load(1, XDATA, add(CFA_XSP16, literal(-12)))
        CFI (cfiCond41) V1 load(1, XDATA, add(CFA_XSP16, literal(-11)))
        CFI (cfiCond41) V2 load(1, XDATA, add(CFA_XSP16, literal(-10)))
        CFI (cfiCond41) V3 load(1, XDATA, add(CFA_XSP16, literal(-9)))
        CFI (cfiCond41) V4 load(1, XDATA, add(CFA_XSP16, literal(-8)))
        CFI (cfiCond41) V5 load(1, XDATA, add(CFA_XSP16, literal(-7)))
        CFI (cfiCond41) R7 load(1, XDATA, add(CFA_XSP16, literal(-6)))
        CFI (cfiCond41) ?RET_LOW load(1, XDATA, add(CFA_XSP16, literal(-5)))
        CFI (cfiCond41) ?RET_HIGH load(1, XDATA, add(CFA_XSP16, literal(-4)))
        CFI (cfiCond41) ?BRET_EXT load(1, XDATA, add(CFA_XSP16, literal(-3)))
        CFI (cfiCond41) DPL0 load(1, XDATA, add(CFA_XSP16, literal(-2)))
        CFI (cfiCond41) DPH0 load(1, XDATA, add(CFA_XSP16, literal(-1)))
        CFI (cfiCond41) CFA_SP SP+0
        CFI (cfiCond41) CFA_XSP16 add(XSP16, 14)
        CFI Block cfiPicker42 Using cfiCommon1
        CFI (cfiPicker42) NoFunction
        CFI (cfiPicker42) Picker
        MOV     A,R6
        ADD     A,#0xb
        MOV     R2,A
        MOV     A,R7
        ADDC    A,#0x0
        MOV     R3,A
        RET
        CFI EndBlock cfiCond39
        CFI EndBlock cfiCond40
        CFI EndBlock cfiCond41
        CFI EndBlock cfiPicker42

        RSEG BANKED_CODE:CODE:NOROOT(0)
?Subroutine18:
        CFI Block cfiCond43 Using cfiCommon0
        CFI NoFunction
        CFI Conditional ??CrossCallReturnLabel_68
        CFI R6 load(1, XDATA, add(CFA_XSP16, literal(-10)))
        CFI VB load(1, XDATA, add(CFA_XSP16, literal(-9)))
        CFI V0 load(1, XDATA, add(CFA_XSP16, literal(-8)))
        CFI V1 load(1, XDATA, add(CFA_XSP16, literal(-7)))
        CFI R7 load(1, XDATA, add(CFA_XSP16, literal(-6)))
        CFI ?RET_LOW load(1, XDATA, add(CFA_XSP16, literal(-5)))
        CFI ?RET_HIGH load(1, XDATA, add(CFA_XSP16, literal(-4)))
        CFI ?BRET_EXT load(1, XDATA, add(CFA_XSP16, literal(-3)))
        CFI DPL0 load(1, XDATA, add(CFA_XSP16, literal(-2)))
        CFI DPH0 load(1, XDATA, add(CFA_XSP16, literal(-1)))
        CFI CFA_SP SP+0
        CFI CFA_XSP16 add(XSP16, 11)
        CFI Block cfiCond44 Using cfiCommon0
        CFI (cfiCond44) NoFunction
        CFI (cfiCond44) Conditional ??CrossCallReturnLabel_69
        CFI (cfiCond44) R6 load(1, XDATA, add(CFA_XSP16, literal(-14)))
        CFI (cfiCond44) VB load(1, XDATA, add(CFA_XSP16, literal(-13)))
        CFI (cfiCond44) V0 load(1, XDATA, add(CFA_XSP16, literal(-12)))
        CFI (cfiCond44) V1 load(1, XDATA, add(CFA_XSP16, literal(-11)))
        CFI (cfiCond44) V2 load(1, XDATA, add(CFA_XSP16, literal(-10)))
        CFI (cfiCond44) V3 load(1, XDATA, add(CFA_XSP16, literal(-9)))
        CFI (cfiCond44) V4 load(1, XDATA, add(CFA_XSP16, literal(-8)))
        CFI (cfiCond44) V5 load(1, XDATA, add(CFA_XSP16, literal(-7)))
        CFI (cfiCond44) R7 load(1, XDATA, add(CFA_XSP16, literal(-6)))
        CFI (cfiCond44) ?RET_LOW load(1, XDATA, add(CFA_XSP16, literal(-5)))
        CFI (cfiCond44) ?RET_HIGH load(1, XDATA, add(CFA_XSP16, literal(-4)))
        CFI (cfiCond44) ?BRET_EXT load(1, XDATA, add(CFA_XSP16, literal(-3)))
        CFI (cfiCond44) DPL0 load(1, XDATA, add(CFA_XSP16, literal(-2)))
        CFI (cfiCond44) DPH0 load(1, XDATA, add(CFA_XSP16, literal(-1)))
        CFI (cfiCond44) CFA_SP SP+0
        CFI (cfiCond44) CFA_XSP16 add(XSP16, 14)
        CFI Block cfiCond45 Using cfiCommon0
        CFI (cfiCond45) NoFunction
        CFI (cfiCond45) Conditional ??CrossCallReturnLabel_70
        CFI (cfiCond45) R6 load(1, XDATA, add(CFA_XSP16, literal(-14)))
        CFI (cfiCond45) VB load(1, XDATA, add(CFA_XSP16, literal(-13)))
        CFI (cfiCond45) V0 load(1, XDATA, add(CFA_XSP16, literal(-12)))
        CFI (cfiCond45) V1 load(1, XDATA, add(CFA_XSP16, literal(-11)))
        CFI (cfiCond45) V2 load(1, XDATA, add(CFA_XSP16, literal(-10)))
        CFI (cfiCond45) V3 load(1, XDATA, add(CFA_XSP16, literal(-9)))
        CFI (cfiCond45) V4 load(1, XDATA, add(CFA_XSP16, literal(-8)))
        CFI (cfiCond45) V5 load(1, XDATA, add(CFA_XSP16, literal(-7)))
        CFI (cfiCond45) R7 load(1, XDATA, add(CFA_XSP16, literal(-6)))
        CFI (cfiCond45) ?RET_LOW load(1, XDATA, add(CFA_XSP16, literal(-5)))
        CFI (cfiCond45) ?RET_HIGH load(1, XDATA, add(CFA_XSP16, literal(-4)))
        CFI (cfiCond45) ?BRET_EXT load(1, XDATA, add(CFA_XSP16, literal(-3)))
        CFI (cfiCond45) DPL0 load(1, XDATA, add(CFA_XSP16, literal(-2)))
        CFI (cfiCond45) DPH0 load(1, XDATA, add(CFA_XSP16, literal(-1)))
        CFI (cfiCond45) CFA_SP SP+0
        CFI (cfiCond45) CFA_XSP16 add(XSP16, 14)
        CFI Block cfiCond46 Using cfiCommon0
        CFI (cfiCond46) NoFunction
        CFI (cfiCond46) Conditional ??CrossCallReturnLabel_71
        CFI (cfiCond46) R6 load(1, XDATA, add(CFA_XSP16, literal(-12)))
        CFI (cfiCond46) VB load(1, XDATA, add(CFA_XSP16, literal(-11)))
        CFI (cfiCond46) V0 load(1, XDATA, add(CFA_XSP16, literal(-10)))
        CFI (cfiCond46) V1 load(1, XDATA, add(CFA_XSP16, literal(-9)))
        CFI (cfiCond46) V2 load(1, XDATA, add(CFA_XSP16, literal(-8)))
        CFI (cfiCond46) V3 load(1, XDATA, add(CFA_XSP16, literal(-7)))
        CFI (cfiCond46) R7 load(1, XDATA, add(CFA_XSP16, literal(-6)))
        CFI (cfiCond46) ?RET_LOW load(1, XDATA, add(CFA_XSP16, literal(-5)))
        CFI (cfiCond46) ?RET_HIGH load(1, XDATA, add(CFA_XSP16, literal(-4)))
        CFI (cfiCond46) ?BRET_EXT load(1, XDATA, add(CFA_XSP16, literal(-3)))
        CFI (cfiCond46) DPL0 load(1, XDATA, add(CFA_XSP16, literal(-2)))
        CFI (cfiCond46) DPH0 load(1, XDATA, add(CFA_XSP16, literal(-1)))
        CFI (cfiCond46) CFA_SP SP+0
        CFI (cfiCond46) CFA_XSP16 add(XSP16, 12)
        CFI Block cfiPicker47 Using cfiCommon1
        CFI (cfiPicker47) NoFunction
        CFI (cfiPicker47) Picker
        MOV     DPL,R6
        MOV     DPH,R7
        CFI EndBlock cfiCond43
        CFI EndBlock cfiCond44
        CFI EndBlock cfiCond45
        CFI EndBlock cfiCond46
        CFI EndBlock cfiPicker47
        REQUIRE ??Subroutine43_0
        ; // Fall through to label ??Subroutine43_0

        RSEG BANKED_CODE:CODE:NOROOT(0)
??Subroutine43_0:
        CFI Block cfiCond48 Using cfiCommon0
        CFI NoFunction
        CFI Conditional ??CrossCallReturnLabel_64
        CFI R6 load(1, XDATA, add(CFA_XSP16, literal(-9)))
        CFI VB load(1, XDATA, add(CFA_XSP16, literal(-8)))
        CFI V0 load(1, XDATA, add(CFA_XSP16, literal(-7)))
        CFI R7 load(1, XDATA, add(CFA_XSP16, literal(-6)))
        CFI ?RET_LOW load(1, XDATA, add(CFA_XSP16, literal(-5)))
        CFI ?RET_HIGH load(1, XDATA, add(CFA_XSP16, literal(-4)))
        CFI ?BRET_EXT load(1, XDATA, add(CFA_XSP16, literal(-3)))
        CFI DPL0 load(1, XDATA, add(CFA_XSP16, literal(-2)))
        CFI DPH0 load(1, XDATA, add(CFA_XSP16, literal(-1)))
        CFI CFA_SP SP+0
        CFI CFA_XSP16 add(XSP16, 9)
        CFI Block cfiCond49 Using cfiCommon0
        CFI (cfiCond49) NoFunction
        CFI (cfiCond49) Conditional ??CrossCallReturnLabel_65
        CFI (cfiCond49) R6 load(1, XDATA, add(CFA_XSP16, literal(-14)))
        CFI (cfiCond49) VB load(1, XDATA, add(CFA_XSP16, literal(-13)))
        CFI (cfiCond49) V0 load(1, XDATA, add(CFA_XSP16, literal(-12)))
        CFI (cfiCond49) V1 load(1, XDATA, add(CFA_XSP16, literal(-11)))
        CFI (cfiCond49) V2 load(1, XDATA, add(CFA_XSP16, literal(-10)))
        CFI (cfiCond49) V3 load(1, XDATA, add(CFA_XSP16, literal(-9)))
        CFI (cfiCond49) V4 load(1, XDATA, add(CFA_XSP16, literal(-8)))
        CFI (cfiCond49) V5 load(1, XDATA, add(CFA_XSP16, literal(-7)))
        CFI (cfiCond49) R7 load(1, XDATA, add(CFA_XSP16, literal(-6)))
        CFI (cfiCond49) ?RET_LOW load(1, XDATA, add(CFA_XSP16, literal(-5)))
        CFI (cfiCond49) ?RET_HIGH load(1, XDATA, add(CFA_XSP16, literal(-4)))
        CFI (cfiCond49) ?BRET_EXT load(1, XDATA, add(CFA_XSP16, literal(-3)))
        CFI (cfiCond49) DPL0 load(1, XDATA, add(CFA_XSP16, literal(-2)))
        CFI (cfiCond49) DPH0 load(1, XDATA, add(CFA_XSP16, literal(-1)))
        CFI (cfiCond49) CFA_SP SP+0
        CFI (cfiCond49) CFA_XSP16 add(XSP16, 14)
        CFI Block cfiCond50 Using cfiCommon0
        CFI (cfiCond50) NoFunction
        CFI (cfiCond50) Conditional ??CrossCallReturnLabel_66
        CFI (cfiCond50) R6 load(1, XDATA, add(CFA_XSP16, literal(-9)))
        CFI (cfiCond50) VB load(1, XDATA, add(CFA_XSP16, literal(-8)))
        CFI (cfiCond50) V0 load(1, XDATA, add(CFA_XSP16, literal(-7)))
        CFI (cfiCond50) R7 load(1, XDATA, add(CFA_XSP16, literal(-6)))
        CFI (cfiCond50) ?RET_LOW load(1, XDATA, add(CFA_XSP16, literal(-5)))
        CFI (cfiCond50) ?RET_HIGH load(1, XDATA, add(CFA_XSP16, literal(-4)))
        CFI (cfiCond50) ?BRET_EXT load(1, XDATA, add(CFA_XSP16, literal(-3)))
        CFI (cfiCond50) DPL0 load(1, XDATA, add(CFA_XSP16, literal(-2)))
        CFI (cfiCond50) DPH0 load(1, XDATA, add(CFA_XSP16, literal(-1)))
        CFI (cfiCond50) CFA_SP SP+0
        CFI (cfiCond50) CFA_XSP16 add(XSP16, 14)
        CFI Block cfiCond51 Using cfiCommon0
        CFI (cfiCond51) NoFunction
        CFI (cfiCond51) Conditional ??CrossCallReturnLabel_67
        CFI (cfiCond51) R6 load(1, XDATA, add(CFA_XSP16, literal(-9)))
        CFI (cfiCond51) VB load(1, XDATA, add(CFA_XSP16, literal(-8)))
        CFI (cfiCond51) V0 load(1, XDATA, add(CFA_XSP16, literal(-7)))
        CFI (cfiCond51) R7 load(1, XDATA, add(CFA_XSP16, literal(-6)))
        CFI (cfiCond51) ?RET_LOW load(1, XDATA, add(CFA_XSP16, literal(-5)))
        CFI (cfiCond51) ?RET_HIGH load(1, XDATA, add(CFA_XSP16, literal(-4)))
        CFI (cfiCond51) ?BRET_EXT load(1, XDATA, add(CFA_XSP16, literal(-3)))
        CFI (cfiCond51) DPL0 load(1, XDATA, add(CFA_XSP16, literal(-2)))
        CFI (cfiCond51) DPH0 load(1, XDATA, add(CFA_XSP16, literal(-1)))
        CFI (cfiCond51) CFA_SP SP+0
        CFI (cfiCond51) CFA_XSP16 add(XSP16, 14)
        CFI Block cfiCond52 Using cfiCommon0
        CFI (cfiCond52) NoFunction
        CFI (cfiCond52) Conditional ??CrossCallReturnLabel_68
        CFI (cfiCond52) R6 load(1, XDATA, add(CFA_XSP16, literal(-10)))
        CFI (cfiCond52) VB load(1, XDATA, add(CFA_XSP16, literal(-9)))
        CFI (cfiCond52) V0 load(1, XDATA, add(CFA_XSP16, literal(-8)))
        CFI (cfiCond52) V1 load(1, XDATA, add(CFA_XSP16, literal(-7)))
        CFI (cfiCond52) R7 load(1, XDATA, add(CFA_XSP16, literal(-6)))
        CFI (cfiCond52) ?RET_LOW load(1, XDATA, add(CFA_XSP16, literal(-5)))
        CFI (cfiCond52) ?RET_HIGH load(1, XDATA, add(CFA_XSP16, literal(-4)))
        CFI (cfiCond52) ?BRET_EXT load(1, XDATA, add(CFA_XSP16, literal(-3)))
        CFI (cfiCond52) DPL0 load(1, XDATA, add(CFA_XSP16, literal(-2)))
        CFI (cfiCond52) DPH0 load(1, XDATA, add(CFA_XSP16, literal(-1)))
        CFI (cfiCond52) CFA_SP SP+0
        CFI (cfiCond52) CFA_XSP16 add(XSP16, 11)
        CFI Block cfiCond53 Using cfiCommon0
        CFI (cfiCond53) NoFunction
        CFI (cfiCond53) Conditional ??CrossCallReturnLabel_69
        CFI (cfiCond53) R6 load(1, XDATA, add(CFA_XSP16, literal(-14)))
        CFI (cfiCond53) VB load(1, XDATA, add(CFA_XSP16, literal(-13)))
        CFI (cfiCond53) V0 load(1, XDATA, add(CFA_XSP16, literal(-12)))
        CFI (cfiCond53) V1 load(1, XDATA, add(CFA_XSP16, literal(-11)))
        CFI (cfiCond53) V2 load(1, XDATA, add(CFA_XSP16, literal(-10)))
        CFI (cfiCond53) V3 load(1, XDATA, add(CFA_XSP16, literal(-9)))
        CFI (cfiCond53) V4 load(1, XDATA, add(CFA_XSP16, literal(-8)))
        CFI (cfiCond53) V5 load(1, XDATA, add(CFA_XSP16, literal(-7)))
        CFI (cfiCond53) R7 load(1, XDATA, add(CFA_XSP16, literal(-6)))
        CFI (cfiCond53) ?RET_LOW load(1, XDATA, add(CFA_XSP16, literal(-5)))
        CFI (cfiCond53) ?RET_HIGH load(1, XDATA, add(CFA_XSP16, literal(-4)))
        CFI (cfiCond53) ?BRET_EXT load(1, XDATA, add(CFA_XSP16, literal(-3)))
        CFI (cfiCond53) DPL0 load(1, XDATA, add(CFA_XSP16, literal(-2)))
        CFI (cfiCond53) DPH0 load(1, XDATA, add(CFA_XSP16, literal(-1)))
        CFI (cfiCond53) CFA_SP SP+0
        CFI (cfiCond53) CFA_XSP16 add(XSP16, 14)
        CFI Block cfiCond54 Using cfiCommon0
        CFI (cfiCond54) NoFunction
        CFI (cfiCond54) Conditional ??CrossCallReturnLabel_70
        CFI (cfiCond54) R6 load(1, XDATA, add(CFA_XSP16, literal(-14)))
        CFI (cfiCond54) VB load(1, XDATA, add(CFA_XSP16, literal(-13)))
        CFI (cfiCond54) V0 load(1, XDATA, add(CFA_XSP16, literal(-12)))
        CFI (cfiCond54) V1 load(1, XDATA, add(CFA_XSP16, literal(-11)))
        CFI (cfiCond54) V2 load(1, XDATA, add(CFA_XSP16, literal(-10)))
        CFI (cfiCond54) V3 load(1, XDATA, add(CFA_XSP16, literal(-9)))
        CFI (cfiCond54) V4 load(1, XDATA, add(CFA_XSP16, literal(-8)))
        CFI (cfiCond54) V5 load(1, XDATA, add(CFA_XSP16, literal(-7)))
        CFI (cfiCond54) R7 load(1, XDATA, add(CFA_XSP16, literal(-6)))
        CFI (cfiCond54) ?RET_LOW load(1, XDATA, add(CFA_XSP16, literal(-5)))
        CFI (cfiCond54) ?RET_HIGH load(1, XDATA, add(CFA_XSP16, literal(-4)))
        CFI (cfiCond54) ?BRET_EXT load(1, XDATA, add(CFA_XSP16, literal(-3)))
        CFI (cfiCond54) DPL0 load(1, XDATA, add(CFA_XSP16, literal(-2)))
        CFI (cfiCond54) DPH0 load(1, XDATA, add(CFA_XSP16, literal(-1)))
        CFI (cfiCond54) CFA_SP SP+0
        CFI (cfiCond54) CFA_XSP16 add(XSP16, 14)
        CFI Block cfiCond55 Using cfiCommon0
        CFI (cfiCond55) NoFunction
        CFI (cfiCond55) Conditional ??CrossCallReturnLabel_71
        CFI (cfiCond55) R6 load(1, XDATA, add(CFA_XSP16, literal(-12)))
        CFI (cfiCond55) VB load(1, XDATA, add(CFA_XSP16, literal(-11)))
        CFI (cfiCond55) V0 load(1, XDATA, add(CFA_XSP16, literal(-10)))
        CFI (cfiCond55) V1 load(1, XDATA, add(CFA_XSP16, literal(-9)))
        CFI (cfiCond55) V2 load(1, XDATA, add(CFA_XSP16, literal(-8)))
        CFI (cfiCond55) V3 load(1, XDATA, add(CFA_XSP16, literal(-7)))
        CFI (cfiCond55) R7 load(1, XDATA, add(CFA_XSP16, literal(-6)))
        CFI (cfiCond55) ?RET_LOW load(1, XDATA, add(CFA_XSP16, literal(-5)))
        CFI (cfiCond55) ?RET_HIGH load(1, XDATA, add(CFA_XSP16, literal(-4)))
        CFI (cfiCond55) ?BRET_EXT load(1, XDATA, add(CFA_XSP16, literal(-3)))
        CFI (cfiCond55) DPL0 load(1, XDATA, add(CFA_XSP16, literal(-2)))
        CFI (cfiCond55) DPH0 load(1, XDATA, add(CFA_XSP16, literal(-1)))
        CFI (cfiCond55) CFA_SP SP+0
        CFI (cfiCond55) CFA_XSP16 add(XSP16, 12)
        CFI Block cfiPicker56 Using cfiCommon1
        CFI (cfiPicker56) NoFunction
        CFI (cfiPicker56) Picker
        MOVX    A,@DPTR
        MOV     R0,A
        INC     DPTR
        MOVX    A,@DPTR
        MOV     R1,A
        RET
        CFI EndBlock cfiCond48
        CFI EndBlock cfiCond49
        CFI EndBlock cfiCond50
        CFI EndBlock cfiCond51
        CFI EndBlock cfiCond52
        CFI EndBlock cfiCond53
        CFI EndBlock cfiCond54
        CFI EndBlock cfiCond55
        CFI EndBlock cfiPicker56

        RSEG BANKED_CODE:CODE:NOROOT(0)
?Subroutine11:
        CFI Block cfiCond57 Using cfiCommon0
        CFI NoFunction
        CFI Conditional ??CrossCallReturnLabel_2
        CFI R6 load(1, XDATA, add(CFA_XSP16, literal(-9)))
        CFI VB load(1, XDATA, add(CFA_XSP16, literal(-8)))
        CFI V0 load(1, XDATA, add(CFA_XSP16, literal(-7)))
        CFI R7 load(1, XDATA, add(CFA_XSP16, literal(-6)))
        CFI ?RET_LOW load(1, XDATA, add(CFA_XSP16, literal(-5)))
        CFI ?RET_HIGH load(1, XDATA, add(CFA_XSP16, literal(-4)))
        CFI ?BRET_EXT load(1, XDATA, add(CFA_XSP16, literal(-3)))
        CFI DPL0 load(1, XDATA, add(CFA_XSP16, literal(-2)))
        CFI DPH0 load(1, XDATA, add(CFA_XSP16, literal(-1)))
        CFI CFA_SP SP+0
        CFI CFA_XSP16 add(XSP16, 9)
        CFI Block cfiCond58 Using cfiCommon0
        CFI (cfiCond58) NoFunction
        CFI (cfiCond58) Conditional ??CrossCallReturnLabel_3
        CFI (cfiCond58) R6 load(1, XDATA, add(CFA_XSP16, literal(-10)))
        CFI (cfiCond58) VB load(1, XDATA, add(CFA_XSP16, literal(-9)))
        CFI (cfiCond58) V0 load(1, XDATA, add(CFA_XSP16, literal(-8)))
        CFI (cfiCond58) V1 load(1, XDATA, add(CFA_XSP16, literal(-7)))
        CFI (cfiCond58) R7 load(1, XDATA, add(CFA_XSP16, literal(-6)))
        CFI (cfiCond58) ?RET_LOW load(1, XDATA, add(CFA_XSP16, literal(-5)))
        CFI (cfiCond58) ?RET_HIGH load(1, XDATA, add(CFA_XSP16, literal(-4)))
        CFI (cfiCond58) ?BRET_EXT load(1, XDATA, add(CFA_XSP16, literal(-3)))
        CFI (cfiCond58) DPL0 load(1, XDATA, add(CFA_XSP16, literal(-2)))
        CFI (cfiCond58) DPH0 load(1, XDATA, add(CFA_XSP16, literal(-1)))
        CFI (cfiCond58) CFA_SP SP+0
        CFI (cfiCond58) CFA_XSP16 add(XSP16, 11)
        CFI Block cfiPicker59 Using cfiCommon1
        CFI (cfiPicker59) NoFunction
        CFI (cfiPicker59) Picker
        MOVX    @DPTR,A
        ; Setup parameters for call to function sAddrExtCpy
        ; Setup parameters for call to function sAddrExtCpy
        MOV     R4,#(_NIB + 53) & 0xff
        MOV     R5,#((_NIB + 53) >> 8) & 0xff
        MOV     R2,#ZDO_UseExtendedPANID & 0xff
        MOV     R3,#(ZDO_UseExtendedPANID >> 8) & 0xff
        LCALL   ??sAddrExtCpy?relay
        RET
        CFI EndBlock cfiCond57
        CFI EndBlock cfiCond58
        CFI EndBlock cfiPicker59
// 1168 
// 1169 /*********************************************************************
// 1170  * @fn      ZDApp_ProcessMsgCBs()
// 1171  *
// 1172  * @brief   Process response messages
// 1173  *
// 1174  * @param   none
// 1175  *
// 1176  * @return  none
// 1177  */

        RSEG BANKED_CODE:CODE:NOROOT(0)
// 1178 void ZDApp_ProcessMsgCBs( zdoIncomingMsg_t *inMsg )
ZDApp_ProcessMsgCBs:
        CFI Block cfiBlock60 Using cfiCommon0
        CFI Function ZDApp_ProcessMsgCBs
        CODE
// 1179 {
        FUNCALL ZDApp_ProcessMsgCBs, ZDO_ParseAddrRsp
        LOCFRAME ISTACK, 0, STACK
        LOCFRAME PSTACK, 0, STACK
        LOCFRAME XSTACK, 31, STACK
        LOCFRAME IOVERLAY, 0, STATIC
        LOCFRAME DOVERLAY, 0, STATIC
        ARGFRAME ISTACK, 0, STACK
        ARGFRAME PSTACK, 0, STACK
        ARGFRAME XSTACK, 31, STACK
        ARGFRAME IOVERLAY, 0, STATIC
        ARGFRAME DOVERLAY, 0, STATIC
        FUNCALL ZDApp_ProcessMsgCBs, ZDO_UpdateAddrManager
        LOCFRAME ISTACK, 0, STACK
        LOCFRAME PSTACK, 0, STACK
        LOCFRAME XSTACK, 31, STACK
        LOCFRAME IOVERLAY, 0, STATIC
        LOCFRAME DOVERLAY, 0, STATIC
        ARGFRAME ISTACK, 0, STACK
        ARGFRAME PSTACK, 0, STACK
        ARGFRAME XSTACK, 31, STACK
        ARGFRAME IOVERLAY, 0, STATIC
        ARGFRAME DOVERLAY, 0, STATIC
        FUNCALL ZDApp_ProcessMsgCBs, osal_mem_free
        LOCFRAME ISTACK, 0, STACK
        LOCFRAME PSTACK, 0, STACK
        LOCFRAME XSTACK, 31, STACK
        LOCFRAME IOVERLAY, 0, STATIC
        LOCFRAME DOVERLAY, 0, STATIC
        ARGFRAME ISTACK, 0, STACK
        ARGFRAME PSTACK, 0, STACK
        ARGFRAME XSTACK, 31, STACK
        ARGFRAME IOVERLAY, 0, STATIC
        ARGFRAME DOVERLAY, 0, STATIC
        FUNCALL ZDApp_ProcessMsgCBs, ZDO_ParseBindUnbindReq
        LOCFRAME ISTACK, 0, STACK
        LOCFRAME PSTACK, 0, STACK
        LOCFRAME XSTACK, 31, STACK
        LOCFRAME IOVERLAY, 0, STATIC
        LOCFRAME DOVERLAY, 0, STATIC
        ARGFRAME ISTACK, 0, STACK
        ARGFRAME PSTACK, 0, STACK
        ARGFRAME XSTACK, 31, STACK
        ARGFRAME IOVERLAY, 0, STATIC
        ARGFRAME DOVERLAY, 0, STATIC
        FUNCALL ZDApp_ProcessMsgCBs, ZDO_ProcessBindUnbindReq
        LOCFRAME ISTACK, 0, STACK
        LOCFRAME PSTACK, 0, STACK
        LOCFRAME XSTACK, 31, STACK
        LOCFRAME IOVERLAY, 0, STATIC
        LOCFRAME DOVERLAY, 0, STATIC
        ARGFRAME ISTACK, 0, STACK
        ARGFRAME PSTACK, 0, STACK
        ARGFRAME XSTACK, 31, STACK
        ARGFRAME IOVERLAY, 0, STATIC
        ARGFRAME DOVERLAY, 0, STATIC
        MOV     A,#-0xa
        LCALL   ?BANKED_ENTER_XDATA
        CFI DPH0 load(1, XDATA, add(CFA_XSP16, literal(-1)))
        CFI DPL0 load(1, XDATA, add(CFA_XSP16, literal(-2)))
        CFI ?BRET_EXT load(1, XDATA, add(CFA_XSP16, literal(-3)))
        CFI ?RET_HIGH load(1, XDATA, add(CFA_XSP16, literal(-4)))
        CFI ?RET_LOW load(1, XDATA, add(CFA_XSP16, literal(-5)))
        CFI R7 load(1, XDATA, add(CFA_XSP16, literal(-6)))
        CFI V1 load(1, XDATA, add(CFA_XSP16, literal(-7)))
        CFI V0 load(1, XDATA, add(CFA_XSP16, literal(-8)))
        CFI VB load(1, XDATA, add(CFA_XSP16, literal(-9)))
        CFI R6 load(1, XDATA, add(CFA_XSP16, literal(-10)))
        CFI CFA_SP SP+0
        CFI CFA_XSP16 add(XSP16, 10)
        ; Saved register size: 10
        ; Auto size: 21
        MOV     A,#-0x15
        LCALL   ?ALLOC_XSTACK8
        CFI CFA_XSP16 add(XSP16, 31)
        MOV     A,R2
        MOV     R6,A
        MOV     A,R3
        MOV     R7,A
// 1180   switch ( inMsg->clusterID )
        LCALL   ?Subroutine30 & 0xFFFF
??CrossCallReturnLabel_34:
        MOV     ?V0 + 1,A
        MOV     R0,#?V0 + 0
        LCALL   ?US_SWITCH_SPARSE
`?<Jumptable for ZDApp_ProcessMsgCBs>_0`:
        DATA
        DATA16
        DATA
        DATA16
        DATA
        DATA16
        DW        2
        DATA
        DATA16
        DATA
        DATA16
        DATA
        DATA16
        DW        33
        DATA
        DATA16
        DATA
        DATA16
        DW        34
        DATA
        DATA16
        DATA
        DATA16
        DATA
        DATA16
        DW        ??ZDApp_ProcessMsgCBs_0
        DATA
        DATA16
        DATA
        DATA16
        DATA
        DATA16
        DW        32768
        DATA
        DATA16
        DATA
        DATA16
        DW        32769
        DATA
        DATA16
        DATA
        DATA16
        DATA
        DATA16
        DW        ??ZDApp_ProcessMsgCBs_1
        DATA
        DATA16
        DATA
        DATA16
        DATA
        DATA16
        DW        0
        DATA
        DATA16
        DATA
        DATA16
        DW        ??ZDApp_ProcessMsgCBs_2
        CODE
// 1181   {
// 1182 #if defined ( ZDO_NWKADDR_REQUEST ) || defined ( ZDO_IEEEADDR_REQUEST ) || defined ( REFLECTOR )
// 1183     case NWK_addr_rsp:
// 1184     case IEEE_addr_rsp:
// 1185       {
// 1186         ZDO_NwkIEEEAddrResp_t *pAddrRsp;
// 1187         pAddrRsp = ZDO_ParseAddrRsp( inMsg );
??ZDApp_ProcessMsgCBs_1:
        ; Setup parameters for call to function ZDO_ParseAddrRsp
        LCALL   ??ZDO_ParseAddrRsp?relay
        MOV     ?V0 + 0,R2
        MOV     ?V0 + 1,R3
        MOV     R6,?V0 + 0
        MOV     R7,?V0 + 1
// 1188         if ( pAddrRsp )
        MOV     A,R6
        ORL     A,R7
        JZ      ??ZDApp_ProcessMsgCBs_2
// 1189         {
// 1190           if ( pAddrRsp->status == ZSuccess )
        MOV     DPL,R6
        MOV     DPH,R7
        MOVX    A,@DPTR
        JNZ     ??ZDApp_ProcessMsgCBs_3
// 1191           {
// 1192             ZDO_UpdateAddrManager( pAddrRsp->nwkAddr, pAddrRsp->extAddr );
        ; Setup parameters for call to function ZDO_UpdateAddrManager
        MOV     A,R6
        ADD     A,#0x3
        MOV     R4,A
        MOV     A,R7
        ADDC    A,#0x0
        MOV     R5,A
        INC     DPTR
        MOVX    A,@DPTR
        MOV     R2,A
        INC     DPTR
        MOVX    A,@DPTR
        MOV     R3,A
        LCALL   ??ZDO_UpdateAddrManager?relay
// 1193           }
// 1194           osal_mem_free( pAddrRsp );
??ZDApp_ProcessMsgCBs_3:
        ; Setup parameters for call to function osal_mem_free
        MOV     A,R6
        MOV     R2,A
        MOV     A,R7
        MOV     R3,A
        LCALL   ??osal_mem_free?relay
        SJMP    ??ZDApp_ProcessMsgCBs_2
// 1195         }
// 1196       }
// 1197       break;
// 1198 #endif
// 1199 
// 1200 #if defined ( REFLECTOR )
// 1201     case Bind_req:
// 1202     case Unbind_req:
// 1203       {
// 1204         ZDO_BindUnbindReq_t bindReq;
// 1205         ZDO_ParseBindUnbindReq( inMsg, &bindReq );
??ZDApp_ProcessMsgCBs_0:
        ; Setup parameters for call to function ZDO_ParseBindUnbindReq
        MOV     DPL,?XSP + 0
        MOV     DPH,?XSP + 1
        MOV     R4,DPL
        MOV     R5,DPH
        LCALL   ??ZDO_ParseBindUnbindReq?relay
// 1206         ZDO_ProcessBindUnbindReq( inMsg, &bindReq );
        ; Setup parameters for call to function ZDO_ProcessBindUnbindReq
        MOV     DPL,?XSP + 0
        MOV     DPH,?XSP + 1
        MOV     R4,DPL
        MOV     R5,DPH
        MOV     A,R6
        MOV     R2,A
        MOV     A,R7
        MOV     R3,A
        LCALL   ??ZDO_ProcessBindUnbindReq?relay
        CFI EndBlock cfiBlock60
// 1207       }
// 1208       break;
// 1209 #endif
// 1210 
// 1211 #if ( ZG_BUILD_COORDINATOR_TYPE )
// 1212     case Bind_rsp:
// 1213     case Unbind_rsp:
// 1214       if (ZG_DEVICE_COORDINATOR_TYPE && matchED)
// 1215       {
// 1216         ZDMatchSendState(
// 1217              (uint8)((inMsg->clusterID == Bind_rsp) ? ZDMATCH_REASON_BIND_RSP : ZDMATCH_REASON_UNBIND_RSP),
// 1218              ZDO_ParseBindRsp(inMsg), inMsg->TransSeq );
// 1219       }
// 1220       break;
// 1221 
// 1222     case End_Device_Bind_req:
// 1223       if (ZG_DEVICE_COORDINATOR_TYPE)
// 1224       {
// 1225         ZDEndDeviceBind_t bindReq;
// 1226         ZDO_ParseEndDeviceBindReq( inMsg, &bindReq );
// 1227         ZDO_MatchEndDeviceBind( &bindReq );
// 1228 
// 1229         // Freeing the cluster lists - if allocated.
// 1230         if ( bindReq.numInClusters )
// 1231           osal_mem_free( bindReq.inClusters );
// 1232         if ( bindReq.numOutClusters )
// 1233           osal_mem_free( bindReq.outClusters );
// 1234       }
// 1235       break;
// 1236 #endif
// 1237   }
// 1238 }
??ZDApp_ProcessMsgCBs_2:
        REQUIRE ?Subroutine8
        ; // Fall through to label ?Subroutine8

        RSEG BANKED_CODE:CODE:NOROOT(0)
?Subroutine8:
        CFI Block cfiBlock61 Using cfiCommon0
        CFI NoFunction
        CFI CFA_SP SP+0
        CFI CFA_XSP16 add(XSP16, 31)
        CFI VB load(1, XDATA, add(CFA_XSP16, literal(-9)))
        CFI DPL0 load(1, XDATA, add(CFA_XSP16, literal(-2)))
        CFI DPH0 load(1, XDATA, add(CFA_XSP16, literal(-1)))
        CFI R6 load(1, XDATA, add(CFA_XSP16, literal(-10)))
        CFI R7 load(1, XDATA, add(CFA_XSP16, literal(-6)))
        CFI V0 load(1, XDATA, add(CFA_XSP16, literal(-8)))
        CFI V1 load(1, XDATA, add(CFA_XSP16, literal(-7)))
        CFI ?BRET_EXT load(1, XDATA, add(CFA_XSP16, literal(-3)))
        CFI ?RET_HIGH load(1, XDATA, add(CFA_XSP16, literal(-4)))
        CFI ?RET_LOW load(1, XDATA, add(CFA_XSP16, literal(-5)))
        MOV     A,#0x15
        LJMP    ??Subroutine45_0 & 0xFFFF
        CFI EndBlock cfiBlock61
// 1239 
// 1240 /*********************************************************************
// 1241  * @fn      ZDApp_RegisterCBs()
// 1242  *
// 1243  * @brief   Process response messages
// 1244  *
// 1245  * @param   none
// 1246  *
// 1247  * @return  none
// 1248  */

        RSEG BANKED_CODE:CODE:NOROOT(0)
// 1249 void ZDApp_RegisterCBs( void )
ZDApp_RegisterCBs:
        CFI Block cfiBlock62 Using cfiCommon0
        CFI Function ZDApp_RegisterCBs
        CODE
// 1250 {
        FUNCALL ZDApp_RegisterCBs, ZDO_RegisterForZDOMsg
        LOCFRAME ISTACK, 2, STACK
        LOCFRAME PSTACK, 0, STACK
        LOCFRAME XSTACK, 0, STACK
        LOCFRAME IOVERLAY, 0, STATIC
        LOCFRAME DOVERLAY, 0, STATIC
        ARGFRAME ISTACK, 2, STACK
        ARGFRAME PSTACK, 0, STACK
        ARGFRAME XSTACK, 0, STACK
        ARGFRAME IOVERLAY, 0, STATIC
        ARGFRAME DOVERLAY, 0, STATIC
        FUNCALL ZDApp_RegisterCBs, ZDO_RegisterForZDOMsg
        LOCFRAME ISTACK, 2, STACK
        LOCFRAME PSTACK, 0, STACK
        LOCFRAME XSTACK, 0, STACK
        LOCFRAME IOVERLAY, 0, STATIC
        LOCFRAME DOVERLAY, 0, STATIC
        ARGFRAME ISTACK, 2, STACK
        ARGFRAME PSTACK, 0, STACK
        ARGFRAME XSTACK, 0, STACK
        ARGFRAME IOVERLAY, 0, STATIC
        ARGFRAME DOVERLAY, 0, STATIC
        FUNCALL ZDApp_RegisterCBs, ZDO_RegisterForZDOMsg
        LOCFRAME ISTACK, 2, STACK
        LOCFRAME PSTACK, 0, STACK
        LOCFRAME XSTACK, 0, STACK
        LOCFRAME IOVERLAY, 0, STATIC
        LOCFRAME DOVERLAY, 0, STATIC
        ARGFRAME ISTACK, 2, STACK
        ARGFRAME PSTACK, 0, STACK
        ARGFRAME XSTACK, 0, STACK
        ARGFRAME IOVERLAY, 0, STATIC
        ARGFRAME DOVERLAY, 0, STATIC
        FUNCALL ZDApp_RegisterCBs, ZDO_RegisterForZDOMsg
        LOCFRAME ISTACK, 2, STACK
        LOCFRAME PSTACK, 0, STACK
        LOCFRAME XSTACK, 0, STACK
        LOCFRAME IOVERLAY, 0, STATIC
        LOCFRAME DOVERLAY, 0, STATIC
        ARGFRAME ISTACK, 2, STACK
        ARGFRAME PSTACK, 0, STACK
        ARGFRAME XSTACK, 0, STACK
        ARGFRAME IOVERLAY, 0, STATIC
        ARGFRAME DOVERLAY, 0, STATIC
        PUSH    DPL
        CFI DPL0 Frame(CFA_SP, 4)
        CFI CFA_SP SP+-4
        PUSH    DPH
        CFI DPH0 Frame(CFA_SP, 5)
        CFI CFA_SP SP+-5
        ; Saved register size: 2
        ; Auto size: 0
// 1251 #if defined ( ZDO_IEEEADDR_REQUEST ) || defined ( REFLECTOR )
// 1252   ZDO_RegisterForZDOMsg( ZDAppTaskID, IEEE_addr_rsp );
        ; Setup parameters for call to function ZDO_RegisterForZDOMsg
        MOV     R2,#0x1
        LCALL   ?Subroutine22 & 0xFFFF
// 1253 #endif
// 1254 #if defined ( ZDO_NWKADDR_REQUEST ) || defined ( REFLECTOR )
// 1255   ZDO_RegisterForZDOMsg( ZDAppTaskID, NWK_addr_rsp );
??CrossCallReturnLabel_72:
        ; Setup parameters for call to function ZDO_RegisterForZDOMsg
        MOV     R2,#0x0
        LCALL   ?Subroutine22 & 0xFFFF
// 1256 #endif
// 1257 #if ZG_BUILD_COORDINATOR_TYPE
// 1258   ZDO_RegisterForZDOMsg( ZDAppTaskID, Bind_rsp );
// 1259   ZDO_RegisterForZDOMsg( ZDAppTaskID, Unbind_rsp );
// 1260   ZDO_RegisterForZDOMsg( ZDAppTaskID, End_Device_Bind_req );
// 1261 #endif
// 1262 #if defined ( REFLECTOR )
// 1263   ZDO_RegisterForZDOMsg( ZDAppTaskID, Bind_req );
??CrossCallReturnLabel_73:
        ; Setup parameters for call to function ZDO_RegisterForZDOMsg
        MOV     R2,#0x21
        MOV     R3,#0x0
        LCALL   ??Subroutine44_0 & 0xFFFF
// 1264   ZDO_RegisterForZDOMsg( ZDAppTaskID, Unbind_req );
??CrossCallReturnLabel_74:
        ; Setup parameters for call to function ZDO_RegisterForZDOMsg
        MOV     R2,#0x22
        MOV     R3,#0x0
        LCALL   ??Subroutine44_0 & 0xFFFF
// 1265 #endif
// 1266 }
??CrossCallReturnLabel_75:
        LJMP    ?Subroutine2 & 0xFFFF
        CFI EndBlock cfiBlock62

        RSEG BANKED_CODE:CODE:NOROOT(0)
?Subroutine22:
        CFI Block cfiCond63 Using cfiCommon0
        CFI NoFunction
        CFI Conditional ??CrossCallReturnLabel_72
        CFI DPL0 Frame(CFA_SP, 4)
        CFI DPH0 Frame(CFA_SP, 5)
        CFI CFA_SP SP+-5
        CFI Block cfiCond64 Using cfiCommon0
        CFI (cfiCond64) NoFunction
        CFI (cfiCond64) Conditional ??CrossCallReturnLabel_73
        CFI (cfiCond64) DPL0 Frame(CFA_SP, 4)
        CFI (cfiCond64) DPH0 Frame(CFA_SP, 5)
        CFI (cfiCond64) CFA_SP SP+-5
        CFI Block cfiPicker65 Using cfiCommon1
        CFI (cfiPicker65) NoFunction
        CFI (cfiPicker65) Picker
        MOV     R3,#-0x80
        CFI EndBlock cfiCond63
        CFI EndBlock cfiCond64
        CFI EndBlock cfiPicker65
        REQUIRE ??Subroutine44_0
        ; // Fall through to label ??Subroutine44_0

        RSEG BANKED_CODE:CODE:NOROOT(0)
??Subroutine44_0:
        CFI Block cfiCond66 Using cfiCommon0
        CFI NoFunction
        CFI Conditional ??CrossCallReturnLabel_74
        CFI DPL0 Frame(CFA_SP, 4)
        CFI DPH0 Frame(CFA_SP, 5)
        CFI CFA_SP SP+-5
        CFI Block cfiCond67 Using cfiCommon0
        CFI (cfiCond67) NoFunction
        CFI (cfiCond67) Conditional ??CrossCallReturnLabel_75
        CFI (cfiCond67) DPL0 Frame(CFA_SP, 4)
        CFI (cfiCond67) DPH0 Frame(CFA_SP, 5)
        CFI (cfiCond67) CFA_SP SP+-5
        CFI Block cfiCond68 Using cfiCommon0
        CFI (cfiCond68) NoFunction
        CFI (cfiCond68) Conditional ??CrossCallReturnLabel_72
        CFI (cfiCond68) DPL0 Frame(CFA_SP, 4)
        CFI (cfiCond68) DPH0 Frame(CFA_SP, 5)
        CFI (cfiCond68) CFA_SP SP+-5
        CFI Block cfiCond69 Using cfiCommon0
        CFI (cfiCond69) NoFunction
        CFI (cfiCond69) Conditional ??CrossCallReturnLabel_73
        CFI (cfiCond69) DPL0 Frame(CFA_SP, 4)
        CFI (cfiCond69) DPH0 Frame(CFA_SP, 5)
        CFI (cfiCond69) CFA_SP SP+-5
        CFI Block cfiPicker70 Using cfiCommon1
        CFI (cfiPicker70) NoFunction
        CFI (cfiPicker70) Picker
        MOV     DPTR,#ZDAppTaskID
        MOVX    A,@DPTR
        MOV     R1,A
        LCALL   ??ZDO_RegisterForZDOMsg?relay
        RET
        CFI EndBlock cfiCond66
        CFI EndBlock cfiCond67
        CFI EndBlock cfiCond68
        CFI EndBlock cfiCond69
        CFI EndBlock cfiPicker70
// 1267 
// 1268 /*********************************************************************
// 1269  * @fn      ZDApp_ProcessSecMsg()
// 1270  *
// 1271  * @brief   Process the incoming security message.
// 1272  *
// 1273  * @param   msgPtr - message to process
// 1274  *
// 1275  * @return  none
// 1276  */

        RSEG BANKED_CODE:CODE:NOROOT(0)
// 1277 void ZDApp_ProcessSecMsg( osal_event_hdr_t *msgPtr )
ZDApp_ProcessSecMsg:
        CFI Block cfiBlock71 Using cfiCommon0
        CFI Function ZDApp_ProcessSecMsg
        CODE
// 1278 {
        FUNCALL ZDApp_ProcessSecMsg, ZDSecMgrTransportKeyInd
        LOCFRAME ISTACK, 2, STACK
        LOCFRAME PSTACK, 0, STACK
        LOCFRAME XSTACK, 0, STACK
        LOCFRAME IOVERLAY, 0, STATIC
        LOCFRAME DOVERLAY, 0, STATIC
        ARGFRAME ISTACK, 2, STACK
        ARGFRAME PSTACK, 0, STACK
        ARGFRAME XSTACK, 0, STACK
        ARGFRAME IOVERLAY, 0, STATIC
        ARGFRAME DOVERLAY, 0, STATIC
        FUNCALL ZDApp_ProcessSecMsg, ZDSecMgrSwitchKeyInd
        LOCFRAME ISTACK, 2, STACK
        LOCFRAME PSTACK, 0, STACK
        LOCFRAME XSTACK, 0, STACK
        LOCFRAME IOVERLAY, 0, STATIC
        LOCFRAME DOVERLAY, 0, STATIC
        ARGFRAME ISTACK, 2, STACK
        ARGFRAME PSTACK, 0, STACK
        ARGFRAME XSTACK, 0, STACK
        ARGFRAME IOVERLAY, 0, STATIC
        ARGFRAME DOVERLAY, 0, STATIC
        PUSH    DPL
        CFI DPL0 Frame(CFA_SP, 4)
        CFI CFA_SP SP+-4
        PUSH    DPH
        CFI DPH0 Frame(CFA_SP, 5)
        CFI CFA_SP SP+-5
        ; Saved register size: 2
        ; Auto size: 0
// 1279   switch ( msgPtr->event )
        MOV     DPL,R2
        MOV     DPH,R3
        MOVX    A,@DPTR
        ADD     A,#-0x6
        JZ      ??ZDApp_ProcessSecMsg_0
        ADD     A,#-0x4
        JZ      ??ZDApp_ProcessSecMsg_1
        SJMP    ??ZDApp_ProcessSecMsg_2
// 1280   {
// 1281     case ZDO_ESTABLISH_KEY_CFM:
// 1282       if ( ZG_CHECK_SECURITY_MODE == ZG_SECURITY_PRO_HIGH )
// 1283       {
// 1284         ZDSecMgrEstablishKeyCfm( (ZDO_EstablishKeyCfm_t*)msgPtr );
// 1285       }
// 1286       break;
// 1287 
// 1288     case ZDO_ESTABLISH_KEY_IND:
// 1289       if ( ZG_CHECK_SECURITY_MODE == ZG_SECURITY_PRO_HIGH )
// 1290       {
// 1291         if ( ZG_BUILD_JOINING_TYPE && ZG_DEVICE_JOINING_TYPE )
// 1292         {
// 1293           ZDSecMgrEstablishKeyInd( (ZDO_EstablishKeyInd_t*)msgPtr );
// 1294         }
// 1295       }
// 1296       break;
// 1297 
// 1298     case ZDO_TRANSPORT_KEY_IND:
// 1299       if ( ZG_BUILD_JOINING_TYPE && ZG_DEVICE_JOINING_TYPE )
??ZDApp_ProcessSecMsg_0:
        MOV     DPTR,#zgDeviceLogicalType
        MOVX    A,@DPTR
        XRL     A,#0x1
        JZ      ??ZDApp_ProcessSecMsg_3
        MOVX    A,@DPTR
        XRL     A,#0x2
        JNZ     ??ZDApp_ProcessSecMsg_2
// 1300       {
// 1301         ZDSecMgrTransportKeyInd( (ZDO_TransportKeyInd_t*)msgPtr );
??ZDApp_ProcessSecMsg_3:
        ; Setup parameters for call to function ZDSecMgrTransportKeyInd
        LCALL   ??ZDSecMgrTransportKeyInd?relay
        SJMP    ??ZDApp_ProcessSecMsg_2
// 1302       }
// 1303       break;
// 1304 
// 1305     case ZDO_UPDATE_DEVICE_IND:
// 1306       if ( ZG_BUILD_COORDINATOR_TYPE && ZG_DEVICE_COORDINATOR_TYPE )
// 1307       {
// 1308         ZDSecMgrUpdateDeviceInd( (ZDO_UpdateDeviceInd_t*)msgPtr );
// 1309       }
// 1310       break;
// 1311 
// 1312     case ZDO_REMOVE_DEVICE_IND:
// 1313       if ( ZG_BUILD_RTRONLY_TYPE && ( zgDeviceLogicalType == ZG_DEVICETYPE_ROUTER ) )
// 1314       {
// 1315         ZDSecMgrRemoveDeviceInd( (ZDO_RemoveDeviceInd_t*)msgPtr );
// 1316       }
// 1317       break;
// 1318 
// 1319     case ZDO_REQUEST_KEY_IND:
// 1320       if (( ZG_CHECK_SECURITY_MODE == ZG_SECURITY_PRO_HIGH ) ||
// 1321           ( ZG_CHECK_SECURITY_MODE == ZG_SECURITY_SE_STANDARD ))
// 1322       {
// 1323         if ( ZG_BUILD_COORDINATOR_TYPE && ZG_DEVICE_COORDINATOR_TYPE )
// 1324         {
// 1325           ZDSecMgrRequestKeyInd( (ZDO_RequestKeyInd_t*)msgPtr );
// 1326         }
// 1327       }
// 1328       break;
// 1329 
// 1330     case ZDO_SWITCH_KEY_IND:
// 1331       if ( ZG_BUILD_JOINING_TYPE && ZG_DEVICE_JOINING_TYPE )
??ZDApp_ProcessSecMsg_1:
        MOV     DPTR,#zgDeviceLogicalType
        MOVX    A,@DPTR
        XRL     A,#0x1
        JZ      ??ZDApp_ProcessSecMsg_4
        MOVX    A,@DPTR
        XRL     A,#0x2
        JNZ     ??ZDApp_ProcessSecMsg_2
// 1332       {
// 1333         ZDSecMgrSwitchKeyInd( (ZDO_SwitchKeyInd_t*)msgPtr );
??ZDApp_ProcessSecMsg_4:
        ; Setup parameters for call to function ZDSecMgrSwitchKeyInd
        LCALL   ??ZDSecMgrSwitchKeyInd?relay
// 1334       }
// 1335       break;
// 1336 
// 1337     case ZDO_AUTHENTICATE_IND:
// 1338       if ( ZG_CHECK_SECURITY_MODE == ZG_SECURITY_PRO_HIGH )
// 1339       {
// 1340         ZDSecMgrAuthenticateInd( (ZDO_AuthenticateInd_t*)msgPtr );
// 1341       }
// 1342       break;
// 1343 
// 1344     case ZDO_AUTHENTICATE_CFM:
// 1345       if ( ZG_CHECK_SECURITY_MODE == ZG_SECURITY_PRO_HIGH )
// 1346       {
// 1347         ZDSecMgrAuthenticateCfm( (ZDO_AuthenticateCfm_t*)msgPtr );
// 1348       }
// 1349       break;
// 1350 
// 1351     default:
// 1352       // Unsupported messages
// 1353       break;
// 1354   }
// 1355 }
??ZDApp_ProcessSecMsg_2:
        LJMP    ?Subroutine2 & 0xFFFF
        CFI EndBlock cfiBlock71
// 1356 
// 1357 /*********************************************************************
// 1358  * @fn      ZDApp_ProcessNetworkJoin()
// 1359  *
// 1360  * @brief
// 1361  *
// 1362  *   Save off the Network key information.
// 1363  *
// 1364  * @param   none
// 1365  *
// 1366  * @return  none
// 1367  */

        RSEG BANKED_CODE:CODE:NOROOT(0)
// 1368 void ZDApp_ProcessNetworkJoin( void )
ZDApp_ProcessNetworkJoin:
        CFI Block cfiBlock72 Using cfiCommon0
        CFI Function ZDApp_ProcessNetworkJoin
        CODE
// 1369 {
        FUNCALL ZDApp_ProcessNetworkJoin, osal_set_event
        LOCFRAME ISTACK, 0, STACK
        LOCFRAME PSTACK, 0, STACK
        LOCFRAME XSTACK, 12, STACK
        LOCFRAME IOVERLAY, 0, STATIC
        LOCFRAME DOVERLAY, 0, STATIC
        ARGFRAME ISTACK, 0, STACK
        ARGFRAME PSTACK, 0, STACK
        ARGFRAME XSTACK, 12, STACK
        ARGFRAME IOVERLAY, 0, STATIC
        ARGFRAME DOVERLAY, 0, STATIC
        FUNCALL ZDApp_ProcessNetworkJoin, ZDApp_AnnounceNewAddress
        LOCFRAME ISTACK, 0, STACK
        LOCFRAME PSTACK, 0, STACK
        LOCFRAME XSTACK, 12, STACK
        LOCFRAME IOVERLAY, 0, STATIC
        LOCFRAME DOVERLAY, 0, STATIC
        ARGFRAME ISTACK, 0, STACK
        ARGFRAME PSTACK, 0, STACK
        ARGFRAME XSTACK, 12, STACK
        ARGFRAME IOVERLAY, 0, STATIC
        ARGFRAME DOVERLAY, 0, STATIC
        FUNCALL ZDApp_ProcessNetworkJoin, NLME_GetShortAddr
        LOCFRAME ISTACK, 0, STACK
        LOCFRAME PSTACK, 0, STACK
        LOCFRAME XSTACK, 12, STACK
        LOCFRAME IOVERLAY, 0, STATIC
        LOCFRAME DOVERLAY, 0, STATIC
        ARGFRAME ISTACK, 0, STACK
        ARGFRAME PSTACK, 0, STACK
        ARGFRAME XSTACK, 12, STACK
        ARGFRAME IOVERLAY, 0, STATIC
        ARGFRAME DOVERLAY, 0, STATIC
        FUNCALL ZDApp_ProcessNetworkJoin, ZMacSetReq
        LOCFRAME ISTACK, 0, STACK
        LOCFRAME PSTACK, 0, STACK
        LOCFRAME XSTACK, 12, STACK
        LOCFRAME IOVERLAY, 0, STATIC
        LOCFRAME DOVERLAY, 0, STATIC
        ARGFRAME ISTACK, 0, STACK
        ARGFRAME PSTACK, 0, STACK
        ARGFRAME XSTACK, 12, STACK
        ARGFRAME IOVERLAY, 0, STATIC
        ARGFRAME DOVERLAY, 0, STATIC
        FUNCALL ZDApp_ProcessNetworkJoin, nwkNeighborInitTable
        LOCFRAME ISTACK, 0, STACK
        LOCFRAME PSTACK, 0, STACK
        LOCFRAME XSTACK, 12, STACK
        LOCFRAME IOVERLAY, 0, STATIC
        LOCFRAME DOVERLAY, 0, STATIC
        ARGFRAME ISTACK, 0, STACK
        ARGFRAME PSTACK, 0, STACK
        ARGFRAME XSTACK, 12, STACK
        ARGFRAME IOVERLAY, 0, STATIC
        ARGFRAME DOVERLAY, 0, STATIC
        FUNCALL ZDApp_ProcessNetworkJoin, NLME_NwkDiscTerm
        LOCFRAME ISTACK, 0, STACK
        LOCFRAME PSTACK, 0, STACK
        LOCFRAME XSTACK, 12, STACK
        LOCFRAME IOVERLAY, 0, STATIC
        LOCFRAME DOVERLAY, 0, STATIC
        ARGFRAME ISTACK, 0, STACK
        ARGFRAME PSTACK, 0, STACK
        ARGFRAME XSTACK, 12, STACK
        ARGFRAME IOVERLAY, 0, STATIC
        ARGFRAME DOVERLAY, 0, STATIC
        FUNCALL ZDApp_ProcessNetworkJoin, osal_rand
        LOCFRAME ISTACK, 0, STACK
        LOCFRAME PSTACK, 0, STACK
        LOCFRAME XSTACK, 12, STACK
        LOCFRAME IOVERLAY, 0, STATIC
        LOCFRAME DOVERLAY, 0, STATIC
        ARGFRAME ISTACK, 0, STACK
        ARGFRAME PSTACK, 0, STACK
        ARGFRAME XSTACK, 12, STACK
        ARGFRAME IOVERLAY, 0, STATIC
        ARGFRAME DOVERLAY, 0, STATIC
        FUNCALL ZDApp_ProcessNetworkJoin, ZDApp_NetworkInit
        LOCFRAME ISTACK, 0, STACK
        LOCFRAME PSTACK, 0, STACK
        LOCFRAME XSTACK, 12, STACK
        LOCFRAME IOVERLAY, 0, STATIC
        LOCFRAME DOVERLAY, 0, STATIC
        ARGFRAME ISTACK, 0, STACK
        ARGFRAME PSTACK, 0, STACK
        ARGFRAME XSTACK, 12, STACK
        ARGFRAME IOVERLAY, 0, STATIC
        ARGFRAME DOVERLAY, 0, STATIC
        FUNCALL ZDApp_ProcessNetworkJoin, osal_set_event
        LOCFRAME ISTACK, 0, STACK
        LOCFRAME PSTACK, 0, STACK
        LOCFRAME XSTACK, 12, STACK
        LOCFRAME IOVERLAY, 0, STATIC
        LOCFRAME DOVERLAY, 0, STATIC
        ARGFRAME ISTACK, 0, STACK
        ARGFRAME PSTACK, 0, STACK
        ARGFRAME XSTACK, 12, STACK
        ARGFRAME IOVERLAY, 0, STATIC
        ARGFRAME DOVERLAY, 0, STATIC
        FUNCALL ZDApp_ProcessNetworkJoin, NLME_SetPollRate
        LOCFRAME ISTACK, 0, STACK
        LOCFRAME PSTACK, 0, STACK
        LOCFRAME XSTACK, 12, STACK
        LOCFRAME IOVERLAY, 0, STATIC
        LOCFRAME DOVERLAY, 0, STATIC
        ARGFRAME ISTACK, 0, STACK
        ARGFRAME PSTACK, 0, STACK
        ARGFRAME XSTACK, 12, STACK
        ARGFRAME IOVERLAY, 0, STATIC
        ARGFRAME DOVERLAY, 0, STATIC
        FUNCALL ZDApp_ProcessNetworkJoin, NLME_SetQueuedPollRate
        LOCFRAME ISTACK, 0, STACK
        LOCFRAME PSTACK, 0, STACK
        LOCFRAME XSTACK, 12, STACK
        LOCFRAME IOVERLAY, 0, STATIC
        LOCFRAME DOVERLAY, 0, STATIC
        ARGFRAME ISTACK, 0, STACK
        ARGFRAME PSTACK, 0, STACK
        ARGFRAME XSTACK, 12, STACK
        ARGFRAME IOVERLAY, 0, STATIC
        ARGFRAME DOVERLAY, 0, STATIC
        FUNCALL ZDApp_ProcessNetworkJoin, NLME_SetResponseRate
        LOCFRAME ISTACK, 0, STACK
        LOCFRAME PSTACK, 0, STACK
        LOCFRAME XSTACK, 12, STACK
        LOCFRAME IOVERLAY, 0, STATIC
        LOCFRAME DOVERLAY, 0, STATIC
        ARGFRAME ISTACK, 0, STACK
        ARGFRAME PSTACK, 0, STACK
        ARGFRAME XSTACK, 12, STACK
        ARGFRAME IOVERLAY, 0, STATIC
        ARGFRAME DOVERLAY, 0, STATIC
        FUNCALL ZDApp_ProcessNetworkJoin, ZDApp_AnnounceNewAddress
        LOCFRAME ISTACK, 0, STACK
        LOCFRAME PSTACK, 0, STACK
        LOCFRAME XSTACK, 12, STACK
        LOCFRAME IOVERLAY, 0, STATIC
        LOCFRAME DOVERLAY, 0, STATIC
        ARGFRAME ISTACK, 0, STACK
        ARGFRAME PSTACK, 0, STACK
        ARGFRAME XSTACK, 12, STACK
        ARGFRAME IOVERLAY, 0, STATIC
        ARGFRAME DOVERLAY, 0, STATIC
        FUNCALL ZDApp_ProcessNetworkJoin, nwkNeighborInitTable
        LOCFRAME ISTACK, 0, STACK
        LOCFRAME PSTACK, 0, STACK
        LOCFRAME XSTACK, 12, STACK
        LOCFRAME IOVERLAY, 0, STATIC
        LOCFRAME DOVERLAY, 0, STATIC
        ARGFRAME ISTACK, 0, STACK
        ARGFRAME PSTACK, 0, STACK
        ARGFRAME XSTACK, 12, STACK
        ARGFRAME IOVERLAY, 0, STATIC
        ARGFRAME DOVERLAY, 0, STATIC
        FUNCALL ZDApp_ProcessNetworkJoin, NLME_NwkDiscTerm
        LOCFRAME ISTACK, 0, STACK
        LOCFRAME PSTACK, 0, STACK
        LOCFRAME XSTACK, 12, STACK
        LOCFRAME IOVERLAY, 0, STATIC
        LOCFRAME DOVERLAY, 0, STATIC
        ARGFRAME ISTACK, 0, STACK
        ARGFRAME PSTACK, 0, STACK
        ARGFRAME XSTACK, 12, STACK
        ARGFRAME IOVERLAY, 0, STATIC
        ARGFRAME DOVERLAY, 0, STATIC
        FUNCALL ZDApp_ProcessNetworkJoin, osal_rand
        LOCFRAME ISTACK, 0, STACK
        LOCFRAME PSTACK, 0, STACK
        LOCFRAME XSTACK, 12, STACK
        LOCFRAME IOVERLAY, 0, STATIC
        LOCFRAME DOVERLAY, 0, STATIC
        ARGFRAME ISTACK, 0, STACK
        ARGFRAME PSTACK, 0, STACK
        ARGFRAME XSTACK, 12, STACK
        ARGFRAME IOVERLAY, 0, STATIC
        ARGFRAME DOVERLAY, 0, STATIC
        FUNCALL ZDApp_ProcessNetworkJoin, ZDApp_NetworkInit
        LOCFRAME ISTACK, 0, STACK
        LOCFRAME PSTACK, 0, STACK
        LOCFRAME XSTACK, 12, STACK
        LOCFRAME IOVERLAY, 0, STATIC
        LOCFRAME DOVERLAY, 0, STATIC
        ARGFRAME ISTACK, 0, STACK
        ARGFRAME PSTACK, 0, STACK
        ARGFRAME XSTACK, 12, STACK
        ARGFRAME IOVERLAY, 0, STATIC
        ARGFRAME DOVERLAY, 0, STATIC
        FUNCALL ZDApp_ProcessNetworkJoin, ZDApp_AnnounceNewAddress
        LOCFRAME ISTACK, 0, STACK
        LOCFRAME PSTACK, 0, STACK
        LOCFRAME XSTACK, 12, STACK
        LOCFRAME IOVERLAY, 0, STATIC
        LOCFRAME DOVERLAY, 0, STATIC
        ARGFRAME ISTACK, 0, STACK
        ARGFRAME PSTACK, 0, STACK
        ARGFRAME XSTACK, 12, STACK
        ARGFRAME IOVERLAY, 0, STATIC
        ARGFRAME DOVERLAY, 0, STATIC
        FUNCALL ZDApp_ProcessNetworkJoin, osal_set_event
        LOCFRAME ISTACK, 0, STACK
        LOCFRAME PSTACK, 0, STACK
        LOCFRAME XSTACK, 12, STACK
        LOCFRAME IOVERLAY, 0, STATIC
