###############################################################################
#
# IAR C/C++ Compiler V10.30.1.6000 for 8051               23/Apr/2019  16:49:29
# Copyright 2004-2018 IAR Systems AB.
# PC-locked license - IAR Embedded Workbench for 8051
#
#    Core               =  plain
#    Code model         =  banked
#    Data model         =  large
#    Calling convention =  xdata reentrant
#    Constant location  =  data_rom
#    Dptr setup         =  1,16
#                          
#    Source file        =  
#        E:\qqÏÂÔØÎÄ¼þ\½á¿Î×÷Òµ\ZigBee\ÊµÑéÖ¸µ¼Êé\ÊµÑéÖ¸µ¼Êé\Code\Cap2_ZStack\ZStack-CC2530-r200\ZStack-CC2530-r200\Components\stack\af\AF.c
#    Command line       =  
#        -f C:\Users\VULCAN\AppData\Local\Temp\EWD591.tmp
#        (E:\qqÏÂÔØÎÄ¼þ\½á¿Î×÷Òµ\ZigBee\ÊµÑéÖ¸µ¼Êé\ÊµÑéÖ¸µ¼Êé\Code\Cap2_ZStack\ZStack-CC2530-r200\ZStack-CC2530-r200\Components\stack\af\AF.c
#        -D NWK_AUTO_POLL -D ZTOOL_P1 -D MT_TASK -D xMT_SYS_FUNC -D MT_ZDO_FUNC
#        -D SAPP_ZSTACK_DEMO -lC
#        E:\qqÏÂÔØÎÄ¼þ\½á¿Î×÷Òµ\ZigBee\ÊµÑéÖ¸µ¼Êé\ÊµÑéÖ¸µ¼Êé\Code\Cap2_ZStack\ZStack-CC2530-r200\ZStack-CC2530-r200\Projects\SappWsn\Demo\List
#        -lA
#        E:\qqÏÂÔØÎÄ¼þ\½á¿Î×÷Òµ\ZigBee\ÊµÑéÖ¸µ¼Êé\ÊµÑéÖ¸µ¼Êé\Code\Cap2_ZStack\ZStack-CC2530-r200\ZStack-CC2530-r200\Projects\SappWsn\Demo\List
#        --diag_suppress Pe001,Pa010 -o
#        E:\qqÏÂÔØÎÄ¼þ\½á¿Î×÷Òµ\ZigBee\ÊµÑéÖ¸µ¼Êé\ÊµÑéÖ¸µ¼Êé\Code\Cap2_ZStack\ZStack-CC2530-r200\ZStack-CC2530-r200\Projects\SappWsn\Demo\Obj
#        -e --debug --core=plain --dptr=16,1 --data_model=large
#        --code_model=banked --calling_convention=xdata_reentrant
#        --place_constants=data_rom --nr_virtual_regs 16 -f
#        E:\qqÏÂÔØÎÄ¼þ\½á¿Î×÷Òµ\ZigBee\ÊµÑéÖ¸µ¼Êé\ÊµÑéÖ¸µ¼Êé\Code\Cap2_ZStack\ZStack-CC2530-r200\ZStack-CC2530-r200\Projects\SappWsn\..\zstack\Tools\CC2530DB\f8wEndev.cfg
#        (-DCPU32MHZ -DROOT=__near_func -DMAC_CFG_TX_DATA_MAX=3
#        -DMAC_CFG_TX_MAX=6 -DMAC_CFG_RX_MAX=3) -f
#        E:\qqÏÂÔØÎÄ¼þ\½á¿Î×÷Òµ\ZigBee\ÊµÑéÖ¸µ¼Êé\ÊµÑéÖ¸µ¼Êé\Code\Cap2_ZStack\ZStack-CC2530-r200\ZStack-CC2530-r200\Projects\SappWsn\..\zstack\Tools\CC2530DB\f8wConfig.cfg
#        (-DZIGBEEPRO -DSECURE=0 -DZG_SECURE_DYNAMIC=0 -DREFLECTOR
#        -DDEFAULT_CHANLIST=0x00000800 -DZDAPP_CONFIG_PAN_ID=0x0056
#        -DNWK_START_DELAY=100 -DEXTENDED_JOINING_RANDOM_MASK=0x007F
#        -DBEACON_REQUEST_DELAY=100 -DBEACON_REQ_DELAY_MASK=0x00FF
#        -DLINK_STATUS_JITTER_MASK=0x007F -DROUTE_EXPIRY_TIME=30
#        -DAPSC_ACK_WAIT_DURATION_POLLED=3000 -DNWK_INDIRECT_MSG_TIMEOUT=7
#        -DMAX_RREQ_ENTRIES=8 -DAPSC_MAX_FRAME_RETRIES=3
#        -DNWK_MAX_DATA_RETRIES=2 -DMAX_POLL_FAILURE_RETRIES=2 -DMAX_BCAST=9
#        -DAPS_MAX_GROUPS=16 -DMAX_RTG_ENTRIES=40 -DNWK_MAX_BINDING_ENTRIES=4
#        -DMAX_BINDING_CLUSTER_IDS=4 "-DDEFAULT_KEY={0x01, 0x03, 0x05, 0x07,
#        0x09, 0x0B, 0x0D, 0x0F, 0x00, 0x02, 0x04, 0x06, 0x08, 0x0A, 0x0C,
#        0x0D}" -DMAC_MAX_FRAME_SIZE=116 -DZDNWKMGR_MIN_TRANSMISSIONS=20
#        "-DCONST=const __code" -DGENERIC=__generic -DRFD_RCVC_ALWAYS_ON=FALSE
#        -DPOLL_RATE=1000 -DQUEUED_POLL_RATE=100 -DRESPONSE_POLL_RATE=100
#        -DREJOIN_POLL_RATE=440) -I
#        E:\qqÏÂÔØÎÄ¼þ\½á¿Î×÷Òµ\ZigBee\ÊµÑéÖ¸µ¼Êé\ÊµÑéÖ¸µ¼Êé\Code\Cap2_ZStack\ZStack-CC2530-r200\ZStack-CC2530-r200\Projects\SappWsn\
#        -I
#        E:\qqÏÂÔØÎÄ¼þ\½á¿Î×÷Òµ\ZigBee\ÊµÑéÖ¸µ¼Êé\ÊµÑéÖ¸µ¼Êé\Code\Cap2_ZStack\ZStack-CC2530-r200\ZStack-CC2530-r200\Projects\SappWsn\Source\
#        -I
#        E:\qqÏÂÔØÎÄ¼þ\½á¿Î×÷Òµ\ZigBee\ÊµÑéÖ¸µ¼Êé\ÊµÑéÖ¸µ¼Êé\Code\Cap2_ZStack\ZStack-CC2530-r200\ZStack-CC2530-r200\Projects\SappWsn\..\zstack\ZMain\TI2530DB\
#        -I
#        E:\qqÏÂÔØÎÄ¼þ\½á¿Î×÷Òµ\ZigBee\ÊµÑéÖ¸µ¼Êé\ÊµÑéÖ¸µ¼Êé\Code\Cap2_ZStack\ZStack-CC2530-r200\ZStack-CC2530-r200\Projects\SappWsn\..\..\Components\hal\include\
#        -I
#        E:\qqÏÂÔØÎÄ¼þ\½á¿Î×÷Òµ\ZigBee\ÊµÑéÖ¸µ¼Êé\ÊµÑéÖ¸µ¼Êé\Code\Cap2_ZStack\ZStack-CC2530-r200\ZStack-CC2530-r200\Projects\SappWsn\..\..\Components\hal\target\CC2530EB\
#        -I
#        E:\qqÏÂÔØÎÄ¼þ\½á¿Î×÷Òµ\ZigBee\ÊµÑéÖ¸µ¼Êé\ÊµÑéÖ¸µ¼Êé\Code\Cap2_ZStack\ZStack-CC2530-r200\ZStack-CC2530-r200\Projects\SappWsn\..\..\Components\mac\include\
#        -I
#        E:\qqÏÂÔØÎÄ¼þ\½á¿Î×÷Òµ\ZigBee\ÊµÑéÖ¸µ¼Êé\ÊµÑéÖ¸µ¼Êé\Code\Cap2_ZStack\ZStack-CC2530-r200\ZStack-CC2530-r200\Projects\SappWsn\..\..\Components\mac\high_level\
#        -I
#        E:\qqÏÂÔØÎÄ¼þ\½á¿Î×÷Òµ\ZigBee\ÊµÑéÖ¸µ¼Êé\ÊµÑéÖ¸µ¼Êé\Code\Cap2_ZStack\ZStack-CC2530-r200\ZStack-CC2530-r200\Projects\SappWsn\..\..\Components\mac\low_level\srf04\
#        -I
#        E:\qqÏÂÔØÎÄ¼þ\½á¿Î×÷Òµ\ZigBee\ÊµÑéÖ¸µ¼Êé\ÊµÑéÖ¸µ¼Êé\Code\Cap2_ZStack\ZStack-CC2530-r200\ZStack-CC2530-r200\Projects\SappWsn\..\..\Components\mac\low_level\srf04\single_chip\
#        -I
#        E:\qqÏÂÔØÎÄ¼þ\½á¿Î×÷Òµ\ZigBee\ÊµÑéÖ¸µ¼Êé\ÊµÑéÖ¸µ¼Êé\Code\Cap2_ZStack\ZStack-CC2530-r200\ZStack-CC2530-r200\Projects\SappWsn\..\..\Components\mt\
#        -I
#        E:\qqÏÂÔØÎÄ¼þ\½á¿Î×÷Òµ\ZigBee\ÊµÑéÖ¸µ¼Êé\ÊµÑéÖ¸µ¼Êé\Code\Cap2_ZStack\ZStack-CC2530-r200\ZStack-CC2530-r200\Projects\SappWsn\..\..\Components\osal\include\
#        -I
#        E:\qqÏÂÔØÎÄ¼þ\½á¿Î×÷Òµ\ZigBee\ÊµÑéÖ¸µ¼Êé\ÊµÑéÖ¸µ¼Êé\Code\Cap2_ZStack\ZStack-CC2530-r200\ZStack-CC2530-r200\Projects\SappWsn\..\..\Components\services\saddr\
#        -I
#        E:\qqÏÂÔØÎÄ¼þ\½á¿Î×÷Òµ\ZigBee\ÊµÑéÖ¸µ¼Êé\ÊµÑéÖ¸µ¼Êé\Code\Cap2_ZStack\ZStack-CC2530-r200\ZStack-CC2530-r200\Projects\SappWsn\..\..\Components\services\sdata\
#        -I
#        E:\qqÏÂÔØÎÄ¼þ\½á¿Î×÷Òµ\ZigBee\ÊµÑéÖ¸µ¼Êé\ÊµÑéÖ¸µ¼Êé\Code\Cap2_ZStack\ZStack-CC2530-r200\ZStack-CC2530-r200\Projects\SappWsn\..\..\Components\stack\af\
#        -I
#        E:\qqÏÂÔØÎÄ¼þ\½á¿Î×÷Òµ\ZigBee\ÊµÑéÖ¸µ¼Êé\ÊµÑéÖ¸µ¼Êé\Code\Cap2_ZStack\ZStack-CC2530-r200\ZStack-CC2530-r200\Projects\SappWsn\..\..\Components\stack\nwk\
#        -I
#        E:\qqÏÂÔØÎÄ¼þ\½á¿Î×÷Òµ\ZigBee\ÊµÑéÖ¸µ¼Êé\ÊµÑéÖ¸µ¼Êé\Code\Cap2_ZStack\ZStack-CC2530-r200\ZStack-CC2530-r200\Projects\SappWsn\..\..\Components\stack\sapi\
#        -I
#        E:\qqÏÂÔØÎÄ¼þ\½á¿Î×÷Òµ\ZigBee\ÊµÑéÖ¸µ¼Êé\ÊµÑéÖ¸µ¼Êé\Code\Cap2_ZStack\ZStack-CC2530-r200\ZStack-CC2530-r200\Projects\SappWsn\..\..\Components\stack\sec\
#        -I
#        E:\qqÏÂÔØÎÄ¼þ\½á¿Î×÷Òµ\ZigBee\ÊµÑéÖ¸µ¼Êé\ÊµÑéÖ¸µ¼Êé\Code\Cap2_ZStack\ZStack-CC2530-r200\ZStack-CC2530-r200\Projects\SappWsn\..\..\Components\stack\sys\
#        -I
#        E:\qqÏÂÔØÎÄ¼þ\½á¿Î×÷Òµ\ZigBee\ÊµÑéÖ¸µ¼Êé\ÊµÑéÖ¸µ¼Êé\Code\Cap2_ZStack\ZStack-CC2530-r200\ZStack-CC2530-r200\Projects\SappWsn\..\..\Components\stack\zdo\
#        -I
#        E:\qqÏÂÔØÎÄ¼þ\½á¿Î×÷Òµ\ZigBee\ÊµÑéÖ¸µ¼Êé\ÊµÑéÖ¸µ¼Êé\Code\Cap2_ZStack\ZStack-CC2530-r200\ZStack-CC2530-r200\Projects\SappWsn\..\..\Components\zmac\
#        -I
#        E:\qqÏÂÔØÎÄ¼þ\½á¿Î×÷Òµ\ZigBee\ÊµÑéÖ¸µ¼Êé\ÊµÑéÖ¸µ¼Êé\Code\Cap2_ZStack\ZStack-CC2530-r200\ZStack-CC2530-r200\Projects\SappWsn\..\..\Components\zmac\f8w\
#        -Ohz --require_prototypes --no_code_motion)
#    Locale             =  Chinese (Simplified)_CHN.936
#    List file          =  
#        E:\qqÏÂÔØÎÄ¼þ\½á¿Î×÷Òµ\ZigBee\ÊµÑéÖ¸µ¼Êé\ÊµÑéÖ¸µ¼Êé\Code\Cap2_ZStack\ZStack-CC2530-r200\ZStack-CC2530-r200\Projects\SappWsn\Demo\List\AF.lst
#    Object file        =  
#        E:\qqÏÂÔØÎÄ¼þ\½á¿Î×÷Òµ\ZigBee\ÊµÑéÖ¸µ¼Êé\ÊµÑéÖ¸µ¼Êé\Code\Cap2_ZStack\ZStack-CC2530-r200\ZStack-CC2530-r200\Projects\SappWsn\Demo\Obj\AF.r51
#
###############################################################################

E:\qqÏÂÔØÎÄ¼þ\½á¿Î×÷Òµ\ZigBee\ÊµÑéÖ¸µ¼Êé\ÊµÑéÖ¸µ¼Êé\Code\Cap2_ZStack\ZStack-CC2530-r200\ZStack-CC2530-r200\Components\stack\af\AF.c
      1          /**************************************************************************************************
      2            Filename:       AF.c
      3            Revised:        $Date: 2011-05-31 10:03:43 -0700 (Tue, 31 May 2011) $
      4            Revision:       $Revision: 26156 $
      5          
      6            Description:    Application Framework - Device Description helper functions
      7          
      8          
      9            Copyright 2004-2011 Texas Instruments Incorporated. All rights reserved.
     10          
     11            IMPORTANT: Your use of this Software is limited to those specific rights
     12            granted under the terms of a software license agreement between the user
     13            who downloaded the software, his/her employer (which must be your employer)
     14            and Texas Instruments Incorporated (the "License").  You may not use this
     15            Software unless you agree to abide by the terms of the License. The License
     16            limits your use, and you acknowledge, that the Software may not be modified,
     17            copied or distributed unless embedded on a Texas Instruments microcontroller
     18            or used solely and exclusively in conjunction with a Texas Instruments radio
     19            frequency transceiver, which is integrated into your product.  Other than for
     20            the foregoing purpose, you may not use, reproduce, copy, prepare derivative
     21            works of, modify, distribute, perform, display or sell this Software and/or
     22            its documentation for any purpose.
     23          
     24            YOU FURTHER ACKNOWLEDGE AND AGREE THAT THE SOFTWARE AND DOCUMENTATION ARE
     25            PROVIDED “AS IS” WITHOUT WARRANTY OF ANY KIND, EITHER EXPRESS OR IMPLIED,
     26            INCLUDING WITHOUT LIMITATION, ANY WARRANTY OF MERCHANTABILITY, TITLE,
     27            NON-INFRINGEMENT AND FITNESS FOR A PARTICULAR PURPOSE. IN NO EVENT SHALL
     28            TEXAS INSTRUMENTS OR ITS LICENSORS BE LIABLE OR OBLIGATED UNDER CONTRACT,
     29            NEGLIGENCE, STRICT LIABILITY, CONTRIBUTION, BREACH OF WARRANTY, OR OTHER
     30            LEGAL EQUITABLE THEORY ANY DIRECT OR INDIRECT DAMAGES OR EXPENSES
     31            INCLUDING BUT NOT LIMITED TO ANY INCIDENTAL, SPECIAL, INDIRECT, PUNITIVE
     32            OR CONSEQUENTIAL DAMAGES, LOST PROFITS OR LOST DATA, COST OF PROCUREMENT
     33            OF SUBSTITUTE GOODS, TECHNOLOGY, SERVICES, OR ANY CLAIMS BY THIRD PARTIES
     34            (INCLUDING BUT NOT LIMITED TO ANY DEFENSE THEREOF), OR OTHER SIMILAR COSTS.
     35          
     36            Should you have any questions regarding your right to use this Software,
     37            contact Texas Instruments Incorporated at www.TI.com.
     38          **************************************************************************************************/
     39          
     40          /*********************************************************************
     41           * INCLUDES
     42           */
     43          
     44          #include "OSAL.h"
     45          #include "AF.h"
     46          #include "nwk_globals.h"
     47          #include "nwk_util.h"
     48          #include "aps_groups.h"
     49          #include "ZDProfile.h"
     50          #include "aps_frag.h"
     51          #include "rtg.h"
     52          
     53          #if defined ( MT_AF_CB_FUNC )
     54            #include "MT_AF.h"
     55          #endif
     56          
     57          #if defined ( INTER_PAN )
     58            #include "stub_aps.h"
     59          #endif
     60          
     61          /*********************************************************************
     62           * MACROS
     63           */
     64          
     65          /*********************************************************************
     66           * @fn      afSend
     67           *
     68           * @brief   Helper macro for V1 API to invoke V2 API.
     69           *
     70           * input parameters
     71           *
     72           * @param  *dstAddr - Full ZB destination address: Nwk Addr + End Point.
     73           * @param   srcEP - Origination (i.e. respond to or ack to) End Point.
     74           * @param   cID - A valid cluster ID as specified by the Profile.
     75           * @param   len - Number of bytes of data pointed to by next param.
     76           * @param  *buf - A pointer to the data bytes to send.
     77           * @param   options - Valid bit mask of AF Tx Options as defined in AF.h.
     78           * @param  *transID - A pointer to a byte which can be modified and which will
     79           *                    be used as the transaction sequence number of the msg.
     80           *
     81           * output parameters
     82           *
     83           * @param  *transID - Incremented by one if the return value is success.
     84           *
     85           * @return  afStatus_t - See previous definition of afStatus_... types.
     86           */
     87          #define afSend( dstAddr, srcEP, cID, len, buf, transID, options, radius ) \
     88                  AF_DataRequest( (dstAddr), afFindEndPointDesc( (srcEP) ), \
     89                                    (cID), (len), (buf), (transID), (options), (radius) )
     90          
     91          /*********************************************************************
     92           * GLOBAL VARIABLES
     93           */
     94          

   \                                 In  segment XDATA_Z, align 1, keep-with-next
     95          epList_t *epList;
   \                     epList:
   \   000000                DS 2
   \   000002                REQUIRE __INIT_XDATA_Z
     96          
     97          /*********************************************************************
     98           * LOCAL FUNCTIONS
     99           */
    100          
    101          static void afBuildMSGIncoming( aps_FrameFormat_t *aff, endPointDesc_t *epDesc,
    102                          zAddrType_t *SrcAddress, uint16 SrcPanId, NLDE_Signal_t *sig,
    103                          uint8 nwkSeqNum, uint8 SecurityUse, uint32 timestamp );
    104          
    105          static epList_t *afFindEndPointDescList( uint8 EndPoint );
    106          
    107          static pDescCB afGetDescCB( endPointDesc_t *epDesc );
    108          
    109          /*********************************************************************
    110           * PUBLIC FUNCTIONS
    111           */
    112          
    113          /*********************************************************************
    114           * @fn      afInit
    115           *
    116           * @brief   Initialization function for the AF.
    117           *
    118           * @param   none
    119           *
    120           * @return  none
    121          void afInit( void )
    122          {
    123          }
    124           */
    125          
    126          /*********************************************************************
    127           * @fn      afRegisterExtended
    128           *
    129           * @brief   Register an Application's EndPoint description.
    130           *
    131           * @param   epDesc - pointer to the Application's endpoint descriptor.
    132           * @param   descFn - pointer to descriptor callback function
    133           *
    134           * NOTE:  The memory that epDesc is pointing to must exist after this call.
    135           *
    136           * @return  Pointer to epList_t on success, NULL otherwise.
    137           */

   \                                 In  segment BANKED_CODE, align 1, keep-with-next
    138          epList_t *afRegisterExtended( endPointDesc_t *epDesc, pDescCB descFn )
   \                     afRegisterExtended:
    139          {
   \   000000                REQUIRE ?V0
   \   000000                REQUIRE ?V1
   \   000000                REQUIRE ?V2
   \   000000                REQUIRE ?V3
   \   000000   74F4         MOV       A,#-0xc
   \   000002   12....       LCALL     ?BANKED_ENTER_XDATA
   \   000005                ; Saved register size: 12
   \   000005                ; Auto size: 0
   \   000005   EA           MOV       A,R2
   \   000006   FE           MOV       R6,A
   \   000007   EB           MOV       A,R3
   \   000008   FF           MOV       R7,A
   \   000009   8C..         MOV       ?V0,R4
   \   00000B   8D..         MOV       ?V1,R5
    140            epList_t *ep = osal_mem_alloc(sizeof(epList_t));
   \   00000D                ; Setup parameters for call to function osal_mem_alloc
   \   00000D   7A09         MOV       R2,#0x9
   \   00000F   7B00         MOV       R3,#0x0
   \   000011   12....       LCALL     `??osal_mem_alloc::?relay`; Banked call to: osal_mem_alloc
    141          
    142            if (ep != NULL)
   \   000014   EA           MOV       A,R2
   \   000015   4B           ORL       A,R3
   \   000016   602E         JZ        ??afRegisterExtended_0
    143            {
    144              ep->nextDesc = epList;
   \   000018   90....       MOV       DPTR,#epList
   \   00001B   12....       LCALL     ?Subroutine5 & 0xFFFF
    145              epList = ep;
   \                     ??CrossCallReturnLabel_0:
   \   00001E   90....       MOV       DPTR,#epList
   \   000021   EA           MOV       A,R2
   \   000022   F0           MOVX      @DPTR,A
   \   000023   A3           INC       DPTR
   \   000024   EB           MOV       A,R3
   \   000025   12....       LCALL     ?Subroutine20 & 0xFFFF
    146              ep->epDesc = epDesc;
    147              ep->pfnDescCB = descFn;
    148              ep->apsfCfg.frameDelay = APSF_DEFAULT_INTERFRAME_DELAY;
    149              ep->apsfCfg.windowSize = APSF_DEFAULT_WINDOW_SIZE;
    150              ep->flags = eEP_AllowMatch;  // Default to allow Match Descriptor.
    151            }
   \                     ??CrossCallReturnLabel_26:
   \   000028   EE           MOV       A,R6
   \   000029   F0           MOVX      @DPTR,A
   \   00002A   A3           INC       DPTR
   \   00002B   EF           MOV       A,R7
   \   00002C   12....       LCALL     ?Subroutine19 & 0xFFFF
   \                     ??CrossCallReturnLabel_24:
   \   00002F   E5..         MOV       A,?V0
   \   000031   F0           MOVX      @DPTR,A
   \   000032   A3           INC       DPTR
   \   000033   E5..         MOV       A,?V1
   \   000035   12....       LCALL     ?Subroutine19 & 0xFFFF
   \                     ??CrossCallReturnLabel_25:
   \   000038   A3           INC       DPTR
   \   000039   A3           INC       DPTR
   \   00003A   7432         MOV       A,#0x32
   \   00003C   12....       LCALL     ?Subroutine16 & 0xFFFF
   \                     ??CrossCallReturnLabel_19:
   \   00003F   7401         MOV       A,#0x1
   \   000041   12....       LCALL     ?Subroutine16 & 0xFFFF
   \                     ??CrossCallReturnLabel_20:
   \   000044   A3           INC       DPTR
   \   000045   F0           MOVX      @DPTR,A
    152          
    153            return ep;
   \                     ??afRegisterExtended_0:
   \   000046   02....       LJMP      ?Subroutine0 & 0xFFFF
    154          }

   \                                 In  segment BANKED_CODE, align 1, keep-with-next
   \                     ?Subroutine19:
   \   000000   12....       LCALL     ?Subroutine26 & 0xFFFF
   \                     ??CrossCallReturnLabel_39:
   \   000003   22           RET

   \                                 In  segment BANKED_CODE, align 1, keep-with-next
   \                     ?Subroutine26:
   \   000000   F0           MOVX      @DPTR,A
   \   000001   8A82         MOV       DPL,R2
   \   000003   8B83         MOV       DPH,R3
   \   000005   A3           INC       DPTR
   \   000006   A3           INC       DPTR
   \   000007   A3           INC       DPTR
   \   000008   A3           INC       DPTR
   \   000009   22           RET

   \                                 In  segment BANKED_CODE, align 1, keep-with-next
   \                     ?Subroutine16:
   \   000000   12....       LCALL     ?Subroutine26 & 0xFFFF
   \                     ??CrossCallReturnLabel_40:
   \   000003   A3           INC       DPTR
   \   000004   A3           INC       DPTR
   \   000005   A3           INC       DPTR
   \   000006   22           RET

   \                                 In  segment BANKED_CODE, align 1, keep-with-next
   \                     ?Subroutine20:
   \   000000   F0           MOVX      @DPTR,A
   \   000001   8A82         MOV       DPL,R2
   \   000003   8B83         MOV       DPH,R3
   \   000005   A3           INC       DPTR
   \   000006   A3           INC       DPTR
   \   000007   22           RET

   \                                 In  segment BANKED_CODE, align 1, keep-with-next
   \                     ?Subroutine27:
   \   000000   E0           MOVX      A,@DPTR
   \   000001   F8           MOV       R0,A
   \   000002   A3           INC       DPTR
   \   000003                REQUIRE ??Subroutine30_0
   \   000003                ; // Fall through to label ??Subroutine30_0

   \                                 In  segment BANKED_CODE, align 1, keep-with-next
   \                     ??Subroutine30_0:
   \   000000   E0           MOVX      A,@DPTR
   \   000001   F9           MOV       R1,A
   \   000002   8A82         MOV       DPL,R2
   \   000004   8B83         MOV       DPH,R3
   \   000006   22           RET

   \                                 In  segment BANKED_CODE, align 1, keep-with-next
   \                     ?Subroutine0:
   \   000000   7F04         MOV       R7,#0x4
   \   000002   02....       LJMP      ?BANKED_LEAVE_XDATA

   \                                 In  segment BANKED_CODE, align 1, keep-with-next
   \                     ?Subroutine5:
   \   000000   12....       LCALL     ?Subroutine27 & 0xFFFF
   \                     ??CrossCallReturnLabel_48:
   \   000003   E8           MOV       A,R0
   \   000004   F0           MOVX      @DPTR,A
   \   000005   A3           INC       DPTR
   \   000006   E9           MOV       A,R1
   \   000007   F0           MOVX      @DPTR,A
   \   000008   22           RET
    155          
    156          /*********************************************************************
    157           * @fn      afRegister
    158           *
    159           * @brief   Register an Application's EndPoint description.
    160           *
    161           * @param   epDesc - pointer to the Application's endpoint descriptor.
    162           *
    163           * NOTE:  The memory that epDesc is pointing to must exist after this call.
    164           *
    165           * @return  afStatus_SUCCESS - Registered
    166           *          afStatus_MEM_FAIL - not enough memory to add descriptor
    167           *          afStatus_INVALID_PARAMETER - duplicate endpoint
    168           */

   \                                 In  segment BANKED_CODE, align 1, keep-with-next
    169          afStatus_t afRegister( endPointDesc_t *epDesc )
   \                     afRegister:
    170          {
   \   000000                REQUIRE ?V0
   \   000000                REQUIRE ?V1
   \   000000   74F6         MOV       A,#-0xa
   \   000002   12....       LCALL     ?BANKED_ENTER_XDATA
   \   000005                ; Saved register size: 10
   \   000005                ; Auto size: 0
   \   000005   EA           MOV       A,R2
   \   000006   FE           MOV       R6,A
   \   000007   EB           MOV       A,R3
   \   000008   FF           MOV       R7,A
    171            if (afFindEndPointDescList(epDesc->endPoint))  // Look for duplicate endpoint.
   \   000009                ; Setup parameters for call to function afFindEndPointDescList
   \   000009   8A82         MOV       DPL,R2
   \   00000B   F583         MOV       DPH,A
   \   00000D   E0           MOVX      A,@DPTR
   \   00000E   F9           MOV       R1,A
   \   00000F   12....       LCALL     `??afFindEndPointDescList::?relay`; Banked call to: afFindEndPointDescList
   \   000012   EA           MOV       A,R2
   \   000013   4B           ORL       A,R3
   \   000014   6004         JZ        ??afRegister_0
    172            {
    173              return afStatus_INVALID_PARAMETER;
   \   000016   7902         MOV       R1,#0x2
   \   000018   8015         SJMP      ??afRegister_1
    174            }
    175          
    176            return ((NULL == afRegisterExtended(epDesc, NULL)) ? afStatus_MEM_FAIL : afStatus_SUCCESS);
   \                     ??afRegister_0:
   \   00001A                ; Setup parameters for call to function afRegisterExtended
   \   00001A   7C00         MOV       R4,#0x0
   \   00001C   7D00         MOV       R5,#0x0
   \   00001E   EE           MOV       A,R6
   \   00001F   FA           MOV       R2,A
   \   000020   EF           MOV       A,R7
   \   000021   FB           MOV       R3,A
   \   000022   12....       LCALL     `??afRegisterExtended::?relay`; Banked call to: afRegisterExtended
   \   000025   EA           MOV       A,R2
   \   000026   4B           ORL       A,R3
   \   000027   7004         JNZ       ??afRegister_2
   \   000029   7910         MOV       R1,#0x10
   \   00002B   8002         SJMP      ??afRegister_1
   \                     ??afRegister_2:
   \   00002D   7900         MOV       R1,#0x0
   \                     ??afRegister_1:
   \   00002F   02....       LJMP      ?Subroutine1 & 0xFFFF
    177          }

   \                                 In  segment BANKED_CODE, align 1, keep-with-next
   \                     ?Subroutine1:
   \   000000   7F02         MOV       R7,#0x2
   \   000002   02....       LJMP      ?BANKED_LEAVE_XDATA
    178          
    179          /*********************************************************************
    180           * @fn          afDataConfirm
    181           *
    182           * @brief       This function will generate the Data Confirm back to
    183           *              the application.
    184           *
    185           * @param       endPoint - confirm end point
    186           * @param       transID - transaction ID from APSDE_DATA_REQUEST
    187           * @param       status - status of APSDE_DATA_REQUEST
    188           *
    189           * @return      none
    190           */

   \                                 In  segment BANKED_CODE, align 1, keep-with-next
    191          void afDataConfirm( uint8 endPoint, uint8 transID, ZStatus_t status )
   \                     afDataConfirm:
    192          {
   \   000000                REQUIRE ?V0
   \   000000                REQUIRE ?V1
   \   000000                REQUIRE ?V2
   \   000000                REQUIRE ?V4
   \   000000                REQUIRE ?V5
   \   000000   74F2         MOV       A,#-0xe
   \   000002   12....       LCALL     ?BANKED_ENTER_XDATA
   \   000005                ; Saved register size: 14
   \   000005                ; Auto size: 0
   \   000005   89..         MOV       ?V0,R1
   \   000007   8A..         MOV       ?V1,R2
   \   000009   8B..         MOV       ?V2,R3
    193            endPointDesc_t *epDesc;
    194            afDataConfirm_t *msgPtr;
    195          
    196            // Find the endpoint description
    197            epDesc = afFindEndPointDesc( endPoint );
   \   00000B                ; Setup parameters for call to function afFindEndPointDesc
   \   00000B   12....       LCALL     `??afFindEndPointDesc::?relay`; Banked call to: afFindEndPointDesc
   \   00000E   8A..         MOV       ?V4,R2
   \   000010   8B..         MOV       ?V5,R3
   \   000012   AE..         MOV       R6,?V4
   \   000014   AF..         MOV       R7,?V5
    198            if ( epDesc == NULL )
   \   000016   EA           MOV       A,R2
   \   000017   4F           ORL       A,R7
   \   000018   6028         JZ        ??CrossCallReturnLabel_2
    199              return;
    200          
    201            // Determine the incoming command type
    202            msgPtr = (afDataConfirm_t *)osal_msg_allocate( sizeof(afDataConfirm_t) );
   \   00001A                ; Setup parameters for call to function osal_msg_allocate
   \   00001A   7A04         MOV       R2,#0x4
   \   00001C   7B00         MOV       R3,#0x0
   \   00001E   12....       LCALL     `??osal_msg_allocate::?relay`; Banked call to: osal_msg_allocate
    203            if ( msgPtr )
   \   000021   EA           MOV       A,R2
   \   000022   4B           ORL       A,R3
   \   000023   601D         JZ        ??CrossCallReturnLabel_2
    204            {
    205              // Build the Data Confirm message
    206              msgPtr->hdr.event = AF_DATA_CONFIRM_CMD;
   \   000025   8A82         MOV       DPL,R2
   \   000027   8B83         MOV       DPH,R3
   \   000029   74FD         MOV       A,#-0x3
   \   00002B   F0           MOVX      @DPTR,A
    207              msgPtr->hdr.status = status;
   \   00002C   A3           INC       DPTR
   \   00002D   E5..         MOV       A,?V2
   \   00002F   12....       LCALL     ?Subroutine20 & 0xFFFF
    208              msgPtr->endpoint = endPoint;
   \                     ??CrossCallReturnLabel_27:
   \   000032   E5..         MOV       A,?V0
   \   000034   12....       LCALL     ?Subroutine20 & 0xFFFF
    209              msgPtr->transID = transID;
   \                     ??CrossCallReturnLabel_28:
   \   000037   A3           INC       DPTR
   \   000038   E5..         MOV       A,?V1
   \   00003A   F0           MOVX      @DPTR,A
    210          
    211          #if defined ( MT_AF_CB_FUNC )
    212              /* If MT has subscribed for this callback, don't send as a message. */
    213              if ( AFCB_CHECK(CB_ID_AF_DATA_CNF,*(epDesc->task_id)) )
    214              {
    215                /* Send callback if it's subscribed */
    216                MT_AfDataConfirm ((void *)msgPtr);
    217                /* Release the memory. */
    218                osal_msg_deallocate( (void *)msgPtr );
    219              }
    220              else
    221          #endif
    222              {
    223                /* send message through task message */
    224                osal_msg_send( *(epDesc->task_id), (uint8 *)msgPtr );
   \   00003B                ; Setup parameters for call to function osal_msg_send
   \   00003B   8E82         MOV       DPL,R6
   \   00003D   8F83         MOV       DPH,R7
   \   00003F   12....       LCALL     ?Subroutine6 & 0xFFFF
    225              }
    226            }
    227          }
   \                     ??CrossCallReturnLabel_2:
   \   000042   7F06         MOV       R7,#0x6
   \   000044   02....       LJMP      ?BANKED_LEAVE_XDATA

   \                                 In  segment BANKED_CODE, align 1, keep-with-next
   \                     ?Subroutine6:
   \   000000   A3           INC       DPTR
   \   000001   E0           MOVX      A,@DPTR
   \   000002   F8           MOV       R0,A
   \   000003   A3           INC       DPTR
   \   000004   E0           MOVX      A,@DPTR
   \   000005   F583         MOV       DPH,A
   \   000007   8882         MOV       DPL,R0
   \   000009   E0           MOVX      A,@DPTR
   \   00000A   F9           MOV       R1,A
   \   00000B   12....       LCALL     `??osal_msg_send::?relay`; Banked call to: osal_msg_send
   \   00000E   22           RET
    228          
    229          /*********************************************************************
    230           * @fn          afIncomingData
    231           *
    232           * @brief       Transfer a data PDU (ASDU) from the APS sub-layer to the AF.
    233           *
    234           * @param       aff  - pointer to APS frame format
    235           * @param       SrcAddress  - Source address
    236           * @param       SrcPanId  - Source PAN ID
    237           * @param       sig - incoming message's link quality
    238           * @param       nwkSeqNum - incoming network sequence number (from nwk header frame)
    239           * @param       SecurityUse - Security enable/disable
    240           * @param       timestamp - the MAC Timer2 timestamp at Rx.
    241           *
    242           * @return      none
    243           */

   \                                 In  segment BANKED_CODE, align 1, keep-with-next
    244          void afIncomingData( aps_FrameFormat_t *aff, zAddrType_t *SrcAddress, uint16 SrcPanId,
   \                     afIncomingData:
    245                               NLDE_Signal_t *sig, uint8 nwkSeqNum, uint8 SecurityUse, uint32 timestamp )
    246          {
   \   000000                REQUIRE ?V0
   \   000000                REQUIRE ?V1
   \   000000                REQUIRE ?V2
   \   000000                REQUIRE ?V3
   \   000000                REQUIRE ?V4
   \   000000                REQUIRE ?V5
   \   000000                REQUIRE ?V6
   \   000000                REQUIRE ?V7
   \   000000                REQUIRE ?V8
   \   000000                REQUIRE ?V9
   \   000000                REQUIRE ?V10
   \   000000                REQUIRE ?V11
   \   000000                REQUIRE ?V12
   \   000000                REQUIRE ?V13
   \   000000                REQUIRE ?V14
   \   000000                REQUIRE ?V15
   \   000000   74E8         MOV       A,#-0x18
   \   000002   12....       LCALL     ?BANKED_ENTER_XDATA
   \   000005                ; Saved register size: 24
   \   000005                ; Auto size: 4
   \   000005   74FC         MOV       A,#-0x4
   \   000007   12....       LCALL     ?ALLOC_XSTACK8
   \   00000A   7402         MOV       A,#0x2
   \   00000C   12....       LCALL     ?XSTACK_DISP0_8
   \   00000F   EC           MOV       A,R4
   \   000010   F0           MOVX      @DPTR,A
   \   000011   A3           INC       DPTR
   \   000012   ED           MOV       A,R5
   \   000013   F0           MOVX      @DPTR,A
   \   000014   7401         MOV       A,#0x1
   \   000016   12....       LCALL     ?XSTACK_DISP0_8
   \   000019   E9           MOV       A,R1
   \   00001A   F0           MOVX      @DPTR,A
   \   00001B   8A..         MOV       ?V8,R2
   \   00001D   8B..         MOV       ?V9,R3
    247            endPointDesc_t *epDesc = NULL;
    248            epList_t *pList = epList;
   \   00001F   90....       MOV       DPTR,#epList
   \   000022   E0           MOVX      A,@DPTR
   \   000023   F5..         MOV       ?V0,A
   \   000025   A3           INC       DPTR
   \   000026   E0           MOVX      A,@DPTR
   \   000027   F5..         MOV       ?V1,A
    249          #if !defined ( APS_NO_GROUPS )
    250            uint8 grpEp = APS_GROUPS_EP_NOT_FOUND;
   \   000029   75..FE       MOV       ?V2,#-0x2
    251          #endif
    252          
    253            if ( ((aff->FrmCtrl & APS_DELIVERYMODE_MASK) == APS_FC_DM_GROUP) )
   \   00002C   8A82         MOV       DPL,R2
   \   00002E   8B83         MOV       DPH,R3
   \   000030   E0           MOVX      A,@DPTR
   \   000031   540C         ANL       A,#0xc
   \   000033   640C         XRL       A,#0xc
   \   000035   7012         JNZ       ??afIncomingData_0
    254            {
    255          #if !defined ( APS_NO_GROUPS )
    256              // Find the first endpoint for this group
    257              grpEp = aps_FindGroupForEndpoint( aff->GroupID, APS_GROUPS_FIND_FIRST );
   \   000037                ; Setup parameters for call to function aps_FindGroupForEndpoint
   \   000037   79FE         MOV       R1,#-0x2
   \   000039   12....       LCALL     ?Subroutine7 & 0xFFFF
    258              if ( grpEp == APS_GROUPS_EP_NOT_FOUND )
   \                     ??CrossCallReturnLabel_4:
   \   00003C   7003         JNZ       $+5
   \   00003E   02....       LJMP      ??afIncomingData_1 & 0xFFFF
    259                return;   // No endpoint found
    260          
    261              epDesc = afFindEndPointDesc( grpEp );
   \   000041                ; Setup parameters for call to function afFindEndPointDesc
   \   000041   12....       LCALL     ?Subroutine22 & 0xFFFF
    262              if ( epDesc == NULL )
   \                     ??CrossCallReturnLabel_31:
   \   000044   704E         JNZ       ??afIncomingData_2
    263                return;   // Endpoint descriptor not found
   \   000046   02....       LJMP      ??afIncomingData_1 & 0xFFFF
    264          
    265              pList = afFindEndPointDescList( epDesc->endPoint );
    266          #else
    267              return; // Not supported
    268          #endif
    269            }
    270            else if ( aff->DstEndPoint == AF_BROADCAST_ENDPOINT )
   \                     ??afIncomingData_0:
   \   000049   A3           INC       DPTR
   \   00004A   A3           INC       DPTR
   \   00004B   E0           MOVX      A,@DPTR
   \   00004C   F4           CPL       A
   \   00004D   702E         JNZ       ??afIncomingData_3
    271            {
    272              // Set the list
    273              if ( pList != NULL )
   \   00004F   E5..         MOV       A,?V0
   \   000051   45..         ORL       A,?V1
   \   000053   7003         JNZ       $+5
   \   000055   02....       LJMP      ??afIncomingData_1 & 0xFFFF
    274              {
    275                epDesc = pList->epDesc;
   \   000058   85..82       MOV       DPL,?V0
   \   00005B   85..83       MOV       DPH,?V1
   \   00005E   A3           INC       DPTR
   \   00005F   A3           INC       DPTR
   \   000060   E0           MOVX      A,@DPTR
   \   000061   FE           MOV       R6,A
   \   000062   A3           INC       DPTR
   \   000063   E0           MOVX      A,@DPTR
   \   000064   FF           MOV       R7,A
   \                     ??afIncomingData_4:
   \   000065   741C         MOV       A,#0x1c
   \   000067   12....       LCALL     ?XSTACK_DISP0_8
   \   00006A   E0           MOVX      A,@DPTR
   \   00006B   F5..         MOV       ?V14,A
   \   00006D   A3           INC       DPTR
   \   00006E   E0           MOVX      A,@DPTR
   \   00006F   F5..         MOV       ?V15,A
   \   000071   7421         MOV       A,#0x21
   \   000073   12....       LCALL     ?XSTACK_DISP0_8
   \   000076   78..         MOV       R0,#?V4
   \   000078   12....       LCALL     ?L_MOV_X
   \   00007B   802D         SJMP      ??afIncomingData_5
    276              }
    277            }
    278            else if ( (epDesc = afFindEndPointDesc( aff->DstEndPoint )) )
   \                     ??afIncomingData_3:
   \   00007D                ; Setup parameters for call to function afFindEndPointDesc
   \   00007D   8A82         MOV       DPL,R2
   \   00007F   8B83         MOV       DPH,R3
   \   000081   A3           INC       DPTR
   \   000082   A3           INC       DPTR
   \   000083   E0           MOVX      A,@DPTR
   \   000084   F9           MOV       R1,A
   \   000085   12....       LCALL     `??afFindEndPointDesc::?relay`; Banked call to: afFindEndPointDesc
   \   000088   8B..         MOV       ?V5,R3
   \   00008A   A9..         MOV       R1,?V5
   \   00008C   EA           MOV       A,R2
   \   00008D   FE           MOV       R6,A
   \   00008E   EB           MOV       A,R3
   \   00008F   FF           MOV       R7,A
   \   000090   EA           MOV       A,R2
   \   000091   49           ORL       A,R1
   \   000092   60D1         JZ        ??afIncomingData_4
    279            {
    280              pList = afFindEndPointDescList( epDesc->endPoint );
   \                     ??afIncomingData_2:
   \   000094                ; Setup parameters for call to function afFindEndPointDescList
   \   000094   8E82         MOV       DPL,R6
   \   000096   8F83         MOV       DPH,R7
   \   000098   12....       LCALL     ?Subroutine12 & 0xFFFF
    281            }
   \                     ??CrossCallReturnLabel_8:
   \   00009B   80C8         SJMP      ??afIncomingData_4
    282          
    283            while ( epDesc )
    284            {
    285              uint16 epProfileID = 0xFFFF;  // Invalid Profile ID
    286          
    287              if ( pList->pfnDescCB )
    288              {
    289                uint16 *pID = (uint16 *)(pList->pfnDescCB(
    290                                           AF_DESCRIPTOR_PROFILE_ID, epDesc->endPoint ));
    291                if ( pID )
    292                {
    293                  epProfileID = *pID;
    294                  osal_mem_free( pID );
    295                }
    296              }
    297              else if ( epDesc->simpleDesc )
    298              {
    299                epProfileID = epDesc->simpleDesc->AppProfId;
    300              }
    301          
    302              if ( (aff->ProfileID == epProfileID) ||
    303                   ((epDesc->endPoint == ZDO_EP) && (aff->ProfileID == ZDO_PROFILE_ID)) )
    304              {
    305                {
    306                  // Save original endpoint
    307                  uint8 endpoint = aff->DstEndPoint;
    308          
    309                  // overwrite with descriptor's endpoint
    310                  aff->DstEndPoint = epDesc->endPoint;
    311          
    312                  afBuildMSGIncoming( aff, epDesc, SrcAddress, SrcPanId, sig,
    313                                     nwkSeqNum, SecurityUse, timestamp );
    314          
    315                  // Restore with original endpoint
    316                  aff->DstEndPoint = endpoint;
    317                }
    318              }
    319          
    320              if ( ((aff->FrmCtrl & APS_DELIVERYMODE_MASK) == APS_FC_DM_GROUP) )
    321              {
    322          #if !defined ( APS_NO_GROUPS )
    323                // Find the next endpoint for this group
    324                grpEp = aps_FindGroupForEndpoint( aff->GroupID, grpEp );
    325                if ( grpEp == APS_GROUPS_EP_NOT_FOUND )
    326                  return;   // No endpoint found
    327          
    328                epDesc = afFindEndPointDesc( grpEp );
    329                if ( epDesc == NULL )
    330                  return;   // Endpoint descriptor not found
    331          
    332                pList = afFindEndPointDescList( epDesc->endPoint );
    333          #else
    334                return;
    335          #endif
    336              }
    337              else if ( aff->DstEndPoint == AF_BROADCAST_ENDPOINT )
    338              {
    339                pList = pList->nextDesc;
    340                if ( pList )
    341                  epDesc = pList->epDesc;
   \                     ??afIncomingData_6:
   \   00009D   85..82       MOV       DPL,?V0
   \   0000A0   85..83       MOV       DPH,?V1
   \   0000A3   A3           INC       DPTR
   \   0000A4   A3           INC       DPTR
   \   0000A5   E0           MOVX      A,@DPTR
   \   0000A6   FE           MOV       R6,A
   \   0000A7   A3           INC       DPTR
   \   0000A8   E0           MOVX      A,@DPTR
   \   0000A9   FF           MOV       R7,A
   \                     ??afIncomingData_5:
   \   0000AA   EE           MOV       A,R6
   \   0000AB   4F           ORL       A,R7
   \   0000AC   7003         JNZ       $+5
   \   0000AE   02....       LJMP      ??afIncomingData_1 & 0xFFFF
   \   0000B1   8007         SJMP      ??CrossCallReturnLabel_9
   \                     ??afIncomingData_7:
   \   0000B3                ; Setup parameters for call to function afFindEndPointDescList
   \   0000B3   8A82         MOV       DPL,R2
   \   0000B5   8B83         MOV       DPH,R3
   \   0000B7   12....       LCALL     ?Subroutine12 & 0xFFFF
   \                     ??CrossCallReturnLabel_9:
   \   0000BA   75..FF       MOV       ?V10,#-0x1
   \   0000BD   75..FF       MOV       ?V11,#-0x1
   \   0000C0   85..82       MOV       DPL,?V0
   \   0000C3   85..83       MOV       DPH,?V1
   \   0000C6   12....       LCALL     ?Subroutine4 & 0xFFFF
   \                     ??CrossCallReturnLabel_45:
   \   0000C9   8E82         MOV       DPL,R6
   \   0000CB   8F83         MOV       DPH,R7
   \   0000CD   6028         JZ        ??afIncomingData_8
   \   0000CF                ; Setup parameters for indirect call
   \   0000CF   E0           MOVX      A,@DPTR
   \   0000D0   FA           MOV       R2,A
   \   0000D1   7902         MOV       R1,#0x2
   \   0000D3   85..82       MOV       DPL,?V0
   \   0000D6   85..83       MOV       DPH,?V1
   \   0000D9   A3           INC       DPTR
   \   0000DA   A3           INC       DPTR
   \   0000DB   A3           INC       DPTR
   \   0000DC   A3           INC       DPTR
   \   0000DD   12....       LCALL     ??Subroutine34_0 & 0xFFFF
   \                     ??CrossCallReturnLabel_68:
   \   0000E0   12....       LCALL     ?CALL_IND
   \   0000E3   EA           MOV       A,R2
   \   0000E4   4B           ORL       A,R3
   \   0000E5   6027         JZ        ??afIncomingData_9
   \   0000E7   8A82         MOV       DPL,R2
   \   0000E9   8B83         MOV       DPH,R3
   \   0000EB   E0           MOVX      A,@DPTR
   \   0000EC   F5..         MOV       ?V10,A
   \   0000EE   A3           INC       DPTR
   \   0000EF   E0           MOVX      A,@DPTR
   \   0000F0   F5..         MOV       ?V11,A
   \   0000F2                ; Setup parameters for call to function osal_mem_free
   \   0000F2   12....       LCALL     `??osal_mem_free::?relay`; Banked call to: osal_mem_free
   \   0000F5   8017         SJMP      ??afIncomingData_9
   \                     ??afIncomingData_8:
   \   0000F7   12....       LCALL     ??Subroutine28_0 & 0xFFFF
   \                     ??CrossCallReturnLabel_43:
   \   0000FA   6012         JZ        ??afIncomingData_9
   \   0000FC   8E82         MOV       DPL,R6
   \   0000FE   8F83         MOV       DPH,R7
   \   000100   A3           INC       DPTR
   \   000101   A3           INC       DPTR
   \   000102   A3           INC       DPTR
   \   000103   12....       LCALL     ??Subroutine34_0 & 0xFFFF
   \                     ??CrossCallReturnLabel_69:
   \   000106   A3           INC       DPTR
   \   000107   E0           MOVX      A,@DPTR
   \   000108   F5..         MOV       ?V10,A
   \   00010A   A3           INC       DPTR
   \   00010B   E0           MOVX      A,@DPTR
   \   00010C   F5..         MOV       ?V11,A
   \                     ??afIncomingData_9:
   \   00010E   85..82       MOV       DPL,?V8
   \   000111   85..83       MOV       DPH,?V9
   \   000114   A3           INC       DPTR
   \   000115   A3           INC       DPTR
   \   000116   A3           INC       DPTR
   \   000117   A3           INC       DPTR
   \   000118   A3           INC       DPTR
   \   000119   A3           INC       DPTR
   \   00011A   A3           INC       DPTR
   \   00011B   A3           INC       DPTR
   \   00011C   E0           MOVX      A,@DPTR
   \   00011D   65..         XRL       A,?V10
   \   00011F   7004         JNZ       ??afIncomingData_10
   \   000121   A3           INC       DPTR
   \   000122   E0           MOVX      A,@DPTR
   \   000123   65..         XRL       A,?V11
   \                     ??afIncomingData_10:
   \   000125   6016         JZ        ??afIncomingData_11
   \   000127   8E82         MOV       DPL,R6
   \   000129   8F83         MOV       DPH,R7
   \   00012B   E0           MOVX      A,@DPTR
   \   00012C   7075         JNZ       ??CrossCallReturnLabel_15
   \   00012E   85..82       MOV       DPL,?V8
   \   000131   85..83       MOV       DPH,?V9
   \   000134   A3           INC       DPTR
   \   000135   A3           INC       DPTR
   \   000136   A3           INC       DPTR
   \   000137   A3           INC       DPTR
   \   000138   12....       LCALL     ?Subroutine4 & 0xFFFF
   \                     ??CrossCallReturnLabel_46:
   \   00013B   7066         JNZ       ??CrossCallReturnLabel_15
   \                     ??afIncomingData_11:
   \   00013D   E5..         MOV       A,?V8
   \   00013F   2402         ADD       A,#0x2
   \   000141   F5..         MOV       ?V10,A
   \   000143   E4           CLR       A
   \   000144   35..         ADDC      A,?V9
   \   000146   F5..         MOV       ?V11,A
   \   000148   85..82       MOV       DPL,?V10
   \   00014B   F583         MOV       DPH,A
   \   00014D   E0           MOVX      A,@DPTR
   \   00014E   85..82       MOV       DPL,?XSP + 0
   \   000151   85..83       MOV       DPH,?XSP + 1
   \   000154   F0           MOVX      @DPTR,A
   \   000155   8E82         MOV       DPL,R6
   \   000157   8F83         MOV       DPH,R7
   \   000159   12....       LCALL     ?Subroutine14 & 0xFFFF
   \                     ??CrossCallReturnLabel_14:
   \   00015C                ; Setup parameters for call to function afBuildMSGIncoming
   \   00015C   78..         MOV       R0,#?V4
   \   00015E   12....       LCALL     ?PUSH_XSTACK_I_FOUR
   \   000161   7424         MOV       A,#0x24
   \   000163   12....       LCALL     ?XSTACK_DISP0_8
   \   000166   E0           MOVX      A,@DPTR
   \   000167   F5..         MOV       ?V3,A
   \   000169   78..         MOV       R0,#?V3
   \   00016B   12....       LCALL     ?PUSH_XSTACK_I_ONE
   \   00016E   7423         MOV       A,#0x23
   \   000170   12....       LCALL     ?XSTACK_DISP0_8
   \   000173   12....       LCALL     ?PUSH_XSTACK8_X_TWO
   \   000176   78..         MOV       R0,#?V14
   \   000178   12....       LCALL     ?PUSH_XSTACK_I_TWO
   \   00017B   740B         MOV       A,#0xb
   \   00017D   12....       LCALL     ?XSTACK_DISP0_8
   \   000180   12....       LCALL     ?PUSH_XSTACK8_X_TWO
   \   000183   740C         MOV       A,#0xc
   \   000185   12....       LCALL     ?XSTACK_DISP0_8
   \   000188   E0           MOVX      A,@DPTR
   \   000189   F9           MOV       R1,A
   \   00018A   EE           MOV       A,R6
   \   00018B   FC           MOV       R4,A
   \   00018C   EF           MOV       A,R7
   \   00018D   FD           MOV       R5,A
   \   00018E   AA..         MOV       R2,?V8
   \   000190   AB..         MOV       R3,?V9
   \   000192   12....       LCALL     `??afBuildMSGIncoming::?relay`; Banked call to: afBuildMSGIncoming
   \   000195   740B         MOV       A,#0xb
   \   000197   12....       LCALL     ?DEALLOC_XSTACK8
   \   00019A   85..82       MOV       DPL,?XSP + 0
   \   00019D   85..83       MOV       DPH,?XSP + 1
   \   0001A0   12....       LCALL     ?Subroutine14 & 0xFFFF
   \                     ??CrossCallReturnLabel_15:
   \   0001A3   85..82       MOV       DPL,?V8
   \   0001A6   85..83       MOV       DPH,?V9
   \   0001A9   E0           MOVX      A,@DPTR
   \   0001AA   540C         ANL       A,#0xc
   \   0001AC   640C         XRL       A,#0xc
   \   0001AE   7011         JNZ       ??afIncomingData_12
   \   0001B0                ; Setup parameters for call to function aps_FindGroupForEndpoint
   \   0001B0   A9..         MOV       R1,?V2
   \   0001B2   12....       LCALL     ?Subroutine7 & 0xFFFF
   \                     ??CrossCallReturnLabel_5:
   \   0001B5   6026         JZ        ??afIncomingData_1
   \   0001B7                ; Setup parameters for call to function afFindEndPointDesc
   \   0001B7   12....       LCALL     ?Subroutine22 & 0xFFFF
   \                     ??CrossCallReturnLabel_32:
   \   0001BA   6003         JZ        $+5
   \   0001BC   02....       LJMP      ??afIncomingData_7 & 0xFFFF
   \   0001BF   801C         SJMP      ??afIncomingData_1
   \                     ??afIncomingData_12:
   \   0001C1   A3           INC       DPTR
   \   0001C2   A3           INC       DPTR
   \   0001C3   E0           MOVX      A,@DPTR
   \   0001C4   F4           CPL       A
   \   0001C5   7016         JNZ       ??afIncomingData_1
   \   0001C7   85..82       MOV       DPL,?V0
   \   0001CA   85..83       MOV       DPH,?V1
   \   0001CD   E0           MOVX      A,@DPTR
   \   0001CE   F5..         MOV       ?V0,A
   \   0001D0   A3           INC       DPTR
   \   0001D1   E0           MOVX      A,@DPTR
   \   0001D2   F5..         MOV       ?V1,A
   \   0001D4   E5..         MOV       A,?V0
   \   0001D6   45..         ORL       A,?V1
   \   0001D8   6003         JZ        $+5
   \   0001DA   02....       LJMP      ??afIncomingData_6 & 0xFFFF
    342                else
    343                  epDesc = NULL;
    344              }
    345              else
    346                epDesc = NULL;
    347            }
    348          }
   \                     ??afIncomingData_1:
   \   0001DD   7404         MOV       A,#0x4
   \   0001DF   12....       LCALL     ?DEALLOC_XSTACK8
   \   0001E2   7F10         MOV       R7,#0x10
   \   0001E4   02....       LJMP      ?BANKED_LEAVE_XDATA

   \                                 In  segment BANKED_CODE, align 1, keep-with-next
   \                     ?Subroutine22:
   \   000000   12....       LCALL     `??afFindEndPointDesc::?relay`; Banked call to: afFindEndPointDesc
   \   000003   8A..         MOV       ?V0,R2
   \   000005   8B..         MOV       ?V1,R3
   \   000007   AE..         MOV       R6,?V0
   \   000009   AF..         MOV       R7,?V1
   \   00000B   EA           MOV       A,R2
   \   00000C   4F           ORL       A,R7
   \   00000D   22           RET

   \                                 In  segment BANKED_CODE, align 1, keep-with-next
   \                     ?Subroutine14:
   \   000000   E0           MOVX      A,@DPTR
   \   000001   85..82       MOV       DPL,?V10
   \   000004   85..83       MOV       DPH,?V11
   \   000007   F0           MOVX      @DPTR,A
   \   000008   22           RET

   \                                 In  segment BANKED_CODE, align 1, keep-with-next
   \                     ?Subroutine12:
   \   000000   E0           MOVX      A,@DPTR
   \   000001   F9           MOV       R1,A
   \   000002   12....       LCALL     `??afFindEndPointDescList::?relay`; Banked call to: afFindEndPointDescList
   \   000005   8A..         MOV       ?V0,R2
   \   000007   8B..         MOV       ?V1,R3
   \   000009   22           RET

   \                                 In  segment BANKED_CODE, align 1, keep-with-next
   \                     ?Subroutine7:
   \   000000   A3           INC       DPTR
   \   000001   A3           INC       DPTR
   \   000002   A3           INC       DPTR
   \   000003   A3           INC       DPTR
   \   000004   E0           MOVX      A,@DPTR
   \   000005   FA           MOV       R2,A
   \   000006   A3           INC       DPTR
   \   000007   E0           MOVX      A,@DPTR
   \   000008   FB           MOV       R3,A
   \   000009   12....       LCALL     `??aps_FindGroupForEndpoint::?relay`; Banked call to: aps_FindGroupForEndpoint
   \   00000C   E9           MOV       A,R1
   \   00000D   F5..         MOV       ?V2,A
   \   00000F   74FE         MOV       A,#-0x2
   \   000011   69           XRL       A,R1
   \   000012   22           RET

   \                                 In  segment BANKED_CODE, align 1, keep-with-next
   \                     ?Subroutine4:
   \   000000   A3           INC       DPTR
   \   000001                REQUIRE ??Subroutine28_0
   \   000001                ; // Fall through to label ??Subroutine28_0

   \                                 In  segment BANKED_CODE, align 1, keep-with-next
   \                     ??Subroutine28_0:
   \   000000   A3           INC       DPTR
   \   000001   A3           INC       DPTR
   \   000002   A3           INC       DPTR
   \   000003                REQUIRE ??Subroutine29_0
   \   000003                ; // Fall through to label ??Subroutine29_0

   \                                 In  segment BANKED_CODE, align 1, keep-with-next
   \                     ??Subroutine29_0:
   \   000000   E0           MOVX      A,@DPTR
   \   000001   F8           MOV       R0,A
   \   000002   A3           INC       DPTR
   \   000003   E0           MOVX      A,@DPTR
   \   000004   F9           MOV       R1,A
   \   000005   E8           MOV       A,R0
   \   000006   49           ORL       A,R1
   \   000007   22           RET

   \                                 In  segment BANKED_CODE, align 1, keep-with-next
   \                     ??Subroutine34_0:
   \   000000   A3           INC       DPTR
   \   000001                REQUIRE ??Subroutine35_0
   \   000001                ; // Fall through to label ??Subroutine35_0

   \                                 In  segment BANKED_CODE, align 1, keep-with-next
   \                     ??Subroutine35_0:
   \   000000   E0           MOVX      A,@DPTR
   \   000001   F583         MOV       DPH,A
   \   000003   8882         MOV       DPL,R0
   \   000005   22           RET
    349          
    350          /*********************************************************************
    351           * @fn          afBuildMSGIncoming
    352           *
    353           * @brief       Build the message for the app
    354           *
    355           * @param
    356           *
    357           * @return      pointer to next in data buffer
    358           */

   \                                 In  segment BANKED_CODE, align 1, keep-with-next
    359          static void afBuildMSGIncoming( aps_FrameFormat_t *aff, endPointDesc_t *epDesc,
   \                     afBuildMSGIncoming:
    360                           zAddrType_t *SrcAddress, uint16 SrcPanId, NLDE_Signal_t *sig,
    361                           uint8 nwkSeqNum, uint8 SecurityUse, uint32 timestamp )
    362          {
   \   000000                REQUIRE ?V0
   \   000000                REQUIRE ?V1
   \   000000                REQUIRE ?V2
   \   000000                REQUIRE ?V3
   \   000000                REQUIRE ?V4
   \   000000                REQUIRE ?V5
   \   000000                REQUIRE ?V6
   \   000000                REQUIRE ?V8
   \   000000                REQUIRE ?V9
   \   000000                REQUIRE ?V10
   \   000000   74ED         MOV       A,#-0x13
   \   000002   12....       LCALL     ?BANKED_ENTER_XDATA
   \   000005                ; Saved register size: 19
   \   000005                ; Auto size: 0
   \   000005   8A..         MOV       ?V0,R2
   \   000007   8B..         MOV       ?V1,R3
   \   000009   8C..         MOV       ?V2,R4
   \   00000B   8D..         MOV       ?V3,R5
   \   00000D   89..         MOV       ?V6,R1
    363            afIncomingMSGPacket_t *MSGpkt;
    364            const uint8 len = sizeof( afIncomingMSGPacket_t ) + aff->asduLength;
    365            uint8 *asdu = aff->asdu;
   \   00000F   EA           MOV       A,R2
   \   000010   240E         ADD       A,#0xe
   \   000012   F582         MOV       DPL,A
   \   000014   E4           CLR       A
   \   000015   35..         ADDC      A,?V1
   \   000017   F583         MOV       DPH,A
   \   000019   E0           MOVX      A,@DPTR
   \   00001A   F5..         MOV       ?V4,A
   \   00001C   A3           INC       DPTR
   \   00001D   E0           MOVX      A,@DPTR
   \   00001E   F5..         MOV       ?V5,A
    366            MSGpkt = (afIncomingMSGPacket_t *)osal_msg_allocate( len );
   \   000020                ; Setup parameters for call to function osal_msg_allocate
   \   000020   EA           MOV       A,R2
   \   000021   12....       LCALL     ?Subroutine23 & 0xFFFF
   \                     ??CrossCallReturnLabel_33:
   \   000024   2424         ADD       A,#0x24
   \   000026   FA           MOV       R2,A
   \   000027   7B00         MOV       R3,#0x0
   \   000029   12....       LCALL     `??osal_msg_allocate::?relay`; Banked call to: osal_msg_allocate
   \   00002C   8A..         MOV       ?V8,R2
   \   00002E   8B..         MOV       ?V9,R3
   \   000030   AE..         MOV       R6,?V8
   \   000032   AF..         MOV       R7,?V9
    367          
    368            if ( MSGpkt == NULL )
   \   000034   EA           MOV       A,R2
   \   000035   4F           ORL       A,R7
   \   000036   7003         JNZ       $+5
   \   000038   02....       LJMP      ??CrossCallReturnLabel_3 & 0xFFFF
    369            {
    370              return;
    371            }
    372          
    373            MSGpkt->hdr.event = AF_INCOMING_MSG_CMD;
   \   00003B   8A82         MOV       DPL,R2
   \   00003D   8B83         MOV       DPH,R3
   \   00003F   741A         MOV       A,#0x1a
   \   000041   12....       LCALL     ?Subroutine18 & 0xFFFF
    374            MSGpkt->groupId = aff->GroupID;
   \                     ??CrossCallReturnLabel_21:
   \   000044   12....       LCALL     ?Subroutine10 & 0xFFFF
   \                     ??CrossCallReturnLabel_6:
   \   000047   12....       LCALL     ??Subroutine31_0 & 0xFFFF
    375            MSGpkt->clusterId = aff->ClusterID;
   \                     ??CrossCallReturnLabel_50:
   \   00004A   85..82       MOV       DPL,?V0
   \   00004D   85..83       MOV       DPH,?V1
   \   000050   A3           INC       DPTR
   \   000051   A3           INC       DPTR
   \   000052   12....       LCALL     ?Subroutine10 & 0xFFFF
   \                     ??CrossCallReturnLabel_7:
   \   000055   A3           INC       DPTR
   \   000056   A3           INC       DPTR
   \   000057   12....       LCALL     ??Subroutine31_0 & 0xFFFF
    376            afCopyAddress( &MSGpkt->srcAddr, SrcAddress );
   \                     ??CrossCallReturnLabel_51:
   \   00005A                ; Setup parameters for call to function afCopyAddress
   \   00005A   7413         MOV       A,#0x13
   \   00005C   12....       LCALL     ?XSTACK_DISP0_8
   \   00005F   12....       LCALL     ?Subroutine13 & 0xFFFF
   \                     ??CrossCallReturnLabel_10:
   \   000062   EA           MOV       A,R2
   \   000063   2406         ADD       A,#0x6
   \   000065   FA           MOV       R2,A
   \   000066   E4           CLR       A
   \   000067   3F           ADDC      A,R7
   \   000068   FB           MOV       R3,A
   \   000069   12....       LCALL     `??afCopyAddress::?relay`; Banked call to: afCopyAddress
    377            MSGpkt->srcAddr.endPoint = aff->SrcEndPoint;
   \   00006C   85..82       MOV       DPL,?V0
   \   00006F   85..83       MOV       DPH,?V1
   \   000072   A3           INC       DPTR
   \   000073   A3           INC       DPTR
   \   000074   A3           INC       DPTR
   \   000075   E0           MOVX      A,@DPTR
   \   000076   C0E0         PUSH      A
   \   000078   EE           MOV       A,R6
   \   000079   240F         ADD       A,#0xf
   \   00007B   F582         MOV       DPL,A
   \   00007D   E4           CLR       A
   \   00007E   3F           ADDC      A,R7
   \   00007F   F583         MOV       DPH,A
   \   000081   D0E0         POP       A
   \   000083   F0           MOVX      @DPTR,A
    378            MSGpkt->endPoint = epDesc->endPoint;
   \   000084   85..82       MOV       DPL,?V2
   \   000087   85..83       MOV       DPH,?V3
   \   00008A   E0           MOVX      A,@DPTR
   \   00008B   C0E0         PUSH      A
   \   00008D   EE           MOV       A,R6
   \   00008E   2414         ADD       A,#0x14
   \   000090   F582         MOV       DPL,A
   \   000092   E4           CLR       A
   \   000093   3F           ADDC      A,R7
   \   000094   F583         MOV       DPH,A
   \   000096   D0E0         POP       A
   \   000098   F0           MOVX      @DPTR,A
    379            MSGpkt->wasBroadcast = aff->wasBroadcast;
   \   000099   E5..         MOV       A,?V0
   \   00009B   240C         ADD       A,#0xc
   \   00009D   F582         MOV       DPL,A
   \   00009F   E4           CLR       A
   \   0000A0   35..         ADDC      A,?V1
   \   0000A2   F583         MOV       DPH,A
   \   0000A4   E0           MOVX      A,@DPTR
   \   0000A5   C0E0         PUSH      A
   \   0000A7   EE           MOV       A,R6
   \   0000A8   2415         ADD       A,#0x15
   \   0000AA   F582         MOV       DPL,A
   \   0000AC   E4           CLR       A
   \   0000AD   3F           ADDC      A,R7
   \   0000AE   F583         MOV       DPH,A
   \   0000B0   D0E0         POP       A
   \   0000B2   F0           MOVX      @DPTR,A
   \   0000B3   7417         MOV       A,#0x17
   \   0000B5   12....       LCALL     ?XSTACK_DISP0_8
   \   0000B8   12....       LCALL     ??Subroutine32_0 & 0xFFFF
    380            MSGpkt->LinkQuality = sig->LinkQuality;
   \                     ??CrossCallReturnLabel_59:
   \   0000BB   8882         MOV       DPL,R0
   \   0000BD   F583         MOV       DPH,A
   \   0000BF   E0           MOVX      A,@DPTR
   \   0000C0   C0E0         PUSH      A
   \   0000C2   EE           MOV       A,R6
   \   0000C3   2416         ADD       A,#0x16
   \   0000C5   F582         MOV       DPL,A
   \   0000C7   E4           CLR       A
   \   0000C8   3F           ADDC      A,R7
   \   0000C9   F583         MOV       DPH,A
   \   0000CB   D0E0         POP       A
   \   0000CD   F0           MOVX      @DPTR,A
    381            MSGpkt->correlation = sig->correlation;
   \   0000CE   8882         MOV       DPL,R0
   \   0000D0   8983         MOV       DPH,R1
   \   0000D2   A3           INC       DPTR
   \   0000D3   E0           MOVX      A,@DPTR
   \   0000D4   C0E0         PUSH      A
   \   0000D6   EE           MOV       A,R6
   \   0000D7   2417         ADD       A,#0x17
   \   0000D9   F582         MOV       DPL,A
   \   0000DB   E4           CLR       A
   \   0000DC   3F           ADDC      A,R7
   \   0000DD   F583         MOV       DPH,A
   \   0000DF   D0E0         POP       A
   \   0000E1   F0           MOVX      @DPTR,A
    382            MSGpkt->rssi = sig->rssi;
   \   0000E2   8882         MOV       DPL,R0
   \   0000E4   8983         MOV       DPH,R1
   \   0000E6   A3           INC       DPTR
   \   0000E7   A3           INC       DPTR
   \   0000E8   E0           MOVX      A,@DPTR
   \   0000E9   C0E0         PUSH      A
   \   0000EB   EE           MOV       A,R6
   \   0000EC   2418         ADD       A,#0x18
   \   0000EE   F582         MOV       DPL,A
   \   0000F0   E4           CLR       A
   \   0000F1   3F           ADDC      A,R7
   \   0000F2   F583         MOV       DPH,A
   \   0000F4   D0E0         POP       A
   \   0000F6   F0           MOVX      @DPTR,A
    383            MSGpkt->SecurityUse = SecurityUse;
   \   0000F7   7419         MOV       A,#0x19
   \   0000F9   12....       LCALL     ?XSTACK_DISP0_8
   \   0000FC   E0           MOVX      A,@DPTR
   \   0000FD   C0E0         PUSH      A
   \   0000FF   EE           MOV       A,R6
   \   000100   2419         ADD       A,#0x19
   \   000102   F582         MOV       DPL,A
   \   000104   E4           CLR       A
   \   000105   3F           ADDC      A,R7
   \   000106   F583         MOV       DPH,A
   \   000108   D0E0         POP       A
   \   00010A   F0           MOVX      @DPTR,A
    384            MSGpkt->timestamp = timestamp;
   \   00010B   741A         MOV       A,#0x1a
   \   00010D   12....       LCALL     ?XSTACK_DISP0_8
   \   000110   12....       LCALL     ?XLOAD_R0123
   \   000113   EE           MOV       A,R6
   \   000114   241A         ADD       A,#0x1a
   \   000116   F582         MOV       DPL,A
   \   000118   E4           CLR       A
   \   000119   3F           ADDC      A,R7
   \   00011A   F583         MOV       DPH,A
   \   00011C   12....       LCALL     ?XSTORE_R0123
    385            MSGpkt->nwkSeqNum = nwkSeqNum;
   \   00011F   EE           MOV       A,R6
   \   000120   241E         ADD       A,#0x1e
   \   000122   F582         MOV       DPL,A
   \   000124   E4           CLR       A
   \   000125   3F           ADDC      A,R7
   \   000126   F583         MOV       DPH,A
   \   000128   E5..         MOV       A,?V6
   \   00012A   12....       LCALL     ?Subroutine18 & 0xFFFF
    386            MSGpkt->macDestAddr = aff->macDestAddr;
   \                     ??CrossCallReturnLabel_22:
   \   00012D   A3           INC       DPTR
   \   00012E   A3           INC       DPTR
   \   00012F   A3           INC       DPTR
   \   000130   A3           INC       DPTR
   \   000131   A3           INC       DPTR
   \   000132   A3           INC       DPTR
   \   000133   A3           INC       DPTR
   \   000134   A3           INC       DPTR
   \   000135   A3           INC       DPTR
   \   000136   12....       LCALL     ?Subroutine11 & 0xFFFF
   \                     ??CrossCallReturnLabel_65:
   \   000139   EE           MOV       A,R6
   \   00013A   2412         ADD       A,#0x12
   \   00013C   12....       LCALL     ?Subroutine17 & 0xFFFF
    387            MSGpkt->srcAddr.panId = SrcPanId;
   \                     ??CrossCallReturnLabel_57:
   \   00013F   7415         MOV       A,#0x15
   \   000141   12....       LCALL     ?XSTACK_DISP0_8
   \   000144   12....       LCALL     ??Subroutine32_0 & 0xFFFF
   \                     ??CrossCallReturnLabel_60:
   \   000147   EE           MOV       A,R6
   \   000148   2410         ADD       A,#0x10
   \   00014A   12....       LCALL     ?Subroutine17 & 0xFFFF
    388            MSGpkt->cmd.TransSeqNumber = 0;
   \                     ??CrossCallReturnLabel_58:
   \   00014D   EE           MOV       A,R6
   \   00014E   241F         ADD       A,#0x1f
   \   000150   F582         MOV       DPL,A
   \   000152   E4           CLR       A
   \   000153   3F           ADDC      A,R7
   \   000154   F583         MOV       DPH,A
   \   000156   E4           CLR       A
   \   000157   F0           MOVX      @DPTR,A
   \   000158   E5..         MOV       A,?V0
   \   00015A   12....       LCALL     ?Subroutine23 & 0xFFFF
   \                     ??CrossCallReturnLabel_34:
   \   00015D   F8           MOV       R0,A
   \   00015E   12....       LCALL     ?Subroutine24 & 0xFFFF
   \                     ??CrossCallReturnLabel_35:
   \   000161   E8           MOV       A,R0
   \   000162   F0           MOVX      @DPTR,A
   \   000163   A3           INC       DPTR
   \   000164   E4           CLR       A
   \   000165   F0           MOVX      @DPTR,A
    389            MSGpkt->cmd.DataLength = aff->asduLength;
    390          
    391            if ( MSGpkt->cmd.DataLength )
   \   000166   E8           MOV       A,R0
   \   000167   602D         JZ        ??afBuildMSGIncoming_0
    392            {
    393              MSGpkt->cmd.Data = (uint8 *)(MSGpkt + 1);
   \   000169   EE           MOV       A,R6
   \   00016A   2424         ADD       A,#0x24
   \   00016C   FA           MOV       R2,A
   \   00016D   E4           CLR       A
   \   00016E   3F           ADDC      A,R7
   \   00016F   FB           MOV       R3,A
   \   000170   12....       LCALL     ?Subroutine25 & 0xFFFF
   \                     ??CrossCallReturnLabel_37:
   \   000173   EA           MOV       A,R2
   \   000174   F0           MOVX      @DPTR,A
   \   000175   A3           INC       DPTR
   \   000176   EB           MOV       A,R3
   \   000177   F0           MOVX      @DPTR,A
    394              osal_memcpy( MSGpkt->cmd.Data, asdu, MSGpkt->cmd.DataLength );
   \   000178                ; Setup parameters for call to function osal_memcpy
   \   000178   85....       MOV       ?V8,?V4
   \   00017B   85....       MOV       ?V9,?V5
   \   00017E   75..00       MOV       ?V10,#0x0
   \   000181   78..         MOV       R0,#?V8
   \   000183   12....       LCALL     ?PUSH_XSTACK_I_THREE
   \   000186   12....       LCALL     ?Subroutine24 & 0xFFFF
    395            }
   \                     ??CrossCallReturnLabel_36:
   \   000189   12....       LCALL     ?Subroutine13 & 0xFFFF
   \                     ??CrossCallReturnLabel_11:
   \   00018C   12....       LCALL     `??osal_memcpy::?relay`; Banked call to: osal_memcpy
   \   00018F   7403         MOV       A,#0x3
   \   000191   12....       LCALL     ?DEALLOC_XSTACK8
   \   000194   8007         SJMP      ??afBuildMSGIncoming_1
    396            else
    397            {
    398              MSGpkt->cmd.Data = NULL;
   \                     ??afBuildMSGIncoming_0:
   \   000196   12....       LCALL     ?Subroutine25 & 0xFFFF
    399            }
   \                     ??CrossCallReturnLabel_38:
   \   000199   E4           CLR       A
   \   00019A   F0           MOVX      @DPTR,A
   \   00019B   A3           INC       DPTR
   \   00019C   F0           MOVX      @DPTR,A
    400          
    401          #if defined ( MT_AF_CB_FUNC )
    402            // If ZDO or SAPI have registered for this endpoint, dont intercept it here
    403            if (AFCB_CHECK(CB_ID_AF_DATA_IND, *(epDesc->task_id)))
    404            {
    405              MT_AfIncomingMsg( (void *)MSGpkt );
    406              // Release the memory.
    407              osal_msg_deallocate( (void *)MSGpkt );
    408            }
    409            else
    410          #endif
    411            {
    412              // Send message through task message.
    413              osal_msg_send( *(epDesc->task_id), (uint8 *)MSGpkt );
   \                     ??afBuildMSGIncoming_1:
   \   00019D                ; Setup parameters for call to function osal_msg_send
   \   00019D   EE           MOV       A,R6
   \   00019E   FA           MOV       R2,A
   \   00019F   EF           MOV       A,R7
   \   0001A0   FB           MOV       R3,A
   \   0001A1   85..82       MOV       DPL,?V2
   \   0001A4   85..83       MOV       DPH,?V3
   \   0001A7   12....       LCALL     ?Subroutine6 & 0xFFFF
    414            }
    415          }
   \                     ??CrossCallReturnLabel_3:
   \   0001AA   7F0B         MOV       R7,#0xb
   \   0001AC   02....       LJMP      ?BANKED_LEAVE_XDATA

   \                                 In  segment BANKED_CODE, align 1, keep-with-next
   \                     ?Subroutine25:
   \   000000   EE           MOV       A,R6
   \   000001   2422         ADD       A,#0x22
   \   000003   F582         MOV       DPL,A
   \   000005   E4           CLR       A
   \   000006   3F           ADDC      A,R7
   \   000007   F583         MOV       DPH,A
   \   000009   22           RET

   \                                 In  segment BANKED_CODE, align 1, keep-with-next
   \                     ?Subroutine24:
   \   000000   EE           MOV       A,R6
   \   000001   2420         ADD       A,#0x20
   \   000003   F582         MOV       DPL,A
   \   000005   E4           CLR       A
   \   000006   3F           ADDC      A,R7
   \   000007   F583         MOV       DPH,A
   \   000009   22           RET

   \                                 In  segment BANKED_CODE, align 1, keep-with-next
   \                     ?Subroutine23:
   \   000000   2410         ADD       A,#0x10
   \   000002   F582         MOV       DPL,A
   \   000004   E4           CLR       A
   \   000005   35..         ADDC      A,?V1
   \   000007   F583         MOV       DPH,A
   \   000009   E0           MOVX      A,@DPTR
   \   00000A   22           RET

   \                                 In  segment BANKED_CODE, align 1, keep-with-next
   \                     ?Subroutine10:
   \   000000   A3           INC       DPTR
   \   000001   A3           INC       DPTR
   \   000002   A3           INC       DPTR
   \   000003   A3           INC       DPTR
   \   000004   12....       LCALL     ?Subroutine27 & 0xFFFF
   \                     ??CrossCallReturnLabel_49:
   \   000007   A3           INC       DPTR
   \   000008   A3           INC       DPTR
   \   000009   22           RET

   \                                 In  segment BANKED_CODE, align 1, keep-with-next
   \                     ?Subroutine18:
   \   000000   F0           MOVX      @DPTR,A
   \   000001   85..82       MOV       DPL,?V0
   \   000004   85..83       MOV       DPH,?V1
   \   000007   22           RET

   \                                 In  segment BANKED_CODE, align 1, keep-with-next
   \                     ?Subroutine17:
   \   000000   F582         MOV       DPL,A
   \   000002   E4           CLR       A
   \   000003   3F           ADDC      A,R7
   \   000004   F583         MOV       DPH,A
   \   000006                REQUIRE ??Subroutine31_0
   \   000006                ; // Fall through to label ??Subroutine31_0

   \                                 In  segment BANKED_CODE, align 1, keep-with-next
   \                     ??Subroutine31_0:
   \   000000   E8           MOV       A,R0
   \   000001   F0           MOVX      @DPTR,A
   \   000002   A3           INC       DPTR
   \   000003   E9           MOV       A,R1
   \   000004   F0           MOVX      @DPTR,A
   \   000005   22           RET

   \                                 In  segment BANKED_CODE, align 1, keep-with-next
   \                     ?Subroutine11:
   \   000000   A3           INC       DPTR
   \   000001                REQUIRE ??Subroutine32_0
   \   000001                ; // Fall through to label ??Subroutine32_0

   \                                 In  segment BANKED_CODE, align 1, keep-with-next
   \                     ??Subroutine32_0:
   \   000000   E0           MOVX      A,@DPTR
   \   000001   F8           MOV       R0,A
   \   000002   A3           INC       DPTR
   \   000003   E0           MOVX      A,@DPTR
   \   000004   F9           MOV       R1,A
   \   000005   22           RET

   \                                 In  segment BANKED_CODE, align 1, keep-with-next
   \                     ?Subroutine13:
   \   000000   E0           MOVX      A,@DPTR
   \   000001   FC           MOV       R4,A
   \   000002   A3           INC       DPTR
   \   000003   E0           MOVX      A,@DPTR
   \   000004   FD           MOV       R5,A
   \   000005   22           RET
    416          
    417          /*********************************************************************
    418           * @fn      AF_DataRequest
    419           *
    420           * @brief   Common functionality for invoking APSDE_DataReq() for both
    421           *          SendMulti and MSG-Send.
    422           *
    423           * input parameters
    424           *
    425           * @param  *dstAddr - Full ZB destination address: Nwk Addr + End Point.
    426           * @param  *srcEP - Origination (i.e. respond to or ack to) End Point Descr.
    427           * @param   cID - A valid cluster ID as specified by the Profile.
    428           * @param   len - Number of bytes of data pointed to by next param.
    429           * @param  *buf - A pointer to the data bytes to send.
    430           * @param  *transID - A pointer to a byte which can be modified and which will
    431           *                    be used as the transaction sequence number of the msg.
    432           * @param   options - Valid bit mask of Tx options.
    433           * @param   radius - Normally set to AF_DEFAULT_RADIUS.
    434           *
    435           * output parameters
    436           *
    437           * @param  *transID - Incremented by one if the return value is success.
    438           *
    439           * @return  afStatus_t - See previous definition of afStatus_... types.
    440           */

   \                                 In  segment XDATA_I, align 1, keep-with-next
    441          uint8 AF_DataRequestDiscoverRoute = TRUE;
   \                     AF_DataRequestDiscoverRoute:
   \   000000                DS 1
   \   000001                REQUIRE `?<Initializer for AF_DataRequestDiscoverRoute>`
   \   000001                REQUIRE __INIT_XDATA_I

   \                                 In  segment BANKED_CODE, align 1, keep-with-next
    442          afStatus_t AF_DataRequest( afAddrType_t *dstAddr, endPointDesc_t *srcEP,
   \                     AF_DataRequest:
    443                                     uint16 cID, uint16 len, uint8 *buf, uint8 *transID,
    444                                     uint8 options, uint8 radius )
    445          {
   \   000000                REQUIRE ?V0
   \   000000                REQUIRE ?V1
   \   000000                REQUIRE ?V2
   \   000000                REQUIRE ?V4
   \   000000                REQUIRE ?V5
   \   000000                REQUIRE ?V6
   \   000000                REQUIRE ?V7
   \   000000   74F0         MOV       A,#-0x10
   \   000002   12....       LCALL     ?BANKED_ENTER_XDATA
   \   000005                ; Saved register size: 16
   \   000005                ; Auto size: 30
   \   000005   74E2         MOV       A,#-0x1e
   \   000007   12....       LCALL     ?ALLOC_XSTACK8
   \   00000A   EA           MOV       A,R2
   \   00000B   FE           MOV       R6,A
   \   00000C   EB           MOV       A,R3
   \   00000D   FF           MOV       R7,A
   \   00000E   8C..         MOV       ?V0,R4
   \   000010   8D..         MOV       ?V1,R5
   \   000012   89..         MOV       ?V2,R1
    446            pDescCB pfnDescCB;
    447            ZStatus_t stat;
    448            APSDE_DataReq_t req;
    449            afDataReqMTU_t mtu;
    450          
    451            // Verify source end point
    452            if ( srcEP == NULL )
   \   000014   EC           MOV       A,R4
   \   000015   4D           ORL       A,R5
   \   000016   7003         JNZ       $+5
   \   000018   02....       LJMP      ??AF_DataRequest_0 & 0xFFFF
    453            {
    454              return afStatus_INVALID_PARAMETER;
    455            }
    456          
    457          #if !defined( REFLECTOR )
    458            if ( dstAddr->addrMode == afAddrNotPresent )
    459            {
    460              return afStatus_INVALID_PARAMETER;
    461            }
    462          #endif
    463          
    464            // Check if route is available before sending data
    465            if ( options & AF_LIMIT_CONCENTRATOR  )
   \   00001B   E9           MOV       A,R1
   \   00001C   A2E3         MOV       C,0xE0 /* A   */.3
   \   00001E   5042         JNC       ??AF_DataRequest_1
    466            {
    467              if ( dstAddr->addrMode != afAddr16Bit )
   \   000020   8A82         MOV       DPL,R2
   \   000022   8B83         MOV       DPH,R3
   \   000024   A3           INC       DPTR
   \   000025   A3           INC       DPTR
   \   000026   A3           INC       DPTR
   \   000027   A3           INC       DPTR
   \   000028   A3           INC       DPTR
   \   000029   A3           INC       DPTR
   \   00002A   A3           INC       DPTR
   \   00002B   A3           INC       DPTR
   \   00002C   E0           MOVX      A,@DPTR
   \   00002D   6402         XRL       A,#0x2
   \   00002F   6003         JZ        $+5
   \   000031   02....       LJMP      ??AF_DataRequest_0 & 0xFFFF
    468              {
    469                return ( afStatus_INVALID_PARAMETER );
    470              }
    471          
    472              // First, make sure the destination is not its self, then check for an existing route.
    473              if ( (dstAddr->addr.shortAddr != NLME_GetShortAddr())
    474                  && (RTG_CheckRtStatus( dstAddr->addr.shortAddr, RT_ACTIVE, (MTO_ROUTE | NO_ROUTE_CACHE) ) != RTG_SUCCESS) )
   \   000034                ; Setup parameters for call to function NLME_GetShortAddr
   \   000034   12....       LCALL     `??NLME_GetShortAddr::?relay`; Banked call to: NLME_GetShortAddr
   \   000037   8A..         MOV       ?V4,R2
   \   000039   8B..         MOV       ?V5,R3
   \   00003B   A8..         MOV       R0,?V4
   \   00003D   A9..         MOV       R1,?V5
   \   00003F   8E82         MOV       DPL,R6
   \   000041   8F83         MOV       DPH,R7
   \   000043   E0           MOVX      A,@DPTR
   \   000044   68           XRL       A,R0
   \   000045   7003         JNZ       ??AF_DataRequest_2
   \   000047   A3           INC       DPTR
   \   000048   E0           MOVX      A,@DPTR
   \   000049   69           XRL       A,R1
   \                     ??AF_DataRequest_2:
   \   00004A   6016         JZ        ??AF_DataRequest_1
   \   00004C                ; Setup parameters for call to function RTG_CheckRtStatus
   \   00004C   7C03         MOV       R4,#0x3
   \   00004E   7901         MOV       R1,#0x1
   \   000050   8E82         MOV       DPL,R6
   \   000052   8F83         MOV       DPH,R7
   \   000054   12....       LCALL     ??Subroutine37_0 & 0xFFFF
   \                     ??CrossCallReturnLabel_75:
   \   000057   12....       LCALL     `??RTG_CheckRtStatus::?relay`; Banked call to: RTG_CheckRtStatus
   \   00005A   E9           MOV       A,R1
   \   00005B   6005         JZ        ??AF_DataRequest_1
    475              {
    476                // A valid route to a concentrator wasn't found
    477                return ( afStatus_NO_ROUTE );
   \   00005D   79CD         MOV       R1,#-0x33
   \   00005F   02....       LJMP      ??AF_DataRequest_3 & 0xFFFF
    478              }
    479            }
    480          
    481            // Validate broadcasting
    482            if ( ( dstAddr->addrMode == afAddr16Bit     ) ||
    483                 ( dstAddr->addrMode == afAddrBroadcast )    )
   \                     ??AF_DataRequest_1:
   \   000062   8E82         MOV       DPL,R6
   \   000064   8F83         MOV       DPH,R7
   \   000066   A3           INC       DPTR
   \   000067   A3           INC       DPTR
   \   000068   A3           INC       DPTR
   \   000069   A3           INC       DPTR
   \   00006A   A3           INC       DPTR
   \   00006B   A3           INC       DPTR
   \   00006C   A3           INC       DPTR
   \   00006D   A3           INC       DPTR
   \   00006E   E0           MOVX      A,@DPTR
   \   00006F   6402         XRL       A,#0x2
   \   000071   6011         JZ        ??AF_DataRequest_4
   \   000073   8E82         MOV       DPL,R6
   \   000075   8F83         MOV       DPH,R7
   \   000077   A3           INC       DPTR
   \   000078   A3           INC       DPTR
   \   000079   A3           INC       DPTR
   \   00007A   A3           INC       DPTR
   \   00007B   A3           INC       DPTR
   \   00007C   A3           INC       DPTR
   \   00007D   A3           INC       DPTR
   \   00007E   A3           INC       DPTR
   \   00007F   E0           MOVX      A,@DPTR
   \   000080   640F         XRL       A,#0xf
   \   000082   704B         JNZ       ??AF_DataRequest_5
    484            {
    485              // Check for valid broadcast values
    486              if( ADDR_NOT_BCAST != NLME_IsAddressBroadcast( dstAddr->addr.shortAddr )  )
   \                     ??AF_DataRequest_4:
   \   000084                ; Setup parameters for call to function NLME_IsAddressBroadcast
   \   000084   8E82         MOV       DPL,R6
   \   000086   8F83         MOV       DPH,R7
   \   000088   12....       LCALL     ??Subroutine37_0 & 0xFFFF
   \                     ??CrossCallReturnLabel_76:
   \   00008B   12....       LCALL     `??NLME_IsAddressBroadcast::?relay`; Banked call to: NLME_IsAddressBroadcast
   \   00008E   E9           MOV       A,R1
   \   00008F   8E82         MOV       DPL,R6
   \   000091   8F83         MOV       DPH,R7
   \   000093   A3           INC       DPTR
   \   000094   A3           INC       DPTR
   \   000095   A3           INC       DPTR
   \   000096   A3           INC       DPTR
   \   000097   A3           INC       DPTR
   \   000098   A3           INC       DPTR
   \   000099   A3           INC       DPTR
   \   00009A   A3           INC       DPTR
   \   00009B   602B         JZ        ??AF_DataRequest_6
    487              {
    488                // Force mode to broadcast
    489                dstAddr->addrMode = afAddrBroadcast;
   \   00009D   740F         MOV       A,#0xf
   \   00009F   F0           MOVX      @DPTR,A
    490              }
    491              else
    492              {
    493                // Address is not a valid broadcast type
    494                if ( dstAddr->addrMode == afAddrBroadcast )
    495                {
    496                  return afStatus_INVALID_PARAMETER;
    497                }
    498              }
    499            }
    500            else if ( dstAddr->addrMode != afAddr64Bit &&
    501                      dstAddr->addrMode != afAddrGroup &&
    502                      dstAddr->addrMode != afAddrNotPresent )
    503            {
    504              return afStatus_INVALID_PARAMETER;
    505            }
    506          
    507            // Set destination address
    508            req.dstAddr.addrMode = dstAddr->addrMode;
   \                     ??AF_DataRequest_7:
   \   0000A0   EE           MOV       A,R6
   \   0000A1   2408         ADD       A,#0x8
   \   0000A3   F8           MOV       R0,A
   \   0000A4   E4           CLR       A
   \   0000A5   3F           ADDC      A,R7
   \   0000A6   F9           MOV       R1,A
   \   0000A7   8882         MOV       DPL,R0
   \   0000A9   F583         MOV       DPH,A
   \   0000AB   E0           MOVX      A,@DPTR
   \   0000AC   C0E0         PUSH      A
   \   0000AE   740A         MOV       A,#0xa
   \   0000B0   12....       LCALL     ?XSTACK_DISP0_8
   \   0000B3   D0E0         POP       A
   \   0000B5   12....       LCALL     ?Subroutine21 & 0xFFFF
    509            if ( dstAddr->addrMode == afAddr64Bit )
   \                     ??CrossCallReturnLabel_29:
   \   0000B8   704B         JNZ       ??AF_DataRequest_8
    510              osal_cpyExtAddr( req.dstAddr.addr.extAddr, dstAddr->addr.extAddr );
   \   0000BA                ; Setup parameters for call to function sAddrExtCpy
   \   0000BA   EE           MOV       A,R6
   \   0000BB   FC           MOV       R4,A
   \   0000BC   EF           MOV       A,R7
   \   0000BD   FD           MOV       R5,A
   \   0000BE   7402         MOV       A,#0x2
   \   0000C0   12....       LCALL     ?XSTACK_DISP101_8
   \   0000C3   12....       LCALL     `??sAddrExtCpy::?relay`; Banked call to: sAddrExtCpy
   \   0000C6   804C         SJMP      ??CrossCallReturnLabel_52
   \                     ??AF_DataRequest_6:
   \   0000C8   E0           MOVX      A,@DPTR
   \   0000C9   640F         XRL       A,#0xf
   \   0000CB   70D3         JNZ       ??AF_DataRequest_7
   \   0000CD   8031         SJMP      ??AF_DataRequest_0
   \                     ??AF_DataRequest_5:
   \   0000CF   8E82         MOV       DPL,R6
   \   0000D1   8F83         MOV       DPH,R7
   \   0000D3   A3           INC       DPTR
   \   0000D4   A3           INC       DPTR
   \   0000D5   A3           INC       DPTR
   \   0000D6   A3           INC       DPTR
   \   0000D7   A3           INC       DPTR
   \   0000D8   A3           INC       DPTR
   \   0000D9   A3           INC       DPTR
   \   0000DA   A3           INC       DPTR
   \   0000DB   E0           MOVX      A,@DPTR
   \   0000DC   6403         XRL       A,#0x3
   \   0000DE   60C0         JZ        ??AF_DataRequest_7
   \   0000E0   8E82         MOV       DPL,R6
   \   0000E2   8F83         MOV       DPH,R7
   \   0000E4   A3           INC       DPTR
   \   0000E5   A3           INC       DPTR
   \   0000E6   A3           INC       DPTR
   \   0000E7   A3           INC       DPTR
   \   0000E8   A3           INC       DPTR
   \   0000E9   A3           INC       DPTR
   \   0000EA   A3           INC       DPTR
   \   0000EB   A3           INC       DPTR
   \   0000EC   E0           MOVX      A,@DPTR
   \   0000ED   6401         XRL       A,#0x1
   \   0000EF   60AF         JZ        ??AF_DataRequest_7
   \   0000F1   8E82         MOV       DPL,R6
   \   0000F3   8F83         MOV       DPH,R7
   \   0000F5   A3           INC       DPTR
   \   0000F6   A3           INC       DPTR
   \   0000F7   A3           INC       DPTR
   \   0000F8   A3           INC       DPTR
   \   0000F9   A3           INC       DPTR
   \   0000FA   A3           INC       DPTR
   \   0000FB   A3           INC       DPTR
   \   0000FC   A3           INC       DPTR
   \   0000FD   E0           MOVX      A,@DPTR
   \   0000FE   60A0         JZ        ??AF_DataRequest_7
   \                     ??AF_DataRequest_0:
   \   000100   7902         MOV       R1,#0x2
   \   000102   02....       LJMP      ??AF_DataRequest_3 & 0xFFFF
    511            else
    512              req.dstAddr.addr.shortAddr = dstAddr->addr.shortAddr;
   \                     ??AF_DataRequest_8:
   \   000105   8E82         MOV       DPL,R6
   \   000107   8F83         MOV       DPH,R7
   \   000109   12....       LCALL     ??Subroutine32_0 & 0xFFFF
   \                     ??CrossCallReturnLabel_61:
   \   00010C   7402         MOV       A,#0x2
   \   00010E   12....       LCALL     ?XSTACK_DISP0_8
   \   000111   12....       LCALL     ??Subroutine31_0 & 0xFFFF
    513          
    514            req.profileID = ZDO_PROFILE_ID;
   \                     ??CrossCallReturnLabel_52:
   \   000114   7411         MOV       A,#0x11
   \   000116   12....       LCALL     ?XSTACK_DISP0_8
   \   000119   E4           CLR       A
   \   00011A   F0           MOVX      @DPTR,A
   \   00011B   A3           INC       DPTR
   \   00011C   F0           MOVX      @DPTR,A
    515          
    516            if ( (pfnDescCB = afGetDescCB( srcEP )) )
   \   00011D   90....       MOV       DPTR,#epList
   \                     ??AF_DataRequest_9:
   \   000120   12....       LCALL     ??Subroutine29_0 & 0xFFFF
   \                     ??CrossCallReturnLabel_41:
   \   000123   604B         JZ        ??AF_DataRequest_10
   \   000125   8882         MOV       DPL,R0
   \   000127   8983         MOV       DPH,R1
   \   000129   12....       LCALL     ??Subroutine36_0 & 0xFFFF
   \                     ??CrossCallReturnLabel_79:
   \   00012C   E5..         MOV       A,?V0
   \   00012E   6A           XRL       A,R2
   \   00012F   7003         JNZ       ??AF_DataRequest_11
   \   000131   E5..         MOV       A,?V1
   \   000133   6B           XRL       A,R3
   \                     ??AF_DataRequest_11:
   \   000134   8882         MOV       DPL,R0
   \   000136   8983         MOV       DPH,R1
   \   000138   70E6         JNZ       ??AF_DataRequest_9
   \   00013A   A3           INC       DPTR
   \   00013B   A3           INC       DPTR
   \   00013C   A3           INC       DPTR
   \   00013D   A3           INC       DPTR
   \   00013E   E0           MOVX      A,@DPTR
   \   00013F   F8           MOV       R0,A
   \   000140   A3           INC       DPTR
   \   000141   E0           MOVX      A,@DPTR
   \   000142   FD           MOV       R5,A
   \   000143   E8           MOV       A,R0
   \   000144   4D           ORL       A,R5
   \   000145   6029         JZ        ??AF_DataRequest_10
    517            {
    518              uint16 *pID = (uint16 *)(pfnDescCB(
    519                                           AF_DESCRIPTOR_PROFILE_ID, srcEP->endPoint ));
   \   000147                ; Setup parameters for indirect call
   \   000147   85..82       MOV       DPL,?V0
   \   00014A   85..83       MOV       DPH,?V1
   \   00014D   E0           MOVX      A,@DPTR
   \   00014E   FA           MOV       R2,A
   \   00014F   7902         MOV       R1,#0x2
   \   000151   8882         MOV       DPL,R0
   \   000153   8D83         MOV       DPH,R5
   \   000155   12....       LCALL     ?CALL_IND
    520              if ( pID )
   \   000158   EA           MOV       A,R2
   \   000159   4B           ORL       A,R3
   \   00015A   6036         JZ        ??CrossCallReturnLabel_54
    521              {
    522                req.profileID = *pID;
   \   00015C   8A82         MOV       DPL,R2
   \   00015E   8B83         MOV       DPH,R3
   \   000160   12....       LCALL     ??Subroutine32_0 & 0xFFFF
   \                     ??CrossCallReturnLabel_62:
   \   000163   7411         MOV       A,#0x11
   \   000165   12....       LCALL     ?XSTACK_DISP0_8
   \   000168   12....       LCALL     ??Subroutine31_0 & 0xFFFF
    523                osal_mem_free( pID );
   \                     ??CrossCallReturnLabel_53:
   \   00016B                ; Setup parameters for call to function osal_mem_free
   \   00016B   12....       LCALL     `??osal_mem_free::?relay`; Banked call to: osal_mem_free
   \   00016E   8022         SJMP      ??CrossCallReturnLabel_54
    524              }
    525            }
    526            else if ( srcEP->simpleDesc )
   \                     ??AF_DataRequest_10:
   \   000170   85..82       MOV       DPL,?V0
   \   000173   85..83       MOV       DPH,?V1
   \   000176   12....       LCALL     ??Subroutine28_0 & 0xFFFF
   \                     ??CrossCallReturnLabel_44:
   \   000179   6017         JZ        ??CrossCallReturnLabel_54
    527            {
    528              req.profileID = srcEP->simpleDesc->AppProfId;
   \   00017B   85..82       MOV       DPL,?V0
   \   00017E   85..83       MOV       DPH,?V1
   \   000181   A3           INC       DPTR
   \   000182   A3           INC       DPTR
   \   000183   A3           INC       DPTR
   \   000184   12....       LCALL     ??Subroutine34_0 & 0xFFFF
    529            }
   \                     ??CrossCallReturnLabel_70:
   \   000187   12....       LCALL     ?Subroutine11 & 0xFFFF
   \                     ??CrossCallReturnLabel_66:
   \   00018A   7411         MOV       A,#0x11
   \   00018C   12....       LCALL     ?XSTACK_DISP0_8
   \   00018F   12....       LCALL     ??Subroutine31_0 & 0xFFFF
    530          
    531            req.txOptions = 0;
   \                     ??CrossCallReturnLabel_54:
   \   000192   7417         MOV       A,#0x17
   \   000194   12....       LCALL     ?XSTACK_DISP0_8
   \   000197   E4           CLR       A
   \   000198   F0           MOVX      @DPTR,A
   \   000199   A3           INC       DPTR
   \   00019A   F0           MOVX      @DPTR,A
    532          
    533            if ( ( options & AF_ACK_REQUEST              ) &&
    534                 ( req.dstAddr.addrMode != AddrBroadcast ) &&
    535                 ( req.dstAddr.addrMode != AddrGroup     )    )
   \   00019B   E5..         MOV       A,?V2
   \   00019D   A2E4         MOV       C,0xE0 /* A   */.4
   \   00019F   501A         JNC       ??AF_DataRequest_12
   \   0001A1   740A         MOV       A,#0xa
   \   0001A3   12....       LCALL     ?XSTACK_DISP0_8
   \   0001A6   E0           MOVX      A,@DPTR
   \   0001A7   640F         XRL       A,#0xf
   \   0001A9   6010         JZ        ??AF_DataRequest_12
   \   0001AB   E0           MOVX      A,@DPTR
   \   0001AC   6401         XRL       A,#0x1
   \   0001AE   600B         JZ        ??AF_DataRequest_12
    536            {
    537              req.txOptions |=  APS_TX_OPTIONS_ACK;
   \   0001B0   7417         MOV       A,#0x17
   \   0001B2   12....       LCALL     ?XSTACK_DISP0_8
   \   0001B5   7404         MOV       A,#0x4
   \   0001B7   F0           MOVX      @DPTR,A
   \   0001B8   A3           INC       DPTR
   \   0001B9   E4           CLR       A
   \   0001BA   F0           MOVX      @DPTR,A
    538            }
    539          
    540            if ( options & AF_SKIP_ROUTING )
   \                     ??AF_DataRequest_12:
   \   0001BB   E5..         MOV       A,?V2
   \   0001BD   A2E7         MOV       C,0xE0 /* A   */.7
   \   0001BF   5009         JNC       ??AF_DataRequest_13
    541            {
    542              req.txOptions |=  APS_TX_OPTIONS_SKIP_ROUTING;
   \   0001C1   7417         MOV       A,#0x17
   \   0001C3   12....       LCALL     ?XSTACK_DISP0_8
   \   0001C6   E0           MOVX      A,@DPTR
   \   0001C7   4410         ORL       A,#0x10
   \   0001C9   F0           MOVX      @DPTR,A
    543            }
    544          
    545            if ( options & AF_EN_SECURITY )
   \                     ??AF_DataRequest_13:
   \   0001CA   E5..         MOV       A,?V2
   \   0001CC   A2E6         MOV       C,0xE0 /* A   */.6
   \   0001CE   5012         JNC       ??AF_DataRequest_14
    546            {
    547              req.txOptions |= APS_TX_OPTIONS_SECURITY_ENABLE;
   \   0001D0   7417         MOV       A,#0x17
   \   0001D2   12....       LCALL     ?XSTACK_DISP0_8
   \   0001D5   E0           MOVX      A,@DPTR
   \   0001D6   4401         ORL       A,#0x1
   \   0001D8   F0           MOVX      @DPTR,A
    548              mtu.aps.secure = TRUE;
   \   0001D9   7401         MOV       A,#0x1
   \   0001DB   12....       LCALL     ?XSTACK_DISP0_8
   \   0001DE   7401         MOV       A,#0x1
   \   0001E0   8006         SJMP      ??AF_DataRequest_15
    549            }
    550            else
    551            {
    552              mtu.aps.secure = FALSE;
   \                     ??AF_DataRequest_14:
   \   0001E2   7401         MOV       A,#0x1
   \   0001E4   12....       LCALL     ?XSTACK_DISP0_8
   \   0001E7   E4           CLR       A
   \                     ??AF_DataRequest_15:
   \   0001E8   F0           MOVX      @DPTR,A
    553            }
    554          
    555            if ( options & AF_PREPROCESS )
   \   0001E9   E5..         MOV       A,?V2
   \   0001EB   A2E2         MOV       C,0xE0 /* A   */.2
   \   0001ED   5009         JNC       ??AF_DataRequest_16
    556            {
    557              req.txOptions |=  APS_TX_OPTIONS_PREPROCESS;
   \   0001EF   7417         MOV       A,#0x17
   \   0001F1   12....       LCALL     ?XSTACK_DISP0_8
   \   0001F4   E0           MOVX      A,@DPTR
   \   0001F5   4440         ORL       A,#0x40
   \   0001F7   F0           MOVX      @DPTR,A
    558            }
    559          
    560            mtu.kvp = FALSE;
   \                     ??AF_DataRequest_16:
   \   0001F8   85..82       MOV       DPL,?XSP + 0
   \   0001FB   85..83       MOV       DPH,?XSP + 1
   \   0001FE   E4           CLR       A
   \   0001FF   F0           MOVX      @DPTR,A
   \   000200   7434         MOV       A,#0x34
   \   000202   12....       LCALL     ?XSTACK_DISP0_8
   \   000205   E0           MOVX      A,@DPTR
   \   000206   F5..         MOV       ?V4,A
   \   000208   A3           INC       DPTR
   \   000209   E0           MOVX      A,@DPTR
   \   00020A   F5..         MOV       ?V5,A
    561          
    562            req.transID       = *transID;
   \   00020C   85..82       MOV       DPL,?V4
   \   00020F   F583         MOV       DPH,A
   \   000211   E0           MOVX      A,@DPTR
   \   000212   C0E0         PUSH      A
   \   000214   7419         MOV       A,#0x19
   \   000216   12....       LCALL     ?XSTACK_DISP0_8
   \   000219   D0E0         POP       A
   \   00021B   12....       LCALL     ?Subroutine18 & 0xFFFF
    563            req.srcEP         = srcEP->endPoint;
   \                     ??CrossCallReturnLabel_23:
   \   00021E   E0           MOVX      A,@DPTR
   \   00021F   C0E0         PUSH      A
   \   000221   740B         MOV       A,#0xb
   \   000223   12....       LCALL     ?XSTACK_DISP0_8
   \   000226   D0E0         POP       A
   \   000228   F0           MOVX      @DPTR,A
    564            req.dstEP         = dstAddr->endPoint;
   \   000229   8E82         MOV       DPL,R6
   \   00022B   8F83         MOV       DPH,R7
   \   00022D   A3           INC       DPTR
   \   00022E   A3           INC       DPTR
   \   00022F   A3           INC       DPTR
   \   000230   A3           INC       DPTR
   \   000231   A3           INC       DPTR
   \   000232   A3           INC       DPTR
   \   000233   A3           INC       DPTR
   \   000234   A3           INC       DPTR
   \   000235   A3           INC       DPTR
   \   000236   E0           MOVX      A,@DPTR
   \   000237   C0E0         PUSH      A
   \   000239   740C         MOV       A,#0xc
   \   00023B   12....       LCALL     ?XSTACK_DISP0_8
   \   00023E   D0E0         POP       A
   \   000240   F0           MOVX      @DPTR,A
    565            req.clusterID     = cID;
   \   000241   742E         MOV       A,#0x2e
   \   000243   12....       LCALL     ?XSTACK_DISP0_8
   \   000246   12....       LCALL     ??Subroutine32_0 & 0xFFFF
   \                     ??CrossCallReturnLabel_63:
   \   000249   740F         MOV       A,#0xf
   \   00024B   12....       LCALL     ?XSTACK_DISP0_8
   \   00024E   12....       LCALL     ??Subroutine31_0 & 0xFFFF
   \                     ??CrossCallReturnLabel_55:
   \   000251   7430         MOV       A,#0x30
   \   000253   12....       LCALL     ?XSTACK_DISP0_8
   \   000256   E0           MOVX      A,@DPTR
   \   000257   FE           MOV       R6,A
   \   000258   A3           INC       DPTR
   \   000259   E0           MOVX      A,@DPTR
   \   00025A   FF           MOV       R7,A
    566            req.asduLen       = len;
   \   00025B   7413         MOV       A,#0x13
   \   00025D   12....       LCALL     ?XSTACK_DISP0_8
   \   000260   EE           MOV       A,R6
   \   000261   F0           MOVX      @DPTR,A
   \   000262   A3           INC       DPTR
   \   000263   EF           MOV       A,R7
   \   000264   F0           MOVX      @DPTR,A
    567            req.asdu          = buf;
   \   000265   7432         MOV       A,#0x32
   \   000267   12....       LCALL     ?XSTACK_DISP0_8
   \   00026A   12....       LCALL     ??Subroutine32_0 & 0xFFFF
   \                     ??CrossCallReturnLabel_64:
   \   00026D   7415         MOV       A,#0x15
   \   00026F   12....       LCALL     ?XSTACK_DISP0_8
   \   000272   12....       LCALL     ??Subroutine31_0 & 0xFFFF
    568            req.discoverRoute = AF_DataRequestDiscoverRoute;//(uint8)((options & AF_DISCV_ROUTE) ? 1 : 0);
   \                     ??CrossCallReturnLabel_56:
   \   000275   90....       MOV       DPTR,#AF_DataRequestDiscoverRoute
   \   000278   E0           MOVX      A,@DPTR
   \   000279   C0E0         PUSH      A
   \   00027B   741A         MOV       A,#0x1a
   \   00027D   12....       LCALL     ?XSTACK_DISP0_8
   \   000280   D0E0         POP       A
   \   000282   F0           MOVX      @DPTR,A
    569            req.radiusCounter = radius;
   \   000283   7436         MOV       A,#0x36
   \   000285   12....       LCALL     ?XSTACK_DISP0_8
   \   000288   E0           MOVX      A,@DPTR
   \   000289   C0E0         PUSH      A
   \   00028B   741B         MOV       A,#0x1b
   \   00028D   12....       LCALL     ?XSTACK_DISP0_8
   \   000290   D0E0         POP       A
   \   000292   F0           MOVX      @DPTR,A
    570          #if defined ( INTER_PAN )
    571            req.dstPanId      = dstAddr->panId;
    572          
    573            if ( StubAPS_InterPan( dstAddr->panId, dstAddr->endPoint ) )
    574            {
    575              if ( len > INTERP_DataReqMTU() )
    576              {
    577                stat = afStatus_INVALID_PARAMETER;
    578              }
    579              else
    580              {
    581                stat = INTERP_DataReq( &req );
    582              }
    583            }
    584            else
    585          #endif // INTER_PAN
    586            {
    587              if (len > afDataReqMTU( &mtu ) )
   \   000293                ; Setup parameters for call to function afDataReqMTU
   \   000293   AA..         MOV       R2,?XSP + 0
   \   000295   AB..         MOV       R3,?XSP + 1
   \   000297   12....       LCALL     `??afDataReqMTU::?relay`; Banked call to: afDataReqMTU
   \   00029A   E9           MOV       A,R1
   \   00029B   C3           CLR       C
   \   00029C   9E           SUBB      A,R6
   \   00029D   E4           CLR       A
   \   00029E   9F           SUBB      A,R7
   \   00029F   5019         JNC       ??AF_DataRequest_17
    588              {
    589                if (apsfSendFragmented)
   \   0002A1   90....       MOV       DPTR,#apsfSendFragmented
   \   0002A4   12....       LCALL     ??Subroutine29_0 & 0xFFFF
   \                     ??CrossCallReturnLabel_42:
   \   0002A7   600D         JZ        ??AF_DataRequest_18
    590                {
    591                  stat = (*apsfSendFragmented)( &req );
   \   0002A9                ; Setup parameters for indirect call
   \   0002A9   7402         MOV       A,#0x2
   \   0002AB   12....       LCALL     ?XSTACK_DISP101_8
   \   0002AE   12....       LCALL     ??Subroutine35_0 & 0xFFFF
    592                }
   \                     ??CrossCallReturnLabel_67:
   \   0002B1   12....       LCALL     ?CALL_IND
   \   0002B4   800C         SJMP      ??AF_DataRequest_19
    593                else
    594                {
    595                  stat = afStatus_INVALID_PARAMETER;
   \                     ??AF_DataRequest_18:
   \   0002B6   7E02         MOV       R6,#0x2
   \   0002B8   800A         SJMP      ??AF_DataRequest_20
    596                }
    597              }
    598              else
    599              {
    600                stat = APSDE_DataReq( &req );
   \                     ??AF_DataRequest_17:
   \   0002BA                ; Setup parameters for call to function APSDE_DataReq
   \   0002BA   7402         MOV       A,#0x2
   \   0002BC   12....       LCALL     ?XSTACK_DISP101_8
   \   0002BF   12....       LCALL     `??APSDE_DataReq::?relay`; Banked call to: APSDE_DataReq
   \                     ??AF_DataRequest_19:
   \   0002C2   E9           MOV       A,R1
   \   0002C3   FE           MOV       R6,A
    601              }
    602            }
    603          
    604            /*
    605             * If this is an EndPoint-to-EndPoint message on the same device, it will not
    606             * get added to the NWK databufs. So it will not go OTA and it will not get
    607             * a MACCB_DATA_CONFIRM_CMD callback. Thus it is necessary to generate the
    608             * AF_DATA_CONFIRM_CMD here. Note that APSDE_DataConfirm() only generates one
    609             * message with the first in line TransSeqNumber, even on a multi message.
    610             * Also note that a reflected msg will not have its confirmation generated
    611             * here.
    612             */
    613            if ( (req.dstAddr.addrMode == Addr16Bit) &&
    614                 (req.dstAddr.addr.shortAddr == NLME_GetShortAddr()) )
   \                     ??AF_DataRequest_20:
   \   0002C4   740A         MOV       A,#0xa
   \   0002C6   12....       LCALL     ?XSTACK_DISP0_8
   \   0002C9   E0           MOVX      A,@DPTR
   \   0002CA   6402         XRL       A,#0x2
   \   0002CC   702E         JNZ       ??AF_DataRequest_21
   \   0002CE                ; Setup parameters for call to function NLME_GetShortAddr
   \   0002CE   12....       LCALL     `??NLME_GetShortAddr::?relay`; Banked call to: NLME_GetShortAddr
   \   0002D1   8A..         MOV       ?V6,R2
   \   0002D3   8B..         MOV       ?V7,R3
   \   0002D5   A8..         MOV       R0,?V6
   \   0002D7   A9..         MOV       R1,?V7
   \   0002D9   7402         MOV       A,#0x2
   \   0002DB   12....       LCALL     ?XSTACK_DISP0_8
   \   0002DE   E0           MOVX      A,@DPTR
   \   0002DF   68           XRL       A,R0
   \   0002E0   7003         JNZ       ??AF_DataRequest_22
   \   0002E2   A3           INC       DPTR
   \   0002E3   E0           MOVX      A,@DPTR
   \   0002E4   69           XRL       A,R1
   \                     ??AF_DataRequest_22:
   \   0002E5   7015         JNZ       ??AF_DataRequest_21
    615            {
    616              afDataConfirm( srcEP->endPoint, *transID, stat );
   \   0002E7                ; Setup parameters for call to function afDataConfirm
   \   0002E7   EE           MOV       A,R6
   \   0002E8   FB           MOV       R3,A
   \   0002E9   85..82       MOV       DPL,?V4
   \   0002EC   85..83       MOV       DPH,?V5
   \   0002EF   E0           MOVX      A,@DPTR
   \   0002F0   FA           MOV       R2,A
   \   0002F1   85..82       MOV       DPL,?V0
   \   0002F4   85..83       MOV       DPH,?V1
   \   0002F7   E0           MOVX      A,@DPTR
   \   0002F8   F9           MOV       R1,A
   \   0002F9   12....       LCALL     `??afDataConfirm::?relay`; Banked call to: afDataConfirm
    617            }
    618          
    619            if ( stat == afStatus_SUCCESS )
   \                     ??AF_DataRequest_21:
   \   0002FC   EE           MOV       A,R6
   \   0002FD   7009         JNZ       ??AF_DataRequest_23
    620            {
    621              (*transID)++;
   \   0002FF   85..82       MOV       DPL,?V4
   \   000302   85..83       MOV       DPH,?V5
   \   000305   E0           MOVX      A,@DPTR
   \   000306   04           INC       A
   \   000307   F0           MOVX      @DPTR,A
    622            }
    623          
    624            return (afStatus_t)stat;
   \                     ??AF_DataRequest_23:
   \   000308   EE           MOV       A,R6
   \   000309   F9           MOV       R1,A
   \                     ??AF_DataRequest_3:
   \   00030A   741E         MOV       A,#0x1e
   \   00030C   12....       LCALL     ?DEALLOC_XSTACK8
   \   00030F   7F08         MOV       R7,#0x8
   \   000311   02....       LJMP      ?BANKED_LEAVE_XDATA
    625          }

   \                                 In  segment BANKED_CODE, align 1, keep-with-next
   \                     ??Subroutine37_0:
   \   000000   E0           MOVX      A,@DPTR
   \   000001   FA           MOV       R2,A
   \   000002   A3           INC       DPTR
   \   000003   E0           MOVX      A,@DPTR
   \   000004   FB           MOV       R3,A
   \   000005   22           RET

   \                                 In  segment BANKED_CODE, align 1, keep-with-next
   \                     ?Subroutine21:
   \   000000   F0           MOVX      @DPTR,A
   \   000001   8882         MOV       DPL,R0
   \   000003   8983         MOV       DPH,R1
   \   000005   E0           MOVX      A,@DPTR
   \   000006   6403         XRL       A,#0x3
   \   000008   22           RET
    626          
    627          #if defined ( ZIGBEE_SOURCE_ROUTING )
    628          /*********************************************************************
    629           * @fn      AF_DataRequestSrcRtg
    630           *
    631           * @brief   Common functionality for invoking APSDE_DataReq() for both
    632           *          SendMulti and MSG-Send.
    633           *
    634           * input parameters
    635           *
    636           * @param  *dstAddr - Full ZB destination address: Nwk Addr + End Point.
    637           * @param  *srcEP - Origination (i.e. respond to or ack to) End Point Descr.
    638           * @param   cID - A valid cluster ID as specified by the Profile.
    639           * @param   len - Number of bytes of data pointed to by next param.
    640           * @param  *buf - A pointer to the data bytes to send.
    641           * @param  *transID - A pointer to a byte which can be modified and which will
    642           *                    be used as the transaction sequence number of the msg.
    643           * @param   options - Valid bit mask of Tx options.
    644           * @param   radius - Normally set to AF_DEFAULT_RADIUS.
    645           * @param   relayCnt - Number of devices in the relay list
    646           * @param   pRelayList - Pointer to the relay list
    647           *
    648           * output parameters
    649           *
    650           * @param  *transID - Incremented by one if the return value is success.
    651           *
    652           * @return  afStatus_t - See previous definition of afStatus_... types.
    653           */
    654          

   \                                 In  segment BANKED_CODE, align 1, keep-with-next
    655          afStatus_t AF_DataRequestSrcRtg( afAddrType_t *dstAddr, endPointDesc_t *srcEP,
   \                     AF_DataRequestSrcRtg:
    656                                     uint16 cID, uint16 len, uint8 *buf, uint8 *transID,
    657                                     uint8 options, uint8 radius, uint8 relayCnt, uint16* pRelayList )
    658          {
   \   000000                REQUIRE ?V0
   \   000000                REQUIRE ?V1
   \   000000                REQUIRE ?V2
   \   000000                REQUIRE ?V3
   \   000000   74F4         MOV       A,#-0xc
   \   000002   12....       LCALL     ?BANKED_ENTER_XDATA
   \   000005                ; Saved register size: 12
   \   000005                ; Auto size: 0
   \   000005   EA           MOV       A,R2
   \   000006   FE           MOV       R6,A
   \   000007   EB           MOV       A,R3
   \   000008   FF           MOV       R7,A
   \   000009   8C..         MOV       ?V0,R4
   \   00000B   8D..         MOV       ?V1,R5
   \   00000D   89..         MOV       ?V2,R1
    659            uint8 status;
    660          
    661            /* Add the source route to the source routing table */
    662            status = RTG_AddSrcRtgEntry_Guaranteed( dstAddr->addr.shortAddr, relayCnt,
    663                                                   pRelayList );
   \   00000F                ; Setup parameters for call to function RTG_AddSrcRtgEntry_Guaranteed
   \   00000F   7416         MOV       A,#0x16
   \   000011   12....       LCALL     ?XSTACK_DISP0_8
   \   000014   12....       LCALL     ?Subroutine13 & 0xFFFF
   \                     ??CrossCallReturnLabel_12:
   \   000017   7415         MOV       A,#0x15
   \   000019   12....       LCALL     ?XSTACK_DISP0_8
   \   00001C   12....       LCALL     ??Subroutine30_0 & 0xFFFF
   \                     ??CrossCallReturnLabel_47:
   \   00001F   12....       LCALL     ??Subroutine37_0 & 0xFFFF
   \                     ??CrossCallReturnLabel_77:
   \   000022   12....       LCALL     `??RTG_AddSrcRtgEntry_Guaranteed::?relay`; Banked call to: RTG_AddSrcRtgEntry_Guaranteed
   \   000025   E9           MOV       A,R1
   \   000026   F9           MOV       R1,A
    664          
    665            if( status == RTG_SUCCESS)
   \   000027   7043         JNZ       ??AF_DataRequestSrcRtg_0
    666            {
    667              /* Call AF_DataRequest to send the data */
    668              status = AF_DataRequest( dstAddr, srcEP, cID, len, buf, transID, options, radius );
   \   000029                ; Setup parameters for call to function AF_DataRequest
   \   000029   7414         MOV       A,#0x14
   \   00002B   12....       LCALL     ?XSTACK_DISP0_8
   \   00002E   E0           MOVX      A,@DPTR
   \   00002F   F5..         MOV       ?V3,A
   \   000031   78..         MOV       R0,#?V3
   \   000033   12....       LCALL     ?PUSH_XSTACK_I_ONE
   \   000036   7413         MOV       A,#0x13
   \   000038   12....       LCALL     ?XSTACK_DISP0_8
   \   00003B   12....       LCALL     ?PUSH_XSTACK8_X_TWO
   \   00003E   7413         MOV       A,#0x13
   \   000040   12....       LCALL     ?XSTACK_DISP0_8
   \   000043   12....       LCALL     ?PUSH_XSTACK8_X_TWO
   \   000046   7413         MOV       A,#0x13
   \   000048   12....       LCALL     ?XSTACK_DISP0_8
   \   00004B   12....       LCALL     ?PUSH_XSTACK8_X_TWO
   \   00004E   7413         MOV       A,#0x13
   \   000050   12....       LCALL     ?XSTACK_DISP0_8
   \   000053   12....       LCALL     ?PUSH_XSTACK8_X_TWO
   \   000056   A9..         MOV       R1,?V2
   \   000058   AC..         MOV       R4,?V0
   \   00005A   AD..         MOV       R5,?V1
   \   00005C   EE           MOV       A,R6
   \   00005D   FA           MOV       R2,A
   \   00005E   EF           MOV       A,R7
   \   00005F   FB           MOV       R3,A
   \   000060   12....       LCALL     `??AF_DataRequest::?relay`; Banked call to: AF_DataRequest
   \   000063   7409         MOV       A,#0x9
   \   000065   12....       LCALL     ?DEALLOC_XSTACK8
   \   000068   E9           MOV       A,R1
   \   000069   F9           MOV       R1,A
   \   00006A   800B         SJMP      ??AF_DataRequestSrcRtg_1
    669            }
    670            else if( status == RTG_INVALID_PATH )
   \                     ??AF_DataRequestSrcRtg_0:
   \   00006C   7405         MOV       A,#0x5
   \   00006E   69           XRL       A,R1
   \   00006F   7004         JNZ       ??AF_DataRequestSrcRtg_2
    671            {
    672              /* The source route relay count is exceeding the network limit */
    673              status = afStatus_INVALID_PARAMETER;
   \   000071   7902         MOV       R1,#0x2
   \   000073   8002         SJMP      ??AF_DataRequestSrcRtg_1
    674            }
    675            else
    676            {
    677              /* The guaranteed adding entry fails due to memory failure */
    678              status = afStatus_MEM_FAIL;
   \                     ??AF_DataRequestSrcRtg_2:
   \   000075   7910         MOV       R1,#0x10
    679            }
    680            return status;
   \                     ??AF_DataRequestSrcRtg_1:
   \   000077   02....       LJMP      ?Subroutine0 & 0xFFFF
    681          }
    682          
    683          #endif
    684          
    685          /*********************************************************************
    686           * @fn      afFindEndPointDescList
    687           *
    688           * @brief   Find the endpoint description entry from the endpoint
    689           *          number.
    690           *
    691           * @param   EndPoint - Application Endpoint to look for
    692           *
    693           * @return  the address to the endpoint/interface description entry
    694           */

   \                                 In  segment BANKED_CODE, align 1, keep-with-next
    695          static epList_t *afFindEndPointDescList( uint8 EndPoint )
   \                     afFindEndPointDescList:
    696          {
   \   000000   C082         PUSH      DPL
   \   000002   C083         PUSH      DPH
   \   000004                ; Saved register size: 2
   \   000004                ; Auto size: 0
    697            epList_t *epSearch;
    698          
    699            for (epSearch = epList; epSearch != NULL; epSearch = epSearch->nextDesc)
   \   000004   90....       MOV       DPTR,#epList
   \   000007   8004         SJMP      ??afFindEndPointDescList_0
   \                     ??afFindEndPointDescList_1:
   \   000009   8A82         MOV       DPL,R2
   \   00000B   8B83         MOV       DPH,R3
   \                     ??afFindEndPointDescList_0:
   \   00000D   12....       LCALL     ??Subroutine37_0 & 0xFFFF
   \                     ??CrossCallReturnLabel_78:
   \   000010   EA           MOV       A,R2
   \   000011   4B           ORL       A,R3
   \   000012   600B         JZ        ??afFindEndPointDescList_2
    700            {
    701              if (epSearch->epDesc->endPoint == EndPoint)
   \   000014   8A82         MOV       DPL,R2
   \   000016   8B83         MOV       DPH,R3
   \   000018   12....       LCALL     ??Subroutine33_0 & 0xFFFF
    702              {
    703                break;
    704              }
    705            }
   \                     ??CrossCallReturnLabel_71:
   \   00001B   E0           MOVX      A,@DPTR
   \   00001C   69           XRL       A,R1
   \   00001D   70EA         JNZ       ??afFindEndPointDescList_1
    706          
    707            return epSearch;
   \                     ??afFindEndPointDescList_2:
   \   00001F                REQUIRE ?Subroutine2
   \   00001F                ; // Fall through to label ?Subroutine2
    708          }

   \                                 In  segment BANKED_CODE, align 1, keep-with-next
   \                     ?Subroutine2:
   \   000000   D083         POP       DPH
   \   000002   D082         POP       DPL
   \   000004   02....       LJMP      ?BRET

   \                                 In  segment BANKED_CODE, align 1, keep-with-next
   \                     ??Subroutine33_0:
   \   000000   A3           INC       DPTR
   \   000001   A3           INC       DPTR
   \   000002   E0           MOVX      A,@DPTR
   \   000003   F8           MOV       R0,A
   \   000004                REQUIRE ??Subroutine34_0
   \   000004                ; // Fall through to label ??Subroutine34_0
    709          
    710          /*********************************************************************
    711           * @fn      afFindEndPointDesc
    712           *
    713           * @brief   Find the endpoint description entry from the endpoint
    714           *          number.
    715           *
    716           * @param   EndPoint - Application Endpoint to look for
    717           *
    718           * @return  the address to the endpoint/interface description entry
    719           */

   \                                 In  segment BANKED_CODE, align 1, keep-with-next
   \                     ??Subroutine36_0:
   \   000000   A3           INC       DPTR
   \   000001   A3           INC       DPTR
   \   000002                REQUIRE ??Subroutine37_0
   \   000002                ; // Fall through to label ??Subroutine37_0

   \                                 In  segment BANKED_CODE, align 1, keep-with-next
    720          endPointDesc_t *afFindEndPointDesc( uint8 EndPoint )
   \                     afFindEndPointDesc:
    721          {
   \   000000                REQUIRE ?V0
   \   000000                REQUIRE ?V1
   \   000000   74F6         MOV       A,#-0xa
   \   000002   12....       LCALL     ?BANKED_ENTER_XDATA
   \   000005                ; Saved register size: 10
   \   000005                ; Auto size: 0
    722            epList_t *epSearch;
    723          
    724            // Look for the endpoint
    725            epSearch = afFindEndPointDescList( EndPoint );
   \   000005                ; Setup parameters for call to function afFindEndPointDescList
   \   000005   12....       LCALL     ?Subroutine15 & 0xFFFF
    726          
    727            if ( epSearch )
   \                     ??CrossCallReturnLabel_16:
   \   000008   6005         JZ        ??afFindEndPointDesc_0
    728              return ( epSearch->epDesc );
   \   00000A   12....       LCALL     ??Subroutine36_0 & 0xFFFF
   \                     ??CrossCallReturnLabel_80:
   \   00000D   8004         SJMP      ??afFindEndPointDesc_1
    729            else
    730              return ( (endPointDesc_t *)NULL );
   \                     ??afFindEndPointDesc_0:
   \   00000F   7A00         MOV       R2,#0x0
   \   000011   7B00         MOV       R3,#0x0
   \                     ??afFindEndPointDesc_1:
   \   000013   02....       LJMP      ?Subroutine1 & 0xFFFF
    731          }

   \                                 In  segment BANKED_CODE, align 1, keep-with-next
   \                     ?Subroutine15:
   \   000000   12....       LCALL     `??afFindEndPointDescList::?relay`; Banked call to: afFindEndPointDescList
   \   000003   8A82         MOV       DPL,R2
   \   000005   8B83         MOV       DPH,R3
   \   000007   E582         MOV       A,DPL
   \   000009   4583         ORL       A,DPH
   \   00000B   22           RET
    732          
    733          /*********************************************************************
    734           * @fn      afFindSimpleDesc
    735           *
    736           * @brief   Find the Simple Descriptor from the endpoint number.
    737           *
    738           * @param   EP - Application Endpoint to look for.
    739           *
    740           * @return  Non-zero to indicate that the descriptor memory must be freed.
    741           */

   \                                 In  segment BANKED_CODE, align 1, keep-with-next
   \                     ?Subroutine9:
   \   000000   8C82         MOV       DPL,R4
   \   000002   8D83         MOV       DPH,R5
   \   000004                REQUIRE ??Subroutine33_0
   \   000004                ; // Fall through to label ??Subroutine33_0

   \                                 In  segment BANKED_CODE, align 1, keep-with-next
   \                     ?Subroutine8:
   \   000000   A3           INC       DPTR
   \   000001                REQUIRE ??Subroutine36_0
   \   000001                ; // Fall through to label ??Subroutine36_0

   \                                 In  segment BANKED_CODE, align 1, keep-with-next
    742          uint8 afFindSimpleDesc( SimpleDescriptionFormat_t **ppDesc, uint8 EP )
   \                     afFindSimpleDesc:
    743          {
   \   000000                REQUIRE ?V0
   \   000000                REQUIRE ?V2
   \   000000                REQUIRE ?V3
   \   000000   74F4         MOV       A,#-0xc
   \   000002   12....       LCALL     ?BANKED_ENTER_XDATA
   \   000005                ; Saved register size: 12
   \   000005                ; Auto size: 0
   \   000005   EA           MOV       A,R2
   \   000006   FE           MOV       R6,A
   \   000007   EB           MOV       A,R3
   \   000008   FF           MOV       R7,A
   \   000009   89..         MOV       ?V0,R1
    744            epList_t *epItem = afFindEndPointDescList( EP );
   \   00000B                ; Setup parameters for call to function afFindEndPointDescList
   \   00000B   12....       LCALL     `??afFindEndPointDescList::?relay`; Banked call to: afFindEndPointDescList
   \   00000E   8A..         MOV       ?V2,R2
   \   000010   8B..         MOV       ?V3,R3
   \   000012   AC..         MOV       R4,?V2
   \   000014   AD..         MOV       R5,?V3
    745            uint8 rtrn = FALSE;
   \   000016   7900         MOV       R1,#0x0
    746          
    747            if ( epItem )
   \   000018   EA           MOV       A,R2
   \   000019   4D           ORL       A,R5
   \   00001A   6038         JZ        ??afFindSimpleDesc_0
    748            {
    749              if ( epItem->pfnDescCB )
   \   00001C   8A82         MOV       DPL,R2
   \   00001E   8B83         MOV       DPH,R3
   \   000020   A3           INC       DPTR
   \   000021   12....       LCALL     ?Subroutine8 & 0xFFFF
   \                     ??CrossCallReturnLabel_81:
   \   000024   EA           MOV       A,R2
   \   000025   4B           ORL       A,R3
   \   000026   601C         JZ        ??afFindSimpleDesc_1
    750              {
    751                *ppDesc = epItem->pfnDescCB( AF_DESCRIPTOR_SIMPLE, EP );
   \   000028                ; Setup parameters for indirect call
   \   000028   AA..         MOV       R2,?V0
   \   00002A   09           INC       R1
   \   00002B   8C82         MOV       DPL,R4
   \   00002D   8D83         MOV       DPH,R5
   \   00002F   A3           INC       DPTR
   \   000030   A3           INC       DPTR
   \   000031   12....       LCALL     ??Subroutine33_0 & 0xFFFF
   \                     ??CrossCallReturnLabel_72:
   \   000034   12....       LCALL     ?CALL_IND
   \   000037   8E82         MOV       DPL,R6
   \   000039   8F83         MOV       DPH,R7
   \   00003B   EA           MOV       A,R2
   \   00003C   F0           MOVX      @DPTR,A
   \   00003D   A3           INC       DPTR
   \   00003E   EB           MOV       A,R3
   \   00003F   F0           MOVX      @DPTR,A
    752                rtrn = TRUE;
   \   000040   7901         MOV       R1,#0x1
   \   000042   8018         SJMP      ??afFindSimpleDesc_2
    753              }
    754              else
    755              {
    756                *ppDesc = epItem->epDesc->simpleDesc;
   \                     ??afFindSimpleDesc_1:
   \   000044   12....       LCALL     ?Subroutine9 & 0xFFFF
    757              }
    758            }
   \                     ??CrossCallReturnLabel_73:
   \   000047   12....       LCALL     ?Subroutine8 & 0xFFFF
   \                     ??CrossCallReturnLabel_82:
   \   00004A   8E82         MOV       DPL,R6
   \   00004C   8F83         MOV       DPH,R7
   \   00004E   EA           MOV       A,R2
   \   00004F   F0           MOVX      @DPTR,A
   \   000050   A3           INC       DPTR
   \   000051   EB           MOV       A,R3
   \   000052   8007         SJMP      ??afFindSimpleDesc_3
    759            else
    760            {
    761              *ppDesc = NULL;
   \                     ??afFindSimpleDesc_0:
   \   000054   8E82         MOV       DPL,R6
   \   000056   8F83         MOV       DPH,R7
   \   000058   E4           CLR       A
   \   000059   F0           MOVX      @DPTR,A
   \   00005A   A3           INC       DPTR
   \                     ??afFindSimpleDesc_3:
   \   00005B   F0           MOVX      @DPTR,A
    762            }
    763          
    764            return rtrn;
   \                     ??afFindSimpleDesc_2:
   \   00005C                REQUIRE ?Subroutine0
   \   00005C                ; // Fall through to label ?Subroutine0
    765          }
    766          
    767          /*********************************************************************
    768           * @fn      afGetDescCB
    769           *
    770           * @brief   Get the Descriptor callback function.
    771           *
    772           * @param   epDesc - pointer to the endpoint descriptor
    773           *
    774           * @return  function pointer or NULL
    775           */
    776          static pDescCB afGetDescCB( endPointDesc_t *epDesc )
    777          {
    778            epList_t *epSearch;
    779          
    780            // Start at the beginning
    781            epSearch = epList;
    782          
    783            // Look through the list until the end
    784            while ( epSearch )
    785            {
    786              // Is there a match?
    787              if ( epSearch->epDesc == epDesc )
    788              {
    789                return ( epSearch->pfnDescCB );
    790              }
    791              else
    792                epSearch = epSearch->nextDesc;  // Next entry
    793            }
    794          
    795            return ( (pDescCB)NULL );
    796          }
    797          
    798          /*********************************************************************
    799           * @fn      afDataReqMTU
    800           *
    801           * @brief   Get the Data Request MTU(Max Transport Unit).
    802           *
    803           * @param   fields - afDataReqMTU_t
    804           *
    805           * @return  uint8(MTU)
    806           */

   \                                 In  segment BANKED_CODE, align 1, keep-with-next
    807          uint8 afDataReqMTU( afDataReqMTU_t* fields )
   \                     afDataReqMTU:
    808          {
   \   000000   74F7         MOV       A,#-0x9
   \   000002   12....       LCALL     ?BANKED_ENTER_XDATA
   \   000005                ; Saved register size: 9
   \   000005                ; Auto size: 0
    809            uint8 len;
    810            uint8 hdr;
    811          
    812            if ( fields->kvp == TRUE )
   \   000005   8A82         MOV       DPL,R2
   \   000007   8B83         MOV       DPH,R3
   \   000009   E0           MOVX      A,@DPTR
   \   00000A   6401         XRL       A,#0x1
   \   00000C   7004         JNZ       ??afDataReqMTU_0
    813            {
    814              hdr = AF_HDR_KVP_MAX_LEN;
   \   00000E   7E08         MOV       R6,#0x8
   \   000010   8002         SJMP      ??afDataReqMTU_1
    815            }
    816            else
    817            {
    818              hdr = AF_HDR_V1_1_MAX_LEN;
   \                     ??afDataReqMTU_0:
   \   000012   7E00         MOV       R6,#0x0
    819            }
    820          
    821            len = (uint8)(APSDE_DataReqMTU(&fields->aps) - hdr);
    822          
    823            return len;
   \                     ??afDataReqMTU_1:
   \   000014                ; Setup parameters for call to function APSDE_DataReqMTU
   \   000014   A3           INC       DPTR
   \   000015   AA82         MOV       R2,DPL
   \   000017   AB83         MOV       R3,DPH
   \   000019   12....       LCALL     `??APSDE_DataReqMTU::?relay`; Banked call to: APSDE_DataReqMTU
   \   00001C   E9           MOV       A,R1
   \   00001D   C3           CLR       C
   \   00001E   9E           SUBB      A,R6
   \   00001F   F9           MOV       R1,A
   \   000020                REQUIRE ?Subroutine3
   \   000020                ; // Fall through to label ?Subroutine3
    824          }

   \                                 In  segment BANKED_CODE, align 1, keep-with-next
   \                     ?Subroutine3:
   \   000000   7F01         MOV       R7,#0x1
   \   000002   02....       LJMP      ?BANKED_LEAVE_XDATA
    825          
    826          /*********************************************************************
    827           * @fn      afGetMatch
    828           *
    829           * @brief   Set the allow response flag.
    830           *
    831           * @param   ep - Application Endpoint to look for
    832           * @param   action - true - allow response, false - no response
    833           *
    834           * @return  TRUE allow responses, FALSE no response
    835           */

   \                                 In  segment BANKED_CODE, align 1, keep-with-next
    836          uint8 afGetMatch( uint8 ep )
   \                     afGetMatch:
    837          {
   \   000000                REQUIRE ?V0
   \   000000                REQUIRE ?V1
   \   000000   74F6         MOV       A,#-0xa
   \   000002   12....       LCALL     ?BANKED_ENTER_XDATA
   \   000005                ; Saved register size: 10
   \   000005                ; Auto size: 0
    838            epList_t *epSearch;
    839          
    840            // Look for the endpoint
    841            epSearch = afFindEndPointDescList( ep );
   \   000005                ; Setup parameters for call to function afFindEndPointDescList
   \   000005   12....       LCALL     ?Subroutine15 & 0xFFFF
    842          
    843            if ( epSearch )
   \                     ??CrossCallReturnLabel_17:
   \   000008   6011         JZ        ??afGetMatch_0
    844            {
    845              if ( epSearch->flags & eEP_AllowMatch )
   \   00000A   A3           INC       DPTR
   \   00000B   A3           INC       DPTR
   \   00000C   A3           INC       DPTR
   \   00000D   A3           INC       DPTR
   \   00000E   A3           INC       DPTR
   \   00000F   A3           INC       DPTR
   \   000010   A3           INC       DPTR
   \   000011   A3           INC       DPTR
   \   000012   E0           MOVX      A,@DPTR
   \   000013   A2E0         MOV       C,0xE0 /* A   */.0
   \   000015   5004         JNC       ??afGetMatch_0
    846                return ( TRUE );
   \   000017   7901         MOV       R1,#0x1
   \   000019   8002         SJMP      ??afGetMatch_1
    847              else
    848                return ( FALSE );
    849            }
    850            else
    851              return ( FALSE );
   \                     ??afGetMatch_0:
   \   00001B   7900         MOV       R1,#0x0
   \                     ??afGetMatch_1:
   \   00001D                REQUIRE ?Subroutine1
   \   00001D                ; // Fall through to label ?Subroutine1
    852          }
    853          
    854          /*********************************************************************
    855           * @fn      afSetMatch
    856           *
    857           * @brief   Set the allow response flag.
    858           *
    859           * @param   ep - Application Endpoint to look for
    860           * @param   action - true - allow response, false - no response
    861           *
    862           * @return  TRUE if success, FALSE if endpoint not found
    863           */

   \                                 In  segment BANKED_CODE, align 1, keep-with-next
    864          uint8 afSetMatch( uint8 ep, uint8 action )
   \                     afSetMatch:
    865          {
   \   000000                REQUIRE ?V0
   \   000000                REQUIRE ?V1
   \   000000   74F6         MOV       A,#-0xa
   \   000002   12....       LCALL     ?BANKED_ENTER_XDATA
   \   000005                ; Saved register size: 10
   \   000005                ; Auto size: 0
   \   000005   EA           MOV       A,R2
   \   000006   FF           MOV       R7,A
    866            epList_t *epSearch;
    867          
    868            // Look for the endpoint
    869            epSearch = afFindEndPointDescList( ep );
   \   000007                ; Setup parameters for call to function afFindEndPointDescList
   \   000007   12....       LCALL     ?Subroutine15 & 0xFFFF
    870          
    871            if ( epSearch )
   \                     ??CrossCallReturnLabel_18:
   \   00000A   6018         JZ        ??afSetMatch_0
    872            {
    873              if ( action )
   \   00000C   EF           MOV       A,R7
   \   00000D   A3           INC       DPTR
   \   00000E   A3           INC       DPTR
   \   00000F   A3           INC       DPTR
   \   000010   A3           INC       DPTR
   \   000011   A3           INC       DPTR
   \   000012   A3           INC       DPTR
   \   000013   A3           INC       DPTR
   \   000014   A3           INC       DPTR
   \   000015   6005         JZ        ??afSetMatch_1
    874              {
    875                epSearch->flags |= eEP_AllowMatch;
   \   000017   E0           MOVX      A,@DPTR
   \   000018   D2E0         SETB      0xE0 /* A   */.0
   \   00001A   8003         SJMP      ??afSetMatch_2
    876              }
    877              else
    878              {
    879                epSearch->flags &= (eEP_AllowMatch ^ 0xFFFF);
   \                     ??afSetMatch_1:
   \   00001C   E0           MOVX      A,@DPTR
   \   00001D   C2E0         CLR       0xE0 /* A   */.0
   \                     ??afSetMatch_2:
   \   00001F   F0           MOVX      @DPTR,A
    880              }
    881              return ( TRUE );
   \   000020   7901         MOV       R1,#0x1
   \   000022   8002         SJMP      ??afSetMatch_3
    882            }
    883            else
    884              return ( FALSE );
   \                     ??afSetMatch_0:
   \   000024   7900         MOV       R1,#0x0
   \                     ??afSetMatch_3:
   \   000026   80..         SJMP      ?Subroutine1
    885          }
    886          
    887          /*********************************************************************
    888           * @fn      afNumEndPoints
    889           *
    890           * @brief   Returns the number of endpoints defined (including 0)
    891           *
    892           * @param   none
    893           *
    894           * @return  number of endpoints
    895           */

   \                                 In  segment BANKED_CODE, align 1, keep-with-next
    896          uint8 afNumEndPoints( void )
   \                     afNumEndPoints:
    897          {
   \   000000   C082         PUSH      DPL
   \   000002   C083         PUSH      DPH
   \   000004                ; Saved register size: 2
   \   000004                ; Auto size: 0
    898            epList_t *epSearch;
    899            uint8 endpoints;
    900          
    901            // Start at the beginning
    902            epSearch = epList;
   \   000004   90....       MOV       DPTR,#epList
   \   000007   E0           MOVX      A,@DPTR
   \   000008   F8           MOV       R0,A
   \   000009   A3           INC       DPTR
   \   00000A   E0           MOVX      A,@DPTR
   \   00000B   8882         MOV       DPL,R0
   \   00000D   F583         MOV       DPH,A
    903            endpoints = 0;
   \   00000F   7900         MOV       R1,#0x0
   \   000011   8009         SJMP      ??afNumEndPoints_0
    904          
    905            while ( epSearch )
    906            {
    907              endpoints++;
   \                     ??afNumEndPoints_1:
   \   000013   09           INC       R1
    908              epSearch = epSearch->nextDesc;
   \   000014   E0           MOVX      A,@DPTR
   \   000015   FA           MOV       R2,A
   \   000016   A3           INC       DPTR
   \   000017   E0           MOVX      A,@DPTR
   \   000018   8A82         MOV       DPL,R2
   \   00001A   F583         MOV       DPH,A
    909            }
   \                     ??afNumEndPoints_0:
   \   00001C   E582         MOV       A,DPL
   \   00001E   4583         ORL       A,DPH
   \   000020   70F1         JNZ       ??afNumEndPoints_1
    910          
    911            return ( endpoints );
   \   000022   02....       LJMP      ?Subroutine2 & 0xFFFF
    912          }
    913          
    914          /*********************************************************************
    915           * @fn      afEndPoints
    916           *
    917           * @brief   Fills in the passed in buffer with the endpoint (numbers).
    918           *          Use afNumEndPoints to find out how big a buffer to supply.
    919           *
    920           * @param   epBuf - pointer to mem used
    921           *
    922           * @return  void
    923           */

   \                                 In  segment BANKED_CODE, align 1, keep-with-next
    924          void afEndPoints( uint8 *epBuf, uint8 skipZDO )
   \                     afEndPoints:
    925          {
   \   000000   C082         PUSH      DPL
   \   000002   C083         PUSH      DPH
   \   000004                ; Saved register size: 2
   \   000004                ; Auto size: 0
    926            epList_t *epSearch;
    927            uint8 endPoint;
    928          
    929            // Start at the beginning
    930            epSearch = epList;
   \   000004   90....       MOV       DPTR,#epList
   \   000007   801A         SJMP      ??afEndPoints_0
    931          
    932            while ( epSearch )
    933            {
    934              endPoint = epSearch->epDesc->endPoint;
   \                     ??afEndPoints_1:
   \   000009   12....       LCALL     ?Subroutine9 & 0xFFFF
   \                     ??CrossCallReturnLabel_74:
   \   00000C   E0           MOVX      A,@DPTR
   \   00000D   F8           MOV       R0,A
    935          
    936              if ( !skipZDO || endPoint != 0 )
   \   00000E   E9           MOV       A,R1
   \   00000F   6003         JZ        ??afEndPoints_2
   \   000011   E8           MOV       A,R0
   \   000012   600B         JZ        ??afEndPoints_3
    937                *epBuf++ = endPoint;
   \                     ??afEndPoints_2:
   \   000014   E8           MOV       A,R0
   \   000015   8A82         MOV       DPL,R2
   \   000017   8B83         MOV       DPH,R3
   \   000019   F0           MOVX      @DPTR,A
   \   00001A   A3           INC       DPTR
   \   00001B   AA82         MOV       R2,DPL
   \   00001D   AB83         MOV       R3,DPH
    938          
    939              epSearch = epSearch->nextDesc;
   \                     ??afEndPoints_3:
   \   00001F   8C82         MOV       DPL,R4
   \   000021   8D83         MOV       DPH,R5
    940            }
   \                     ??afEndPoints_0:
   \   000023   12....       LCALL     ?Subroutine13 & 0xFFFF
   \                     ??CrossCallReturnLabel_13:
   \   000026   EC           MOV       A,R4
   \   000027   4D           ORL       A,R5
   \   000028   70DF         JNZ       ??afEndPoints_1
    941          }
   \   00002A   02....       LJMP      ?Subroutine2 & 0xFFFF
    942          
    943          /*********************************************************************
    944           * @fn      afCopyAddress
    945           *
    946           * @brief   Fills in the passed in afAddrType_t parameter with the corresponding information
    947           *          from the zAddrType_t parameter.
    948           *
    949           * @param   epBuf - pointer to mem used
    950           *
    951           * @return  void
    952           */

   \                                 In  segment BANKED_CODE, align 1, keep-with-next
    953          void afCopyAddress( afAddrType_t *afAddr, zAddrType_t *zAddr )
   \                     afCopyAddress:
    954          {
   \   000000   74F7         MOV       A,#-0x9
   \   000002   12....       LCALL     ?BANKED_ENTER_XDATA
   \   000005                ; Saved register size: 9
   \   000005                ; Auto size: 0
   \   000005   EA           MOV       A,R2
   \   000006   FE           MOV       R6,A
   \   000007   EB           MOV       A,R3
   \   000008   FF           MOV       R7,A
    955            afAddr->addrMode = (afAddrMode_t)zAddr->addrMode;
   \   000009   EC           MOV       A,R4
   \   00000A   2408         ADD       A,#0x8
   \   00000C   F8           MOV       R0,A
   \   00000D   E4           CLR       A
   \   00000E   3D           ADDC      A,R5
   \   00000F   F9           MOV       R1,A
   \   000010   8882         MOV       DPL,R0
   \   000012   F583         MOV       DPH,A
   \   000014   E0           MOVX      A,@DPTR
   \   000015   8A82         MOV       DPL,R2
   \   000017   8B83         MOV       DPH,R3
   \   000019   A3           INC       DPTR
   \   00001A   A3           INC       DPTR
   \   00001B   A3           INC       DPTR
   \   00001C   A3           INC       DPTR
   \   00001D   A3           INC       DPTR
   \   00001E   A3           INC       DPTR
   \   00001F   A3           INC       DPTR
   \   000020   A3           INC       DPTR
   \   000021   12....       LCALL     ?Subroutine21 & 0xFFFF
    956            if ( zAddr->addrMode == Addr64Bit )
   \                     ??CrossCallReturnLabel_30:
   \   000024   7005         JNZ       ??afCopyAddress_0
    957            {
    958              (void)osal_cpyExtAddr( afAddr->addr.extAddr, zAddr->addr.extAddr );
   \   000026                ; Setup parameters for call to function sAddrExtCpy
   \   000026   12....       LCALL     `??sAddrExtCpy::?relay`; Banked call to: sAddrExtCpy
   \   000029   8007         SJMP      ??CrossCallReturnLabel_1
    959            }
    960            else
    961            {
    962              afAddr->addr.shortAddr = zAddr->addr.shortAddr;
   \                     ??afCopyAddress_0:
   \   00002B   8C82         MOV       DPL,R4
   \   00002D   8D83         MOV       DPH,R5
   \   00002F   12....       LCALL     ?Subroutine5 & 0xFFFF
    963            }
    964          
    965            // Since zAddrType_t has no INTER-PAN information, set the panId member to zero.
    966            afAddr->panId = 0;
   \                     ??CrossCallReturnLabel_1:
   \   000032   8E82         MOV       DPL,R6
   \   000034   8F83         MOV       DPH,R7
   \   000036   A3           INC       DPTR
   \   000037   A3           INC       DPTR
   \   000038   A3           INC       DPTR
   \   000039   A3           INC       DPTR
   \   00003A   A3           INC       DPTR
   \   00003B   A3           INC       DPTR
   \   00003C   A3           INC       DPTR
   \   00003D   A3           INC       DPTR
   \   00003E   A3           INC       DPTR
   \   00003F   A3           INC       DPTR
   \   000040   E4           CLR       A
   \   000041   F0           MOVX      @DPTR,A
   \   000042   A3           INC       DPTR
   \   000043   F0           MOVX      @DPTR,A
    967          }
   \   000044   02....       LJMP      ?Subroutine3 & 0xFFFF
    968          
    969          /**************************************************************************************************
    970           * @fn          afAPSF_ConfigGet
    971           *
    972           * @brief       This function ascertains the fragmentation configuration that corresponds to
    973           *              the specified EndPoint.
    974           *
    975           * input parameters
    976           *
    977           * @param       endPoint - The source EP of a Tx or destination EP of a Rx fragmented message.
    978           *
    979           * output parameters
    980           *
    981           * @param       pCfg - A pointer to an APSF configuration structure to fill with values.
    982           *
    983           * @return      None.
    984           */

   \                                 In  segment BANKED_CODE, align 1, keep-with-next
    985          void afAPSF_ConfigGet(uint8 endPoint, afAPSF_Config_t *pCfg)
   \                     afAPSF_ConfigGet:
    986          {
   \   000000                REQUIRE ?V0
   \   000000                REQUIRE ?V1
   \   000000                REQUIRE ?V2
   \   000000                REQUIRE ?V3
   \   000000   74F4         MOV       A,#-0xc
   \   000002   12....       LCALL     ?BANKED_ENTER_XDATA
   \   000005                ; Saved register size: 12
   \   000005                ; Auto size: 0
   \   000005   EA           MOV       A,R2
   \   000006   FE           MOV       R6,A
   \   000007   EB           MOV       A,R3
   \   000008   FF           MOV       R7,A
    987            epList_t *pList = afFindEndPointDescList(endPoint);
   \   000009                ; Setup parameters for call to function afFindEndPointDescList
   \   000009   12....       LCALL     `??afFindEndPointDescList::?relay`; Banked call to: afFindEndPointDescList
   \   00000C   8B..         MOV       ?V1,R3
   \   00000E   A9..         MOV       R1,?V1
    988          
    989            if (pList == NULL)
   \   000010   EA           MOV       A,R2
   \   000011   49           ORL       A,R1
   \   000012   700D         JNZ       ??afAPSF_ConfigGet_0
    990            {
    991              pCfg->frameDelay = APSF_DEFAULT_INTERFRAME_DELAY;
   \   000014   8E82         MOV       DPL,R6
   \   000016   8F83         MOV       DPH,R7
   \   000018   7432         MOV       A,#0x32
   \   00001A   F0           MOVX      @DPTR,A
    992              pCfg->windowSize = APSF_DEFAULT_WINDOW_SIZE;
   \   00001B   A3           INC       DPTR
   \   00001C   7401         MOV       A,#0x1
   \   00001E   F0           MOVX      @DPTR,A
   \   00001F   8021         SJMP      ??afAPSF_ConfigGet_1
    993            }
    994            else
    995            {
    996              (void)osal_memcpy(pCfg, &pList->apsfCfg, sizeof(afAPSF_Config_t));
   \                     ??afAPSF_ConfigGet_0:
   \   000021                ; Setup parameters for call to function osal_memcpy
   \   000021   EA           MOV       A,R2
   \   000022   2406         ADD       A,#0x6
   \   000024   F5..         MOV       ?V0,A
   \   000026   E4           CLR       A
   \   000027   39           ADDC      A,R1
   \   000028   F5..         MOV       ?V1,A
   \   00002A   75..00       MOV       ?V2,#0x0
   \   00002D   78..         MOV       R0,#?V0
   \   00002F   12....       LCALL     ?PUSH_XSTACK_I_THREE
   \   000032   7C02         MOV       R4,#0x2
   \   000034   7D00         MOV       R5,#0x0
   \   000036   EE           MOV       A,R6
   \   000037   FA           MOV       R2,A
   \   000038   EF           MOV       A,R7
   \   000039   FB           MOV       R3,A
   \   00003A   12....       LCALL     `??osal_memcpy::?relay`; Banked call to: osal_memcpy
   \   00003D   7403         MOV       A,#0x3
   \   00003F   12....       LCALL     ?DEALLOC_XSTACK8
    997            }
    998          }
   \                     ??afAPSF_ConfigGet_1:
   \   000042   02....       LJMP      ?Subroutine0 & 0xFFFF
    999          
   1000          /**************************************************************************************************
   1001           * @fn          afAPSF_ConfigSet
   1002           *
   1003           * @brief       This function attempts to set the fragmentation configuration that corresponds to
   1004           *              the specified EndPoint.
   1005           *
   1006           * input parameters
   1007           *
   1008           * @param       endPoint - The specific EndPoint for which to set the fragmentation configuration.
   1009           * @param       pCfg - A pointer to an APSF configuration structure to fill with values.
   1010           *
   1011           * output parameters
   1012           *
   1013           * None.
   1014           *
   1015           * @return      afStatus_SUCCESS for success.
   1016           *              afStatus_INVALID_PARAMETER if the specified EndPoint is not registered.
   1017           */

   \                                 In  segment BANKED_CODE, align 1, keep-with-next
   1018          afStatus_t afAPSF_ConfigSet(uint8 endPoint, afAPSF_Config_t *pCfg)
   \                     afAPSF_ConfigSet:
   1019          {
   \   000000                REQUIRE ?V0
   \   000000                REQUIRE ?V1
   \   000000                REQUIRE ?V2
   \   000000                REQUIRE ?V3
   \   000000   74F4         MOV       A,#-0xc
   \   000002   12....       LCALL     ?BANKED_ENTER_XDATA
   \   000005                ; Saved register size: 12
   \   000005                ; Auto size: 0
   \   000005   EA           MOV       A,R2
   \   000006   FE           MOV       R6,A
   \   000007   EB           MOV       A,R3
   \   000008   FF           MOV       R7,A
   1020            epList_t *pList = afFindEndPointDescList(endPoint);
   \   000009                ; Setup parameters for call to function afFindEndPointDescList
   \   000009   12....       LCALL     `??afFindEndPointDescList::?relay`; Banked call to: afFindEndPointDescList
   1021          
   1022            if (pList == NULL)
   \   00000C   EA           MOV       A,R2
   \   00000D   4B           ORL       A,R3
   \   00000E   7004         JNZ       ??afAPSF_ConfigSet_0
   1023            {
   1024              return afStatus_INVALID_PARAMETER;
   \   000010   7902         MOV       R1,#0x2
   \   000012   8021         SJMP      ??afAPSF_ConfigSet_1
   1025            }
   1026          
   1027            (void)osal_memcpy(&pList->apsfCfg, pCfg, sizeof(afAPSF_Config_t));
   \                     ??afAPSF_ConfigSet_0:
   \   000014                ; Setup parameters for call to function osal_memcpy
   \   000014   8E..         MOV       ?V0,R6
   \   000016   8F..         MOV       ?V1,R7
   \   000018   75..00       MOV       ?V2,#0x0
   \   00001B   78..         MOV       R0,#?V0
   \   00001D   12....       LCALL     ?PUSH_XSTACK_I_THREE
   \   000020   7C02         MOV       R4,#0x2
   \   000022   7D00         MOV       R5,#0x0
   \   000024   EA           MOV       A,R2
   \   000025   2406         ADD       A,#0x6
   \   000027   FA           MOV       R2,A
   \   000028   5001         JNC       ??afAPSF_ConfigSet_2
   \   00002A   0B           INC       R3
   \                     ??afAPSF_ConfigSet_2:
   \   00002B   12....       LCALL     `??osal_memcpy::?relay`; Banked call to: osal_memcpy
   \   00002E   7403         MOV       A,#0x3
   \   000030   12....       LCALL     ?DEALLOC_XSTACK8
   1028            return afStatus_SUCCESS;
   \   000033   7900         MOV       R1,#0x0
   \                     ??afAPSF_ConfigSet_1:
   \   000035   02....       LJMP      ?Subroutine0 & 0xFFFF
   1029          }

   \                                 In  segment XDATA_ID, align 1, keep-with-next
   \                     `?<Initializer for AF_DataRequestDiscoverRoute>`:
   \   000000   01           DB 1
   1030          
   1031          /**************************************************************************************************
   1032          */

   Maximum stack usage in bytes:

   ISTACK XSTACK Function
   ------ ------ --------
      1     67   AF_DataRequest
        0     46   -> APSDE_DataReq
        0     46   -> NLME_GetShortAddr
        0     46   -> NLME_IsAddressBroadcast
        0     46   -> RTG_CheckRtStatus
        0     46   -> afDataConfirm
        0     46   -> afDataReqMTU
        0     46   -> osal_mem_free
        0     46   -> sAddrExtCpy
      0     33   AF_DataRequestSrcRtg
        0     21   -> AF_DataRequest
        0     12   -> RTG_AddSrcRtgEntry_Guaranteed
      0     15   afAPSF_ConfigGet
        0     12   -> afFindEndPointDescList
        0     15   -> osal_memcpy
      0     15   afAPSF_ConfigSet
        0     12   -> afFindEndPointDescList
        0     15   -> osal_memcpy
      1     61   afBuildMSGIncoming
        0     19   -> afCopyAddress
        0     22   -> osal_memcpy
        0     19   -> osal_msg_allocate
        0     19   -> osal_msg_send
      1     28   afCopyAddress
        0      9   -> sAddrExtCpy
      1     60   afDataConfirm
        0     14   -> afFindEndPointDesc
        0     14   -> osal_msg_allocate
        0     14   -> osal_msg_send
      0     55   afDataReqMTU
        0      9   -> APSDE_DataReqMTU
      3      0   afEndPoints
      0     38   afFindEndPointDesc
        0     10   -> afFindEndPointDescList
      2     28   afFindEndPointDescList
      0     12   afFindSimpleDesc
        0     12   -> afFindEndPointDescList
      0     10   afGetMatch
        0     10   -> afFindEndPointDescList
      1     48   afIncomingData
        0     39   -> afBuildMSGIncoming
        0     28   -> afFindEndPointDesc
        0     28   -> afFindEndPointDescList
        0     28   -> aps_FindGroupForEndpoint
        0     28   -> osal_mem_free
      2      0   afNumEndPoints
      0     10   afRegister
        0     10   -> afFindEndPointDescList
        0     10   -> afRegisterExtended
      0     22   afRegisterExtended
        0     12   -> osal_mem_alloc
      0     10   afSetMatch
        0     10   -> afFindEndPointDescList


   Segment part sizes:

   Bytes  Function/Label
   -----  --------------
       1  ?<Initializer for AF_DataRequestDiscoverRoute>
       3  ??Subroutine28_0
       8  ??Subroutine29_0
       7  ??Subroutine30_0
       6  ??Subroutine31_0
       6  ??Subroutine32_0
       4  ??Subroutine33_0
       1  ??Subroutine34_0
       6  ??Subroutine35_0
       2  ??Subroutine36_0
       6  ??Subroutine37_0
       5  ?Subroutine0
       5  ?Subroutine1
      10  ?Subroutine10
       1  ?Subroutine11
      10  ?Subroutine12
       6  ?Subroutine13
       9  ?Subroutine14
      12  ?Subroutine15
       7  ?Subroutine16
       6  ?Subroutine17
       8  ?Subroutine18
       4  ?Subroutine19
       7  ?Subroutine2
       8  ?Subroutine20
       9  ?Subroutine21
      14  ?Subroutine22
      11  ?Subroutine23
      10  ?Subroutine24
      10  ?Subroutine25
      10  ?Subroutine26
       3  ?Subroutine27
       5  ?Subroutine3
       1  ?Subroutine4
       9  ?Subroutine5
      15  ?Subroutine6
      19  ?Subroutine7
       1  ?Subroutine8
       4  ?Subroutine9
     788  AF_DataRequest
       1  AF_DataRequestDiscoverRoute
     122  AF_DataRequestSrcRtg
      69  afAPSF_ConfigGet
      56  afAPSF_ConfigSet
     431  afBuildMSGIncoming
      71  afCopyAddress
      71  afDataConfirm
      32  afDataReqMTU
      45  afEndPoints
      22  afFindEndPointDesc
      31  afFindEndPointDescList
      92  afFindSimpleDesc
      29  afGetMatch
     487  afIncomingData
      37  afNumEndPoints
      50  afRegister
      73  afRegisterExtended
      40  afSetMatch
       2  epList
     108  -- Other

 
 2 814 bytes in segment BANKED_CODE
   108 bytes in segment BANK_RELAYS
     1 byte  in segment XDATA_I
     1 byte  in segment XDATA_ID
     2 bytes in segment XDATA_Z
 
   109 bytes of CODE     memory
 2 814 bytes of HUGECODE memory
     3 bytes of XDATA    memory

Errors: none
Warnings: none
