###############################################################################
#
# IAR C/C++ Compiler V10.30.1.6000 for 8051               23/Apr/2019  16:49:30
# Copyright 2004-2018 IAR Systems AB.
# PC-locked license - IAR Embedded Workbench for 8051
#
#    Core               =  plain
#    Code model         =  banked
#    Data model         =  large
#    Calling convention =  xdata reentrant
#    Constant location  =  data_rom
#    Dptr setup         =  1,16
#                          
#    Source file        =  
#        E:\qq下载文件\结课作业\ZigBee\实验指导书\实验指导书\Code\Cap2_ZStack\ZStack-CC2530-r200\ZStack-CC2530-r200\Components\hal\target\CC2530EB\hal_led.c
#    Command line       =  
#        -f C:\Users\VULCAN\AppData\Local\Temp\EWDC05.tmp
#        (E:\qq下载文件\结课作业\ZigBee\实验指导书\实验指导书\Code\Cap2_ZStack\ZStack-CC2530-r200\ZStack-CC2530-r200\Components\hal\target\CC2530EB\hal_led.c
#        -D NWK_AUTO_POLL -D ZTOOL_P1 -D MT_TASK -D xMT_SYS_FUNC -D MT_ZDO_FUNC
#        -D SAPP_ZSTACK_DEMO -lC
#        E:\qq下载文件\结课作业\ZigBee\实验指导书\实验指导书\Code\Cap2_ZStack\ZStack-CC2530-r200\ZStack-CC2530-r200\Projects\SappWsn\Demo\List
#        -lA
#        E:\qq下载文件\结课作业\ZigBee\实验指导书\实验指导书\Code\Cap2_ZStack\ZStack-CC2530-r200\ZStack-CC2530-r200\Projects\SappWsn\Demo\List
#        --diag_suppress Pe001,Pa010 -o
#        E:\qq下载文件\结课作业\ZigBee\实验指导书\实验指导书\Code\Cap2_ZStack\ZStack-CC2530-r200\ZStack-CC2530-r200\Projects\SappWsn\Demo\Obj
#        -e --debug --core=plain --dptr=16,1 --data_model=large
#        --code_model=banked --calling_convention=xdata_reentrant
#        --place_constants=data_rom --nr_virtual_regs 16 -f
#        E:\qq下载文件\结课作业\ZigBee\实验指导书\实验指导书\Code\Cap2_ZStack\ZStack-CC2530-r200\ZStack-CC2530-r200\Projects\SappWsn\..\zstack\Tools\CC2530DB\f8wEndev.cfg
#        (-DCPU32MHZ -DROOT=__near_func -DMAC_CFG_TX_DATA_MAX=3
#        -DMAC_CFG_TX_MAX=6 -DMAC_CFG_RX_MAX=3) -f
#        E:\qq下载文件\结课作业\ZigBee\实验指导书\实验指导书\Code\Cap2_ZStack\ZStack-CC2530-r200\ZStack-CC2530-r200\Projects\SappWsn\..\zstack\Tools\CC2530DB\f8wConfig.cfg
#        (-DZIGBEEPRO -DSECURE=0 -DZG_SECURE_DYNAMIC=0 -DREFLECTOR
#        -DDEFAULT_CHANLIST=0x00000800 -DZDAPP_CONFIG_PAN_ID=0x0056
#        -DNWK_START_DELAY=100 -DEXTENDED_JOINING_RANDOM_MASK=0x007F
#        -DBEACON_REQUEST_DELAY=100 -DBEACON_REQ_DELAY_MASK=0x00FF
#        -DLINK_STATUS_JITTER_MASK=0x007F -DROUTE_EXPIRY_TIME=30
#        -DAPSC_ACK_WAIT_DURATION_POLLED=3000 -DNWK_INDIRECT_MSG_TIMEOUT=7
#        -DMAX_RREQ_ENTRIES=8 -DAPSC_MAX_FRAME_RETRIES=3
#        -DNWK_MAX_DATA_RETRIES=2 -DMAX_POLL_FAILURE_RETRIES=2 -DMAX_BCAST=9
#        -DAPS_MAX_GROUPS=16 -DMAX_RTG_ENTRIES=40 -DNWK_MAX_BINDING_ENTRIES=4
#        -DMAX_BINDING_CLUSTER_IDS=4 "-DDEFAULT_KEY={0x01, 0x03, 0x05, 0x07,
#        0x09, 0x0B, 0x0D, 0x0F, 0x00, 0x02, 0x04, 0x06, 0x08, 0x0A, 0x0C,
#        0x0D}" -DMAC_MAX_FRAME_SIZE=116 -DZDNWKMGR_MIN_TRANSMISSIONS=20
#        "-DCONST=const __code" -DGENERIC=__generic -DRFD_RCVC_ALWAYS_ON=FALSE
#        -DPOLL_RATE=1000 -DQUEUED_POLL_RATE=100 -DRESPONSE_POLL_RATE=100
#        -DREJOIN_POLL_RATE=440) -I
#        E:\qq下载文件\结课作业\ZigBee\实验指导书\实验指导书\Code\Cap2_ZStack\ZStack-CC2530-r200\ZStack-CC2530-r200\Projects\SappWsn\
#        -I
#        E:\qq下载文件\结课作业\ZigBee\实验指导书\实验指导书\Code\Cap2_ZStack\ZStack-CC2530-r200\ZStack-CC2530-r200\Projects\SappWsn\Source\
#        -I
#        E:\qq下载文件\结课作业\ZigBee\实验指导书\实验指导书\Code\Cap2_ZStack\ZStack-CC2530-r200\ZStack-CC2530-r200\Projects\SappWsn\..\zstack\ZMain\TI2530DB\
#        -I
#        E:\qq下载文件\结课作业\ZigBee\实验指导书\实验指导书\Code\Cap2_ZStack\ZStack-CC2530-r200\ZStack-CC2530-r200\Projects\SappWsn\..\..\Components\hal\include\
#        -I
#        E:\qq下载文件\结课作业\ZigBee\实验指导书\实验指导书\Code\Cap2_ZStack\ZStack-CC2530-r200\ZStack-CC2530-r200\Projects\SappWsn\..\..\Components\hal\target\CC2530EB\
#        -I
#        E:\qq下载文件\结课作业\ZigBee\实验指导书\实验指导书\Code\Cap2_ZStack\ZStack-CC2530-r200\ZStack-CC2530-r200\Projects\SappWsn\..\..\Components\mac\include\
#        -I
#        E:\qq下载文件\结课作业\ZigBee\实验指导书\实验指导书\Code\Cap2_ZStack\ZStack-CC2530-r200\ZStack-CC2530-r200\Projects\SappWsn\..\..\Components\mac\high_level\
#        -I
#        E:\qq下载文件\结课作业\ZigBee\实验指导书\实验指导书\Code\Cap2_ZStack\ZStack-CC2530-r200\ZStack-CC2530-r200\Projects\SappWsn\..\..\Components\mac\low_level\srf04\
#        -I
#        E:\qq下载文件\结课作业\ZigBee\实验指导书\实验指导书\Code\Cap2_ZStack\ZStack-CC2530-r200\ZStack-CC2530-r200\Projects\SappWsn\..\..\Components\mac\low_level\srf04\single_chip\
#        -I
#        E:\qq下载文件\结课作业\ZigBee\实验指导书\实验指导书\Code\Cap2_ZStack\ZStack-CC2530-r200\ZStack-CC2530-r200\Projects\SappWsn\..\..\Components\mt\
#        -I
#        E:\qq下载文件\结课作业\ZigBee\实验指导书\实验指导书\Code\Cap2_ZStack\ZStack-CC2530-r200\ZStack-CC2530-r200\Projects\SappWsn\..\..\Components\osal\include\
#        -I
#        E:\qq下载文件\结课作业\ZigBee\实验指导书\实验指导书\Code\Cap2_ZStack\ZStack-CC2530-r200\ZStack-CC2530-r200\Projects\SappWsn\..\..\Components\services\saddr\
#        -I
#        E:\qq下载文件\结课作业\ZigBee\实验指导书\实验指导书\Code\Cap2_ZStack\ZStack-CC2530-r200\ZStack-CC2530-r200\Projects\SappWsn\..\..\Components\services\sdata\
#        -I
#        E:\qq下载文件\结课作业\ZigBee\实验指导书\实验指导书\Code\Cap2_ZStack\ZStack-CC2530-r200\ZStack-CC2530-r200\Projects\SappWsn\..\..\Components\stack\af\
#        -I
#        E:\qq下载文件\结课作业\ZigBee\实验指导书\实验指导书\Code\Cap2_ZStack\ZStack-CC2530-r200\ZStack-CC2530-r200\Projects\SappWsn\..\..\Components\stack\nwk\
#        -I
#        E:\qq下载文件\结课作业\ZigBee\实验指导书\实验指导书\Code\Cap2_ZStack\ZStack-CC2530-r200\ZStack-CC2530-r200\Projects\SappWsn\..\..\Components\stack\sapi\
#        -I
#        E:\qq下载文件\结课作业\ZigBee\实验指导书\实验指导书\Code\Cap2_ZStack\ZStack-CC2530-r200\ZStack-CC2530-r200\Projects\SappWsn\..\..\Components\stack\sec\
#        -I
#        E:\qq下载文件\结课作业\ZigBee\实验指导书\实验指导书\Code\Cap2_ZStack\ZStack-CC2530-r200\ZStack-CC2530-r200\Projects\SappWsn\..\..\Components\stack\sys\
#        -I
#        E:\qq下载文件\结课作业\ZigBee\实验指导书\实验指导书\Code\Cap2_ZStack\ZStack-CC2530-r200\ZStack-CC2530-r200\Projects\SappWsn\..\..\Components\stack\zdo\
#        -I
#        E:\qq下载文件\结课作业\ZigBee\实验指导书\实验指导书\Code\Cap2_ZStack\ZStack-CC2530-r200\ZStack-CC2530-r200\Projects\SappWsn\..\..\Components\zmac\
#        -I
#        E:\qq下载文件\结课作业\ZigBee\实验指导书\实验指导书\Code\Cap2_ZStack\ZStack-CC2530-r200\ZStack-CC2530-r200\Projects\SappWsn\..\..\Components\zmac\f8w\
#        -Ohz --require_prototypes --no_code_motion)
#    Locale             =  Chinese (Simplified)_CHN.936
#    List file          =  
#        E:\qq下载文件\结课作业\ZigBee\实验指导书\实验指导书\Code\Cap2_ZStack\ZStack-CC2530-r200\ZStack-CC2530-r200\Projects\SappWsn\Demo\List\hal_led.lst
#    Object file        =  
#        E:\qq下载文件\结课作业\ZigBee\实验指导书\实验指导书\Code\Cap2_ZStack\ZStack-CC2530-r200\ZStack-CC2530-r200\Projects\SappWsn\Demo\Obj\hal_led.r51
#
###############################################################################

E:\qq下载文件\结课作业\ZigBee\实验指导书\实验指导书\Code\Cap2_ZStack\ZStack-CC2530-r200\ZStack-CC2530-r200\Components\hal\target\CC2530EB\hal_led.c
      1          /**************************************************************************************************
      2            Filename:       hal_led.c
      3            Revised:        $Date: 2011-04-15 10:47:58 -0700 (Fri, 15 Apr 2011) $
      4            Revision:       $Revision: 25723 $
      5          
      6            Description:    This file contains the interface to the HAL LED Service.
      7          
      8          
      9            Copyright 2006-2007 Texas Instruments Incorporated. All rights reserved.
     10          
     11            IMPORTANT: Your use of this Software is limited to those specific rights
     12            granted under the terms of a software license agreement between the user
     13            who downloaded the software, his/her employer (which must be your employer)
     14            and Texas Instruments Incorporated (the "License").  You may not use this
     15            Software unless you agree to abide by the terms of the License. The License
     16            limits your use, and you acknowledge, that the Software may not be modified,
     17            copied or distributed unless embedded on a Texas Instruments microcontroller
     18            or used solely and exclusively in conjunction with a Texas Instruments radio
     19            frequency transceiver, which is integrated into your product.  Other than for
     20            the foregoing purpose, you may not use, reproduce, copy, prepare derivative
     21            works of, modify, distribute, perform, display or sell this Software and/or
     22            its documentation for any purpose.
     23          
     24            YOU FURTHER ACKNOWLEDGE AND AGREE THAT THE SOFTWARE AND DOCUMENTATION ARE
     25            PROVIDED AS IS?WITHOUT WARRANTY OF ANY KIND, EITHER EXPRESS OR IMPLIED,
     26            INCLUDING WITHOUT LIMITATION, ANY WARRANTY OF MERCHANTABILITY, TITLE,
     27            NON-INFRINGEMENT AND FITNESS FOR A PARTICULAR PURPOSE. IN NO EVENT SHALL
     28            TEXAS INSTRUMENTS OR ITS LICENSORS BE LIABLE OR OBLIGATED UNDER CONTRACT,
     29            NEGLIGENCE, STRICT LIABILITY, CONTRIBUTION, BREACH OF WARRANTY, OR OTHER
     30            LEGAL EQUITABLE THEORY ANY DIRECT OR INDIRECT DAMAGES OR EXPENSES
     31            INCLUDING BUT NOT LIMITED TO ANY INCIDENTAL, SPECIAL, INDIRECT, PUNITIVE
     32            OR CONSEQUENTIAL DAMAGES, LOST PROFITS OR LOST DATA, COST OF PROCUREMENT
     33            OF SUBSTITUTE GOODS, TECHNOLOGY, SERVICES, OR ANY CLAIMS BY THIRD PARTIES
     34            (INCLUDING BUT NOT LIMITED TO ANY DEFENSE THEREOF), OR OTHER SIMILAR COSTS.
     35          
     36            Should you have any questions regarding your right to use this Software,
     37            contact Texas Instruments Incorporated at www.TI.com.
     38          **************************************************************************************************/
     39          
     40          /***************************************************************************************************
     41           *                                             INCLUDES
     42           ***************************************************************************************************/
     43          #include "hal_mcu.h"

   \                                 In  segment SFR_AN, at 0x90
   \   union <unnamed> volatile __sfr _A_P1
   \                     _A_P1:
   \   000000                DS 1

   \                                 In  segment SFR_AN, at 0xa0
   \   union <unnamed> volatile __sfr _A_P2
   \                     _A_P2:
   \   000000                DS 1
     44          #include "hal_defs.h"
     45          #include "hal_types.h"
     46          #include "hal_drivers.h"
     47          #include "hal_led.h"
     48          #include "osal.h"
     49          #include "hal_board.h"
     50          
     51          /***************************************************************************************************
     52           *                                             CONSTANTS
     53           ***************************************************************************************************/
     54          
     55          /***************************************************************************************************
     56           *                                              MACROS
     57           ***************************************************************************************************/
     58          
     59          /***************************************************************************************************
     60           *                                              TYPEDEFS
     61           ***************************************************************************************************/
     62          /* LED control structure */
     63          typedef struct {
     64            uint8 mode;       /* Operation mode */
     65            uint8 todo;       /* Blink cycles left */
     66            uint8 onPct;      /* On cycle percentage */
     67            uint16 time;      /* On/off cycle time (msec) */
     68            uint32 next;      /* Time for next change */
     69          } HalLedControl_t;
     70          
     71          typedef struct
     72          {
     73            HalLedControl_t HalLedControlTable[HAL_LED_DEFAULT_MAX_LEDS];
     74            uint8           sleepActive;
     75          } HalLedStatus_t;
     76          
     77          
     78          /***************************************************************************************************
     79           *                                           GLOBAL VARIABLES
     80           ***************************************************************************************************/
     81          
     82          

   \                                 In  segment XDATA_Z, align 1, keep-with-next
     83          static uint8 HalLedState;              // LED state at last set/clr/blink update
   \                     HalLedState:
   \   000000                DS 1
   \   000001                REQUIRE __INIT_XDATA_Z
     84          
     85          #if HAL_LED == TRUE

   \                                 In  segment XDATA_Z, align 1, keep-with-next
     86          static uint8 HalSleepLedState;         // LED state at last set/clr/blink update
   \                     HalSleepLedState:
   \   000000                DS 1
   \   000001                REQUIRE __INIT_XDATA_Z

   \                                 In  segment XDATA_Z, align 1, keep-with-next
     87          static uint8 preBlinkState;            // Original State before going to blink mode
   \                     preBlinkState:
   \   000000                DS 1
   \   000001                REQUIRE __INIT_XDATA_Z
     88                                                 // bit 0, 1, 2, 3 represent led 0, 1, 2, 3
     89          #endif
     90          
     91          #ifdef BLINK_LEDS

   \                                 In  segment XDATA_Z, align 1, keep-with-next
     92            static HalLedStatus_t HalLedStatusControl;
   \                     HalLedStatusControl:
   \   000000                DS 37
   \   000025                REQUIRE __INIT_XDATA_Z
     93          #endif
     94          
     95          /***************************************************************************************************
     96           *                                            LOCAL FUNCTION
     97           ***************************************************************************************************/
     98          #if (HAL_LED == TRUE)
     99          void HalLedUpdate (void);
    100          void HalLedOnOff (uint8 leds, uint8 mode);
    101          #endif /* HAL_LED */
    102          
    103          /***************************************************************************************************
    104           *                                            FUNCTIONS - API
    105           ***************************************************************************************************/
    106          
    107          /***************************************************************************************************
    108           * @fn      HalLedInit
    109           *
    110           * @brief   Initialize LED Service
    111           *
    112           * @param   init - pointer to void that contains the initialized value
    113           *
    114           * @return  None
    115           ***************************************************************************************************/

   \                                 In  segment BANKED_CODE, align 1, keep-with-next
    116          void HalLedInit (void)
   \                     HalLedInit:
    117          {
   \   000000   C082         PUSH      DPL
   \   000002   C083         PUSH      DPH
   \   000004                ; Saved register size: 2
   \   000004                ; Auto size: 0
    118          #if (HAL_LED == TRUE)
    119            /* Initialize all LEDs to OFF */
    120            HalLedSet (HAL_LED_ALL, HAL_LED_MODE_OFF);
   \   000004                ; Setup parameters for call to function HalLedSet
   \   000004   7A00         MOV       R2,#0x0
   \   000006   7903         MOV       R1,#0x3
   \   000008   12....       LCALL     `??HalLedSet::?relay`; Banked call to: HalLedSet
    121          #endif /* HAL_LED */
    122          #ifdef BLINK_LEDS
    123            /* Initialize sleepActive to FALSE */
    124            HalLedStatusControl.sleepActive = FALSE;
   \   00000B   02....       LJMP      ?Subroutine0 & 0xFFFF
    125          #endif
    126          }

   \                                 In  segment BANKED_CODE, align 1, keep-with-next
   \                     ?Subroutine0:
   \   000000   90....       MOV       DPTR,#HalLedStatusControl + 36
   \   000003   E4           CLR       A
   \   000004                REQUIRE ??Subroutine1_0
   \   000004                ; // Fall through to label ??Subroutine1_0

   \                                 In  segment BANKED_CODE, align 1, keep-with-next
   \                     ??Subroutine1_0:
   \   000000   F0           MOVX      @DPTR,A
   \   000001                REQUIRE ??Subroutine2_0
   \   000001                ; // Fall through to label ??Subroutine2_0

   \                                 In  segment BANKED_CODE, align 1, keep-with-next
   \                     ??Subroutine2_0:
   \   000000   D083         POP       DPH
   \   000002   D082         POP       DPL
   \   000004   02....       LJMP      ?BRET
    127          
    128          /***************************************************************************************************
    129           * @fn      HalLedSet
    130           *
    131           * @brief   Tun ON/OFF/TOGGLE given LEDs
    132           *
    133           * @param   led - bit mask value of leds to be turned ON/OFF/TOGGLE
    134           *          mode - BLINK, FLASH, TOGGLE, ON, OFF
    135           * @return  None
    136           ***************************************************************************************************/

   \                                 In  segment BANKED_CODE, align 1, keep-with-next
    137          uint8 HalLedSet (uint8 leds, uint8 mode)
   \                     HalLedSet:
    138          {
   \   000000                REQUIRE ?V0
   \   000000                REQUIRE ?V1
   \   000000                REQUIRE ?V2
   \   000000   74F5         MOV       A,#-0xb
   \   000002   12....       LCALL     ?BANKED_ENTER_XDATA
   \   000005                ; Saved register size: 11
   \   000005                ; Auto size: 0
   \   000005   89..         MOV       ?V0,R1
   \   000007   8A..         MOV       ?V2,R2
    139          
    140          #if (defined (BLINK_LEDS)) && (HAL_LED == TRUE)
    141            uint8 led;
    142            HalLedControl_t *sts;
    143          
    144            switch (mode)
   \   000009   EA           MOV       A,R2
   \   00000A   602F         JZ        ??HalLedSet_0
   \   00000C   14           DEC       A
   \   00000D   602C         JZ        ??HalLedSet_0
   \   00000F   14           DEC       A
   \   000010   600A         JZ        ??HalLedSet_1
   \   000012   24FE         ADD       A,#-0x2
   \   000014   601B         JZ        ??HalLedSet_2
   \   000016   24FC         ADD       A,#-0x4
   \   000018   6021         JZ        ??HalLedSet_0
   \   00001A   800B         SJMP      ??HalLedSet_3
    145            {
    146              case HAL_LED_MODE_BLINK:
    147                /* Default blink, 1 time, D% duty cycle */
    148                HalLedBlink (leds, 1, HAL_LED_DEFAULT_DUTY_CYCLE, HAL_LED_DEFAULT_FLASH_TIME);
   \                     ??HalLedSet_1:
   \   00001C                ; Setup parameters for call to function HalLedBlink
   \   00001C   7CE8         MOV       R4,#-0x18
   \   00001E   7D03         MOV       R5,#0x3
   \   000020   7B05         MOV       R3,#0x5
   \   000022   7A01         MOV       R2,#0x1
   \                     ??HalLedSet_4:
   \   000024   12....       LCALL     `??HalLedBlink::?relay`; Banked call to: HalLedBlink
    149                break;
    150          
    151              case HAL_LED_MODE_FLASH:
    152                /* Default flash, N times, D% duty cycle */
    153                HalLedBlink (leds, HAL_LED_DEFAULT_FLASH_COUNT, HAL_LED_DEFAULT_DUTY_CYCLE, HAL_LED_DEFAULT_FLASH_TIME);
    154                break;
    155          
    156              case HAL_LED_MODE_ON:
    157              case HAL_LED_MODE_OFF:
    158              case HAL_LED_MODE_TOGGLE:
    159          
    160                led = HAL_LED_1;
    161                leds &= HAL_LED_ALL;
    162                sts = HalLedStatusControl.HalLedControlTable;
    163          
    164                while (leds)
    165                {
    166                  if (leds & led)
    167                  {
    168                    if (mode != HAL_LED_MODE_TOGGLE)
    169                    {
    170                      sts->mode = mode;  /* ON or OFF */
    171                    }
    172                    else
    173                    {
    174                      sts->mode ^= HAL_LED_MODE_ON;  /* Toggle */
    175                    }
    176                    HalLedOnOff (led, sts->mode);
    177                    leds ^= led;
    178                  }
    179                  led <<= 1;
    180                  sts++;
    181                }
    182                break;
    183          
    184              default:
    185                break;
    186            }
    187          
    188          #elif (HAL_LED == TRUE)
    189            LedOnOff(leds, mode);
    190          #else
    191            // HAL LED is disabled, suppress unused argument warnings
    192            (void) leds;
    193            (void) mode;
    194          #endif /* BLINK_LEDS && HAL_LED   */
    195          
    196            return ( HalLedState );
   \                     ??HalLedSet_3:
   \   000027   90....       MOV       DPTR,#HalLedState
   \   00002A   E0           MOVX      A,@DPTR
   \   00002B   F9           MOV       R1,A
   \   00002C   7F03         MOV       R7,#0x3
   \   00002E   02....       LJMP      ?BANKED_LEAVE_XDATA
   \                     ??HalLedSet_2:
   \   000031                ; Setup parameters for call to function HalLedBlink
   \   000031   7CE8         MOV       R4,#-0x18
   \   000033   7D03         MOV       R5,#0x3
   \   000035   7B05         MOV       R3,#0x5
   \   000037   7A32         MOV       R2,#0x32
   \   000039   80E9         SJMP      ??HalLedSet_4
   \                     ??HalLedSet_0:
   \   00003B   75..01       MOV       ?V1,#0x1
   \   00003E   53..03       ANL       ?V0,#0x3
   \   000041   7E..         MOV       R6,#HalLedStatusControl & 0xff
   \   000043   7F..         MOV       R7,#(HalLedStatusControl >> 8) & 0xff
   \   000045   801C         SJMP      ??HalLedSet_5
   \                     ??HalLedSet_6:
   \   000047   E0           MOVX      A,@DPTR
   \   000048   6401         XRL       A,#0x1
   \                     ??HalLedSet_7:
   \   00004A   F0           MOVX      @DPTR,A
   \   00004B                ; Setup parameters for call to function HalLedOnOff
   \   00004B   E0           MOVX      A,@DPTR
   \   00004C   FA           MOV       R2,A
   \   00004D   A9..         MOV       R1,?V1
   \   00004F   12....       LCALL     `??HalLedOnOff::?relay`; Banked call to: HalLedOnOff
   \   000052   E5..         MOV       A,?V1
   \   000054   62..         XRL       ?V0,A
   \                     ??HalLedSet_8:
   \   000056   E5..         MOV       A,?V1
   \   000058   C3           CLR       C
   \   000059   33           RLC       A
   \   00005A   F5..         MOV       ?V1,A
   \   00005C   EE           MOV       A,R6
   \   00005D   2409         ADD       A,#0x9
   \   00005F   FE           MOV       R6,A
   \   000060   5001         JNC       ??HalLedSet_5
   \   000062   0F           INC       R7
   \                     ??HalLedSet_5:
   \   000063   E5..         MOV       A,?V0
   \   000065   60C0         JZ        ??HalLedSet_3
   \   000067   55..         ANL       A,?V1
   \   000069   60EB         JZ        ??HalLedSet_8
   \   00006B   7408         MOV       A,#0x8
   \   00006D   65..         XRL       A,?V2
   \   00006F   8E82         MOV       DPL,R6
   \   000071   8F83         MOV       DPH,R7
   \   000073   60D2         JZ        ??HalLedSet_6
   \   000075   E5..         MOV       A,?V2
   \   000077   80D1         SJMP      ??HalLedSet_7
    197          
    198          }
    199          
    200          /***************************************************************************************************
    201           * @fn      HalLedBlink
    202           *
    203           * @brief   Blink the leds
    204           *
    205           * @param   leds       - bit mask value of leds to be blinked
    206           *          numBlinks  - number of blinks
    207           *          percent    - the percentage in each period where the led
    208           *                       will be on
    209           *          period     - length of each cycle in milliseconds
    210           *
    211           * @return  None
    212           ***************************************************************************************************/

   \                                 In  segment BANKED_CODE, align 1, keep-with-next
    213          void HalLedBlink (uint8 leds, uint8 numBlinks, uint8 percent, uint16 period)
   \                     HalLedBlink:
    214          {
   \   000000                REQUIRE ?V0
   \   000000                REQUIRE ?V1
   \   000000                REQUIRE ?V2
   \   000000                REQUIRE ?V3
   \   000000                REQUIRE ?V4
   \   000000                REQUIRE ?V5
   \   000000   74F2         MOV       A,#-0xe
   \   000002   12....       LCALL     ?BANKED_ENTER_XDATA
   \   000005                ; Saved register size: 14
   \   000005                ; Auto size: 0
   \   000005   89..         MOV       ?V0,R1
   \   000007   8A..         MOV       ?V3,R2
   \   000009   8B..         MOV       ?V2,R3
   \   00000B   8C..         MOV       ?V4,R4
   \   00000D   8D..         MOV       ?V5,R5
    215          #if (defined (BLINK_LEDS)) && (HAL_LED == TRUE)
    216            uint8 led;
    217            HalLedControl_t *sts;
    218          
    219            if (leds && percent && period)
   \   00000F   E9           MOV       A,R1
   \   000010   7003         JNZ       $+5
   \   000012   02....       LJMP      ??HalLedBlink_0 & 0xFFFF
   \   000015   EB           MOV       A,R3
   \   000016   7003         JNZ       $+5
   \   000018   02....       LJMP      ??HalLedBlink_0 & 0xFFFF
   \   00001B   EC           MOV       A,R4
   \   00001C   4D           ORL       A,R5
   \   00001D   7003         JNZ       $+5
   \   00001F   02....       LJMP      ??HalLedBlink_0 & 0xFFFF
    220            {
    221              if (percent < 100)
   \   000022   EB           MOV       A,R3
   \   000023   C3           CLR       C
   \   000024   9464         SUBB      A,#0x64
   \   000026   4003         JC        $+5
   \   000028   02....       LJMP      ??HalLedBlink_1 & 0xFFFF
    222              {
    223                led = HAL_LED_1;
   \   00002B   75..01       MOV       ?V1,#0x1
    224                leds &= HAL_LED_ALL;
   \   00002E   53..03       ANL       ?V0,#0x3
    225                sts = HalLedStatusControl.HalLedControlTable;
   \   000031   7E..         MOV       R6,#HalLedStatusControl & 0xff
   \   000033   7F..         MOV       R7,#(HalLedStatusControl >> 8) & 0xff
   \   000035   8075         SJMP      ??HalLedBlink_2
    226          
    227                while (leds)
    228                {
    229                  if (leds & led)
   \                     ??HalLedBlink_3:
   \   000037   55..         ANL       A,?V1
   \   000039   6064         JZ        ??HalLedBlink_4
    230                  {
    231                    /* Store the current state of the led before going to blinking if not already blinking */
    232                    if(sts->mode < HAL_LED_MODE_BLINK )
   \   00003B   8E82         MOV       DPL,R6
   \   00003D   8F83         MOV       DPH,R7
   \   00003F   E0           MOVX      A,@DPTR
   \   000040   C3           CLR       C
   \   000041   9402         SUBB      A,#0x2
   \   000043   500D         JNC       ??HalLedBlink_5
    233                    	preBlinkState |= (led & HalLedState);
   \   000045   90....       MOV       DPTR,#HalLedState
   \   000048   E0           MOVX      A,@DPTR
   \   000049   55..         ANL       A,?V1
   \   00004B   F8           MOV       R0,A
   \   00004C   90....       MOV       DPTR,#preBlinkState
   \   00004F   E0           MOVX      A,@DPTR
   \   000050   48           ORL       A,R0
   \   000051   F0           MOVX      @DPTR,A
    234          
    235                    sts->mode  = HAL_LED_MODE_OFF;                    /* Stop previous blink */
   \                     ??HalLedBlink_5:
   \   000052   8E82         MOV       DPL,R6
   \   000054   8F83         MOV       DPH,R7
   \   000056   E4           CLR       A
   \   000057   F0           MOVX      @DPTR,A
    236                    sts->time  = period;                              /* Time for one on/off cycle */
   \   000058   A3           INC       DPTR
   \   000059   A3           INC       DPTR
   \   00005A   A3           INC       DPTR
   \   00005B   E5..         MOV       A,?V4
   \   00005D   F0           MOVX      @DPTR,A
   \   00005E   A3           INC       DPTR
   \   00005F   E5..         MOV       A,?V5
   \   000061   F0           MOVX      @DPTR,A
    237                    sts->onPct = percent;                             /* % of cycle LED is on */
   \   000062   8E82         MOV       DPL,R6
   \   000064   8F83         MOV       DPH,R7
   \   000066   A3           INC       DPTR
   \   000067   A3           INC       DPTR
   \   000068   E5..         MOV       A,?V2
   \   00006A   F0           MOVX      @DPTR,A
    238                    sts->todo  = numBlinks;                           /* Number of blink cycles */
   \   00006B   8E82         MOV       DPL,R6
   \   00006D   8F83         MOV       DPH,R7
   \   00006F   A3           INC       DPTR
   \   000070   E5..         MOV       A,?V3
   \   000072   F0           MOVX      @DPTR,A
    239                    if (!numBlinks) sts->mode |= HAL_LED_MODE_FLASH;  /* Continuous */
   \   000073   7007         JNZ       ??HalLedBlink_6
   \   000075   8E82         MOV       DPL,R6
   \   000077   8F83         MOV       DPH,R7
   \   000079   7404         MOV       A,#0x4
   \   00007B   F0           MOVX      @DPTR,A
    240                    sts->next = osal_GetSystemClock();                /* Start now */
   \                     ??HalLedBlink_6:
   \   00007C                ; Setup parameters for call to function osal_GetSystemClock
   \   00007C   12....       LCALL     `??osal_GetSystemClock::?relay`; Banked call to: osal_GetSystemClock
   \   00007F   EA           MOV       A,R2
   \   000080   F8           MOV       R0,A
   \   000081   EB           MOV       A,R3
   \   000082   F9           MOV       R1,A
   \   000083   EC           MOV       A,R4
   \   000084   FA           MOV       R2,A
   \   000085   ED           MOV       A,R5
   \   000086   FB           MOV       R3,A
   \   000087   8E82         MOV       DPL,R6
   \   000089   8F83         MOV       DPH,R7
   \   00008B   A3           INC       DPTR
   \   00008C   A3           INC       DPTR
   \   00008D   A3           INC       DPTR
   \   00008E   A3           INC       DPTR
   \   00008F   A3           INC       DPTR
   \   000090   12....       LCALL     ?XSTORE_R0123
    241                    sts->mode |= HAL_LED_MODE_BLINK;                  /* Enable blinking */
   \   000093   8E82         MOV       DPL,R6
   \   000095   8F83         MOV       DPH,R7
   \   000097   E0           MOVX      A,@DPTR
   \   000098   D2E1         SETB      0xE0 /* A   */.1
   \   00009A   F0           MOVX      @DPTR,A
    242                    leds ^= led;
   \   00009B   E5..         MOV       A,?V1
   \   00009D   62..         XRL       ?V0,A
    243                  }
    244                  led <<= 1;
   \                     ??HalLedBlink_4:
   \   00009F   E5..         MOV       A,?V1
   \   0000A1   C3           CLR       C
   \   0000A2   33           RLC       A
   \   0000A3   F5..         MOV       ?V1,A
    245                  sts++;
   \   0000A5   EE           MOV       A,R6
   \   0000A6   2409         ADD       A,#0x9
   \   0000A8   FE           MOV       R6,A
   \   0000A9   5001         JNC       ??HalLedBlink_2
   \   0000AB   0F           INC       R7
    246                }
   \                     ??HalLedBlink_2:
   \   0000AC   E5..         MOV       A,?V0
   \   0000AE   7087         JNZ       ??HalLedBlink_3
    247                osal_set_event (Hal_TaskID, HAL_LED_BLINK_EVENT);
   \   0000B0                ; Setup parameters for call to function osal_set_event
   \   0000B0   7A02         MOV       R2,#0x2
   \   0000B2   7B00         MOV       R3,#0x0
   \   0000B4   90....       MOV       DPTR,#Hal_TaskID
   \   0000B7   E0           MOVX      A,@DPTR
   \   0000B8   F9           MOV       R1,A
   \   0000B9   12....       LCALL     `??osal_set_event::?relay`; Banked call to: osal_set_event
   \   0000BC   8009         SJMP      ??HalLedBlink_7
    248              }
    249              else
    250              {
    251                HalLedSet (leds, HAL_LED_MODE_ON);                    /* >= 100%, turn on */
   \                     ??HalLedBlink_1:
   \   0000BE                ; Setup parameters for call to function HalLedSet
   \   0000BE   7A01         MOV       R2,#0x1
   \   0000C0   8002         SJMP      ??HalLedBlink_8
    252              }
    253            }
    254            else
    255            {
    256              HalLedSet (leds, HAL_LED_MODE_OFF);                     /* No on time, turn off */
   \                     ??HalLedBlink_0:
   \   0000C2                ; Setup parameters for call to function HalLedSet
   \   0000C2   7A00         MOV       R2,#0x0
   \                     ??HalLedBlink_8:
   \   0000C4   12....       LCALL     `??HalLedSet::?relay`; Banked call to: HalLedSet
    257            }
    258          #elif (HAL_LED == TRUE)
    259            percent = (leds & HalLedState) ? HAL_LED_MODE_OFF : HAL_LED_MODE_ON;
    260            HalLedOnOff (leds, percent);                              /* Toggle */
    261          #else
    262            // HAL LED is disabled, suppress unused argument warnings
    263            (void) leds;
    264            (void) numBlinks;
    265            (void) percent;
    266            (void) period;
    267          #endif /* BLINK_LEDS && HAL_LED */
    268          }
   \                     ??HalLedBlink_7:
   \   0000C7   7F06         MOV       R7,#0x6
   \   0000C9   02....       LJMP      ?BANKED_LEAVE_XDATA
    269          
    270          #if (HAL_LED == TRUE)
    271          /***************************************************************************************************
    272           * @fn      HalLedUpdate
    273           *
    274           * @brief   Update leds to work with blink
    275           *
    276           * @param   none
    277           *
    278           * @return  none
    279           ***************************************************************************************************/

   \                                 In  segment BANKED_CODE, align 1, keep-with-next
    280          void HalLedUpdate (void)
   \                     HalLedUpdate:
    281          {
   \   000000                REQUIRE ?V0
   \   000000                REQUIRE ?V1
   \   000000                REQUIRE ?V2
   \   000000                REQUIRE ?V3
   \   000000                REQUIRE ?V4
   \   000000                REQUIRE ?V5
   \   000000                REQUIRE ?V6
   \   000000                REQUIRE ?V7
   \   000000                REQUIRE ?V8
   \   000000                REQUIRE ?V9
   \   000000                REQUIRE ?V10
   \   000000                REQUIRE ?V11
   \   000000                REQUIRE ?V12
   \   000000                REQUIRE ?V13
   \   000000                REQUIRE ?V14
   \   000000                REQUIRE ?V15
   \   000000   74E8         MOV       A,#-0x18
   \   000002   12....       LCALL     ?BANKED_ENTER_XDATA
   \   000005                ; Saved register size: 24
   \   000005                ; Auto size: 0
    282            uint8 led;
    283            uint8 pct;
    284            uint8 leds;
    285            HalLedControl_t *sts;
    286            uint32 time;
    287            uint16 next;
    288            uint16 wait;
    289          
    290            next = 0;
   \   000005   75..00       MOV       ?V12,#0x0
   \   000008   75..00       MOV       ?V13,#0x0
    291            led  = HAL_LED_1;
   \   00000B   75..01       MOV       ?V14,#0x1
    292            leds = HAL_LED_ALL;
   \   00000E   75..03       MOV       ?V15,#0x3
    293            sts = HalLedStatusControl.HalLedControlTable;
   \   000011   7E..         MOV       R6,#HalLedStatusControl & 0xff
   \   000013   7F..         MOV       R7,#(HalLedStatusControl >> 8) & 0xff
    294          
    295            /* Check if sleep is active or not */
    296            if (!HalLedStatusControl.sleepActive)
   \   000015   90....       MOV       DPTR,#HalLedStatusControl + 36
   \   000018   E0           MOVX      A,@DPTR
   \   000019   6003         JZ        $+5
   \   00001B   02....       LJMP      ??HalLedUpdate_0 & 0xFFFF
    297            {
    298              while (leds)
    299              {
    300                if (leds & led)
   \                     ??HalLedUpdate_1:
   \   00001E   E5..         MOV       A,?V15
   \   000020   55..         ANL       A,?V14
   \   000022   7003         JNZ       $+5
   \   000024   02....       LJMP      ??HalLedUpdate_2 & 0xFFFF
    301                {
    302                  if (sts->mode & HAL_LED_MODE_BLINK)
   \   000027   8E82         MOV       DPL,R6
   \   000029   8F83         MOV       DPH,R7
   \   00002B   E0           MOVX      A,@DPTR
   \   00002C   A2E1         MOV       C,0xE0 /* A   */.1
   \   00002E   4003         JC        $+5
   \   000030   02....       LJMP      ??HalLedUpdate_3 & 0xFFFF
    303                  {
    304                    time = osal_GetSystemClock();
   \   000033                ; Setup parameters for call to function osal_GetSystemClock
   \   000033   12....       LCALL     `??osal_GetSystemClock::?relay`; Banked call to: osal_GetSystemClock
   \   000036   8A..         MOV       ?V4,R2
   \   000038   8B..         MOV       ?V5,R3
   \   00003A   8C..         MOV       ?V6,R4
   \   00003C   8D..         MOV       ?V7,R5
    305                    if (time >= sts->next)
   \   00003E   8E82         MOV       DPL,R6
   \   000040   8F83         MOV       DPH,R7
   \   000042   A3           INC       DPTR
   \   000043   A3           INC       DPTR
   \   000044   A3           INC       DPTR
   \   000045   A3           INC       DPTR
   \   000046   A3           INC       DPTR
   \   000047   78..         MOV       R0,#?V4
   \   000049   12....       LCALL     ?UL_GE_X
   \   00004C   8E82         MOV       DPL,R6
   \   00004E   8F83         MOV       DPH,R7
   \   000050   4003         JC        $+5
   \   000052   02....       LJMP      ??HalLedUpdate_4 & 0xFFFF
    306                    {
    307                      if (sts->mode & HAL_LED_MODE_ON)
   \   000055   E0           MOVX      A,@DPTR
   \   000056   A2E0         MOV       C,0xE0 /* A   */.0
   \   000058   A3           INC       DPTR
   \   000059   A3           INC       DPTR
   \   00005A   E0           MOVX      A,@DPTR
   \   00005B   502F         JNC       ??HalLedUpdate_5
    308                      {
    309                        pct = 100 - sts->onPct;               /* Percentage of cycle for off */
   \   00005D   F8           MOV       R0,A
   \   00005E   7464         MOV       A,#0x64
   \   000060   C3           CLR       C
   \   000061   98           SUBB      A,R0
   \   000062   F5..         MOV       ?V0,A
    310                        sts->mode &= ~HAL_LED_MODE_ON;        /* Say it's not on */
   \   000064   8E82         MOV       DPL,R6
   \   000066   8F83         MOV       DPH,R7
   \   000068   E0           MOVX      A,@DPTR
   \   000069   C2E0         CLR       0xE0 /* A   */.0
   \   00006B   F0           MOVX      @DPTR,A
    311                        HalLedOnOff (led, HAL_LED_MODE_OFF);  /* Turn it off */
   \   00006C                ; Setup parameters for call to function HalLedOnOff
   \   00006C   7A00         MOV       R2,#0x0
   \   00006E   A9..         MOV       R1,?V14
   \   000070   12....       LCALL     `??HalLedOnOff::?relay`; Banked call to: HalLedOnOff
    312          
    313                        if (!(sts->mode & HAL_LED_MODE_FLASH))
   \   000073   8E82         MOV       DPL,R6
   \   000075   8F83         MOV       DPH,R7
   \   000077   E0           MOVX      A,@DPTR
   \   000078   A2E2         MOV       C,0xE0 /* A   */.2
   \   00007A   4021         JC        ??HalLedUpdate_6
    314                        {
    315                          sts->todo--;                        /* Not continuous, reduce count */
   \   00007C   A3           INC       DPTR
   \   00007D   E0           MOVX      A,@DPTR
   \   00007E   14           DEC       A
   \   00007F   F0           MOVX      @DPTR,A
    316                          if (!sts->todo)
   \   000080   701B         JNZ       ??HalLedUpdate_6
    317                          {
    318                            sts->mode ^= HAL_LED_MODE_BLINK;  /* No more blinks */
   \   000082   8E82         MOV       DPL,R6
   \   000084   8F83         MOV       DPH,R7
   \   000086   E0           MOVX      A,@DPTR
   \   000087   6402         XRL       A,#0x2
   \   000089   F0           MOVX      @DPTR,A
   \   00008A   8011         SJMP      ??HalLedUpdate_6
    319                          }
    320                        }
    321                      }
    322                      else
    323                      {
    324                        pct = sts->onPct;                     /* Percentage of cycle for on */
   \                     ??HalLedUpdate_5:
   \   00008C   F5..         MOV       ?V0,A
    325                        sts->mode |= HAL_LED_MODE_ON;         /* Say it's on */
   \   00008E   8E82         MOV       DPL,R6
   \   000090   8F83         MOV       DPH,R7
   \   000092   E0           MOVX      A,@DPTR
   \   000093   D2E0         SETB      0xE0 /* A   */.0
   \   000095   F0           MOVX      @DPTR,A
    326                        HalLedOnOff (led, HAL_LED_MODE_ON);   /* Turn it on */
   \   000096                ; Setup parameters for call to function HalLedOnOff
   \   000096   7A01         MOV       R2,#0x1
   \   000098   A9..         MOV       R1,?V14
   \   00009A   12....       LCALL     `??HalLedOnOff::?relay`; Banked call to: HalLedOnOff
    327                      }
    328          
    329                      if (sts->mode & HAL_LED_MODE_BLINK)
   \                     ??HalLedUpdate_6:
   \   00009D   8E82         MOV       DPL,R6
   \   00009F   8F83         MOV       DPH,R7
   \   0000A1   E0           MOVX      A,@DPTR
   \   0000A2   A2E1         MOV       C,0xE0 /* A   */.1
   \   0000A4   5057         JNC       ??HalLedUpdate_7
    330                      {
    331                        wait = (((uint32)pct * (uint32)sts->time) / 100);
   \   0000A6   E4           CLR       A
   \   0000A7   F5..         MOV       ?V1,A
   \   0000A9   F5..         MOV       ?V2,A
   \   0000AB   F5..         MOV       ?V3,A
   \   0000AD   A3           INC       DPTR
   \   0000AE   A3           INC       DPTR
   \   0000AF   A3           INC       DPTR
   \   0000B0   E0           MOVX      A,@DPTR
   \   0000B1   F5..         MOV       ?V8,A
   \   0000B3   A3           INC       DPTR
   \   0000B4   E0           MOVX      A,@DPTR
   \   0000B5   F5..         MOV       ?V9,A
   \   0000B7   E4           CLR       A
   \   0000B8   F5..         MOV       ?V10,A
   \   0000BA   F5..         MOV       ?V11,A
   \   0000BC   78..         MOV       R0,#?V0
   \   0000BE   79..         MOV       R1,#?V8
   \   0000C0   12....       LCALL     ?L_MUL
   \   0000C3   90....       MOV       DPTR,#__Constant_64
   \   0000C6   78..         MOV       R0,#?V8
   \   0000C8   12....       LCALL     ?L_MOV_X
   \   0000CB   78..         MOV       R0,#?V0
   \   0000CD   79..         MOV       R1,#?V8
   \   0000CF   12....       LCALL     ?UL_DIV_MOD
    332                        sts->next = time + wait;
   \   0000D2   85....       MOV       ?V8,?V0
   \   0000D5   85....       MOV       ?V9,?V1
   \   0000D8   E4           CLR       A
   \   0000D9   F5..         MOV       ?V10,A
   \   0000DB   F5..         MOV       ?V11,A
   \   0000DD   78..         MOV       R0,#?V4
   \   0000DF   79..         MOV       R1,#?V8
   \   0000E1   12....       LCALL     ?L_ADD
   \   0000E4   8E82         MOV       DPL,R6
   \   0000E6   8F83         MOV       DPH,R7
   \   0000E8   A3           INC       DPTR
   \   0000E9   A3           INC       DPTR
   \   0000EA   A3           INC       DPTR
   \   0000EB   A3           INC       DPTR
   \   0000EC   A3           INC       DPTR
   \   0000ED   E5..         MOV       A,?V4
   \   0000EF   F0           MOVX      @DPTR,A
   \   0000F0   A3           INC       DPTR
   \   0000F1   E5..         MOV       A,?V5
   \   0000F3   F0           MOVX      @DPTR,A
   \   0000F4   A3           INC       DPTR
   \   0000F5   E5..         MOV       A,?V6
   \   0000F7   F0           MOVX      @DPTR,A
   \   0000F8   A3           INC       DPTR
   \   0000F9   E5..         MOV       A,?V7
   \   0000FB   8023         SJMP      ??HalLedUpdate_8
    333                      }
    334                      else
    335                      {
    336                        /* no more blink, no more wait */
    337                        wait = 0;
   \                     ??HalLedUpdate_7:
   \   0000FD   75..00       MOV       ?V0,#0x0
   \   000100   75..00       MOV       ?V1,#0x0
    338                        /* After blinking, set the LED back to the state before it blinks */
    339                        HalLedSet (led, ((preBlinkState & led)!=0)?HAL_LED_MODE_ON:HAL_LED_MODE_OFF);
   \   000103   90....       MOV       DPTR,#preBlinkState
   \   000106   E0           MOVX      A,@DPTR
   \   000107   55..         ANL       A,?V14
   \   000109   6004         JZ        ??HalLedUpdate_9
   \   00010B   7A01         MOV       R2,#0x1
   \   00010D   8002         SJMP      ??HalLedUpdate_10
   \                     ??HalLedUpdate_9:
   \   00010F   7A00         MOV       R2,#0x0
   \                     ??HalLedUpdate_10:
   \   000111                ; Setup parameters for call to function HalLedSet
   \   000111   A9..         MOV       R1,?V14
   \   000113   12....       LCALL     `??HalLedSet::?relay`; Banked call to: HalLedSet
    340                        /* Clear the saved bit */
    341                        preBlinkState &= (led ^ 0xFF);
   \   000116   74FF         MOV       A,#-0x1
   \   000118   65..         XRL       A,?V14
   \   00011A   F8           MOV       R0,A
   \   00011B   90....       MOV       DPTR,#preBlinkState
   \   00011E   E0           MOVX      A,@DPTR
   \   00011F   58           ANL       A,R0
   \                     ??HalLedUpdate_8:
   \   000120   F0           MOVX      @DPTR,A
   \   000121   8017         SJMP      ??HalLedUpdate_11
    342                      }
    343                    }
    344                    else
    345                    {
    346                      wait = sts->next - time;  /* Time left */
   \                     ??HalLedUpdate_4:
   \   000123   A3           INC       DPTR
   \   000124   A3           INC       DPTR
   \   000125   A3           INC       DPTR
   \   000126   A3           INC       DPTR
   \   000127   A3           INC       DPTR
   \   000128   78..         MOV       R0,#?V0
   \   00012A   12....       LCALL     ?L_MOV_X
   \   00012D   E5..         MOV       A,?V0
   \   00012F   C3           CLR       C
   \   000130   95..         SUBB      A,?V4
   \   000132   F5..         MOV       ?V0,A
   \   000134   E5..         MOV       A,?V1
   \   000136   95..         SUBB      A,?V5
   \   000138   F5..         MOV       ?V1,A
    347                    }
    348          
    349                    if (!next || ( wait && (wait < next) ))
   \                     ??HalLedUpdate_11:
   \   00013A   E5..         MOV       A,?V12
   \   00013C   45..         ORL       A,?V13
   \   00013E   6011         JZ        ??HalLedUpdate_12
   \   000140   E5..         MOV       A,?V0
   \   000142   45..         ORL       A,?V1
   \   000144   6011         JZ        ??HalLedUpdate_3
   \   000146   C3           CLR       C
   \   000147   E5..         MOV       A,?V0
   \   000149   95..         SUBB      A,?V12
   \   00014B   E5..         MOV       A,?V1
   \   00014D   95..         SUBB      A,?V13
   \   00014F   5006         JNC       ??HalLedUpdate_3
    350                    {
    351                      next = wait;
   \                     ??HalLedUpdate_12:
   \   000151   85....       MOV       ?V12,?V0
   \   000154   85....       MOV       ?V13,?V1
    352                    }
    353                  }
    354                  leds ^= led;
   \                     ??HalLedUpdate_3:
   \   000157   E5..         MOV       A,?V14
   \   000159   62..         XRL       ?V15,A
    355                }
    356                led <<= 1;
   \                     ??HalLedUpdate_2:
   \   00015B   E5..         MOV       A,?V14
   \   00015D   C3           CLR       C
   \   00015E   33           RLC       A
   \   00015F   F5..         MOV       ?V14,A
    357                sts++;
   \   000161   EE           MOV       A,R6
   \   000162   2409         ADD       A,#0x9
   \   000164   FE           MOV       R6,A
   \   000165   5001         JNC       ??HalLedUpdate_13
   \   000167   0F           INC       R7
    358              }
   \                     ??HalLedUpdate_13:
   \   000168   E5..         MOV       A,?V15
   \   00016A   6003         JZ        $+5
   \   00016C   02....       LJMP      ??HalLedUpdate_1 & 0xFFFF
    359          
    360              if (next)
   \   00016F   E5..         MOV       A,?V12
   \   000171   45..         ORL       A,?V13
   \   000173   6010         JZ        ??HalLedUpdate_0
    361              {
    362                osal_start_timerEx(Hal_TaskID, HAL_LED_BLINK_EVENT, next);   /* Schedule event */
   \   000175                ; Setup parameters for call to function osal_start_timerEx
   \   000175   AC..         MOV       R4,?V12
   \   000177   AD..         MOV       R5,?V13
   \   000179   7A02         MOV       R2,#0x2
   \   00017B   7B00         MOV       R3,#0x0
   \   00017D   90....       MOV       DPTR,#Hal_TaskID
   \   000180   E0           MOVX      A,@DPTR
   \   000181   F9           MOV       R1,A
   \   000182   12....       LCALL     `??osal_start_timerEx::?relay`; Banked call to: osal_start_timerEx
    363              }
    364            }
    365          }
   \                     ??HalLedUpdate_0:
   \   000185   7F10         MOV       R7,#0x10
   \   000187   02....       LJMP      ?BANKED_LEAVE_XDATA
    366          
    367          /***************************************************************************************************
    368           * @fn      HalLedOnOff
    369           *
    370           * @brief   Turns specified LED ON or OFF
    371           *
    372           * @param   leds - LED bit mask
    373           *          mode - LED_ON,LED_OFF,
    374           *
    375           * @return  none
    376           ***************************************************************************************************/

   \                                 In  segment BANKED_CODE, align 1, keep-with-next
    377          void HalLedOnOff (uint8 leds, uint8 mode)
   \                     HalLedOnOff:
    378          {
   \   000000   C082         PUSH      DPL
   \   000002   C083         PUSH      DPH
   \   000004                ; Saved register size: 2
   \   000004                ; Auto size: 0
    379            if (leds & HAL_LED_1)
   \   000004   E9           MOV       A,R1
   \   000005   A2E0         MOV       C,0xE0 /* A   */.0
   \   000007   500B         JNC       ??HalLedOnOff_0
    380            {
    381              if (mode == HAL_LED_MODE_ON)
   \   000009   7401         MOV       A,#0x1
   \   00000B   6A           XRL       A,R2
   \   00000C   7004         JNZ       ??HalLedOnOff_1
    382              {
    383                HAL_TURN_ON_LED1();
   \   00000E   C2A0         CLR       0xa0.0
   \   000010   8002         SJMP      ??HalLedOnOff_0
    384              }
    385              else
    386              {
    387                HAL_TURN_OFF_LED1();
   \                     ??HalLedOnOff_1:
   \   000012   D2A0         SETB      0xa0.0
    388              }
    389            }
    390          
    391            if (leds & HAL_LED_2)
   \                     ??HalLedOnOff_0:
   \   000014   E9           MOV       A,R1
   \   000015   A2E1         MOV       C,0xE0 /* A   */.1
   \   000017   500B         JNC       ??HalLedOnOff_2
    392            {
    393              if (mode == HAL_LED_MODE_ON)
   \   000019   7401         MOV       A,#0x1
   \   00001B   6A           XRL       A,R2
   \   00001C   7004         JNZ       ??HalLedOnOff_3
    394              {
    395                HAL_TURN_ON_LED2();
   \   00001E   C291         CLR       0x90.1
   \   000020   8005         SJMP      ??HalLedOnOff_4
    396              }
    397              else
    398              {
    399                HAL_TURN_OFF_LED2();
   \                     ??HalLedOnOff_3:
   \   000022   D291         SETB      0x90.1
    400              }
    401            }
    402          #if 0
    403            if (leds & HAL_LED_3)
    404            {
    405              if (mode == HAL_LED_MODE_ON)
    406              {
    407                HAL_TURN_ON_LED3();
    408              }
    409              else
    410              {
    411                HAL_TURN_OFF_LED3();
    412              }
    413            }
    414          
    415            if (leds & HAL_LED_4)
    416            {
    417              if (mode == HAL_LED_MODE_ON)
    418              {
    419                HAL_TURN_ON_LED4();
    420              }
    421              else
    422              {
    423                HAL_TURN_OFF_LED4();
    424              }
    425            }
    426          #endif
    427            /* Remember current state */
    428            if (mode)
   \                     ??HalLedOnOff_2:
   \   000024   EA           MOV       A,R2
   \   000025   6007         JZ        ??HalLedOnOff_5
    429            {
    430              HalLedState |= leds;
   \                     ??HalLedOnOff_4:
   \   000027   90....       MOV       DPTR,#HalLedState
   \   00002A   E0           MOVX      A,@DPTR
   \   00002B   49           ORL       A,R1
   \   00002C   8009         SJMP      ??HalLedOnOff_6
    431            }
    432            else
    433            {
    434              HalLedState &= (leds ^ 0xFF);
   \                     ??HalLedOnOff_5:
   \   00002E   74FF         MOV       A,#-0x1
   \   000030   69           XRL       A,R1
   \   000031   F8           MOV       R0,A
   \   000032   90....       MOV       DPTR,#HalLedState
   \   000035   E0           MOVX      A,@DPTR
   \   000036   58           ANL       A,R0
    435            }
   \                     ??HalLedOnOff_6:
   \   000037   80..         SJMP      ??Subroutine1_0
   \   000039                REQUIRE _A_P2
   \   000039                REQUIRE _A_P1
    436          }
    437          #endif /* HAL_LED */
    438          
    439          /***************************************************************************************************
    440           * @fn      HalGetLedState
    441           *
    442           * @brief   Dim LED2 - Dim (set level) of LED2
    443           *
    444           * @param   none
    445           *
    446           * @return  led state
    447           ***************************************************************************************************/

   \                                 In  segment BANKED_CODE, align 1, keep-with-next
    448          uint8 HalLedGetState ()
   \                     HalLedGetState:
    449          {
   \   000000   C082         PUSH      DPL
   \   000002   C083         PUSH      DPH
   \   000004                ; Saved register size: 2
   \   000004                ; Auto size: 0
    450          #if (HAL_LED == TRUE)
    451            return HalLedState;
   \   000004   90....       MOV       DPTR,#HalLedState
   \   000007   E0           MOVX      A,@DPTR
   \   000008   F9           MOV       R1,A
   \   000009   80..         SJMP      ??Subroutine2_0
    452          #else
    453            return 0;
    454          #endif
    455          }
    456          
    457          /***************************************************************************************************
    458           * @fn      HalLedEnterSleep
    459           *
    460           * @brief   Store current LEDs state before sleep
    461           *
    462           * @param   none
    463           *
    464           * @return  none
    465           ***************************************************************************************************/

   \                                 In  segment BANKED_CODE, align 1, keep-with-next
    466          void HalLedEnterSleep( void )
   \                     HalLedEnterSleep:
    467          {
   \   000000   C082         PUSH      DPL
   \   000002   C083         PUSH      DPH
   \   000004                ; Saved register size: 2
   \   000004                ; Auto size: 0
    468          #ifdef BLINK_LEDS
    469            /* Sleep ON */
    470            HalLedStatusControl.sleepActive = TRUE;
   \   000004   90....       MOV       DPTR,#HalLedStatusControl + 36
   \   000007   7401         MOV       A,#0x1
   \   000009   F0           MOVX      @DPTR,A
    471          #endif /* BLINK_LEDS */
    472          
    473          #if (HAL_LED == TRUE)
    474            /* Save the state of each led */
    475            HalSleepLedState = 0;
    476            HalSleepLedState |= HAL_STATE_LED1();
   \   00000A   ABA0         MOV       R3,0xa0+0x0
    477            HalSleepLedState |= HAL_STATE_LED2() << 1;
   \   00000C   AA90         MOV       R2,0x90+0x0
    478            HalSleepLedState |= HAL_STATE_LED3() << 2;
   \   00000E   A990         MOV       R1,0x90+0x0
    479            HalSleepLedState |= HAL_STATE_LED4() << 3;
   \   000010   A8A0         MOV       R0,0xa0+0x0
   \   000012   E9           MOV       A,R1
   \   000013   A2E4         MOV       C,0xE0 /* A   */.4
   \   000015   5004         JNC       ??HalLedEnterSleep_0
   \   000017   D2F0         SETB      B.0
   \   000019   8002         SJMP      ??HalLedEnterSleep_1
   \                     ??HalLedEnterSleep_0:
   \   00001B   C2F0         CLR       B.0
   \                     ??HalLedEnterSleep_1:
   \   00001D   E8           MOV       A,R0
   \   00001E   A2E0         MOV       C,0xE0 /* A   */.0
   \   000020   E4           CLR       A
   \   000021   33           RLC       A
   \   000022   33           RLC       A
   \   000023   33           RLC       A
   \   000024   33           RLC       A
   \   000025   6408         XRL       A,#0x8
   \   000027   F9           MOV       R1,A
   \   000028   A2F0         MOV       C,B.0
   \   00002A   E4           CLR       A
   \   00002B   33           RLC       A
   \   00002C   33           RLC       A
   \   00002D   33           RLC       A
   \   00002E   F8           MOV       R0,A
   \   00002F   7402         MOV       A,#0x2
   \   000031   6A           XRL       A,R2
   \   000032   5402         ANL       A,#0x2
   \   000034   FA           MOV       R2,A
   \   000035   D2F0         SETB      B.0
   \   000037   EB           MOV       A,R3
   \   000038   A2E0         MOV       C,0xE0 /* A   */.0
   \   00003A   30F001       JNB       B.0,??HalLedEnterSleep_2
   \   00003D   B3           CPL       C
   \                     ??HalLedEnterSleep_2:
   \   00003E   E4           CLR       A
   \   00003F   33           RLC       A
   \   000040   4A           ORL       A,R2
   \   000041   48           ORL       A,R0
   \   000042   49           ORL       A,R1
   \   000043   90....       MOV       DPTR,#HalSleepLedState
   \   000046   F0           MOVX      @DPTR,A
    480          
    481            /* TURN OFF all LEDs to save power */
    482            HalLedOnOff (HAL_LED_ALL, HAL_LED_MODE_OFF);
   \   000047                ; Setup parameters for call to function HalLedOnOff
   \   000047   7A00         MOV       R2,#0x0
   \   000049   7903         MOV       R1,#0x3
   \   00004B   12....       LCALL     `??HalLedOnOff::?relay`; Banked call to: HalLedOnOff
    483          #endif /* HAL_LED */
    484          
    485          }
   \   00004E   80..         SJMP      ??Subroutine2_0
   \   000050                REQUIRE _A_P2
   \   000050                REQUIRE _A_P1
    486          
    487          /***************************************************************************************************
    488           * @fn      HalLedExitSleep
    489           *
    490           * @brief   Restore current LEDs state after sleep
    491           *
    492           * @param   none
    493           *
    494           * @return  none
    495           ***************************************************************************************************/

   \                                 In  segment BANKED_CODE, align 1, keep-with-next
    496          void HalLedExitSleep( void )
   \                     HalLedExitSleep:
    497          {
   \   000000   C082         PUSH      DPL
   \   000002   C083         PUSH      DPH
   \   000004                ; Saved register size: 2
   \   000004                ; Auto size: 0
    498          #if (HAL_LED == TRUE)
    499            /* Load back the saved state */
    500            HalLedOnOff(HalSleepLedState, HAL_LED_MODE_ON);
   \   000004                ; Setup parameters for call to function HalLedOnOff
   \   000004   7A01         MOV       R2,#0x1
   \   000006   90....       MOV       DPTR,#HalSleepLedState
   \   000009   E0           MOVX      A,@DPTR
   \   00000A   F9           MOV       R1,A
   \   00000B   12....       LCALL     `??HalLedOnOff::?relay`; Banked call to: HalLedOnOff
    501          
    502            /* Restart - This takes care BLINKING LEDS */
    503            HalLedUpdate();
   \   00000E                ; Setup parameters for call to function HalLedUpdate
   \   00000E   12....       LCALL     `??HalLedUpdate::?relay`; Banked call to: HalLedUpdate
    504          #endif /* HAL_LED */
    505          
    506          #ifdef BLINK_LEDS
    507            /* Sleep OFF */
    508            HalLedStatusControl.sleepActive = FALSE;
   \   000011   80..         SJMP      ?Subroutine0
    509          #endif /* BLINK_LEDS */
    510          }

   \                                 In  segment XDATA_ROM_C, align 1
   \                     __Constant_64:
   \   000000   64000000     DD 100
    511          
    512          /***************************************************************************************************
    513          ***************************************************************************************************/
    514          
    515          
    516          
    517          

   Maximum stack usage in bytes:

   ISTACK XSTACK Function
   ------ ------ --------
      1     25   HalLedBlink
        0     14   -> HalLedSet
        0     14   -> osal_GetSystemClock
        0     14   -> osal_set_event
      2      0   HalLedEnterSleep
        2      0   -> HalLedOnOff
      2      0   HalLedExitSleep
        2      0   -> HalLedOnOff
        2      0   -> HalLedUpdate
      2      0   HalLedGetState
      2      0   HalLedInit
        2      0   -> HalLedSet
      2     24   HalLedOnOff
      1     35   HalLedSet
        0     11   -> HalLedBlink
        0     11   -> HalLedOnOff
      0     24   HalLedUpdate
        0     24   -> HalLedOnOff
        0     24   -> HalLedSet
        0     24   -> osal_GetSystemClock
        0     24   -> osal_start_timerEx


   Segment part sizes:

   Bytes  Function/Label
   -----  --------------
       1  ??Subroutine1_0
       7  ??Subroutine2_0
       4  ?Subroutine0
     204  HalLedBlink
      80  HalLedEnterSleep
      19  HalLedExitSleep
      11  HalLedGetState
      14  HalLedInit
      57  HalLedOnOff
     121  HalLedSet
       1  HalLedState
      37  HalLedStatusControl
     394  HalLedUpdate
       1  HalSleepLedState
       1  _A_P1
       1  _A_P2
       4  __Constant_64
       1  preBlinkState
      48  -- Other

 
 912 bytes in segment BANKED_CODE
  48 bytes in segment BANK_RELAYS
   2 bytes in segment SFR_AN
   4 bytes in segment XDATA_ROM_C
  40 bytes in segment XDATA_Z
 
  48 bytes of CODE     memory
   0 bytes of CONST    memory (+ 4 bytes shared)
   0 bytes of DATA     memory (+ 2 bytes shared)
 912 bytes of HUGECODE memory
  40 bytes of XDATA    memory

Errors: none
Warnings: none
