///////////////////////////////////////////////////////////////////////////////
//
// IAR C/C++ Compiler V10.30.1.6000 for 8051              23/Apr/2019  16:49:30
// Copyright 2004-2018 IAR Systems AB.
// PC-locked license - IAR Embedded Workbench for 8051
//
//    Core               =  plain
//    Code model         =  banked
//    Data model         =  large
//    Calling convention =  xdata reentrant
//    Constant location  =  data_rom
//    Dptr setup         =  1,16
//                          
//    Source file        =  
//        E:\qq下载文件\结课作业\ZigBee\实验指导书\实验指导书\Code\Cap2_ZStack\ZStack-CC2530-r200\ZStack-CC2530-r200\Components\hal\target\CC2530EB\hal_led.c
//    Command line       =  
//        -f C:\Users\VULCAN\AppData\Local\Temp\EWDC05.tmp
//        (E:\qq下载文件\结课作业\ZigBee\实验指导书\实验指导书\Code\Cap2_ZStack\ZStack-CC2530-r200\ZStack-CC2530-r200\Components\hal\target\CC2530EB\hal_led.c
//        -D NWK_AUTO_POLL -D ZTOOL_P1 -D MT_TASK -D xMT_SYS_FUNC -D
//        MT_ZDO_FUNC -D SAPP_ZSTACK_DEMO -lC
//        E:\qq下载文件\结课作业\ZigBee\实验指导书\实验指导书\Code\Cap2_ZStack\ZStack-CC2530-r200\ZStack-CC2530-r200\Projects\SappWsn\Demo\List
//        -lA
//        E:\qq下载文件\结课作业\ZigBee\实验指导书\实验指导书\Code\Cap2_ZStack\ZStack-CC2530-r200\ZStack-CC2530-r200\Projects\SappWsn\Demo\List
//        --diag_suppress Pe001,Pa010 -o
//        E:\qq下载文件\结课作业\ZigBee\实验指导书\实验指导书\Code\Cap2_ZStack\ZStack-CC2530-r200\ZStack-CC2530-r200\Projects\SappWsn\Demo\Obj
//        -e --debug --core=plain --dptr=16,1 --data_model=large
//        --code_model=banked --calling_convention=xdata_reentrant
//        --place_constants=data_rom --nr_virtual_regs 16 -f
//        E:\qq下载文件\结课作业\ZigBee\实验指导书\实验指导书\Code\Cap2_ZStack\ZStack-CC2530-r200\ZStack-CC2530-r200\Projects\SappWsn\..\zstack\Tools\CC2530DB\f8wEndev.cfg
//        (-DCPU32MHZ -DROOT=__near_func -DMAC_CFG_TX_DATA_MAX=3
//        -DMAC_CFG_TX_MAX=6 -DMAC_CFG_RX_MAX=3) -f
//        E:\qq下载文件\结课作业\ZigBee\实验指导书\实验指导书\Code\Cap2_ZStack\ZStack-CC2530-r200\ZStack-CC2530-r200\Projects\SappWsn\..\zstack\Tools\CC2530DB\f8wConfig.cfg
//        (-DZIGBEEPRO -DSECURE=0 -DZG_SECURE_DYNAMIC=0 -DREFLECTOR
//        -DDEFAULT_CHANLIST=0x00000800 -DZDAPP_CONFIG_PAN_ID=0x0056
//        -DNWK_START_DELAY=100 -DEXTENDED_JOINING_RANDOM_MASK=0x007F
//        -DBEACON_REQUEST_DELAY=100 -DBEACON_REQ_DELAY_MASK=0x00FF
//        -DLINK_STATUS_JITTER_MASK=0x007F -DROUTE_EXPIRY_TIME=30
//        -DAPSC_ACK_WAIT_DURATION_POLLED=3000 -DNWK_INDIRECT_MSG_TIMEOUT=7
//        -DMAX_RREQ_ENTRIES=8 -DAPSC_MAX_FRAME_RETRIES=3
//        -DNWK_MAX_DATA_RETRIES=2 -DMAX_POLL_FAILURE_RETRIES=2 -DMAX_BCAST=9
//        -DAPS_MAX_GROUPS=16 -DMAX_RTG_ENTRIES=40 -DNWK_MAX_BINDING_ENTRIES=4
//        -DMAX_BINDING_CLUSTER_IDS=4 "-DDEFAULT_KEY={0x01, 0x03, 0x05, 0x07,
//        0x09, 0x0B, 0x0D, 0x0F, 0x00, 0x02, 0x04, 0x06, 0x08, 0x0A, 0x0C,
//        0x0D}" -DMAC_MAX_FRAME_SIZE=116 -DZDNWKMGR_MIN_TRANSMISSIONS=20
//        "-DCONST=const __code" -DGENERIC=__generic -DRFD_RCVC_ALWAYS_ON=FALSE
//        -DPOLL_RATE=1000 -DQUEUED_POLL_RATE=100 -DRESPONSE_POLL_RATE=100
//        -DREJOIN_POLL_RATE=440) -I
//        E:\qq下载文件\结课作业\ZigBee\实验指导书\实验指导书\Code\Cap2_ZStack\ZStack-CC2530-r200\ZStack-CC2530-r200\Projects\SappWsn\
//        -I
//        E:\qq下载文件\结课作业\ZigBee\实验指导书\实验指导书\Code\Cap2_ZStack\ZStack-CC2530-r200\ZStack-CC2530-r200\Projects\SappWsn\Source\
//        -I
//        E:\qq下载文件\结课作业\ZigBee\实验指导书\实验指导书\Code\Cap2_ZStack\ZStack-CC2530-r200\ZStack-CC2530-r200\Projects\SappWsn\..\zstack\ZMain\TI2530DB\
//        -I
//        E:\qq下载文件\结课作业\ZigBee\实验指导书\实验指导书\Code\Cap2_ZStack\ZStack-CC2530-r200\ZStack-CC2530-r200\Projects\SappWsn\..\..\Components\hal\include\
//        -I
//        E:\qq下载文件\结课作业\ZigBee\实验指导书\实验指导书\Code\Cap2_ZStack\ZStack-CC2530-r200\ZStack-CC2530-r200\Projects\SappWsn\..\..\Components\hal\target\CC2530EB\
//        -I
//        E:\qq下载文件\结课作业\ZigBee\实验指导书\实验指导书\Code\Cap2_ZStack\ZStack-CC2530-r200\ZStack-CC2530-r200\Projects\SappWsn\..\..\Components\mac\include\
//        -I
//        E:\qq下载文件\结课作业\ZigBee\实验指导书\实验指导书\Code\Cap2_ZStack\ZStack-CC2530-r200\ZStack-CC2530-r200\Projects\SappWsn\..\..\Components\mac\high_level\
//        -I
//        E:\qq下载文件\结课作业\ZigBee\实验指导书\实验指导书\Code\Cap2_ZStack\ZStack-CC2530-r200\ZStack-CC2530-r200\Projects\SappWsn\..\..\Components\mac\low_level\srf04\
//        -I
//        E:\qq下载文件\结课作业\ZigBee\实验指导书\实验指导书\Code\Cap2_ZStack\ZStack-CC2530-r200\ZStack-CC2530-r200\Projects\SappWsn\..\..\Components\mac\low_level\srf04\single_chip\
//        -I
//        E:\qq下载文件\结课作业\ZigBee\实验指导书\实验指导书\Code\Cap2_ZStack\ZStack-CC2530-r200\ZStack-CC2530-r200\Projects\SappWsn\..\..\Components\mt\
//        -I
//        E:\qq下载文件\结课作业\ZigBee\实验指导书\实验指导书\Code\Cap2_ZStack\ZStack-CC2530-r200\ZStack-CC2530-r200\Projects\SappWsn\..\..\Components\osal\include\
//        -I
//        E:\qq下载文件\结课作业\ZigBee\实验指导书\实验指导书\Code\Cap2_ZStack\ZStack-CC2530-r200\ZStack-CC2530-r200\Projects\SappWsn\..\..\Components\services\saddr\
//        -I
//        E:\qq下载文件\结课作业\ZigBee\实验指导书\实验指导书\Code\Cap2_ZStack\ZStack-CC2530-r200\ZStack-CC2530-r200\Projects\SappWsn\..\..\Components\services\sdata\
//        -I
//        E:\qq下载文件\结课作业\ZigBee\实验指导书\实验指导书\Code\Cap2_ZStack\ZStack-CC2530-r200\ZStack-CC2530-r200\Projects\SappWsn\..\..\Components\stack\af\
//        -I
//        E:\qq下载文件\结课作业\ZigBee\实验指导书\实验指导书\Code\Cap2_ZStack\ZStack-CC2530-r200\ZStack-CC2530-r200\Projects\SappWsn\..\..\Components\stack\nwk\
//        -I
//        E:\qq下载文件\结课作业\ZigBee\实验指导书\实验指导书\Code\Cap2_ZStack\ZStack-CC2530-r200\ZStack-CC2530-r200\Projects\SappWsn\..\..\Components\stack\sapi\
//        -I
//        E:\qq下载文件\结课作业\ZigBee\实验指导书\实验指导书\Code\Cap2_ZStack\ZStack-CC2530-r200\ZStack-CC2530-r200\Projects\SappWsn\..\..\Components\stack\sec\
//        -I
//        E:\qq下载文件\结课作业\ZigBee\实验指导书\实验指导书\Code\Cap2_ZStack\ZStack-CC2530-r200\ZStack-CC2530-r200\Projects\SappWsn\..\..\Components\stack\sys\
//        -I
//        E:\qq下载文件\结课作业\ZigBee\实验指导书\实验指导书\Code\Cap2_ZStack\ZStack-CC2530-r200\ZStack-CC2530-r200\Projects\SappWsn\..\..\Components\stack\zdo\
//        -I
//        E:\qq下载文件\结课作业\ZigBee\实验指导书\实验指导书\Code\Cap2_ZStack\ZStack-CC2530-r200\ZStack-CC2530-r200\Projects\SappWsn\..\..\Components\zmac\
//        -I
//        E:\qq下载文件\结课作业\ZigBee\实验指导书\实验指导书\Code\Cap2_ZStack\ZStack-CC2530-r200\ZStack-CC2530-r200\Projects\SappWsn\..\..\Components\zmac\f8w\
//        -Ohz --require_prototypes --no_code_motion)
//    Locale             =  Chinese (Simplified)_CHN.936
//    List file          =  
//        E:\qq下载文件\结课作业\ZigBee\实验指导书\实验指导书\Code\Cap2_ZStack\ZStack-CC2530-r200\ZStack-CC2530-r200\Projects\SappWsn\Demo\List\hal_led.s51
//
///////////////////////////////////////////////////////////////////////////////

        NAME hal_led

        RTMODEL "__SystemLibrary", "CLib"
        RTMODEL "__calling_convention", "xdata_reentrant"
        RTMODEL "__code_model", "banked"
        RTMODEL "__core", "plain"
        RTMODEL "__data_model", "large"
        RTMODEL "__dptr_size", "16"
        RTMODEL "__extended_stack", "disabled"
        RTMODEL "__location_for_constants", "data"
        RTMODEL "__number_of_dptrs", "1"
        RTMODEL "__register_banks", "*"
        RTMODEL "__rt_version", "1"

        RSEG DOVERLAY:DATA:NOROOT(0)
        RSEG IOVERLAY:IDATA:NOROOT(0)
        RSEG ISTACK:IDATA:NOROOT(0)
        RSEG PSTACK:XDATA:NOROOT(0)
        RSEG XSTACK:XDATA:NOROOT(0)

        EXTERN ?V0
        EXTERN ?V1
        EXTERN ?V2
        EXTERN ?V3
        EXTERN ?V4
        EXTERN ?V5
        EXTERN ?V6
        EXTERN ?V7
        EXTERN ?V8
        EXTERN ?V9
        EXTERN ?V10
        EXTERN ?V11
        EXTERN ?V12
        EXTERN ?V13
        EXTERN ?V14
        EXTERN ?V15
        EXTERN ?BANKED_ENTER_XDATA
        EXTERN ?BANKED_LEAVE_XDATA
        EXTERN ?BDISPATCH
        EXTERN ?BRET
        EXTERN ?L_ADD
        EXTERN ?L_MOV_X
        EXTERN ?L_MUL
        EXTERN ?UL_DIV_MOD
        EXTERN ?UL_GE_X
        EXTERN ?XSTORE_R0123
        EXTERN __INIT_XDATA_Z

        PUBLIC `??HalLedBlink::?relay`
        FUNCTION `??HalLedBlink::?relay`,0203H
        PUBLIC `??HalLedEnterSleep::?relay`
        FUNCTION `??HalLedEnterSleep::?relay`,0203H
        PUBLIC `??HalLedExitSleep::?relay`
        FUNCTION `??HalLedExitSleep::?relay`,0203H
        PUBLIC `??HalLedGetState::?relay`
        FUNCTION `??HalLedGetState::?relay`,0203H
        PUBLIC `??HalLedInit::?relay`
        FUNCTION `??HalLedInit::?relay`,0203H
        PUBLIC `??HalLedOnOff::?relay`
        FUNCTION `??HalLedOnOff::?relay`,0203H
        PUBLIC `??HalLedSet::?relay`
        FUNCTION `??HalLedSet::?relay`,0203H
        PUBLIC `??HalLedUpdate::?relay`
        FUNCTION `??HalLedUpdate::?relay`,0203H
        PUBLIC HalLedBlink
        FUNCTION HalLedBlink,0a1203H
        ARGFRAME XSTACK, 11, STACK
        ARGFRAME IOVERLAY, 0, STATIC
        ARGFRAME DOVERLAY, 0, STATIC
        LOCFRAME ISTACK, 1, STACK
        LOCFRAME XSTACK, 14, STACK
        PUBLIC HalLedEnterSleep
        FUNCTION HalLedEnterSleep,021203H
        ARGFRAME XSTACK, 0, STACK
        LOCFRAME ISTACK, 2, STACK
        PUBLIC HalLedExitSleep
        FUNCTION HalLedExitSleep,021203H
        ARGFRAME XSTACK, 0, STACK
        LOCFRAME ISTACK, 2, STACK
        PUBLIC HalLedGetState
        FUNCTION HalLedGetState,0203H
        ARGFRAME XSTACK, 0, STACK
        LOCFRAME ISTACK, 2, STACK
        PUBLIC HalLedInit
        FUNCTION HalLedInit,021203H
        ARGFRAME XSTACK, 0, STACK
        LOCFRAME ISTACK, 2, STACK
        PUBLIC HalLedOnOff
        FUNCTION HalLedOnOff,0203H
        ARGFRAME XSTACK, 24, STACK
        ARGFRAME IOVERLAY, 0, STATIC
        ARGFRAME DOVERLAY, 0, STATIC
        LOCFRAME ISTACK, 2, STACK
        PUBLIC HalLedSet
        FUNCTION HalLedSet,0a1203H
        ARGFRAME XSTACK, 24, STACK
        ARGFRAME IOVERLAY, 0, STATIC
        ARGFRAME DOVERLAY, 0, STATIC
        LOCFRAME ISTACK, 1, STACK
        LOCFRAME XSTACK, 11, STACK
        PUBLIC HalLedUpdate
        FUNCTION HalLedUpdate,0a1203H
        ARGFRAME XSTACK, 0, STACK
        ARGFRAME IOVERLAY, 0, STATIC
        ARGFRAME DOVERLAY, 0, STATIC
        LOCFRAME XSTACK, 24, STACK
        PUBWEAK _A_P1
        PUBWEAK _A_P2
        PUBWEAK __Constant_64
        
          CFI Names cfiNames0
          CFI StackFrame CFA_SP SP IDATA
          CFI StackFrame CFA_PSP16 PSP16 XDATA
          CFI StackFrame CFA_XSP16 XSP16 XDATA
          CFI StaticOverlayFrame CFA_IOVERLAY IOVERLAY
          CFI StaticOverlayFrame CFA_DOVERLAY DOVERLAY
          CFI Resource `PSW.CY`:1, `B.BR0`:1, `B.BR1`:1, `B.BR2`:1, `B.BR3`:1
          CFI Resource `B.BR4`:1, `B.BR5`:1, `B.BR6`:1, `B.BR7`:1, `VB.BR8`:1
          CFI Resource `VB.BR9`:1, `VB.BR10`:1, `VB.BR11`:1, `VB.BR12`:1
          CFI Resource `VB.BR13`:1, `VB.BR14`:1, `VB.BR15`:1, VB:8, B:8, A:8
          CFI Resource PSW:8, DPL0:8, DPH0:8, R0:8, R1:8, R2:8, R3:8, R4:8, R5:8
          CFI Resource R6:8, R7:8, V0:8, V1:8, V2:8, V3:8, V4:8, V5:8, V6:8, V7:8
          CFI Resource V8:8, V9:8, V10:8, V11:8, V12:8, V13:8, V14:8, V15:8, SP:8
          CFI Resource PSPH:8, PSPL:8, PSP16:16, XSPH:8, XSPL:8, XSP16:16
          CFI VirtualResource ?RET:24
          CFI Resource ?BRET_EXT:8
          CFI VirtualResource ?RET_HIGH:8, ?RET_LOW:8
          CFI ResourceParts PSP16 PSPH, PSPL
          CFI ResourceParts XSP16 XSPH, XSPL
          CFI ResourceParts ?RET ?BRET_EXT, ?RET_HIGH, ?RET_LOW
          CFI EndNames cfiNames0
        
          CFI Common cfiCommon0 Using cfiNames0
          CFI CodeAlign 1
          CFI DataAlign -1
          CFI ReturnAddress ?RET CODE
          CFI CFA_DOVERLAY Used
          CFI CFA_IOVERLAY Used
          CFI CFA_SP SP+-3
          CFI CFA_PSP16 PSP16+0
          CFI CFA_XSP16 XSP16+0
          CFI `PSW.CY` SameValue
          CFI `B.BR0` SameValue
          CFI `B.BR1` SameValue
          CFI `B.BR2` SameValue
          CFI `B.BR3` SameValue
          CFI `B.BR4` SameValue
          CFI `B.BR5` SameValue
          CFI `B.BR6` SameValue
          CFI `B.BR7` SameValue
          CFI `VB.BR8` SameValue
          CFI `VB.BR9` SameValue
          CFI `VB.BR10` SameValue
          CFI `VB.BR11` SameValue
          CFI `VB.BR12` SameValue
          CFI `VB.BR13` SameValue
          CFI `VB.BR14` SameValue
          CFI `VB.BR15` SameValue
          CFI VB SameValue
          CFI B Undefined
          CFI A Undefined
          CFI PSW SameValue
          CFI DPL0 SameValue
          CFI DPH0 SameValue
          CFI R0 Undefined
          CFI R1 Undefined
          CFI R2 Undefined
          CFI R3 Undefined
          CFI R4 Undefined
          CFI R5 Undefined
          CFI R6 SameValue
          CFI R7 SameValue
          CFI V0 SameValue
          CFI V1 SameValue
          CFI V2 SameValue
          CFI V3 SameValue
          CFI V4 SameValue
          CFI V5 SameValue
          CFI V6 SameValue
          CFI V7 SameValue
          CFI V8 SameValue
          CFI V9 SameValue
          CFI V10 SameValue
          CFI V11 SameValue
          CFI V12 SameValue
          CFI V13 SameValue
          CFI V14 SameValue
          CFI V15 SameValue
          CFI PSPH Undefined
          CFI PSPL Undefined
          CFI XSPH Undefined
          CFI XSPL Undefined
          CFI ?RET Concat
          CFI ?BRET_EXT Frame(CFA_SP, 3)
          CFI ?RET_HIGH Frame(CFA_SP, 2)
          CFI ?RET_LOW Frame(CFA_SP, 1)
          CFI EndCommon cfiCommon0
        
osal_GetSystemClock SYMBOL "osal_GetSystemClock"
`??osal_GetSystemClock::?relay` SYMBOL "?relay", osal_GetSystemClock
osal_set_event      SYMBOL "osal_set_event"
`??osal_set_event::?relay` SYMBOL "?relay", osal_set_event
osal_start_timerEx  SYMBOL "osal_start_timerEx"
`??osal_start_timerEx::?relay` SYMBOL "?relay", osal_start_timerEx
HalLedBlink         SYMBOL "HalLedBlink"
`??HalLedBlink::?relay` SYMBOL "?relay", HalLedBlink
HalLedEnterSleep    SYMBOL "HalLedEnterSleep"
`??HalLedEnterSleep::?relay` SYMBOL "?relay", HalLedEnterSleep
HalLedExitSleep     SYMBOL "HalLedExitSleep"
`??HalLedExitSleep::?relay` SYMBOL "?relay", HalLedExitSleep
HalLedGetState      SYMBOL "HalLedGetState"
`??HalLedGetState::?relay` SYMBOL "?relay", HalLedGetState
HalLedInit          SYMBOL "HalLedInit"
`??HalLedInit::?relay` SYMBOL "?relay", HalLedInit
HalLedOnOff         SYMBOL "HalLedOnOff"
`??HalLedOnOff::?relay` SYMBOL "?relay", HalLedOnOff
HalLedSet           SYMBOL "HalLedSet"
`??HalLedSet::?relay` SYMBOL "?relay", HalLedSet
HalLedUpdate        SYMBOL "HalLedUpdate"
`??HalLedUpdate::?relay` SYMBOL "?relay", HalLedUpdate

        EXTERN `??osal_GetSystemClock::?relay`
        FUNCTION `??osal_GetSystemClock::?relay`,00H
        EXTERN `??osal_set_event::?relay`
        FUNCTION `??osal_set_event::?relay`,00H
        EXTERN `??osal_start_timerEx::?relay`
        FUNCTION `??osal_start_timerEx::?relay`,00H
        EXTERN Hal_TaskID
        EXTERN osal_GetSystemClock
        FUNCTION osal_GetSystemClock,0202H
        ARGFRAME ISTACK, 0, STACK
        ARGFRAME PSTACK, 0, STACK
        ARGFRAME XSTACK, 24, STACK
        ARGFRAME IOVERLAY, 0, STATIC
        ARGFRAME DOVERLAY, 0, STATIC
        EXTERN osal_set_event
        FUNCTION osal_set_event,0202H
        ARGFRAME ISTACK, 0, STACK
        ARGFRAME PSTACK, 0, STACK
        ARGFRAME XSTACK, 14, STACK
        ARGFRAME IOVERLAY, 0, STATIC
        ARGFRAME DOVERLAY, 0, STATIC
        EXTERN osal_start_timerEx
        FUNCTION osal_start_timerEx,0202H
        ARGFRAME ISTACK, 0, STACK
        ARGFRAME PSTACK, 0, STACK
        ARGFRAME XSTACK, 24, STACK
        ARGFRAME IOVERLAY, 0, STATIC
        ARGFRAME DOVERLAY, 0, STATIC

// E:\qq下载文件\结课作业\ZigBee\实验指导书\实验指导书\Code\Cap2_ZStack\ZStack-CC2530-r200\ZStack-CC2530-r200\Components\hal\target\CC2530EB\hal_led.c
//    1 /**************************************************************************************************
//    2   Filename:       hal_led.c
//    3   Revised:        $Date: 2011-04-15 10:47:58 -0700 (Fri, 15 Apr 2011) $
//    4   Revision:       $Revision: 25723 $
//    5 
//    6   Description:    This file contains the interface to the HAL LED Service.
//    7 
//    8 
//    9   Copyright 2006-2007 Texas Instruments Incorporated. All rights reserved.
//   10 
//   11   IMPORTANT: Your use of this Software is limited to those specific rights
//   12   granted under the terms of a software license agreement between the user
//   13   who downloaded the software, his/her employer (which must be your employer)
//   14   and Texas Instruments Incorporated (the "License").  You may not use this
//   15   Software unless you agree to abide by the terms of the License. The License
//   16   limits your use, and you acknowledge, that the Software may not be modified,
//   17   copied or distributed unless embedded on a Texas Instruments microcontroller
//   18   or used solely and exclusively in conjunction with a Texas Instruments radio
//   19   frequency transceiver, which is integrated into your product.  Other than for
//   20   the foregoing purpose, you may not use, reproduce, copy, prepare derivative
//   21   works of, modify, distribute, perform, display or sell this Software and/or
//   22   its documentation for any purpose.
//   23 
//   24   YOU FURTHER ACKNOWLEDGE AND AGREE THAT THE SOFTWARE AND DOCUMENTATION ARE
//   25   PROVIDED AS IS?WITHOUT WARRANTY OF ANY KIND, EITHER EXPRESS OR IMPLIED,
//   26   INCLUDING WITHOUT LIMITATION, ANY WARRANTY OF MERCHANTABILITY, TITLE,
//   27   NON-INFRINGEMENT AND FITNESS FOR A PARTICULAR PURPOSE. IN NO EVENT SHALL
//   28   TEXAS INSTRUMENTS OR ITS LICENSORS BE LIABLE OR OBLIGATED UNDER CONTRACT,
//   29   NEGLIGENCE, STRICT LIABILITY, CONTRIBUTION, BREACH OF WARRANTY, OR OTHER
//   30   LEGAL EQUITABLE THEORY ANY DIRECT OR INDIRECT DAMAGES OR EXPENSES
//   31   INCLUDING BUT NOT LIMITED TO ANY INCIDENTAL, SPECIAL, INDIRECT, PUNITIVE
//   32   OR CONSEQUENTIAL DAMAGES, LOST PROFITS OR LOST DATA, COST OF PROCUREMENT
//   33   OF SUBSTITUTE GOODS, TECHNOLOGY, SERVICES, OR ANY CLAIMS BY THIRD PARTIES
//   34   (INCLUDING BUT NOT LIMITED TO ANY DEFENSE THEREOF), OR OTHER SIMILAR COSTS.
//   35 
//   36   Should you have any questions regarding your right to use this Software,
//   37   contact Texas Instruments Incorporated at www.TI.com.
//   38 **************************************************************************************************/
//   39 
//   40 /***************************************************************************************************
//   41  *                                             INCLUDES
//   42  ***************************************************************************************************/
//   43 #include "hal_mcu.h"

        ASEGN SFR_AN:DATA:NOROOT,090H
// union <unnamed> volatile __sfr _A_P1
_A_P1:
        DATA8
        DS 1

        ASEGN SFR_AN:DATA:NOROOT,0a0H
// union <unnamed> volatile __sfr _A_P2
_A_P2:
        DATA8
        DS 1
//   44 #include "hal_defs.h"
//   45 #include "hal_types.h"
//   46 #include "hal_drivers.h"
//   47 #include "hal_led.h"
//   48 #include "osal.h"
//   49 #include "hal_board.h"
//   50 
//   51 /***************************************************************************************************
//   52  *                                             CONSTANTS
//   53  ***************************************************************************************************/
//   54 
//   55 /***************************************************************************************************
//   56  *                                              MACROS
//   57  ***************************************************************************************************/
//   58 
//   59 /***************************************************************************************************
//   60  *                                              TYPEDEFS
//   61  ***************************************************************************************************/
//   62 /* LED control structure */
//   63 typedef struct {
//   64   uint8 mode;       /* Operation mode */
//   65   uint8 todo;       /* Blink cycles left */
//   66   uint8 onPct;      /* On cycle percentage */
//   67   uint16 time;      /* On/off cycle time (msec) */
//   68   uint32 next;      /* Time for next change */
//   69 } HalLedControl_t;
//   70 
//   71 typedef struct
//   72 {
//   73   HalLedControl_t HalLedControlTable[HAL_LED_DEFAULT_MAX_LEDS];
//   74   uint8           sleepActive;
//   75 } HalLedStatus_t;
//   76 
//   77 
//   78 /***************************************************************************************************
//   79  *                                           GLOBAL VARIABLES
//   80  ***************************************************************************************************/
//   81 
//   82 

        RSEG XDATA_Z:XDATA:NOROOT(0)
        DATA8
//   83 static uint8 HalLedState;              // LED state at last set/clr/blink update
HalLedState:
        DS 1
        REQUIRE __INIT_XDATA_Z
//   84 
//   85 #if HAL_LED == TRUE

        RSEG XDATA_Z:XDATA:NOROOT(0)
        DATA8
//   86 static uint8 HalSleepLedState;         // LED state at last set/clr/blink update
HalSleepLedState:
        DS 1
        REQUIRE __INIT_XDATA_Z

        RSEG XDATA_Z:XDATA:NOROOT(0)
        DATA8
//   87 static uint8 preBlinkState;            // Original State before going to blink mode
preBlinkState:
        DS 1
        REQUIRE __INIT_XDATA_Z
//   88                                        // bit 0, 1, 2, 3 represent led 0, 1, 2, 3
//   89 #endif
//   90 
//   91 #ifdef BLINK_LEDS

        RSEG XDATA_Z:XDATA:NOROOT(0)
        DATA8
//   92   static HalLedStatus_t HalLedStatusControl;
HalLedStatusControl:
        DS 37
        REQUIRE __INIT_XDATA_Z
//   93 #endif
//   94 
//   95 /***************************************************************************************************
//   96  *                                            LOCAL FUNCTION
//   97  ***************************************************************************************************/
//   98 #if (HAL_LED == TRUE)
//   99 void HalLedUpdate (void);
//  100 void HalLedOnOff (uint8 leds, uint8 mode);
//  101 #endif /* HAL_LED */
//  102 
//  103 /***************************************************************************************************
//  104  *                                            FUNCTIONS - API
//  105  ***************************************************************************************************/
//  106 
//  107 /***************************************************************************************************
//  108  * @fn      HalLedInit
//  109  *
//  110  * @brief   Initialize LED Service
//  111  *
//  112  * @param   init - pointer to void that contains the initialized value
//  113  *
//  114  * @return  None
//  115  ***************************************************************************************************/

        RSEG BANKED_CODE:HUGECODE:NOROOT(0)
//  116 void HalLedInit (void)
HalLedInit:
          CFI Block cfiBlock0 Using cfiCommon0
          CFI Function HalLedInit
        CODE
//  117 {
        FUNCALL HalLedInit, HalLedSet
        LOCFRAME ISTACK, 2, STACK
        LOCFRAME PSTACK, 0, STACK
        LOCFRAME XSTACK, 0, STACK
        LOCFRAME IOVERLAY, 0, STATIC
        LOCFRAME DOVERLAY, 0, STATIC
        ARGFRAME ISTACK, 2, STACK
        ARGFRAME PSTACK, 0, STACK
        ARGFRAME XSTACK, 0, STACK
        ARGFRAME IOVERLAY, 0, STATIC
        ARGFRAME DOVERLAY, 0, STATIC
        PUSH      DPL
          CFI DPL0 Frame(CFA_SP, 4)
          CFI CFA_SP SP+-4
        PUSH      DPH
          CFI DPH0 Frame(CFA_SP, 5)
          CFI CFA_SP SP+-5
        ; Saved register size: 2
        ; Auto size: 0
//  118 #if (HAL_LED == TRUE)
//  119   /* Initialize all LEDs to OFF */
//  120   HalLedSet (HAL_LED_ALL, HAL_LED_MODE_OFF);
        ; Setup parameters for call to function HalLedSet
        MOV       R2,#0x0
        MOV       R1,#0x3
        LCALL     `??HalLedSet::?relay`; Banked call to: HalLedSet
//  121 #endif /* HAL_LED */
//  122 #ifdef BLINK_LEDS
//  123   /* Initialize sleepActive to FALSE */
//  124   HalLedStatusControl.sleepActive = FALSE;
        LJMP      ?Subroutine0 & 0xFFFF
//  125 #endif
//  126 }
          CFI EndBlock cfiBlock0
//  127 
//  128 /***************************************************************************************************
//  129  * @fn      HalLedSet
//  130  *
//  131  * @brief   Tun ON/OFF/TOGGLE given LEDs
//  132  *
//  133  * @param   led - bit mask value of leds to be turned ON/OFF/TOGGLE
//  134  *          mode - BLINK, FLASH, TOGGLE, ON, OFF
//  135  * @return  None
//  136  ***************************************************************************************************/

        RSEG BANKED_CODE:HUGECODE:NOROOT(0)
//  137 uint8 HalLedSet (uint8 leds, uint8 mode)
HalLedSet:
          CFI Block cfiBlock1 Using cfiCommon0
          CFI Function HalLedSet
        CODE
//  138 {
        FUNCALL HalLedSet, HalLedBlink
        LOCFRAME ISTACK, 0, STACK
        LOCFRAME PSTACK, 0, STACK
        LOCFRAME XSTACK, 11, STACK
        LOCFRAME IOVERLAY, 0, STATIC
        LOCFRAME DOVERLAY, 0, STATIC
        ARGFRAME ISTACK, 0, STACK
        ARGFRAME PSTACK, 0, STACK
        ARGFRAME XSTACK, 11, STACK
        ARGFRAME IOVERLAY, 0, STATIC
        ARGFRAME DOVERLAY, 0, STATIC
        FUNCALL HalLedSet, HalLedBlink
        LOCFRAME ISTACK, 0, STACK
        LOCFRAME PSTACK, 0, STACK
        LOCFRAME XSTACK, 11, STACK
        LOCFRAME IOVERLAY, 0, STATIC
        LOCFRAME DOVERLAY, 0, STATIC
        ARGFRAME ISTACK, 0, STACK
        ARGFRAME PSTACK, 0, STACK
        ARGFRAME XSTACK, 11, STACK
        ARGFRAME IOVERLAY, 0, STATIC
        ARGFRAME DOVERLAY, 0, STATIC
        FUNCALL HalLedSet, HalLedOnOff
        LOCFRAME ISTACK, 0, STACK
        LOCFRAME PSTACK, 0, STACK
        LOCFRAME XSTACK, 11, STACK
        LOCFRAME IOVERLAY, 0, STATIC
        LOCFRAME DOVERLAY, 0, STATIC
        ARGFRAME ISTACK, 0, STACK
        ARGFRAME PSTACK, 0, STACK
        ARGFRAME XSTACK, 11, STACK
        ARGFRAME IOVERLAY, 0, STATIC
        ARGFRAME DOVERLAY, 0, STATIC
        REQUIRE ?V0
        REQUIRE ?V1
        REQUIRE ?V2
        MOV       A,#-0xb
        LCALL     ?BANKED_ENTER_XDATA
          CFI DPH0 load(1, XDATA, add(CFA_XSP16, literal(-1)))
          CFI DPL0 load(1, XDATA, add(CFA_XSP16, literal(-2)))
          CFI ?BRET_EXT load(1, XDATA, add(CFA_XSP16, literal(-3)))
          CFI ?RET_HIGH load(1, XDATA, add(CFA_XSP16, literal(-4)))
          CFI ?RET_LOW load(1, XDATA, add(CFA_XSP16, literal(-5)))
          CFI R7 load(1, XDATA, add(CFA_XSP16, literal(-6)))
          CFI V2 load(1, XDATA, add(CFA_XSP16, literal(-7)))
          CFI V1 load(1, XDATA, add(CFA_XSP16, literal(-8)))
          CFI V0 load(1, XDATA, add(CFA_XSP16, literal(-9)))
          CFI VB load(1, XDATA, add(CFA_XSP16, literal(-10)))
          CFI R6 load(1, XDATA, add(CFA_XSP16, literal(-11)))
          CFI CFA_SP SP+0
          CFI CFA_XSP16 add(XSP16, 11)
        ; Saved register size: 11
        ; Auto size: 0
        MOV       ?V0,R1
        MOV       ?V2,R2
//  139 
//  140 #if (defined (BLINK_LEDS)) && (HAL_LED == TRUE)
//  141   uint8 led;
//  142   HalLedControl_t *sts;
//  143 
//  144   switch (mode)
        MOV       A,R2
        JZ        ??HalLedSet_0
        DEC       A
        JZ        ??HalLedSet_0
        DEC       A
        JZ        ??HalLedSet_1
        ADD       A,#-0x2
        JZ        ??HalLedSet_2
        ADD       A,#-0x4
        JZ        ??HalLedSet_0
        SJMP      ??HalLedSet_3
//  145   {
//  146     case HAL_LED_MODE_BLINK:
//  147       /* Default blink, 1 time, D% duty cycle */
//  148       HalLedBlink (leds, 1, HAL_LED_DEFAULT_DUTY_CYCLE, HAL_LED_DEFAULT_FLASH_TIME);
??HalLedSet_1:
        ; Setup parameters for call to function HalLedBlink
        MOV       R4,#-0x18
        MOV       R5,#0x3
        MOV       R3,#0x5
        MOV       R2,#0x1
??HalLedSet_4:
        LCALL     `??HalLedBlink::?relay`; Banked call to: HalLedBlink
//  149       break;
//  150 
//  151     case HAL_LED_MODE_FLASH:
//  152       /* Default flash, N times, D% duty cycle */
//  153       HalLedBlink (leds, HAL_LED_DEFAULT_FLASH_COUNT, HAL_LED_DEFAULT_DUTY_CYCLE, HAL_LED_DEFAULT_FLASH_TIME);
//  154       break;
//  155 
//  156     case HAL_LED_MODE_ON:
//  157     case HAL_LED_MODE_OFF:
//  158     case HAL_LED_MODE_TOGGLE:
//  159 
//  160       led = HAL_LED_1;
//  161       leds &= HAL_LED_ALL;
//  162       sts = HalLedStatusControl.HalLedControlTable;
//  163 
//  164       while (leds)
//  165       {
//  166         if (leds & led)
//  167         {
//  168           if (mode != HAL_LED_MODE_TOGGLE)
//  169           {
//  170             sts->mode = mode;  /* ON or OFF */
//  171           }
//  172           else
//  173           {
//  174             sts->mode ^= HAL_LED_MODE_ON;  /* Toggle */
//  175           }
//  176           HalLedOnOff (led, sts->mode);
//  177           leds ^= led;
//  178         }
//  179         led <<= 1;
//  180         sts++;
//  181       }
//  182       break;
//  183 
//  184     default:
//  185       break;
//  186   }
//  187 
//  188 #elif (HAL_LED == TRUE)
//  189   LedOnOff(leds, mode);
//  190 #else
//  191   // HAL LED is disabled, suppress unused argument warnings
//  192   (void) leds;
//  193   (void) mode;
//  194 #endif /* BLINK_LEDS && HAL_LED   */
//  195 
//  196   return ( HalLedState );
??HalLedSet_3:
        MOV       DPTR,#HalLedState
        MOVX      A,@DPTR
        MOV       R1,A
        MOV       R7,#0x3
        LJMP      ?BANKED_LEAVE_XDATA
??HalLedSet_2:
        ; Setup parameters for call to function HalLedBlink
        MOV       R4,#-0x18
        MOV       R5,#0x3
        MOV       R3,#0x5
        MOV       R2,#0x32
        SJMP      ??HalLedSet_4
??HalLedSet_0:
        MOV       ?V1,#0x1
        ANL       ?V0,#0x3
        MOV       R6,#HalLedStatusControl & 0xff
        MOV       R7,#(HalLedStatusControl >> 8) & 0xff
        SJMP      ??HalLedSet_5
??HalLedSet_6:
        MOVX      A,@DPTR
        XRL       A,#0x1
??HalLedSet_7:
        MOVX      @DPTR,A
        ; Setup parameters for call to function HalLedOnOff
        MOVX      A,@DPTR
        MOV       R2,A
        MOV       R1,?V1
        LCALL     `??HalLedOnOff::?relay`; Banked call to: HalLedOnOff
        MOV       A,?V1
        XRL       ?V0,A
??HalLedSet_8:
        MOV       A,?V1
        CLR       C
        RLC       A
        MOV       ?V1,A
        MOV       A,R6
        ADD       A,#0x9
        MOV       R6,A
        JNC       ??HalLedSet_5
        INC       R7
??HalLedSet_5:
        MOV       A,?V0
        JZ        ??HalLedSet_3
        ANL       A,?V1
        JZ        ??HalLedSet_8
        MOV       A,#0x8
        XRL       A,?V2
        MOV       DPL,R6
        MOV       DPH,R7
        JZ        ??HalLedSet_6
        MOV       A,?V2
        SJMP      ??HalLedSet_7
//  197 
//  198 }
          CFI EndBlock cfiBlock1
//  199 
//  200 /***************************************************************************************************
//  201  * @fn      HalLedBlink
//  202  *
//  203  * @brief   Blink the leds
//  204  *
//  205  * @param   leds       - bit mask value of leds to be blinked
//  206  *          numBlinks  - number of blinks
//  207  *          percent    - the percentage in each period where the led
//  208  *                       will be on
//  209  *          period     - length of each cycle in milliseconds
//  210  *
//  211  * @return  None
//  212  ***************************************************************************************************/

        RSEG BANKED_CODE:HUGECODE:NOROOT(0)
//  213 void HalLedBlink (uint8 leds, uint8 numBlinks, uint8 percent, uint16 period)
HalLedBlink:
          CFI Block cfiBlock2 Using cfiCommon0
          CFI Function HalLedBlink
        CODE
//  214 {
        FUNCALL HalLedBlink, osal_GetSystemClock
        LOCFRAME ISTACK, 0, STACK
        LOCFRAME PSTACK, 0, STACK
        LOCFRAME XSTACK, 14, STACK
        LOCFRAME IOVERLAY, 0, STATIC
        LOCFRAME DOVERLAY, 0, STATIC
        ARGFRAME ISTACK, 0, STACK
        ARGFRAME PSTACK, 0, STACK
        ARGFRAME XSTACK, 14, STACK
        ARGFRAME IOVERLAY, 0, STATIC
        ARGFRAME DOVERLAY, 0, STATIC
        FUNCALL HalLedBlink, osal_set_event
        LOCFRAME ISTACK, 0, STACK
        LOCFRAME PSTACK, 0, STACK
        LOCFRAME XSTACK, 14, STACK
        LOCFRAME IOVERLAY, 0, STATIC
        LOCFRAME DOVERLAY, 0, STATIC
        ARGFRAME ISTACK, 0, STACK
        ARGFRAME PSTACK, 0, STACK
        ARGFRAME XSTACK, 14, STACK
        ARGFRAME IOVERLAY, 0, STATIC
        ARGFRAME DOVERLAY, 0, STATIC
        FUNCALL HalLedBlink, HalLedSet
        LOCFRAME ISTACK, 0, STACK
        LOCFRAME PSTACK, 0, STACK
        LOCFRAME XSTACK, 14, STACK
        LOCFRAME IOVERLAY, 0, STATIC
        LOCFRAME DOVERLAY, 0, STATIC
        ARGFRAME ISTACK, 0, STACK
        ARGFRAME PSTACK, 0, STACK
        ARGFRAME XSTACK, 14, STACK
        ARGFRAME IOVERLAY, 0, STATIC
        ARGFRAME DOVERLAY, 0, STATIC
        FUNCALL HalLedBlink, HalLedSet
        LOCFRAME ISTACK, 0, STACK
        LOCFRAME PSTACK, 0, STACK
        LOCFRAME XSTACK, 14, STACK
        LOCFRAME IOVERLAY, 0, STATIC
        LOCFRAME DOVERLAY, 0, STATIC
        ARGFRAME ISTACK, 0, STACK
        ARGFRAME PSTACK, 0, STACK
        ARGFRAME XSTACK, 14, STACK
        ARGFRAME IOVERLAY, 0, STATIC
        ARGFRAME DOVERLAY, 0, STATIC
        REQUIRE ?V0
        REQUIRE ?V1
        REQUIRE ?V2
        REQUIRE ?V3
        REQUIRE ?V4
        REQUIRE ?V5
        MOV       A,#-0xe
        LCALL     ?BANKED_ENTER_XDATA
          CFI DPH0 load(1, XDATA, add(CFA_XSP16, literal(-1)))
          CFI DPL0 load(1, XDATA, add(CFA_XSP16, literal(-2)))
          CFI ?BRET_EXT load(1, XDATA, add(CFA_XSP16, literal(-3)))
          CFI ?RET_HIGH load(1, XDATA, add(CFA_XSP16, literal(-4)))
          CFI ?RET_LOW load(1, XDATA, add(CFA_XSP16, literal(-5)))
          CFI R7 load(1, XDATA, add(CFA_XSP16, literal(-6)))
          CFI V5 load(1, XDATA, add(CFA_XSP16, literal(-7)))
          CFI V4 load(1, XDATA, add(CFA_XSP16, literal(-8)))
          CFI V3 load(1, XDATA, add(CFA_XSP16, literal(-9)))
          CFI V2 load(1, XDATA, add(CFA_XSP16, literal(-10)))
          CFI V1 load(1, XDATA, add(CFA_XSP16, literal(-11)))
          CFI V0 load(1, XDATA, add(CFA_XSP16, literal(-12)))
          CFI VB load(1, XDATA, add(CFA_XSP16, literal(-13)))
          CFI R6 load(1, XDATA, add(CFA_XSP16, literal(-14)))
          CFI CFA_SP SP+0
          CFI CFA_XSP16 add(XSP16, 14)
        ; Saved register size: 14
        ; Auto size: 0
        MOV       ?V0,R1
        MOV       ?V3,R2
        MOV       ?V2,R3
        MOV       ?V4,R4
        MOV       ?V5,R5
//  215 #if (defined (BLINK_LEDS)) && (HAL_LED == TRUE)
//  216   uint8 led;
//  217   HalLedControl_t *sts;
//  218 
//  219   if (leds && percent && period)
        MOV       A,R1
        JNZ       $+5
        LJMP      ??HalLedBlink_0 & 0xFFFF
        MOV       A,R3
        JNZ       $+5
        LJMP      ??HalLedBlink_0 & 0xFFFF
        MOV       A,R4
        ORL       A,R5
        JNZ       $+5
        LJMP      ??HalLedBlink_0 & 0xFFFF
//  220   {
//  221     if (percent < 100)
        MOV       A,R3
        CLR       C
        SUBB      A,#0x64
        JC        $+5
        LJMP      ??HalLedBlink_1 & 0xFFFF
//  222     {
//  223       led = HAL_LED_1;
        MOV       ?V1,#0x1
//  224       leds &= HAL_LED_ALL;
        ANL       ?V0,#0x3
//  225       sts = HalLedStatusControl.HalLedControlTable;
        MOV       R6,#HalLedStatusControl & 0xff
        MOV       R7,#(HalLedStatusControl >> 8) & 0xff
        SJMP      ??HalLedBlink_2
//  226 
//  227       while (leds)
//  228       {
//  229         if (leds & led)
??HalLedBlink_3:
        ANL       A,?V1
        JZ        ??HalLedBlink_4
//  230         {
//  231           /* Store the current state of the led before going to blinking if not already blinking */
//  232           if(sts->mode < HAL_LED_MODE_BLINK )
        MOV       DPL,R6
        MOV       DPH,R7
        MOVX      A,@DPTR
        CLR       C
        SUBB      A,#0x2
        JNC       ??HalLedBlink_5
//  233           	preBlinkState |= (led & HalLedState);
        MOV       DPTR,#HalLedState
        MOVX      A,@DPTR
        ANL       A,?V1
        MOV       R0,A
        MOV       DPTR,#preBlinkState
        MOVX      A,@DPTR
        ORL       A,R0
        MOVX      @DPTR,A
//  234 
//  235           sts->mode  = HAL_LED_MODE_OFF;                    /* Stop previous blink */
??HalLedBlink_5:
        MOV       DPL,R6
        MOV       DPH,R7
        CLR       A
        MOVX      @DPTR,A
//  236           sts->time  = period;                              /* Time for one on/off cycle */
        INC       DPTR
        INC       DPTR
        INC       DPTR
        MOV       A,?V4
        MOVX      @DPTR,A
        INC       DPTR
        MOV       A,?V5
        MOVX      @DPTR,A
//  237           sts->onPct = percent;                             /* % of cycle LED is on */
        MOV       DPL,R6
        MOV       DPH,R7
        INC       DPTR
        INC       DPTR
        MOV       A,?V2
        MOVX      @DPTR,A
//  238           sts->todo  = numBlinks;                           /* Number of blink cycles */
        MOV       DPL,R6
        MOV       DPH,R7
        INC       DPTR
        MOV       A,?V3
        MOVX      @DPTR,A
//  239           if (!numBlinks) sts->mode |= HAL_LED_MODE_FLASH;  /* Continuous */
        JNZ       ??HalLedBlink_6
        MOV       DPL,R6
        MOV       DPH,R7
        MOV       A,#0x4
        MOVX      @DPTR,A
//  240           sts->next = osal_GetSystemClock();                /* Start now */
??HalLedBlink_6:
        ; Setup parameters for call to function osal_GetSystemClock
        LCALL     `??osal_GetSystemClock::?relay`; Banked call to: osal_GetSystemClock
        MOV       A,R2
        MOV       R0,A
        MOV       A,R3
        MOV       R1,A
        MOV       A,R4
        MOV       R2,A
        MOV       A,R5
        MOV       R3,A
        MOV       DPL,R6
        MOV       DPH,R7
        INC       DPTR
        INC       DPTR
        INC       DPTR
        INC       DPTR
        INC       DPTR
        LCALL     ?XSTORE_R0123
//  241           sts->mode |= HAL_LED_MODE_BLINK;                  /* Enable blinking */
        MOV       DPL,R6
        MOV       DPH,R7
        MOVX      A,@DPTR
        SETB      0xE0 /* A   */.1
        MOVX      @DPTR,A
//  242           leds ^= led;
        MOV       A,?V1
        XRL       ?V0,A
//  243         }
//  244         led <<= 1;
??HalLedBlink_4:
        MOV       A,?V1
        CLR       C
        RLC       A
        MOV       ?V1,A
//  245         sts++;
        MOV       A,R6
        ADD       A,#0x9
        MOV       R6,A
        JNC       ??HalLedBlink_2
        INC       R7
//  246       }
??HalLedBlink_2:
        MOV       A,?V0
        JNZ       ??HalLedBlink_3
//  247       osal_set_event (Hal_TaskID, HAL_LED_BLINK_EVENT);
        ; Setup parameters for call to function osal_set_event
        MOV       R2,#0x2
        MOV       R3,#0x0
        MOV       DPTR,#Hal_TaskID
        MOVX      A,@DPTR
        MOV       R1,A
        LCALL     `??osal_set_event::?relay`; Banked call to: osal_set_event
        SJMP      ??HalLedBlink_7
//  248     }
//  249     else
//  250     {
//  251       HalLedSet (leds, HAL_LED_MODE_ON);                    /* >= 100%, turn on */
??HalLedBlink_1:
        ; Setup parameters for call to function HalLedSet
        MOV       R2,#0x1
        SJMP      ??HalLedBlink_8
//  252     }
//  253   }
//  254   else
//  255   {
//  256     HalLedSet (leds, HAL_LED_MODE_OFF);                     /* No on time, turn off */
??HalLedBlink_0:
        ; Setup parameters for call to function HalLedSet
        MOV       R2,#0x0
??HalLedBlink_8:
        LCALL     `??HalLedSet::?relay`; Banked call to: HalLedSet
//  257   }
//  258 #elif (HAL_LED == TRUE)
//  259   percent = (leds & HalLedState) ? HAL_LED_MODE_OFF : HAL_LED_MODE_ON;
//  260   HalLedOnOff (leds, percent);                              /* Toggle */
//  261 #else
//  262   // HAL LED is disabled, suppress unused argument warnings
//  263   (void) leds;
//  264   (void) numBlinks;
//  265   (void) percent;
//  266   (void) period;
//  267 #endif /* BLINK_LEDS && HAL_LED */
//  268 }
??HalLedBlink_7:
        MOV       R7,#0x6
        LJMP      ?BANKED_LEAVE_XDATA
          CFI EndBlock cfiBlock2
//  269 
//  270 #if (HAL_LED == TRUE)
//  271 /***************************************************************************************************
//  272  * @fn      HalLedUpdate
//  273  *
//  274  * @brief   Update leds to work with blink
//  275  *
//  276  * @param   none
//  277  *
//  278  * @return  none
//  279  ***************************************************************************************************/

        RSEG BANKED_CODE:HUGECODE:NOROOT(0)
//  280 void HalLedUpdate (void)
HalLedUpdate:
          CFI Block cfiBlock3 Using cfiCommon0
          CFI Function HalLedUpdate
        CODE
//  281 {
        FUNCALL HalLedUpdate, osal_GetSystemClock
        LOCFRAME ISTACK, 0, STACK
        LOCFRAME PSTACK, 0, STACK
        LOCFRAME XSTACK, 24, STACK
        LOCFRAME IOVERLAY, 0, STATIC
        LOCFRAME DOVERLAY, 0, STATIC
        ARGFRAME ISTACK, 0, STACK
        ARGFRAME PSTACK, 0, STACK
        ARGFRAME XSTACK, 24, STACK
        ARGFRAME IOVERLAY, 0, STATIC
        ARGFRAME DOVERLAY, 0, STATIC
        FUNCALL HalLedUpdate, HalLedOnOff
        LOCFRAME ISTACK, 0, STACK
        LOCFRAME PSTACK, 0, STACK
        LOCFRAME XSTACK, 24, STACK
        LOCFRAME IOVERLAY, 0, STATIC
        LOCFRAME DOVERLAY, 0, STATIC
        ARGFRAME ISTACK, 0, STACK
        ARGFRAME PSTACK, 0, STACK
        ARGFRAME XSTACK, 24, STACK
        ARGFRAME IOVERLAY, 0, STATIC
        ARGFRAME DOVERLAY, 0, STATIC
        FUNCALL HalLedUpdate, HalLedOnOff
        LOCFRAME ISTACK, 0, STACK
        LOCFRAME PSTACK, 0, STACK
        LOCFRAME XSTACK, 24, STACK
        LOCFRAME IOVERLAY, 0, STATIC
        LOCFRAME DOVERLAY, 0, STATIC
        ARGFRAME ISTACK, 0, STACK
        ARGFRAME PSTACK, 0, STACK
        ARGFRAME XSTACK, 24, STACK
        ARGFRAME IOVERLAY, 0, STATIC
        ARGFRAME DOVERLAY, 0, STATIC
        FUNCALL HalLedUpdate, HalLedSet
        LOCFRAME ISTACK, 0, STACK
        LOCFRAME PSTACK, 0, STACK
        LOCFRAME XSTACK, 24, STACK
        LOCFRAME IOVERLAY, 0, STATIC
        LOCFRAME DOVERLAY, 0, STATIC
        ARGFRAME ISTACK, 0, STACK
        ARGFRAME PSTACK, 0, STACK
        ARGFRAME XSTACK, 24, STACK
        ARGFRAME IOVERLAY, 0, STATIC
        ARGFRAME DOVERLAY, 0, STATIC
        FUNCALL HalLedUpdate, osal_start_timerEx
        LOCFRAME ISTACK, 0, STACK
        LOCFRAME PSTACK, 0, STACK
        LOCFRAME XSTACK, 24, STACK
        LOCFRAME IOVERLAY, 0, STATIC
        LOCFRAME DOVERLAY, 0, STATIC
        ARGFRAME ISTACK, 0, STACK
        ARGFRAME PSTACK, 0, STACK
        ARGFRAME XSTACK, 24, STACK
        ARGFRAME IOVERLAY, 0, STATIC
        ARGFRAME DOVERLAY, 0, STATIC
        REQUIRE ?V0
        REQUIRE ?V1
        REQUIRE ?V2
        REQUIRE ?V3
        REQUIRE ?V4
        REQUIRE ?V5
        REQUIRE ?V6
        REQUIRE ?V7
        REQUIRE ?V8
        REQUIRE ?V9
        REQUIRE ?V10
        REQUIRE ?V11
        REQUIRE ?V12
        REQUIRE ?V13
        REQUIRE ?V14
        REQUIRE ?V15
        MOV       A,#-0x18
        LCALL     ?BANKED_ENTER_XDATA
          CFI DPH0 load(1, XDATA, add(CFA_XSP16, literal(-1)))
          CFI DPL0 load(1, XDATA, add(CFA_XSP16, literal(-2)))
          CFI ?BRET_EXT load(1, XDATA, add(CFA_XSP16, literal(-3)))
          CFI ?RET_HIGH load(1, XDATA, add(CFA_XSP16, literal(-4)))
          CFI ?RET_LOW load(1, XDATA, add(CFA_XSP16, literal(-5)))
          CFI R7 load(1, XDATA, add(CFA_XSP16, literal(-6)))
          CFI V15 load(1, XDATA, add(CFA_XSP16, literal(-7)))
          CFI V14 load(1, XDATA, add(CFA_XSP16, literal(-8)))
          CFI V13 load(1, XDATA, add(CFA_XSP16, literal(-9)))
          CFI V12 load(1, XDATA, add(CFA_XSP16, literal(-10)))
          CFI V11 load(1, XDATA, add(CFA_XSP16, literal(-11)))
          CFI V10 load(1, XDATA, add(CFA_XSP16, literal(-12)))
          CFI V9 load(1, XDATA, add(CFA_XSP16, literal(-13)))
          CFI V8 load(1, XDATA, add(CFA_XSP16, literal(-14)))
          CFI V7 load(1, XDATA, add(CFA_XSP16, literal(-15)))
          CFI V6 load(1, XDATA, add(CFA_XSP16, literal(-16)))
          CFI V5 load(1, XDATA, add(CFA_XSP16, literal(-17)))
          CFI V4 load(1, XDATA, add(CFA_XSP16, literal(-18)))
          CFI V3 load(1, XDATA, add(CFA_XSP16, literal(-19)))
          CFI V2 load(1, XDATA, add(CFA_XSP16, literal(-20)))
          CFI V1 load(1, XDATA, add(CFA_XSP16, literal(-21)))
          CFI V0 load(1, XDATA, add(CFA_XSP16, literal(-22)))
          CFI VB load(1, XDATA, add(CFA_XSP16, literal(-23)))
          CFI R6 load(1, XDATA, add(CFA_XSP16, literal(-24)))
          CFI CFA_SP SP+0
          CFI CFA_XSP16 add(XSP16, 24)
        ; Saved register size: 24
        ; Auto size: 0
//  282   uint8 led;
//  283   uint8 pct;
//  284   uint8 leds;
//  285   HalLedControl_t *sts;
//  286   uint32 time;
//  287   uint16 next;
//  288   uint16 wait;
//  289 
//  290   next = 0;
        MOV       ?V12,#0x0
        MOV       ?V13,#0x0
//  291   led  = HAL_LED_1;
        MOV       ?V14,#0x1
//  292   leds = HAL_LED_ALL;
        MOV       ?V15,#0x3
//  293   sts = HalLedStatusControl.HalLedControlTable;
        MOV       R6,#HalLedStatusControl & 0xff
        MOV       R7,#(HalLedStatusControl >> 8) & 0xff
//  294 
//  295   /* Check if sleep is active or not */
//  296   if (!HalLedStatusControl.sleepActive)
        MOV       DPTR,#HalLedStatusControl + 36
        MOVX      A,@DPTR
        JZ        $+5
        LJMP      ??HalLedUpdate_0 & 0xFFFF
//  297   {
//  298     while (leds)
//  299     {
//  300       if (leds & led)
??HalLedUpdate_1:
        MOV       A,?V15
        ANL       A,?V14
        JNZ       $+5
        LJMP      ??HalLedUpdate_2 & 0xFFFF
//  301       {
//  302         if (sts->mode & HAL_LED_MODE_BLINK)
        MOV       DPL,R6
        MOV       DPH,R7
        MOVX      A,@DPTR
        MOV       C,0xE0 /* A   */.1
        JC        $+5
        LJMP      ??HalLedUpdate_3 & 0xFFFF
//  303         {
//  304           time = osal_GetSystemClock();
        ; Setup parameters for call to function osal_GetSystemClock
        LCALL     `??osal_GetSystemClock::?relay`; Banked call to: osal_GetSystemClock
        MOV       ?V4,R2
        MOV       ?V5,R3
        MOV       ?V6,R4
        MOV       ?V7,R5
//  305           if (time >= sts->next)
        MOV       DPL,R6
        MOV       DPH,R7
        INC       DPTR
        INC       DPTR
        INC       DPTR
        INC       DPTR
        INC       DPTR
        MOV       R0,#?V4
        LCALL     ?UL_GE_X
        MOV       DPL,R6
        MOV       DPH,R7
        JC        $+5
        LJMP      ??HalLedUpdate_4 & 0xFFFF
//  306           {
//  307             if (sts->mode & HAL_LED_MODE_ON)
        MOVX      A,@DPTR
        MOV       C,0xE0 /* A   */.0
        INC       DPTR
        INC       DPTR
        MOVX      A,@DPTR
        JNC       ??HalLedUpdate_5
//  308             {
//  309               pct = 100 - sts->onPct;               /* Percentage of cycle for off */
        MOV       R0,A
        MOV       A,#0x64
        CLR       C
        SUBB      A,R0
        MOV       ?V0,A
//  310               sts->mode &= ~HAL_LED_MODE_ON;        /* Say it's not on */
        MOV       DPL,R6
        MOV       DPH,R7
        MOVX      A,@DPTR
        CLR       0xE0 /* A   */.0
        MOVX      @DPTR,A
//  311               HalLedOnOff (led, HAL_LED_MODE_OFF);  /* Turn it off */
        ; Setup parameters for call to function HalLedOnOff
        MOV       R2,#0x0
        MOV       R1,?V14
        LCALL     `??HalLedOnOff::?relay`; Banked call to: HalLedOnOff
//  312 
//  313               if (!(sts->mode & HAL_LED_MODE_FLASH))
        MOV       DPL,R6
        MOV       DPH,R7
        MOVX      A,@DPTR
        MOV       C,0xE0 /* A   */.2
        JC        ??HalLedUpdate_6
//  314               {
//  315                 sts->todo--;                        /* Not continuous, reduce count */
        INC       DPTR
        MOVX      A,@DPTR
        DEC       A
        MOVX      @DPTR,A
//  316                 if (!sts->todo)
        JNZ       ??HalLedUpdate_6
//  317                 {
//  318                   sts->mode ^= HAL_LED_MODE_BLINK;  /* No more blinks */
        MOV       DPL,R6
        MOV       DPH,R7
        MOVX      A,@DPTR
        XRL       A,#0x2
        MOVX      @DPTR,A
        SJMP      ??HalLedUpdate_6
//  319                 }
//  320               }
//  321             }
//  322             else
//  323             {
//  324               pct = sts->onPct;                     /* Percentage of cycle for on */
??HalLedUpdate_5:
        MOV       ?V0,A
//  325               sts->mode |= HAL_LED_MODE_ON;         /* Say it's on */
        MOV       DPL,R6
        MOV       DPH,R7
        MOVX      A,@DPTR
        SETB      0xE0 /* A   */.0
        MOVX      @DPTR,A
//  326               HalLedOnOff (led, HAL_LED_MODE_ON);   /* Turn it on */
        ; Setup parameters for call to function HalLedOnOff
        MOV       R2,#0x1
        MOV       R1,?V14
        LCALL     `??HalLedOnOff::?relay`; Banked call to: HalLedOnOff
//  327             }
//  328 
//  329             if (sts->mode & HAL_LED_MODE_BLINK)
??HalLedUpdate_6:
        MOV       DPL,R6
        MOV       DPH,R7
        MOVX      A,@DPTR
        MOV       C,0xE0 /* A   */.1
        JNC       ??HalLedUpdate_7
//  330             {
//  331               wait = (((uint32)pct * (uint32)sts->time) / 100);
        CLR       A
        MOV       ?V1,A
        MOV       ?V2,A
        MOV       ?V3,A
        INC       DPTR
        INC       DPTR
        INC       DPTR
        MOVX      A,@DPTR
        MOV       ?V8,A
        INC       DPTR
        MOVX      A,@DPTR
        MOV       ?V9,A
        CLR       A
        MOV       ?V10,A
        MOV       ?V11,A
        MOV       R0,#?V0
        MOV       R1,#?V8
        LCALL     ?L_MUL
        MOV       DPTR,#__Constant_64
        MOV       R0,#?V8
        LCALL     ?L_MOV_X
        MOV       R0,#?V0
        MOV       R1,#?V8
        LCALL     ?UL_DIV_MOD
//  332               sts->next = time + wait;
        MOV       ?V8,?V0
        MOV       ?V9,?V1
        CLR       A
        MOV       ?V10,A
        MOV       ?V11,A
        MOV       R0,#?V4
        MOV       R1,#?V8
        LCALL     ?L_ADD
        MOV       DPL,R6
        MOV       DPH,R7
        INC       DPTR
        INC       DPTR
        INC       DPTR
        INC       DPTR
        INC       DPTR
        MOV       A,?V4
        MOVX      @DPTR,A
        INC       DPTR
        MOV       A,?V5
        MOVX      @DPTR,A
        INC       DPTR
        MOV       A,?V6
        MOVX      @DPTR,A
        INC       DPTR
        MOV       A,?V7
        SJMP      ??HalLedUpdate_8
//  333             }
//  334             else
//  335             {
//  336               /* no more blink, no more wait */
//  337               wait = 0;
??HalLedUpdate_7:
        MOV       ?V0,#0x0
        MOV       ?V1,#0x0
//  338               /* After blinking, set the LED back to the state before it blinks */
//  339               HalLedSet (led, ((preBlinkState & led)!=0)?HAL_LED_MODE_ON:HAL_LED_MODE_OFF);
        MOV       DPTR,#preBlinkState
        MOVX      A,@DPTR
        ANL       A,?V14
        JZ        ??HalLedUpdate_9
        MOV       R2,#0x1
        SJMP      ??HalLedUpdate_10
??HalLedUpdate_9:
        MOV       R2,#0x0
??HalLedUpdate_10:
        ; Setup parameters for call to function HalLedSet
        MOV       R1,?V14
        LCALL     `??HalLedSet::?relay`; Banked call to: HalLedSet
//  340               /* Clear the saved bit */
//  341               preBlinkState &= (led ^ 0xFF);
        MOV       A,#-0x1
        XRL       A,?V14
        MOV       R0,A
        MOV       DPTR,#preBlinkState
        MOVX      A,@DPTR
        ANL       A,R0
??HalLedUpdate_8:
        MOVX      @DPTR,A
        SJMP      ??HalLedUpdate_11
//  342             }
//  343           }
//  344           else
//  345           {
//  346             wait = sts->next - time;  /* Time left */
??HalLedUpdate_4:
        INC       DPTR
        INC       DPTR
        INC       DPTR
        INC       DPTR
        INC       DPTR
        MOV       R0,#?V0
        LCALL     ?L_MOV_X
        MOV       A,?V0
        CLR       C
        SUBB      A,?V4
        MOV       ?V0,A
        MOV       A,?V1
        SUBB      A,?V5
        MOV       ?V1,A
//  347           }
//  348 
//  349           if (!next || ( wait && (wait < next) ))
??HalLedUpdate_11:
        MOV       A,?V12
        ORL       A,?V13
        JZ        ??HalLedUpdate_12
        MOV       A,?V0
        ORL       A,?V1
        JZ        ??HalLedUpdate_3
        CLR       C
        MOV       A,?V0
        SUBB      A,?V12
        MOV       A,?V1
        SUBB      A,?V13
        JNC       ??HalLedUpdate_3
//  350           {
//  351             next = wait;
??HalLedUpdate_12:
        MOV       ?V12,?V0
        MOV       ?V13,?V1
//  352           }
//  353         }
//  354         leds ^= led;
??HalLedUpdate_3:
        MOV       A,?V14
        XRL       ?V15,A
//  355       }
//  356       led <<= 1;
??HalLedUpdate_2:
        MOV       A,?V14
        CLR       C
        RLC       A
        MOV       ?V14,A
//  357       sts++;
        MOV       A,R6
        ADD       A,#0x9
        MOV       R6,A
        JNC       ??HalLedUpdate_13
        INC       R7
//  358     }
??HalLedUpdate_13:
        MOV       A,?V15
        JZ        $+5
        LJMP      ??HalLedUpdate_1 & 0xFFFF
//  359 
//  360     if (next)
        MOV       A,?V12
        ORL       A,?V13
        JZ        ??HalLedUpdate_0
//  361     {
//  362       osal_start_timerEx(Hal_TaskID, HAL_LED_BLINK_EVENT, next);   /* Schedule event */
        ; Setup parameters for call to function osal_start_timerEx
        MOV       R4,?V12
        MOV       R5,?V13
        MOV       R2,#0x2
        MOV       R3,#0x0
        MOV       DPTR,#Hal_TaskID
        MOVX      A,@DPTR
        MOV       R1,A
        LCALL     `??osal_start_timerEx::?relay`; Banked call to: osal_start_timerEx
//  363     }
//  364   }
//  365 }
??HalLedUpdate_0:
        MOV       R7,#0x10
        LJMP      ?BANKED_LEAVE_XDATA
          CFI EndBlock cfiBlock3
//  366 
//  367 /***************************************************************************************************
//  368  * @fn      HalLedOnOff
//  369  *
//  370  * @brief   Turns specified LED ON or OFF
//  371  *
//  372  * @param   leds - LED bit mask
//  373  *          mode - LED_ON,LED_OFF,
//  374  *
//  375  * @return  none
//  376  ***************************************************************************************************/

        RSEG BANKED_CODE:HUGECODE:NOROOT(0)
//  377 void HalLedOnOff (uint8 leds, uint8 mode)
HalLedOnOff:
          CFI Block cfiBlock4 Using cfiCommon0
          CFI Function HalLedOnOff
        CODE
//  378 {
        PUSH      DPL
          CFI DPL0 Frame(CFA_SP, 4)
          CFI CFA_SP SP+-4
        PUSH      DPH
          CFI DPH0 Frame(CFA_SP, 5)
          CFI CFA_SP SP+-5
        ; Saved register size: 2
        ; Auto size: 0
//  379   if (leds & HAL_LED_1)
        MOV       A,R1
        MOV       C,0xE0 /* A   */.0
        JNC       ??HalLedOnOff_0
//  380   {
//  381     if (mode == HAL_LED_MODE_ON)
        MOV       A,#0x1
        XRL       A,R2
        JNZ       ??HalLedOnOff_1
//  382     {
//  383       HAL_TURN_ON_LED1();
        CLR       0xa0.0
        SJMP      ??HalLedOnOff_0
//  384     }
//  385     else
//  386     {
//  387       HAL_TURN_OFF_LED1();
??HalLedOnOff_1:
        SETB      0xa0.0
//  388     }
//  389   }
//  390 
//  391   if (leds & HAL_LED_2)
??HalLedOnOff_0:
        MOV       A,R1
        MOV       C,0xE0 /* A   */.1
        JNC       ??HalLedOnOff_2
//  392   {
//  393     if (mode == HAL_LED_MODE_ON)
        MOV       A,#0x1
        XRL       A,R2
        JNZ       ??HalLedOnOff_3
//  394     {
//  395       HAL_TURN_ON_LED2();
        CLR       0x90.1
        SJMP      ??HalLedOnOff_4
//  396     }
//  397     else
//  398     {
//  399       HAL_TURN_OFF_LED2();
??HalLedOnOff_3:
        SETB      0x90.1
//  400     }
//  401   }
//  402 #if 0
//  403   if (leds & HAL_LED_3)
//  404   {
//  405     if (mode == HAL_LED_MODE_ON)
//  406     {
//  407       HAL_TURN_ON_LED3();
//  408     }
//  409     else
//  410     {
//  411       HAL_TURN_OFF_LED3();
//  412     }
//  413   }
//  414 
//  415   if (leds & HAL_LED_4)
//  416   {
//  417     if (mode == HAL_LED_MODE_ON)
//  418     {
//  419       HAL_TURN_ON_LED4();
//  420     }
//  421     else
//  422     {
//  423       HAL_TURN_OFF_LED4();
//  424     }
//  425   }
//  426 #endif
//  427   /* Remember current state */
//  428   if (mode)
??HalLedOnOff_2:
        MOV       A,R2
        JZ        ??HalLedOnOff_5
//  429   {
//  430     HalLedState |= leds;
??HalLedOnOff_4:
        MOV       DPTR,#HalLedState
        MOVX      A,@DPTR
        ORL       A,R1
        SJMP      ??HalLedOnOff_6
//  431   }
//  432   else
//  433   {
//  434     HalLedState &= (leds ^ 0xFF);
??HalLedOnOff_5:
        MOV       A,#-0x1
        XRL       A,R1
        MOV       R0,A
        MOV       DPTR,#HalLedState
        MOVX      A,@DPTR
        ANL       A,R0
//  435   }
??HalLedOnOff_6:
        SJMP      ??Subroutine1_0
          CFI EndBlock cfiBlock4
        REQUIRE _A_P2
        REQUIRE _A_P1
//  436 }

        RSEG BANKED_CODE:HUGECODE:NOROOT(0)
?Subroutine0:
          CFI Block cfiBlock5 Using cfiCommon0
          CFI NoFunction
          CFI CFA_SP SP+-5
          CFI DPL0 Frame(CFA_SP, 4)
          CFI DPH0 Frame(CFA_SP, 5)
        MOV       DPTR,#HalLedStatusControl + 36
        CLR       A
          CFI EndBlock cfiBlock5
        REQUIRE ??Subroutine1_0
        ; // Fall through to label ??Subroutine1_0

        RSEG BANKED_CODE:HUGECODE:NOROOT(0)
??Subroutine1_0:
          CFI Block cfiBlock6 Using cfiCommon0
          CFI NoFunction
          CFI CFA_SP SP+-5
          CFI DPL0 Frame(CFA_SP, 4)
          CFI DPH0 Frame(CFA_SP, 5)
        MOVX      @DPTR,A
          CFI EndBlock cfiBlock6
        REQUIRE ??Subroutine2_0
        ; // Fall through to label ??Subroutine2_0

        RSEG BANKED_CODE:HUGECODE:NOROOT(0)
??Subroutine2_0:
          CFI Block cfiBlock7 Using cfiCommon0
          CFI NoFunction
          CFI CFA_SP SP+-5
          CFI DPL0 Frame(CFA_SP, 4)
          CFI DPH0 Frame(CFA_SP, 5)
        POP       DPH
          CFI CFA_SP SP+-4
          CFI DPH0 SameValue
        POP       DPL
          CFI CFA_SP SP+-3
          CFI DPL0 SameValue
        LJMP      ?BRET
          CFI EndBlock cfiBlock7
//  437 #endif /* HAL_LED */
//  438 
//  439 /***************************************************************************************************
//  440  * @fn      HalGetLedState
//  441  *
//  442  * @brief   Dim LED2 - Dim (set level) of LED2
//  443  *
//  444  * @param   none
//  445  *
//  446  * @return  led state
//  447  ***************************************************************************************************/

        RSEG BANKED_CODE:HUGECODE:NOROOT(0)
//  448 uint8 HalLedGetState ()
HalLedGetState:
          CFI Block cfiBlock8 Using cfiCommon0
          CFI Function HalLedGetState
        CODE
//  449 {
        PUSH      DPL
          CFI DPL0 Frame(CFA_SP, 4)
          CFI CFA_SP SP+-4
        PUSH      DPH
          CFI DPH0 Frame(CFA_SP, 5)
          CFI CFA_SP SP+-5
        ; Saved register size: 2
        ; Auto size: 0
//  450 #if (HAL_LED == TRUE)
//  451   return HalLedState;
        MOV       DPTR,#HalLedState
        MOVX      A,@DPTR
        MOV       R1,A
        SJMP      ??Subroutine2_0
//  452 #else
//  453   return 0;
//  454 #endif
//  455 }
          CFI EndBlock cfiBlock8
//  456 
//  457 /***************************************************************************************************
//  458  * @fn      HalLedEnterSleep
//  459  *
//  460  * @brief   Store current LEDs state before sleep
//  461  *
//  462  * @param   none
//  463  *
//  464  * @return  none
//  465  ***************************************************************************************************/

        RSEG BANKED_CODE:HUGECODE:NOROOT(0)
//  466 void HalLedEnterSleep( void )
HalLedEnterSleep:
          CFI Block cfiBlock9 Using cfiCommon0
          CFI Function HalLedEnterSleep
        CODE
//  467 {
        FUNCALL HalLedEnterSleep, HalLedOnOff
        LOCFRAME ISTACK, 2, STACK
        LOCFRAME PSTACK, 0, STACK
        LOCFRAME XSTACK, 0, STACK
        LOCFRAME IOVERLAY, 0, STATIC
        LOCFRAME DOVERLAY, 0, STATIC
        ARGFRAME ISTACK, 2, STACK
        ARGFRAME PSTACK, 0, STACK
        ARGFRAME XSTACK, 0, STACK
        ARGFRAME IOVERLAY, 0, STATIC
        ARGFRAME DOVERLAY, 0, STATIC
        PUSH      DPL
          CFI DPL0 Frame(CFA_SP, 4)
          CFI CFA_SP SP+-4
        PUSH      DPH
          CFI DPH0 Frame(CFA_SP, 5)
          CFI CFA_SP SP+-5
        ; Saved register size: 2
        ; Auto size: 0
//  468 #ifdef BLINK_LEDS
//  469   /* Sleep ON */
//  470   HalLedStatusControl.sleepActive = TRUE;
        MOV       DPTR,#HalLedStatusControl + 36
        MOV       A,#0x1
        MOVX      @DPTR,A
//  471 #endif /* BLINK_LEDS */
//  472 
//  473 #if (HAL_LED == TRUE)
//  474   /* Save the state of each led */
//  475   HalSleepLedState = 0;
//  476   HalSleepLedState |= HAL_STATE_LED1();
        MOV       R3,0xa0+0x0
//  477   HalSleepLedState |= HAL_STATE_LED2() << 1;
        MOV       R2,0x90+0x0
//  478   HalSleepLedState |= HAL_STATE_LED3() << 2;
        MOV       R1,0x90+0x0
//  479   HalSleepLedState |= HAL_STATE_LED4() << 3;
        MOV       R0,0xa0+0x0
        MOV       A,R1
        MOV       C,0xE0 /* A   */.4
        JNC       ??HalLedEnterSleep_0
        SETB      B.0
        SJMP      ??HalLedEnterSleep_1
??HalLedEnterSleep_0:
        CLR       B.0
??HalLedEnterSleep_1:
        MOV       A,R0
        MOV       C,0xE0 /* A   */.0
        CLR       A
        RLC       A
        RLC       A
        RLC       A
        RLC       A
        XRL       A,#0x8
        MOV       R1,A
        MOV       C,B.0
        CLR       A
        RLC       A
        RLC       A
        RLC       A
        MOV       R0,A
        MOV       A,#0x2
        XRL       A,R2
        ANL       A,#0x2
        MOV       R2,A
        SETB      B.0
        MOV       A,R3
        MOV       C,0xE0 /* A   */.0
        JNB       B.0,??HalLedEnterSleep_2
        CPL       C
??HalLedEnterSleep_2:
        CLR       A
        RLC       A
        ORL       A,R2
        ORL       A,R0
        ORL       A,R1
        MOV       DPTR,#HalSleepLedState
        MOVX      @DPTR,A
//  480 
//  481   /* TURN OFF all LEDs to save power */
//  482   HalLedOnOff (HAL_LED_ALL, HAL_LED_MODE_OFF);
        ; Setup parameters for call to function HalLedOnOff
        MOV       R2,#0x0
        MOV       R1,#0x3
        LCALL     `??HalLedOnOff::?relay`; Banked call to: HalLedOnOff
//  483 #endif /* HAL_LED */
//  484 
//  485 }
        SJMP      ??Subroutine2_0
          CFI EndBlock cfiBlock9
        REQUIRE _A_P2
        REQUIRE _A_P1
//  486 
//  487 /***************************************************************************************************
//  488  * @fn      HalLedExitSleep
//  489  *
//  490  * @brief   Restore current LEDs state after sleep
//  491  *
//  492  * @param   none
//  493  *
//  494  * @return  none
//  495  ***************************************************************************************************/

        RSEG BANKED_CODE:HUGECODE:NOROOT(0)
//  496 void HalLedExitSleep( void )
HalLedExitSleep:
          CFI Block cfiBlock10 Using cfiCommon0
          CFI Function HalLedExitSleep
        CODE
//  497 {
        FUNCALL HalLedExitSleep, HalLedOnOff
        LOCFRAME ISTACK, 2, STACK
        LOCFRAME PSTACK, 0, STACK
        LOCFRAME XSTACK, 0, STACK
        LOCFRAME IOVERLAY, 0, STATIC
        LOCFRAME DOVERLAY, 0, STATIC
        ARGFRAME ISTACK, 2, STACK
        ARGFRAME PSTACK, 0, STACK
        ARGFRAME XSTACK, 0, STACK
        ARGFRAME IOVERLAY, 0, STATIC
        ARGFRAME DOVERLAY, 0, STATIC
        FUNCALL HalLedExitSleep, HalLedUpdate
        LOCFRAME ISTACK, 2, STACK
        LOCFRAME PSTACK, 0, STACK
        LOCFRAME XSTACK, 0, STACK
        LOCFRAME IOVERLAY, 0, STATIC
        LOCFRAME DOVERLAY, 0, STATIC
        ARGFRAME ISTACK, 2, STACK
        ARGFRAME PSTACK, 0, STACK
        ARGFRAME XSTACK, 0, STACK
        ARGFRAME IOVERLAY, 0, STATIC
        ARGFRAME DOVERLAY, 0, STATIC
        PUSH      DPL
          CFI DPL0 Frame(CFA_SP, 4)
          CFI CFA_SP SP+-4
        PUSH      DPH
          CFI DPH0 Frame(CFA_SP, 5)
          CFI CFA_SP SP+-5
        ; Saved register size: 2
        ; Auto size: 0
//  498 #if (HAL_LED == TRUE)
//  499   /* Load back the saved state */
//  500   HalLedOnOff(HalSleepLedState, HAL_LED_MODE_ON);
        ; Setup parameters for call to function HalLedOnOff
        MOV       R2,#0x1
        MOV       DPTR,#HalSleepLedState
        MOVX      A,@DPTR
        MOV       R1,A
        LCALL     `??HalLedOnOff::?relay`; Banked call to: HalLedOnOff
//  501 
//  502   /* Restart - This takes care BLINKING LEDS */
//  503   HalLedUpdate();
        ; Setup parameters for call to function HalLedUpdate
        LCALL     `??HalLedUpdate::?relay`; Banked call to: HalLedUpdate
//  504 #endif /* HAL_LED */
//  505 
//  506 #ifdef BLINK_LEDS
//  507   /* Sleep OFF */
//  508   HalLedStatusControl.sleepActive = FALSE;
        SJMP      ?Subroutine0
//  509 #endif /* BLINK_LEDS */
//  510 }
          CFI EndBlock cfiBlock10

        RSEG XDATA_ROM_C:CONST:REORDER:NOROOT(0)
        DATA32
__Constant_64:
        DD 100

        RSEG BANK_RELAYS:CODE:REORDER:NOROOT(0)
`??HalLedInit::?relay`:
        CODE
        LCALL   ?BDISPATCH
        DATA24
        DC24    HalLedInit

        RSEG BANK_RELAYS:CODE:REORDER:NOROOT(0)
`??HalLedSet::?relay`:
        CODE
        LCALL   ?BDISPATCH
        DATA24
        DC24    HalLedSet

        RSEG BANK_RELAYS:CODE:REORDER:NOROOT(0)
`??HalLedBlink::?relay`:
        CODE
        LCALL   ?BDISPATCH
        DATA24
        DC24    HalLedBlink

        RSEG BANK_RELAYS:CODE:REORDER:NOROOT(0)
`??HalLedUpdate::?relay`:
        CODE
        LCALL   ?BDISPATCH
        DATA24
        DC24    HalLedUpdate

        RSEG BANK_RELAYS:CODE:REORDER:NOROOT(0)
`??HalLedOnOff::?relay`:
        CODE
        LCALL   ?BDISPATCH
        DATA24
        DC24    HalLedOnOff

        RSEG BANK_RELAYS:CODE:REORDER:NOROOT(0)
`??HalLedGetState::?relay`:
        CODE
        LCALL   ?BDISPATCH
        DATA24
        DC24    HalLedGetState

        RSEG BANK_RELAYS:CODE:REORDER:NOROOT(0)
`??HalLedEnterSleep::?relay`:
        CODE
        LCALL   ?BDISPATCH
        DATA24
        DC24    HalLedEnterSleep

        RSEG BANK_RELAYS:CODE:REORDER:NOROOT(0)
`??HalLedExitSleep::?relay`:
        CODE
        LCALL   ?BDISPATCH
        DATA24
        DC24    HalLedExitSleep

        END
//  511 
//  512 /***************************************************************************************************
//  513 ***************************************************************************************************/
//  514 
//  515 
//  516 
//  517 
// 
// 912 bytes in segment BANKED_CODE
//  48 bytes in segment BANK_RELAYS
//   2 bytes in segment SFR_AN
//   4 bytes in segment XDATA_ROM_C
//  40 bytes in segment XDATA_Z
// 
//  48 bytes of CODE     memory
//   0 bytes of CONST    memory (+ 4 bytes shared)
//   0 bytes of DATA     memory (+ 2 bytes shared)
// 912 bytes of HUGECODE memory
//  40 bytes of XDATA    memory
//
//Errors: none
//Warnings: none
