///////////////////////////////////////////////////////////////////////////////
//
// IAR C/C++ Compiler V10.30.1.6000 for 8051              22/Aug/2019  20:42:35
// Copyright 2004-2018 IAR Systems AB.
// PC-locked license - IAR Embedded Workbench for 8051
//
//    Core               =  plain
//    Code model         =  banked
//    Data model         =  large
//    Calling convention =  xdata reentrant
//    Constant location  =  data_rom
//    Dptr setup         =  1,16
//                          
//    Source file        =  
//        E:\gitRepository\OldPeopleHome\zigbee\ZStack-CC2530-r200\Components\mac\low_level\srf04\mac_rx.c
//    Command line       =  
//        -f C:\Users\VULCAN\AppData\Local\Temp\EWECC7.tmp
//        (E:\gitRepository\OldPeopleHome\zigbee\ZStack-CC2530-r200\Components\mac\low_level\srf04\mac_rx.c
//        -D ZIGBEEPRO -D ZTOOL_P1 -D MT_TASK -D MT_SYS_FUNC -D MT_ZDO_FUNC -D
//        LCD_SUPPORTED=DEBUG -D SAPP_ZSTACK -lC
//        E:\gitRepository\OldPeopleHome\zigbee\ZStack-CC2530-r200\Projects\SappWsn\RouterEB\List
//        -lA
//        E:\gitRepository\OldPeopleHome\zigbee\ZStack-CC2530-r200\Projects\SappWsn\RouterEB\List
//        --diag_suppress Pe001,Pa010 -o
//        E:\gitRepository\OldPeopleHome\zigbee\ZStack-CC2530-r200\Projects\SappWsn\RouterEB\Obj
//        -e --debug --core=plain --dptr=16,1 --data_model=large
//        --code_model=banked --calling_convention=xdata_reentrant
//        --place_constants=data_rom --nr_virtual_regs 8 -f
//        E:\gitRepository\OldPeopleHome\zigbee\ZStack-CC2530-r200\Projects\SappWsn\..\zstack\Tools\CC2530DB\f8wRouter.cfg
//        (-DCPU32MHZ -DROOT=__near_func -DMAC_CFG_APP_PENDING_QUEUE=TRUE
//        -DMAC_CFG_TX_DATA_MAX=5 -DMAC_CFG_TX_MAX=8 -DMAC_CFG_RX_MAX=5
//        -DRTR_NWK) -f
//        E:\gitRepository\OldPeopleHome\zigbee\ZStack-CC2530-r200\Projects\SappWsn\..\zstack\Tools\CC2530DB\f8wConfig.cfg
//        (-DZIGBEEPRO -DSECURE=0 -DZG_SECURE_DYNAMIC=0 -DREFLECTOR
//        -DDEFAULT_CHANLIST=0x00000800 -DZDAPP_CONFIG_PAN_ID=0x0057
//        -DNWK_START_DELAY=100 -DEXTENDED_JOINING_RANDOM_MASK=0x007F
//        -DBEACON_REQUEST_DELAY=100 -DBEACON_REQ_DELAY_MASK=0x00FF
//        -DLINK_STATUS_JITTER_MASK=0x007F -DROUTE_EXPIRY_TIME=30
//        -DAPSC_ACK_WAIT_DURATION_POLLED=3000 -DNWK_INDIRECT_MSG_TIMEOUT=7
//        -DMAX_RREQ_ENTRIES=8 -DAPSC_MAX_FRAME_RETRIES=3
//        -DNWK_MAX_DATA_RETRIES=2 -DMAX_POLL_FAILURE_RETRIES=2 -DMAX_BCAST=9
//        -DAPS_MAX_GROUPS=16 -DMAX_RTG_ENTRIES=40 -DNWK_MAX_BINDING_ENTRIES=4
//        -DMAX_BINDING_CLUSTER_IDS=4 "-DDEFAULT_KEY={0x01, 0x03, 0x05, 0x07,
//        0x09, 0x0B, 0x0D, 0x0F, 0x00, 0x02, 0x04, 0x06, 0x08, 0x0A, 0x0C,
//        0x0D}" -DMAC_MAX_FRAME_SIZE=116 -DZDNWKMGR_MIN_TRANSMISSIONS=20
//        "-DCONST=const __code" -DGENERIC=__generic -DRFD_RCVC_ALWAYS_ON=FALSE
//        -DPOLL_RATE=1000 -DQUEUED_POLL_RATE=100 -DRESPONSE_POLL_RATE=100
//        -DREJOIN_POLL_RATE=440) -I
//        E:\gitRepository\OldPeopleHome\zigbee\ZStack-CC2530-r200\Projects\SappWsn\
//        -I
//        E:\gitRepository\OldPeopleHome\zigbee\ZStack-CC2530-r200\Projects\SappWsn\Source\
//        -I
//        E:\gitRepository\OldPeopleHome\zigbee\ZStack-CC2530-r200\Projects\SappWsn\..\zstack\ZMain\TI2530DB\
//        -I
//        E:\gitRepository\OldPeopleHome\zigbee\ZStack-CC2530-r200\Projects\SappWsn\..\..\Components\hal\include\
//        -I
//        E:\gitRepository\OldPeopleHome\zigbee\ZStack-CC2530-r200\Projects\SappWsn\..\..\Components\hal\target\CC2530EB\
//        -I
//        E:\gitRepository\OldPeopleHome\zigbee\ZStack-CC2530-r200\Projects\SappWsn\..\..\Components\mac\include\
//        -I
//        E:\gitRepository\OldPeopleHome\zigbee\ZStack-CC2530-r200\Projects\SappWsn\..\..\Components\mac\high_level\
//        -I
//        E:\gitRepository\OldPeopleHome\zigbee\ZStack-CC2530-r200\Projects\SappWsn\..\..\Components\mac\low_level\srf04\
//        -I
//        E:\gitRepository\OldPeopleHome\zigbee\ZStack-CC2530-r200\Projects\SappWsn\..\..\Components\mac\low_level\srf04\single_chip\
//        -I
//        E:\gitRepository\OldPeopleHome\zigbee\ZStack-CC2530-r200\Projects\SappWsn\..\..\Components\mt\
//        -I
//        E:\gitRepository\OldPeopleHome\zigbee\ZStack-CC2530-r200\Projects\SappWsn\..\..\Components\osal\include\
//        -I
//        E:\gitRepository\OldPeopleHome\zigbee\ZStack-CC2530-r200\Projects\SappWsn\..\..\Components\services\saddr\
//        -I
//        E:\gitRepository\OldPeopleHome\zigbee\ZStack-CC2530-r200\Projects\SappWsn\..\..\Components\services\sdata\
//        -I
//        E:\gitRepository\OldPeopleHome\zigbee\ZStack-CC2530-r200\Projects\SappWsn\..\..\Components\stack\af\
//        -I
//        E:\gitRepository\OldPeopleHome\zigbee\ZStack-CC2530-r200\Projects\SappWsn\..\..\Components\stack\nwk\
//        -I
//        E:\gitRepository\OldPeopleHome\zigbee\ZStack-CC2530-r200\Projects\SappWsn\..\..\Components\stack\sapi\
//        -I
//        E:\gitRepository\OldPeopleHome\zigbee\ZStack-CC2530-r200\Projects\SappWsn\..\..\Components\stack\sec\
//        -I
//        E:\gitRepository\OldPeopleHome\zigbee\ZStack-CC2530-r200\Projects\SappWsn\..\..\Components\stack\sys\
//        -I
//        E:\gitRepository\OldPeopleHome\zigbee\ZStack-CC2530-r200\Projects\SappWsn\..\..\Components\stack\zdo\
//        -I
//        E:\gitRepository\OldPeopleHome\zigbee\ZStack-CC2530-r200\Projects\SappWsn\..\..\Components\zmac\
//        -I
//        E:\gitRepository\OldPeopleHome\zigbee\ZStack-CC2530-r200\Projects\SappWsn\..\..\Components\zmac\f8w\
//        -Ohz --require_prototypes --no_code_motion)
//    Locale             =  Chinese (Simplified)_CHN.936
//    List file          =  
//        E:\gitRepository\OldPeopleHome\zigbee\ZStack-CC2530-r200\Projects\SappWsn\RouterEB\List\mac_rx.s51
//
///////////////////////////////////////////////////////////////////////////////

        NAME mac_rx

        RTMODEL "__SystemLibrary", "CLib"
        RTMODEL "__calling_convention", "xdata_reentrant"
        RTMODEL "__code_model", "banked"
        RTMODEL "__core", "plain"
        RTMODEL "__data_model", "large"
        RTMODEL "__dptr_size", "16"
        RTMODEL "__extended_stack", "disabled"
        RTMODEL "__location_for_constants", "data"
        RTMODEL "__number_of_dptrs", "1"
        RTMODEL "__register_banks", "*"
        RTMODEL "__rt_version", "1"

        RSEG DOVERLAY:DATA:NOROOT(0)
        RSEG IOVERLAY:IDATA:NOROOT(0)
        RSEG ISTACK:IDATA:NOROOT(0)
        RSEG PSTACK:XDATA:NOROOT(0)
        RSEG XSTACK:XDATA:NOROOT(0)

        EXTERN ?V0
        EXTERN ?V1
        EXTERN ?V2
        EXTERN ?V3
        EXTERN ?V4
        EXTERN ?V5
        EXTERN ?V6
        EXTERN ?V7
        EXTERN ?ALLOC_XSTACK8
        EXTERN ?BANKED_ENTER_XDATA
        EXTERN ?BANKED_LEAVE_XDATA
        EXTERN ?BDISPATCH
        EXTERN ?BRET
        EXTERN ?CALL_IND
        EXTERN ?DEALLOC_XSTACK8
        EXTERN ?L_MOV_TO_X
        EXTERN ?PUSH_XSTACK_I_THREE
        EXTERN ?XSP
        EXTERN ?XSTACK_DISP0_8
        EXTERN __INIT_XDATA_Z

        PUBLIC `??macRxAckTxDoneCallback::?relay`
        FUNCTION `??macRxAckTxDoneCallback::?relay`,0203H
        PUBLIC `??macRxFifoOverflowIsr::?relay`
        FUNCTION `??macRxFifoOverflowIsr::?relay`,0203H
        PUBLIC `??macRxHaltCleanup::?relay`
        FUNCTION `??macRxHaltCleanup::?relay`,0203H
        PUBLIC `??macRxInit::?relay`
        FUNCTION `??macRxInit::?relay`,0203H
        PUBLIC `??macRxPromiscuousMode::?relay`
        FUNCTION `??macRxPromiscuousMode::?relay`,0203H
        PUBLIC `??macRxRadioPowerUpInit::?relay`
        FUNCTION `??macRxRadioPowerUpInit::?relay`,0203H
        PUBLIC `??macRxThresholdIsr::?relay`
        FUNCTION `??macRxThresholdIsr::?relay`,0203H
        PUBLIC `??macRxTxReset::?relay`
        FUNCTION `??macRxTxReset::?relay`,0203H
        FUNCTION `??rxAddrIsr::?relay`,0203H
        FUNCTION `??rxDiscardFrame::?relay`,0203H
        FUNCTION `??rxDiscardIsr::?relay`,0203H
        FUNCTION `??rxDone::?relay`,0203H
        FUNCTION `??rxFcsIsr::?relay`,0203H
        FUNCTION `??rxHaltCleanupFinalStep::?relay`,0203H
        FUNCTION `??rxPayloadIsr::?relay`,0203H
        FUNCTION `??rxPostRxUpdates::?relay`,0203H
        FUNCTION `??rxPrepPayload::?relay`,0203H
        FUNCTION `??rxStartIsr::?relay`,0203H
        PUBWEAK RFIRQF0
        PUBWEAK RFIRQF1
        PUBWEAK RFST
        PUBWEAK S1CON
        PUBWEAK _A_IEN0
        PUBLIC macRxAckTxDoneCallback
        FUNCTION macRxAckTxDoneCallback,021203H
        ARGFRAME XSTACK, 0, STACK
        LOCFRAME ISTACK, 2, STACK
        PUBLIC macRxActive
        PUBLIC macRxFifoOverflowIsr
        FUNCTION macRxFifoOverflowIsr,021203H
        ARGFRAME XSTACK, 0, STACK
        LOCFRAME ISTACK, 2, STACK
        PUBLIC macRxFilter
        PUBLIC macRxHaltCleanup
        FUNCTION macRxHaltCleanup,021203H
        ARGFRAME XSTACK, 0, STACK
        ARGFRAME IOVERLAY, 0, STATIC
        ARGFRAME DOVERLAY, 0, STATIC
        LOCFRAME ISTACK, 2, STACK
        PUBLIC macRxInit
        FUNCTION macRxInit,0203H
        ARGFRAME XSTACK, 0, STACK
        LOCFRAME ISTACK, 2, STACK
        PUBLIC macRxOutgoingAckFlag
        PUBLIC macRxPromiscuousMode
        FUNCTION macRxPromiscuousMode,021203H
        ARGFRAME XSTACK, 0, STACK
        ARGFRAME IOVERLAY, 0, STATIC
        ARGFRAME DOVERLAY, 0, STATIC
        LOCFRAME XSTACK, 9, STACK
        PUBLIC macRxRadioPowerUpInit
        FUNCTION macRxRadioPowerUpInit,0203H
        ARGFRAME XSTACK, 0, STACK
        LOCFRAME ISTACK, 2, STACK
        PUBLIC macRxThresholdIsr
        FUNCTION macRxThresholdIsr,021203H
        ARGFRAME XSTACK, 0, STACK
        LOCFRAME ISTACK, 2, STACK
        PUBLIC macRxTxReset
        FUNCTION macRxTxReset,021203H
        ARGFRAME XSTACK, 0, STACK
        LOCFRAME ISTACK, 2, STACK
        FUNCTION rxAddrIsr,0a1603H
        ARGFRAME XSTACK, 0, STACK
        LOCFRAME XSTACK, 30, STACK
        FUNCTION rxDiscardFrame,021203H
        ARGFRAME XSTACK, 18, STACK
        ARGFRAME IOVERLAY, 0, STATIC
        ARGFRAME DOVERLAY, 0, STATIC
        LOCFRAME ISTACK, 2, STACK
        FUNCTION rxDiscardIsr,021603H
        ARGFRAME XSTACK, 0, STACK
        LOCFRAME ISTACK, 2, STACK
        LOCFRAME XSTACK, 16, STACK
        FUNCTION rxDone,021203H
        ARGFRAME XSTACK, 18, STACK
        ARGFRAME IOVERLAY, 0, STATIC
        ARGFRAME DOVERLAY, 0, STATIC
        LOCFRAME ISTACK, 2, STACK
        FUNCTION rxFcsIsr,0a1603H
        ARGFRAME XSTACK, 0, STACK
        LOCFRAME ISTACK, 1, STACK
        LOCFRAME XSTACK, 10, STACK
        FUNCTION rxHaltCleanupFinalStep,021203H
        ARGFRAME XSTACK, 0, STACK
        ARGFRAME IOVERLAY, 0, STATIC
        ARGFRAME DOVERLAY, 0, STATIC
        LOCFRAME ISTACK, 2, STACK
        FUNCTION rxPayloadIsr,021603H
        ARGFRAME XSTACK, 0, STACK
        LOCFRAME ISTACK, 2, STACK
        FUNCTION rxPostRxUpdates,021203H
        ARGFRAME XSTACK, 18, STACK
        ARGFRAME IOVERLAY, 0, STATIC
        ARGFRAME DOVERLAY, 0, STATIC
        LOCFRAME ISTACK, 2, STACK
        FUNCTION rxPrepPayload,0203H
        ARGFRAME XSTACK, 30, STACK
        ARGFRAME IOVERLAY, 0, STATIC
        ARGFRAME DOVERLAY, 0, STATIC
        LOCFRAME ISTACK, 2, STACK
        FUNCTION rxStartIsr,0a1603H
        ARGFRAME XSTACK, 0, STACK
        LOCFRAME ISTACK, 1, STACK
        LOCFRAME XSTACK, 21, STACK
        
          CFI Names cfiNames0
          CFI StackFrame CFA_SP SP IDATA
          CFI StackFrame CFA_PSP16 PSP16 XDATA
          CFI StackFrame CFA_XSP16 XSP16 XDATA
          CFI StaticOverlayFrame CFA_IOVERLAY IOVERLAY
          CFI StaticOverlayFrame CFA_DOVERLAY DOVERLAY
          CFI Resource `PSW.CY`:1, `B.BR0`:1, `B.BR1`:1, `B.BR2`:1, `B.BR3`:1
          CFI Resource `B.BR4`:1, `B.BR5`:1, `B.BR6`:1, `B.BR7`:1, `VB.BR8`:1
          CFI Resource `VB.BR9`:1, `VB.BR10`:1, `VB.BR11`:1, `VB.BR12`:1
          CFI Resource `VB.BR13`:1, `VB.BR14`:1, `VB.BR15`:1, VB:8, B:8, A:8
          CFI Resource PSW:8, DPL0:8, DPH0:8, R0:8, R1:8, R2:8, R3:8, R4:8, R5:8
          CFI Resource R6:8, R7:8, V0:8, V1:8, V2:8, V3:8, V4:8, V5:8, V6:8, V7:8
          CFI Resource SP:8, PSPH:8, PSPL:8, PSP16:16, XSPH:8, XSPL:8, XSP16:16
          CFI VirtualResource ?RET:24
          CFI Resource ?BRET_EXT:8
          CFI VirtualResource ?RET_HIGH:8, ?RET_LOW:8
          CFI ResourceParts PSP16 PSPH, PSPL
          CFI ResourceParts XSP16 XSPH, XSPL
          CFI ResourceParts ?RET ?BRET_EXT, ?RET_HIGH, ?RET_LOW
          CFI EndNames cfiNames0
        
          CFI Common cfiCommon0 Using cfiNames0
          CFI CodeAlign 1
          CFI DataAlign -1
          CFI ReturnAddress ?RET CODE
          CFI CFA_DOVERLAY Used
          CFI CFA_IOVERLAY Used
          CFI CFA_SP SP+-3
          CFI CFA_PSP16 PSP16+0
          CFI CFA_XSP16 XSP16+0
          CFI `PSW.CY` SameValue
          CFI `B.BR0` SameValue
          CFI `B.BR1` SameValue
          CFI `B.BR2` SameValue
          CFI `B.BR3` SameValue
          CFI `B.BR4` SameValue
          CFI `B.BR5` SameValue
          CFI `B.BR6` SameValue
          CFI `B.BR7` SameValue
          CFI `VB.BR8` SameValue
          CFI `VB.BR9` SameValue
          CFI `VB.BR10` SameValue
          CFI `VB.BR11` SameValue
          CFI `VB.BR12` SameValue
          CFI `VB.BR13` SameValue
          CFI `VB.BR14` SameValue
          CFI `VB.BR15` SameValue
          CFI VB SameValue
          CFI B Undefined
          CFI A Undefined
          CFI PSW SameValue
          CFI DPL0 SameValue
          CFI DPH0 SameValue
          CFI R0 Undefined
          CFI R1 Undefined
          CFI R2 Undefined
          CFI R3 Undefined
          CFI R4 Undefined
          CFI R5 Undefined
          CFI R6 SameValue
          CFI R7 SameValue
          CFI V0 SameValue
          CFI V1 SameValue
          CFI V2 SameValue
          CFI V3 SameValue
          CFI V4 SameValue
          CFI V5 SameValue
          CFI V6 SameValue
          CFI V7 SameValue
          CFI PSPH Undefined
          CFI PSPL Undefined
          CFI XSPH Undefined
          CFI XSPL Undefined
          CFI ?RET Concat
          CFI ?BRET_EXT Frame(CFA_SP, 3)
          CFI ?RET_HIGH Frame(CFA_SP, 2)
          CFI ?RET_LOW Frame(CFA_SP, 1)
          CFI EndCommon cfiCommon0
        
        
          CFI Common cfiCommon1 Using cfiNames0
          CFI CodeAlign 1
          CFI DataAlign -1
          CFI ReturnAddress ?RET CODE
          CFI CFA_DOVERLAY Used
          CFI CFA_IOVERLAY Used
          CFI CFA_SP SP+-2
          CFI CFA_PSP16 PSP16+0
          CFI CFA_XSP16 XSP16+0
          CFI `PSW.CY` SameValue
          CFI `B.BR0` SameValue
          CFI `B.BR1` SameValue
          CFI `B.BR2` SameValue
          CFI `B.BR3` SameValue
          CFI `B.BR4` SameValue
          CFI `B.BR5` SameValue
          CFI `B.BR6` SameValue
          CFI `B.BR7` SameValue
          CFI `VB.BR8` SameValue
          CFI `VB.BR9` SameValue
          CFI `VB.BR10` SameValue
          CFI `VB.BR11` SameValue
          CFI `VB.BR12` SameValue
          CFI `VB.BR13` SameValue
          CFI `VB.BR14` SameValue
          CFI `VB.BR15` SameValue
          CFI VB SameValue
          CFI B SameValue
          CFI A SameValue
          CFI PSW SameValue
          CFI DPL0 SameValue
          CFI DPH0 SameValue
          CFI R0 SameValue
          CFI R1 SameValue
          CFI R2 SameValue
          CFI R3 SameValue
          CFI R4 SameValue
          CFI R5 SameValue
          CFI R6 SameValue
          CFI R7 SameValue
          CFI V0 SameValue
          CFI V1 SameValue
          CFI V2 SameValue
          CFI V3 SameValue
          CFI V4 SameValue
          CFI V5 SameValue
          CFI V6 SameValue
          CFI V7 SameValue
          CFI PSPH Undefined
          CFI PSPL Undefined
          CFI XSPH Undefined
          CFI XSPL Undefined
          CFI ?RET Concat
          CFI ?BRET_EXT SameValue
          CFI ?RET_HIGH Frame(CFA_SP, 2)
          CFI ?RET_LOW Frame(CFA_SP, 1)
          CFI EndCommon cfiCommon1
        
MAC_SrcMatchCheckAllPending SYMBOL "MAC_SrcMatchCheckAllPending"
`??MAC_SrcMatchCheckAllPending::?relay` SYMBOL "?relay", MAC_SrcMatchCheckAllPending
MAC_SrcMatchCheckResult SYMBOL "MAC_SrcMatchCheckResult"
`??MAC_SrcMatchCheckResult::?relay` SYMBOL "?relay", MAC_SrcMatchCheckResult
halAssertHandler    SYMBOL "halAssertHandler"
`??halAssertHandler::?relay` SYMBOL "?relay", halAssertHandler
macCspForceTxDoneIfPending SYMBOL "macCspForceTxDoneIfPending"
`??macCspForceTxDoneIfPending::?relay` SYMBOL "?relay", macCspForceTxDoneIfPending
macDataRxMemAlloc   SYMBOL "macDataRxMemAlloc"
`??macDataRxMemAlloc::?relay` SYMBOL "?relay", macDataRxMemAlloc
macDataRxMemFree    SYMBOL "macDataRxMemFree"
`??macDataRxMemFree::?relay` SYMBOL "?relay", macDataRxMemFree
macMcuOverflowCapture SYMBOL "macMcuOverflowCapture"
`??macMcuOverflowCapture::?relay` SYMBOL "?relay", macMcuOverflowCapture
macMcuTimerCapture  SYMBOL "macMcuTimerCapture"
`??macMcuTimerCapture::?relay` SYMBOL "?relay", macMcuTimerCapture
macMemReadRxFifo    SYMBOL "macMemReadRxFifo"
`??macMemReadRxFifo::?relay` SYMBOL "?relay", macMemReadRxFifo
macRadioComputeLQI  SYMBOL "macRadioComputeLQI"
`??macRadioComputeLQI::?relay` SYMBOL "?relay", macRadioComputeLQI
macRadioUpdateTxPower SYMBOL "macRadioUpdateTxPower"
`??macRadioUpdateTxPower::?relay` SYMBOL "?relay", macRadioUpdateTxPower
macRxCheckMACPendingCallback SYMBOL "macRxCheckMACPendingCallback"
`??macRxCheckMACPendingCallback::?relay` SYMBOL "?relay", macRxCheckMACPendingCallback
macRxCheckPendingCallback SYMBOL "macRxCheckPendingCallback"
`??macRxCheckPendingCallback::?relay` SYMBOL "?relay", macRxCheckPendingCallback
macRxCompleteCallback SYMBOL "macRxCompleteCallback"
`??macRxCompleteCallback::?relay` SYMBOL "?relay", macRxCompleteCallback
macRxHardDisable    SYMBOL "macRxHardDisable"
`??macRxHardDisable::?relay` SYMBOL "?relay", macRxHardDisable
macRxOffRequest     SYMBOL "macRxOffRequest"
`??macRxOffRequest::?relay` SYMBOL "?relay", macRxOffRequest
macTxAckNotReceivedCallback SYMBOL "macTxAckNotReceivedCallback"
`??macTxAckNotReceivedCallback::?relay` SYMBOL "?relay", macTxAckNotReceivedCallback
macTxAckReceivedCallback SYMBOL "macTxAckReceivedCallback"
`??macTxAckReceivedCallback::?relay` SYMBOL "?relay", macTxAckReceivedCallback
macTxStartQueuedFrame SYMBOL "macTxStartQueuedFrame"
`??macTxStartQueuedFrame::?relay` SYMBOL "?relay", macTxStartQueuedFrame
osal_memcpy         SYMBOL "osal_memcpy"
`??osal_memcpy::?relay` SYMBOL "?relay", osal_memcpy
sAddrExtCpy         SYMBOL "sAddrExtCpy"
`??sAddrExtCpy::?relay` SYMBOL "?relay", sAddrExtCpy
macRxAckTxDoneCallback SYMBOL "macRxAckTxDoneCallback"
`??macRxAckTxDoneCallback::?relay` SYMBOL "?relay", macRxAckTxDoneCallback
macRxFifoOverflowIsr SYMBOL "macRxFifoOverflowIsr"
`??macRxFifoOverflowIsr::?relay` SYMBOL "?relay", macRxFifoOverflowIsr
macRxHaltCleanup    SYMBOL "macRxHaltCleanup"
`??macRxHaltCleanup::?relay` SYMBOL "?relay", macRxHaltCleanup
macRxInit           SYMBOL "macRxInit"
`??macRxInit::?relay` SYMBOL "?relay", macRxInit
macRxPromiscuousMode SYMBOL "macRxPromiscuousMode"
`??macRxPromiscuousMode::?relay` SYMBOL "?relay", macRxPromiscuousMode
macRxRadioPowerUpInit SYMBOL "macRxRadioPowerUpInit"
`??macRxRadioPowerUpInit::?relay` SYMBOL "?relay", macRxRadioPowerUpInit
macRxThresholdIsr   SYMBOL "macRxThresholdIsr"
`??macRxThresholdIsr::?relay` SYMBOL "?relay", macRxThresholdIsr
macRxTxReset        SYMBOL "macRxTxReset"
`??macRxTxReset::?relay` SYMBOL "?relay", macRxTxReset

        EXTERN `??MAC_SrcMatchCheckAllPending::?relay`
        FUNCTION `??MAC_SrcMatchCheckAllPending::?relay`,00H
        EXTERN `??MAC_SrcMatchCheckResult::?relay`
        FUNCTION `??MAC_SrcMatchCheckResult::?relay`,00H
        EXTERN `??halAssertHandler::?relay`
        FUNCTION `??halAssertHandler::?relay`,00H
        EXTERN `??macCspForceTxDoneIfPending::?relay`
        FUNCTION `??macCspForceTxDoneIfPending::?relay`,00H
        EXTERN `??macDataRxMemAlloc::?relay`
        FUNCTION `??macDataRxMemAlloc::?relay`,00H
        EXTERN `??macDataRxMemFree::?relay`
        FUNCTION `??macDataRxMemFree::?relay`,00H
        EXTERN `??macMcuOverflowCapture::?relay`
        FUNCTION `??macMcuOverflowCapture::?relay`,00H
        EXTERN `??macMcuTimerCapture::?relay`
        FUNCTION `??macMcuTimerCapture::?relay`,00H
        EXTERN `??macMemReadRxFifo::?relay`
        FUNCTION `??macMemReadRxFifo::?relay`,00H
        EXTERN `??macRadioComputeLQI::?relay`
        FUNCTION `??macRadioComputeLQI::?relay`,00H
        EXTERN `??macRadioUpdateTxPower::?relay`
        FUNCTION `??macRadioUpdateTxPower::?relay`,00H
        EXTERN `??macRxCheckMACPendingCallback::?relay`
        FUNCTION `??macRxCheckMACPendingCallback::?relay`,00H
        EXTERN `??macRxCheckPendingCallback::?relay`
        FUNCTION `??macRxCheckPendingCallback::?relay`,00H
        EXTERN `??macRxCompleteCallback::?relay`
        FUNCTION `??macRxCompleteCallback::?relay`,00H
        EXTERN `??macRxHardDisable::?relay`
        FUNCTION `??macRxHardDisable::?relay`,00H
        EXTERN `??macRxOffRequest::?relay`
        FUNCTION `??macRxOffRequest::?relay`,00H
        EXTERN `??macTxAckNotReceivedCallback::?relay`
        FUNCTION `??macTxAckNotReceivedCallback::?relay`,00H
        EXTERN `??macTxAckReceivedCallback::?relay`
        FUNCTION `??macTxAckReceivedCallback::?relay`,00H
        EXTERN `??macTxStartQueuedFrame::?relay`
        FUNCTION `??macTxStartQueuedFrame::?relay`,00H
        EXTERN `??osal_memcpy::?relay`
        FUNCTION `??osal_memcpy::?relay`,00H
        EXTERN `??sAddrExtCpy::?relay`
        FUNCTION `??sAddrExtCpy::?relay`,00H
        EXTERN MAC_SrcMatchCheckAllPending
        FUNCTION MAC_SrcMatchCheckAllPending,0202H
        ARGFRAME ISTACK, 0, STACK
        ARGFRAME PSTACK, 0, STACK
        ARGFRAME XSTACK, 18, STACK
        ARGFRAME IOVERLAY, 0, STATIC
        ARGFRAME DOVERLAY, 0, STATIC
        EXTERN MAC_SrcMatchCheckResult
        FUNCTION MAC_SrcMatchCheckResult,0202H
        ARGFRAME ISTACK, 0, STACK
        ARGFRAME PSTACK, 0, STACK
        ARGFRAME XSTACK, 10, STACK
        ARGFRAME IOVERLAY, 0, STATIC
        ARGFRAME DOVERLAY, 0, STATIC
        EXTERN halAssertHandler
        FUNCTION halAssertHandler,0202H
        ARGFRAME ISTACK, 2, STACK
        ARGFRAME PSTACK, 0, STACK
        ARGFRAME XSTACK, 30, STACK
        ARGFRAME IOVERLAY, 0, STATIC
        ARGFRAME DOVERLAY, 0, STATIC
        EXTERN macChipVersion
        EXTERN macCspForceTxDoneIfPending
        FUNCTION macCspForceTxDoneIfPending,0202H
        ARGFRAME ISTACK, 0, STACK
        ARGFRAME PSTACK, 0, STACK
        ARGFRAME XSTACK, 18, STACK
        ARGFRAME IOVERLAY, 0, STATIC
        ARGFRAME DOVERLAY, 0, STATIC
        EXTERN macDataRxMemAlloc
        FUNCTION macDataRxMemAlloc,0202H
        ARGFRAME ISTACK, 0, STACK
        ARGFRAME PSTACK, 0, STACK
        ARGFRAME XSTACK, 18, STACK
        ARGFRAME IOVERLAY, 0, STATIC
        ARGFRAME DOVERLAY, 0, STATIC
        EXTERN macDataRxMemFree
        FUNCTION macDataRxMemFree,0202H
        ARGFRAME ISTACK, 2, STACK
        ARGFRAME PSTACK, 0, STACK
        ARGFRAME XSTACK, 10, STACK
        ARGFRAME IOVERLAY, 0, STATIC
        ARGFRAME DOVERLAY, 0, STATIC
        EXTERN macMcuOverflowCapture
        FUNCTION macMcuOverflowCapture,0202H
        ARGFRAME ISTACK, 0, STACK
        ARGFRAME PSTACK, 0, STACK
        ARGFRAME XSTACK, 18, STACK
        ARGFRAME IOVERLAY, 0, STATIC
        ARGFRAME DOVERLAY, 0, STATIC
        EXTERN macMcuTimerCapture
        FUNCTION macMcuTimerCapture,0202H
        ARGFRAME ISTACK, 0, STACK
        ARGFRAME PSTACK, 0, STACK
        ARGFRAME XSTACK, 18, STACK
        ARGFRAME IOVERLAY, 0, STATIC
        ARGFRAME DOVERLAY, 0, STATIC
        EXTERN macMemReadRxFifo
        FUNCTION macMemReadRxFifo,0202H
        ARGFRAME ISTACK, 2, STACK
        ARGFRAME PSTACK, 0, STACK
        ARGFRAME XSTACK, 30, STACK
        ARGFRAME IOVERLAY, 0, STATIC
        ARGFRAME DOVERLAY, 0, STATIC
        EXTERN macRadioComputeLQI
        FUNCTION macRadioComputeLQI,0202H
        ARGFRAME ISTACK, 0, STACK
        ARGFRAME PSTACK, 0, STACK
        ARGFRAME XSTACK, 18, STACK
        ARGFRAME IOVERLAY, 0, STATIC
        ARGFRAME DOVERLAY, 0, STATIC
        EXTERN macRadioUpdateTxPower
        FUNCTION macRadioUpdateTxPower,0202H
        ARGFRAME ISTACK, 2, STACK
        ARGFRAME PSTACK, 0, STACK
        ARGFRAME XSTACK, 0, STACK
        ARGFRAME IOVERLAY, 0, STATIC
        ARGFRAME DOVERLAY, 0, STATIC
        EXTERN macRxCheckMACPendingCallback
        FUNCTION macRxCheckMACPendingCallback,0202H
        ARGFRAME ISTACK, 0, STACK
        ARGFRAME PSTACK, 0, STACK
        ARGFRAME XSTACK, 18, STACK
        ARGFRAME IOVERLAY, 0, STATIC
        ARGFRAME DOVERLAY, 0, STATIC
        EXTERN macRxCheckPendingCallback
        FUNCTION macRxCheckPendingCallback,0202H
        ARGFRAME ISTACK, 0, STACK
        ARGFRAME PSTACK, 0, STACK
        ARGFRAME XSTACK, 18, STACK
        ARGFRAME IOVERLAY, 0, STATIC
        ARGFRAME DOVERLAY, 0, STATIC
        EXTERN macRxCompleteCallback
        FUNCTION macRxCompleteCallback,0202H
        ARGFRAME ISTACK, 0, STACK
        ARGFRAME PSTACK, 0, STACK
        ARGFRAME XSTACK, 10, STACK
        ARGFRAME IOVERLAY, 0, STATIC
        ARGFRAME DOVERLAY, 0, STATIC
        EXTERN macRxHardDisable
        FUNCTION macRxHardDisable,0202H
        ARGFRAME ISTACK, 2, STACK
        ARGFRAME PSTACK, 0, STACK
        ARGFRAME XSTACK, 0, STACK
        ARGFRAME IOVERLAY, 0, STATIC
        ARGFRAME DOVERLAY, 0, STATIC
        EXTERN macRxOffRequest
        FUNCTION macRxOffRequest,0202H
        ARGFRAME ISTACK, 2, STACK
        ARGFRAME PSTACK, 0, STACK
        ARGFRAME XSTACK, 10, STACK
        ARGFRAME IOVERLAY, 0, STATIC
        ARGFRAME DOVERLAY, 0, STATIC
        EXTERN macRxOnFlag
        EXTERN macSrcMatchIsEnabled
        EXTERN macTxAckNotReceivedCallback
        FUNCTION macTxAckNotReceivedCallback,0202H
        ARGFRAME ISTACK, 0, STACK
        ARGFRAME PSTACK, 0, STACK
        ARGFRAME XSTACK, 18, STACK
        ARGFRAME IOVERLAY, 0, STATIC
        ARGFRAME DOVERLAY, 0, STATIC
        EXTERN macTxAckReceivedCallback
        FUNCTION macTxAckReceivedCallback,0202H
        ARGFRAME ISTACK, 0, STACK
        ARGFRAME PSTACK, 0, STACK
        ARGFRAME XSTACK, 18, STACK
        ARGFRAME IOVERLAY, 0, STATIC
        ARGFRAME DOVERLAY, 0, STATIC
        EXTERN macTxActive
        EXTERN macTxStartQueuedFrame
        FUNCTION macTxStartQueuedFrame,0202H
        ARGFRAME ISTACK, 2, STACK
        ARGFRAME PSTACK, 0, STACK
        ARGFRAME XSTACK, 0, STACK
        ARGFRAME IOVERLAY, 0, STATIC
        ARGFRAME DOVERLAY, 0, STATIC
        EXTERN osal_memcpy
        FUNCTION osal_memcpy,0202H
        ARGFRAME ISTACK, 0, STACK
        ARGFRAME PSTACK, 0, STACK
        ARGFRAME XSTACK, 21, STACK
        ARGFRAME IOVERLAY, 0, STATIC
        ARGFRAME DOVERLAY, 0, STATIC
        EXTERN pMacDataTx
        EXTERN sAddrExtCpy
        FUNCTION sAddrExtCpy,0202H
        ARGFRAME ISTACK, 0, STACK
        ARGFRAME PSTACK, 0, STACK
        ARGFRAME XSTACK, 30, STACK
        ARGFRAME IOVERLAY, 0, STATIC
        ARGFRAME DOVERLAY, 0, STATIC

// E:\gitRepository\OldPeopleHome\zigbee\ZStack-CC2530-r200\Components\mac\low_level\srf04\mac_rx.c
//    1 /**************************************************************************************************
//    2   Filename:       mac_rx.c
//    3   Revised:        $Date: 2007-10-08 14:05:36 -0700 (Mon, 08 Oct 2007) $
//    4   Revision:       $Revision: 15624 $
//    5 
//    6   Description:    Describe the purpose and contents of the file.
//    7 
//    8 
//    9   Copyright 2006-2011 Texas Instruments Incorporated. All rights reserved.
//   10 
//   11   IMPORTANT: Your use of this Software is limited to those specific rights
//   12   granted under the terms of a software license agreement between the user
//   13   who downloaded the software, his/her employer (which must be your employer)
//   14   and Texas Instruments Incorporated (the "License").  You may not use this
//   15   Software unless you agree to abide by the terms of the License. The License
//   16   limits your use, and you acknowledge, that the Software may not be modified,
//   17   copied or distributed unless embedded on a Texas Instruments microcontroller
//   18   or used solely and exclusively in conjunction with a Texas Instruments radio
//   19   frequency transceiver, which is integrated into your product.  Other than for
//   20   the foregoing purpose, you may not use, reproduce, copy, prepare derivative
//   21   works of, modify, distribute, perform, display or sell this Software and/or
//   22   its documentation for any purpose.
//   23 
//   24   YOU FURTHER ACKNOWLEDGE AND AGREE THAT THE SOFTWARE AND DOCUMENTATION ARE
//   25   PROVIDED “AS IS” WITHOUT WARRANTY OF ANY KIND, EITHER EXPRESS OR IMPLIED,
//   26   INCLUDING WITHOUT LIMITATION, ANY WARRANTY OF MERCHANTABILITY, TITLE,
//   27   NON-INFRINGEMENT AND FITNESS FOR A PARTICULAR PURPOSE. IN NO EVENT SHALL
//   28   TEXAS INSTRUMENTS OR ITS LICENSORS BE LIABLE OR OBLIGATED UNDER CONTRACT,
//   29   NEGLIGENCE, STRICT LIABILITY, CONTRIBUTION, BREACH OF WARRANTY, OR OTHER
//   30   LEGAL EQUITABLE THEORY ANY DIRECT OR INDIRECT DAMAGES OR EXPENSES
//   31   INCLUDING BUT NOT LIMITED TO ANY INCIDENTAL, SPECIAL, INDIRECT, PUNITIVE
//   32   OR CONSEQUENTIAL DAMAGES, LOST PROFITS OR LOST DATA, COST OF PROCUREMENT
//   33   OF SUBSTITUTE GOODS, TECHNOLOGY, SERVICES, OR ANY CLAIMS BY THIRD PARTIES
//   34   (INCLUDING BUT NOT LIMITED TO ANY DEFENSE THEREOF), OR OTHER SIMILAR COSTS.
//   35 
//   36   Should you have any questions regarding your right to use this Software,
//   37   contact Texas Instruments Incorporated at www.TI.com.
//   38 **************************************************************************************************/
//   39 
//   40 /* ------------------------------------------------------------------------------------------------
//   41  *                                          Includes
//   42  * ------------------------------------------------------------------------------------------------
//   43  */
//   44 
//   45 /* hal */
//   46 #include "hal_defs.h"
//   47 #include "hal_types.h"
//   48 
//   49 /* OSAL */
//   50 #include "OSAL.h"
//   51 
//   52 /* high-level */
//   53 #include "mac_high_level.h"
//   54 #include "mac_spec.h"
//   55 
//   56 /* MAC security */
//   57 #include "mac_security.h"
//   58 
//   59 /* exported low-level */
//   60 #include "mac_low_level.h"
//   61 
//   62 /* low-level specific */
//   63 #include "mac_rx.h"
//   64 #include "mac_tx.h"
//   65 #include "mac_rx_onoff.h"
//   66 #include "mac_radio.h"
//   67 
//   68 /* target specific */
//   69 #include "mac_radio_defs.h"

        ASEGN SFR_AN:DATA:NOROOT,091H
// unsigned char volatile __sfr RFIRQF1
RFIRQF1:
        DATA8
        DS 1

        ASEGN SFR_AN:DATA:NOROOT,09bH
// unsigned char volatile __sfr S1CON
S1CON:
        DATA8
        DS 1

        ASEGN SFR_AN:DATA:NOROOT,0a8H
// union <unnamed> volatile __sfr _A_IEN0
_A_IEN0:
        DATA8
        DS 1

        ASEGN SFR_AN:DATA:NOROOT,0e1H
// unsigned char volatile __sfr RFST
RFST:
        DATA8
        DS 1

        ASEGN SFR_AN:DATA:NOROOT,0e9H
// unsigned char volatile __sfr RFIRQF0
RFIRQF0:
        DATA8
        DS 1
//   70 #include "mac_autopend.h"
//   71 
//   72 /* debug */
//   73 #include "mac_assert.h"
//   74 
//   75 
//   76 /* ------------------------------------------------------------------------------------------------
//   77  *                                            Defines
//   78  * ------------------------------------------------------------------------------------------------
//   79  */
//   80 #define MAX_PAYLOAD_BYTES_READ_PER_INTERRUPT   16   /* adjustable to tune performance */
//   81 
//   82 /* receive FIFO bytes needed to start a valid receive (see function rxStartIsr for details) */
//   83 #define RX_THRESHOLD_START_LEN    (MAC_PHY_PHR_LEN        +  \ 
//   84                                    MAC_FCF_FIELD_LEN      +  \ 
//   85                                    MAC_SEQ_NUM_FIELD_LEN  +  \ 
//   86                                    MAC_FCS_FIELD_LEN)
//   87 
//   88 /* maximum size of addressing fields (note: command frame identifier processed as part of address) */
//   89 #define MAX_ADDR_FIELDS_LEN  ((MAC_EXT_ADDR_FIELD_LEN + MAC_PAN_ID_FIELD_LEN) * 2)
//   90 
//   91 /* addressing mode reserved value */
//   92 #define ADDR_MODE_RESERVERED  1
//   93 
//   94 /* length of command frame identifier */
//   95 #define CMD_FRAME_ID_LEN      1
//   96 
//   97 /* packet size mask is equal to the maximum value */
//   98 #define PHY_PACKET_SIZE_MASK  0x7F
//   99 
//  100 /* value for promiscuous off, must not conflict with other mode variants from separate include files */
//  101 #define PROMISCUOUS_MODE_OFF  0x00
//  102 
//  103 /* bit of proprietary FCS format that indicates if the CRC is OK */
//  104 #define PROPRIETARY_FCS_CRC_OK_BIT  0x80
//  105 
//  106 /* dummy length value for unused entry in lookup table */
//  107 #define DUMMY_LEN   0xBE
//  108 
//  109 /* value for rxThresholdIntState */
//  110 #define RX_THRESHOLD_INT_STATE_INACTIVE   0
//  111 #define RX_THRESHOLD_INT_STATE_ACTIVE     1
//  112 #define RX_THRESHOLD_INT_STATE_RESET      2
//  113 
//  114 
//  115 /* ------------------------------------------------------------------------------------------------
//  116  *                                             Macros
//  117  * ------------------------------------------------------------------------------------------------
//  118  */
//  119 #define MEM_ALLOC(x)   macDataRxMemAlloc(x)
//  120 #define MEM_FREE(x)    macDataRxMemFree((uint8 **)x)
//  121 
//  122 /*
//  123  *  Macro for encoding frame control information into internal flags format.
//  124  *  Parameter is pointer to the frame.  NOTE!  If either the internal frame
//  125  *  format *or* the specification changes, this macro will need to be modified.
//  126  */
//  127 #define INTERNAL_FCF_FLAGS(p)  ((((p)[1] >> 4) & 0x03) | ((p)[0] & 0x78))
//  128 
//  129 /*
//  130  *  The radio replaces the actual FCS with different information.  This proprietary FCS is
//  131  *  the same length as the original and includes:
//  132  *    1) the RSSI value
//  133  *    2) the average correlation value (used for LQI)
//  134  *    3) a CRC passed bit
//  135  *
//  136  *  These macros decode the proprietary FCS.  The macro parameter is a pointer to the two byte FCS.
//  137  */
//  138 #define PROPRIETARY_FCS_RSSI(p)                 ((int8)((p)[0]))
//  139 #define PROPRIETARY_FCS_CRC_OK(p)               ((p)[1] & PROPRIETARY_FCS_CRC_OK_BIT)
//  140 #define PROPRIETARY_FCS_CORRELATION_VALUE(p)    ((p)[1] & ~PROPRIETARY_FCS_CRC_OK_BIT)
//  141 
//  142 /*
//  143  *  Macros for security control field.
//  144  */
//  145 #define SECURITY_LEVEL(s)                       (s & 0x07)
//  146 #define KEY_IDENTIFIER_MODE(s)                  ((s & 0x18) >> 3)
//  147 #define SECURITY_CONTROL_RESERVED(s)            ((s & 0xE0) >> 5)
//  148 
//  149 /* ------------------------------------------------------------------------------------------------
//  150  *                                       Global Variables
//  151  * ------------------------------------------------------------------------------------------------
//  152  */

        RSEG XDATA_Z:XDATA:NOROOT(0)
        DATA8
//  153 uint8 macRxActive;
macRxActive:
        DS 1
        REQUIRE __INIT_XDATA_Z

        RSEG XDATA_Z:XDATA:NOROOT(0)
        DATA8
//  154 uint8 macRxFilter;
macRxFilter:
        DS 1
        REQUIRE __INIT_XDATA_Z

        RSEG XDATA_Z:XDATA:NOROOT(0)
        DATA8
//  155 uint8 macRxOutgoingAckFlag;
macRxOutgoingAckFlag:
        DS 1
        REQUIRE __INIT_XDATA_Z
//  156 
//  157 
//  158 /* ------------------------------------------------------------------------------------------------
//  159  *                                       Local Constants
//  160  * ------------------------------------------------------------------------------------------------
//  161  */

        RSEG CODE_C:CODE:REORDER:NOROOT(0)
        DATA32
//  162 static const uint8 CODE macRxAddrLen[] =
macRxAddrLen:
        DATA8
        DB 0
        DB 190
        DB 4
        DB 10
//  163 {
//  164   0,                                                /* no address */
//  165   DUMMY_LEN,                                        /* reserved */
//  166   MAC_PAN_ID_FIELD_LEN + MAC_SHORT_ADDR_FIELD_LEN,  /* short address + pan id */
//  167   MAC_PAN_ID_FIELD_LEN + MAC_EXT_ADDR_FIELD_LEN     /* extended address + pan id */
//  168 };
//  169 
//  170 
//  171 /* ------------------------------------------------------------------------------------------------
//  172  *                                       Local Prototypes
//  173  * ------------------------------------------------------------------------------------------------
//  174  */
//  175 static void rxHaltCleanupFinalStep(void);
//  176 
//  177 static void rxStartIsr(void);
//  178 static void rxAddrIsr(void);
//  179 
//  180 #ifdef MAC_SECURITY
//  181   static void rxSecurityHdrIsr(void);
//  182 #endif
//  183   
//  184 static void rxPayloadIsr(void);
//  185 static void rxDiscardIsr(void);
//  186 static void rxFcsIsr(void);
//  187 
//  188 static void rxPrepPayload(void);
//  189 static void rxDiscardFrame(void);
//  190 static void rxDone(void);
//  191 static void rxPostRxUpdates(void);
//  192 
//  193 
//  194 /* ------------------------------------------------------------------------------------------------
//  195  *                                         Local Variables
//  196  * ------------------------------------------------------------------------------------------------
//  197  */

        RSEG XDATA_Z:XDATA:NOROOT(0)
        DATA16
//  198 static void    (* pFuncRxState)(void);
pFuncRxState:
        DS 2
        REQUIRE __INIT_XDATA_Z

        RSEG XDATA_Z:XDATA:NOROOT(0)
        DATA16
//  199 static macRx_t  * pRxBuf;
pRxBuf:
        DS 2
        REQUIRE __INIT_XDATA_Z
//  200 

        RSEG XDATA_Z:XDATA:NOROOT(0)
        DATA32
//  201 static uint8  rxBuf[MAC_PHY_PHR_LEN + MAC_FCF_FIELD_LEN + MAC_SEQ_NUM_FIELD_LEN];
rxBuf:
        DS 4
        REQUIRE __INIT_XDATA_Z

        RSEG XDATA_Z:XDATA:NOROOT(0)
        DATA8
//  202 static uint8  rxUnreadLen;
rxUnreadLen:
        DS 1
        REQUIRE __INIT_XDATA_Z

        RSEG XDATA_Z:XDATA:NOROOT(0)
        DATA8
//  203 static uint8  rxNextLen;
rxNextLen:
        DS 1
        REQUIRE __INIT_XDATA_Z

        RSEG XDATA_Z:XDATA:NOROOT(0)
        DATA8
//  204 static uint8  rxPayloadLen;
rxPayloadLen:
        DS 1
        REQUIRE __INIT_XDATA_Z

        RSEG XDATA_Z:XDATA:NOROOT(0)
        DATA8
//  205 static uint8  rxFilter;
rxFilter:
        DS 1
        REQUIRE __INIT_XDATA_Z

        RSEG XDATA_Z:XDATA:NOROOT(0)
        DATA8
//  206 static uint8  rxPromiscuousMode;
rxPromiscuousMode:
        DS 1
        REQUIRE __INIT_XDATA_Z

        RSEG XDATA_Z:XDATA:NOROOT(0)
        DATA8
//  207 static uint8  rxIsrActiveFlag;
rxIsrActiveFlag:
        DS 1
        REQUIRE __INIT_XDATA_Z

        RSEG XDATA_Z:XDATA:NOROOT(0)
        DATA8
//  208 static uint8  rxResetFlag;
rxResetFlag:
        DS 1
        REQUIRE __INIT_XDATA_Z

        RSEG XDATA_Z:XDATA:NOROOT(0)
        DATA8
//  209 static uint8  rxFifoOverflowCount;
rxFifoOverflowCount:
        DS 1
        REQUIRE __INIT_XDATA_Z
//  210 
//  211 #ifdef PACKET_FILTER_STATS
//  212   uint32      rxCrcFailure = 0;
//  213   uint32      rxCrcSuccess = 0;
//  214 #endif /* PACKET_FILTER_STATS */
//  215 
//  216 #ifdef CC2591_COMPRESSION_WORKAROUND
//  217   void macRxResetRssi(void);
//  218 #endif
//  219 
//  220 /**************************************************************************************************
//  221  * @fn          macRxInit
//  222  *
//  223  * @brief       Initialize receive variable states.
//  224  *
//  225  * @param       none
//  226  *
//  227  * @return      none
//  228  **************************************************************************************************
//  229  */

        RSEG BANKED_CODE:HUGECODE:NOROOT(0)
//  230 MAC_INTERNAL_API void macRxInit(void)
macRxInit:
          CFI Block cfiBlock0 Using cfiCommon0
          CFI Function macRxInit
        CODE
//  231 {
        PUSH      DPL
          CFI DPL0 Frame(CFA_SP, 4)
          CFI CFA_SP SP+-4
        PUSH      DPH
          CFI DPH0 Frame(CFA_SP, 5)
          CFI CFA_SP SP+-5
        ; Saved register size: 2
        ; Auto size: 0
//  232   macRxFilter          = RX_FILTER_OFF;
        MOV       DPTR,#macRxFilter
        CLR       A
        MOVX      @DPTR,A
//  233   rxPromiscuousMode    = PROMISCUOUS_MODE_OFF;
        MOV       DPTR,#rxPromiscuousMode
        MOVX      @DPTR,A
//  234   pRxBuf               = NULL; /* required for macRxReset() to function correctly */
        MOV       DPTR,#pRxBuf
        MOVX      @DPTR,A
        INC       DPTR
        MOVX      @DPTR,A
//  235   macRxActive          = MAC_RX_ACTIVE_NO_ACTIVITY;
        MOV       DPTR,#macRxActive
        LCALL     ?Subroutine4 & 0xFFFF
//  236   pFuncRxState         = &rxStartIsr;
//  237   macRxOutgoingAckFlag = 0;
??CrossCallReturnLabel_2:
        MOV       DPTR,#macRxOutgoingAckFlag
        CLR       A
        MOVX      @DPTR,A
//  238   rxIsrActiveFlag      = 0;
        MOV       DPTR,#rxIsrActiveFlag
        MOVX      @DPTR,A
//  239   rxResetFlag          = 0;
        MOV       DPTR,#rxResetFlag
        MOVX      @DPTR,A
//  240   rxFifoOverflowCount  = 0;
        MOV       DPTR,#rxFifoOverflowCount
        LJMP      ?Subroutine0 & 0xFFFF
//  241 }
          CFI EndBlock cfiBlock0
//  242 
//  243 
//  244 /**************************************************************************************************
//  245  * @fn          macRxRadioPowerUpInit
//  246  *
//  247  * @brief       Initialization for after radio first powers up.
//  248  *
//  249  * @param       none
//  250  *
//  251  * @return      none
//  252  **************************************************************************************************
//  253  */

        RSEG BANKED_CODE:HUGECODE:NOROOT(0)
//  254 MAC_INTERNAL_API void macRxRadioPowerUpInit(void)
macRxRadioPowerUpInit:
          CFI Block cfiBlock1 Using cfiCommon0
          CFI Function macRxRadioPowerUpInit
        CODE
//  255 {
        PUSH      DPL
          CFI DPL0 Frame(CFA_SP, 4)
          CFI CFA_SP SP+-4
        PUSH      DPH
          CFI DPH0 Frame(CFA_SP, 5)
          CFI CFA_SP SP+-5
        ; Saved register size: 2
        ; Auto size: 0
//  256   /* set threshold at initial value */
//  257   MAC_RADIO_SET_RX_THRESHOLD(RX_THRESHOLD_START_LEN);
        MOV       DPTR,#0x6194
        MOV       A,#0x5
        LCALL     ?Subroutine10 & 0xFFFF
//  258 
//  259   /* clear any accidental threshold interrupt that happened as part of power up sequence */
//  260   MAC_RADIO_CLEAR_RX_THRESHOLD_INTERRUPT_FLAG();
??CrossCallReturnLabel_11:
        MOV       0xe9,#-0x5
        MOV       A,R0
        MOV       C,0xE0 /* A   */.7
        MOV       0xa8.7,C
//  261 
//  262   /* enable threshold interrupts */
//  263   MAC_RADIO_ENABLE_RX_THRESHOLD_INTERRUPT();
        MOV       DPTR,#0x61a3
        MOVX      A,@DPTR
        SETB      0xE0 /* A   */.2
        LJMP      ?Subroutine0 & 0xFFFF
          CFI EndBlock cfiBlock1
        REQUIRE _A_IEN0
        REQUIRE S1CON
        REQUIRE RFIRQF0
//  264 }
//  265 
//  266 
//  267 /**************************************************************************************************
//  268  * @fn          macRxTxReset
//  269  *
//  270  * @brief       Reset the receive state.
//  271  *
//  272  * @param       none
//  273  *
//  274  * @return      none
//  275  **************************************************************************************************
//  276  */

        RSEG BANKED_CODE:HUGECODE:NOROOT(0)
//  277 MAC_INTERNAL_API void macRxTxReset(void)
macRxTxReset:
          CFI Block cfiBlock2 Using cfiCommon0
          CFI Function macRxTxReset
        CODE
//  278 {
        FUNCALL macRxTxReset, macRxHardDisable
        LOCFRAME ISTACK, 2, STACK
        LOCFRAME PSTACK, 0, STACK
        LOCFRAME XSTACK, 0, STACK
        LOCFRAME IOVERLAY, 0, STATIC
        LOCFRAME DOVERLAY, 0, STATIC
        ARGFRAME ISTACK, 2, STACK
        ARGFRAME PSTACK, 0, STACK
        ARGFRAME XSTACK, 0, STACK
        ARGFRAME IOVERLAY, 0, STATIC
        ARGFRAME DOVERLAY, 0, STATIC
        FUNCALL macRxTxReset, macRxPromiscuousMode
        LOCFRAME ISTACK, 2, STACK
        LOCFRAME PSTACK, 0, STACK
        LOCFRAME XSTACK, 0, STACK
        LOCFRAME IOVERLAY, 0, STATIC
        LOCFRAME DOVERLAY, 0, STATIC
        ARGFRAME ISTACK, 2, STACK
        ARGFRAME PSTACK, 0, STACK
        ARGFRAME XSTACK, 0, STACK
        ARGFRAME IOVERLAY, 0, STATIC
        ARGFRAME DOVERLAY, 0, STATIC
        PUSH      DPL
          CFI DPL0 Frame(CFA_SP, 4)
          CFI CFA_SP SP+-4
        PUSH      DPH
          CFI DPH0 Frame(CFA_SP, 5)
          CFI CFA_SP SP+-5
        ; Saved register size: 2
        ; Auto size: 0
//  279   /* forces receiver off, cleans up by calling macRxHaltCleanup() and macTxHaltCleanup() */
//  280   macRxHardDisable();
        ; Setup parameters for call to function macRxHardDisable
        LCALL     `??macRxHardDisable::?relay`; Banked call to: macRxHardDisable
//  281 
//  282   /*
//  283    *   Note : transmit does not require any reset logic
//  284    *          beyond what macRxHardDisable() provides.
//  285    */
//  286 
//  287   /* restore deault filter mode to off */
//  288   macRxFilter = RX_FILTER_OFF;
        MOV       DPTR,#macRxFilter
        CLR       A
        MOVX      @DPTR,A
//  289 
//  290   /* return promiscuous mode to default off state */
//  291   macRxPromiscuousMode(MAC_PROMISCUOUS_MODE_OFF);
        ; Setup parameters for call to function macRxPromiscuousMode
        MOV       R1,A
        LCALL     `??macRxPromiscuousMode::?relay`; Banked call to: macRxPromiscuousMode
//  292 }
        LJMP      ??Subroutine34_0 & 0xFFFF
          CFI EndBlock cfiBlock2
//  293 
//  294 
//  295 /**************************************************************************************************
//  296  * @fn          macRxHaltCleanup
//  297  *
//  298  * @brief       Cleanup up the receive logic after receiver is forced off.
//  299  *
//  300  * @param       none
//  301  *
//  302  * @return      none
//  303  **************************************************************************************************
//  304  */

        RSEG BANKED_CODE:HUGECODE:NOROOT(0)
//  305 MAC_INTERNAL_API void macRxHaltCleanup(void)
macRxHaltCleanup:
          CFI Block cfiBlock3 Using cfiCommon0
          CFI Function macRxHaltCleanup
        CODE
//  306 {
        FUNCALL macRxHaltCleanup, rxHaltCleanupFinalStep
        LOCFRAME ISTACK, 2, STACK
        LOCFRAME PSTACK, 0, STACK
        LOCFRAME XSTACK, 0, STACK
        LOCFRAME IOVERLAY, 0, STATIC
        LOCFRAME DOVERLAY, 0, STATIC
        ARGFRAME ISTACK, 2, STACK
        ARGFRAME PSTACK, 0, STACK
        ARGFRAME XSTACK, 0, STACK
        ARGFRAME IOVERLAY, 0, STATIC
        ARGFRAME DOVERLAY, 0, STATIC
        PUSH      DPL
          CFI DPL0 Frame(CFA_SP, 4)
          CFI CFA_SP SP+-4
        PUSH      DPH
          CFI DPH0 Frame(CFA_SP, 5)
          CFI CFA_SP SP+-5
        ; Saved register size: 2
        ; Auto size: 0
//  307   rxResetFlag = 1;
        MOV       DPTR,#rxResetFlag
        MOV       A,#0x1
        MOVX      @DPTR,A
//  308   if (!rxIsrActiveFlag)
        MOV       DPTR,#rxIsrActiveFlag
        MOVX      A,@DPTR
        JNZ       ??CrossCallReturnLabel_31
//  309   {
//  310     rxHaltCleanupFinalStep();
        ; Setup parameters for call to function rxHaltCleanupFinalStep
        LCALL     ?Subroutine23 & 0xFFFF
//  311     rxResetFlag = 0;
//  312   }
//  313 }
??CrossCallReturnLabel_31:
        LJMP      ??Subroutine34_0 & 0xFFFF
          CFI EndBlock cfiBlock3
//  314 
//  315 
//  316 /*=================================================================================================
//  317  * @fn          rxHaltCleanupFinalStep
//  318  *
//  319  * @brief       Required cleanup if receiver is halted in the middle of a receive.
//  320  *
//  321  * @param       none
//  322  *
//  323  * @return      none
//  324  *=================================================================================================
//  325  */

        RSEG BANKED_CODE:HUGECODE:NOROOT(0)
//  326 static void rxHaltCleanupFinalStep(void)
rxHaltCleanupFinalStep:
          CFI Block cfiBlock4 Using cfiCommon0
          CFI Function rxHaltCleanupFinalStep
        CODE
//  327 {
        FUNCALL rxHaltCleanupFinalStep, macDataRxMemFree
        LOCFRAME ISTACK, 2, STACK
        LOCFRAME PSTACK, 0, STACK
        LOCFRAME XSTACK, 0, STACK
        LOCFRAME IOVERLAY, 0, STATIC
        LOCFRAME DOVERLAY, 0, STATIC
        ARGFRAME ISTACK, 2, STACK
        ARGFRAME PSTACK, 0, STACK
        ARGFRAME XSTACK, 0, STACK
        ARGFRAME IOVERLAY, 0, STATIC
        ARGFRAME DOVERLAY, 0, STATIC
        FUNCALL rxHaltCleanupFinalStep, rxPostRxUpdates
        LOCFRAME ISTACK, 2, STACK
        LOCFRAME PSTACK, 0, STACK
        LOCFRAME XSTACK, 0, STACK
        LOCFRAME IOVERLAY, 0, STATIC
        LOCFRAME DOVERLAY, 0, STATIC
        ARGFRAME ISTACK, 2, STACK
        ARGFRAME PSTACK, 0, STACK
        ARGFRAME XSTACK, 0, STACK
        ARGFRAME IOVERLAY, 0, STATIC
        ARGFRAME DOVERLAY, 0, STATIC
        PUSH      DPL
          CFI DPL0 Frame(CFA_SP, 4)
          CFI CFA_SP SP+-4
        PUSH      DPH
          CFI DPH0 Frame(CFA_SP, 5)
          CFI CFA_SP SP+-5
        ; Saved register size: 2
        ; Auto size: 0
//  328   /* cancel any upcoming ACK transmit complete callback */
//  329   MAC_RADIO_CANCEL_ACK_TX_DONE_CALLBACK();
        MOV       DPTR,#0x61a4
        MOVX      A,@DPTR
        CLR       0xE0 /* A   */.0
        MOVX      @DPTR,A
//  330 
//  331   /* set start of frame threshold */
//  332   MAC_RADIO_SET_RX_THRESHOLD(RX_THRESHOLD_START_LEN);
        MOV       DPTR,#0x6194
        MOV       A,#0x5
        MOVX      @DPTR,A
//  333 
//  334   /* flush the receive FIFO */
//  335   MAC_RADIO_FLUSH_RX_FIFO();
        MOV       0xe1,#-0x13
        MOV       0xe1,#-0x13
//  336 
//  337   /* clear any receive interrupt that happened to squeak through */
//  338   MAC_RADIO_CLEAR_RX_THRESHOLD_INTERRUPT_FLAG();
        MOV       R0,0xa8+0x0
        CLR       0xa8.7
        MOV       0x9b,#0x0
        MOV       0xe9,#-0x5
        MOV       A,R0
        MOV       C,0xE0 /* A   */.7
        MOV       0xa8.7,C
//  339 
//  340   /* if data buffer has been allocated, free it */
//  341   if (pRxBuf != NULL)
        MOV       DPTR,#pRxBuf
        MOVX      A,@DPTR
        MOV       R0,A
        INC       DPTR
        MOVX      A,@DPTR
        MOV       R1,A
        MOV       A,R0
        ORL       A,R1
        JZ        ??rxHaltCleanupFinalStep_0
//  342   {
//  343     MEM_FREE((uint8 **)&pRxBuf);
        ; Setup parameters for call to function macDataRxMemFree
        MOV       R2,#pRxBuf & 0xff
        MOV       R3,#(pRxBuf >> 8) & 0xff
        LCALL     `??macDataRxMemFree::?relay`; Banked call to: macDataRxMemFree
//  344   }
//  345   pRxBuf = NULL; /* needed to indicate buffer is no longer allocated */
??rxHaltCleanupFinalStep_0:
        MOV       DPTR,#pRxBuf
        CLR       A
        MOVX      @DPTR,A
        INC       DPTR
        LCALL     ?Subroutine4 & 0xFFFF
//  346 
//  347   pFuncRxState = &rxStartIsr;
//  348 
//  349   /* if receive was active, perform the post receive updates */
//  350   if (macRxActive || macRxOutgoingAckFlag)
??CrossCallReturnLabel_3:
        MOV       DPTR,#macRxActive
        MOVX      A,@DPTR
        JNZ       ??rxHaltCleanupFinalStep_1
        MOV       DPTR,#macRxOutgoingAckFlag
        MOVX      A,@DPTR
        JZ        ??rxHaltCleanupFinalStep_2
//  351   {
//  352     macRxActive = MAC_RX_ACTIVE_NO_ACTIVITY;
??rxHaltCleanupFinalStep_1:
        MOV       DPTR,#macRxActive
        CLR       A
        MOVX      @DPTR,A
//  353     macRxOutgoingAckFlag = 0;
        MOV       DPTR,#macRxOutgoingAckFlag
        MOVX      @DPTR,A
//  354 
//  355     rxPostRxUpdates();
        ; Setup parameters for call to function rxPostRxUpdates
        LCALL     `??rxPostRxUpdates::?relay`; Banked call to: rxPostRxUpdates
//  356   }
//  357 }
??rxHaltCleanupFinalStep_2:
        LJMP      ??Subroutine34_0 & 0xFFFF
          CFI EndBlock cfiBlock4
        REQUIRE RFST
        REQUIRE _A_IEN0
        REQUIRE S1CON
        REQUIRE RFIRQF0

        RSEG BANKED_CODE:HUGECODE:NOROOT(0)
?Subroutine4:
          CFI Block cfiCond5 Using cfiCommon0
          CFI Function macRxInit
          CFI Conditional ??CrossCallReturnLabel_2
          CFI DPL0 Frame(CFA_SP, 4)
          CFI DPH0 Frame(CFA_SP, 5)
          CFI CFA_SP SP+-7
          CFI Block cfiCond6 Using cfiCommon0
          CFI (cfiCond6) Function rxHaltCleanupFinalStep
          CFI (cfiCond6) Conditional ??CrossCallReturnLabel_3
          CFI (cfiCond6) DPL0 Frame(CFA_SP, 4)
          CFI (cfiCond6) DPH0 Frame(CFA_SP, 5)
          CFI (cfiCond6) CFA_SP SP+-7
          CFI Block cfiPicker7 Using cfiCommon1
          CFI (cfiPicker7) NoFunction
          CFI (cfiPicker7) Picker
        LCALL     ?Subroutine25 & 0xFFFF
??CrossCallReturnLabel_36:
        RET
          CFI EndBlock cfiCond5
          CFI EndBlock cfiCond6
          CFI EndBlock cfiPicker7

        RSEG BANKED_CODE:HUGECODE:NOROOT(0)
?Subroutine25:
          CFI Block cfiCond8 Using cfiCommon0
          CFI Function macRxInit
          CFI Conditional ??CrossCallReturnLabel_36, ??CrossCallReturnLabel_2
          CFI DPL0 Frame(CFA_SP, 4)
          CFI DPH0 Frame(CFA_SP, 5)
          CFI CFA_SP SP+-9
          CFI Block cfiCond9 Using cfiCommon0
          CFI (cfiCond9) Function rxHaltCleanupFinalStep
          CFI (cfiCond9) Conditional ??CrossCallReturnLabel_36, ??CrossCallReturnLabel_3
          CFI (cfiCond9) DPL0 Frame(CFA_SP, 4)
          CFI (cfiCond9) DPH0 Frame(CFA_SP, 5)
          CFI (cfiCond9) CFA_SP SP+-9
          CFI Block cfiCond10 Using cfiCommon0
          CFI (cfiCond10) Function rxFcsIsr
          CFI (cfiCond10) Conditional ??CrossCallReturnLabel_37, ??CrossCallReturnLabel_0
          CFI (cfiCond10) R6 load(1, XDATA, add(CFA_XSP16, literal(-10)))
          CFI (cfiCond10) VB load(1, XDATA, add(CFA_XSP16, literal(-9)))
          CFI (cfiCond10) V0 load(1, XDATA, add(CFA_XSP16, literal(-8)))
          CFI (cfiCond10) V1 load(1, XDATA, add(CFA_XSP16, literal(-7)))
          CFI (cfiCond10) R7 load(1, XDATA, add(CFA_XSP16, literal(-6)))
          CFI (cfiCond10) ?RET_LOW load(1, XDATA, add(CFA_XSP16, literal(-5)))
          CFI (cfiCond10) ?RET_HIGH load(1, XDATA, add(CFA_XSP16, literal(-4)))
          CFI (cfiCond10) ?BRET_EXT load(1, XDATA, add(CFA_XSP16, literal(-3)))
          CFI (cfiCond10) DPL0 load(1, XDATA, add(CFA_XSP16, literal(-2)))
          CFI (cfiCond10) DPH0 load(1, XDATA, add(CFA_XSP16, literal(-1)))
          CFI (cfiCond10) CFA_SP SP+-4
          CFI (cfiCond10) CFA_XSP16 add(XSP16, 10)
          CFI Block cfiCond11 Using cfiCommon0
          CFI (cfiCond11) Function rxDiscardIsr
          CFI (cfiCond11) Conditional ??CrossCallReturnLabel_37, ??CrossCallReturnLabel_1
          CFI (cfiCond11) DPL0 Frame(CFA_SP, 4)
          CFI (cfiCond11) DPH0 Frame(CFA_SP, 5)
          CFI (cfiCond11) CFA_SP SP+-9
          CFI (cfiCond11) CFA_XSP16 add(XSP16, 16)
          CFI Block cfiPicker12 Using cfiCommon1
          CFI (cfiPicker12) NoFunction
          CFI (cfiPicker12) Picker
        MOVX      @DPTR,A
        MOV       DPTR,#pFuncRxState
        MOV       A,#`??rxStartIsr::?relay` & 0xff
        MOVX      @DPTR,A
        INC       DPTR
        MOV       A,#(`??rxStartIsr::?relay` >> 8) & 0xff
        MOVX      @DPTR,A
        RET
          CFI EndBlock cfiCond8
          CFI EndBlock cfiCond9
          CFI EndBlock cfiCond10
          CFI EndBlock cfiCond11
          CFI EndBlock cfiPicker12
//  358 
//  359 
//  360 /**************************************************************************************************
//  361  * @fn          macRxThresholdIsr
//  362  *
//  363  * @brief       Interrupt service routine called when bytes in FIFO reach threshold value.
//  364  *              It implements a state machine for receiving a packet.
//  365  *
//  366  * @param       none
//  367  *
//  368  * @return      none
//  369  **************************************************************************************************
//  370  */

        RSEG BANKED_CODE:HUGECODE:NOROOT(0)
//  371 MAC_INTERNAL_API void macRxThresholdIsr(void)
macRxThresholdIsr:
          CFI Block cfiBlock13 Using cfiCommon0
          CFI Function macRxThresholdIsr
        CODE
//  372 {
        FUNCALL macRxThresholdIsr, rxHaltCleanupFinalStep
        LOCFRAME ISTACK, 2, STACK
        LOCFRAME PSTACK, 0, STACK
        LOCFRAME XSTACK, 0, STACK
        LOCFRAME IOVERLAY, 0, STATIC
        LOCFRAME DOVERLAY, 0, STATIC
        ARGFRAME ISTACK, 2, STACK
        ARGFRAME PSTACK, 0, STACK
        ARGFRAME XSTACK, 0, STACK
        ARGFRAME IOVERLAY, 0, STATIC
        ARGFRAME DOVERLAY, 0, STATIC
        PUSH      DPL
          CFI DPL0 Frame(CFA_SP, 4)
          CFI CFA_SP SP+-4
        PUSH      DPH
          CFI DPH0 Frame(CFA_SP, 5)
          CFI CFA_SP SP+-5
        ; Saved register size: 2
        ; Auto size: 0
//  373   /* if currently reseting, do not execute receive ISR logic */
//  374   if (rxResetFlag)
        MOV       DPTR,#rxResetFlag
        MOVX      A,@DPTR
        JNZ       ??CrossCallReturnLabel_32
//  375   {
//  376     return;
//  377   }
//  378 
//  379   /*
//  380    *  Call the function that handles the current receive state.
//  381    *  A flag is set for the duration of the call to indicate
//  382    *  the ISR is executing.  This is necessary for the reset
//  383    *  logic so it does not perform a reset in the middle of
//  384    *  executing the ISR.
//  385    */
//  386   rxIsrActiveFlag = 1;
        MOV       DPTR,#rxIsrActiveFlag
        MOV       A,#0x1
        MOVX      @DPTR,A
//  387   (*pFuncRxState)();
        ; Setup parameters for indirect call
        MOV       DPTR,#pFuncRxState
        MOVX      A,@DPTR
        MOV       R0,A
        INC       DPTR
        MOVX      A,@DPTR
        MOV       DPH,A
        MOV       DPL,R0
        LCALL     ?CALL_IND
//  388   rxIsrActiveFlag = 0;
        MOV       DPTR,#rxIsrActiveFlag
        CLR       A
        MOVX      @DPTR,A
//  389 
//  390   /* if a reset occurred during the ISR, peform cleanup here */
//  391   if (rxResetFlag)
        MOV       DPTR,#rxResetFlag
        MOVX      A,@DPTR
        JZ        ??CrossCallReturnLabel_32
//  392   {
//  393     rxHaltCleanupFinalStep();
        ; Setup parameters for call to function rxHaltCleanupFinalStep
        LCALL     ?Subroutine23 & 0xFFFF
//  394     rxResetFlag = 0;
//  395   }
//  396 }
??CrossCallReturnLabel_32:
        LJMP      ??Subroutine34_0 & 0xFFFF
          CFI EndBlock cfiBlock13

        RSEG BANKED_CODE:HUGECODE:NOROOT(0)
?Subroutine23:
          CFI Block cfiCond14 Using cfiCommon0
          CFI Function macRxHaltCleanup
          CFI Conditional ??CrossCallReturnLabel_31
          CFI DPL0 Frame(CFA_SP, 4)
          CFI DPH0 Frame(CFA_SP, 5)
          CFI CFA_SP SP+-7
          CFI Block cfiCond15 Using cfiCommon0
          CFI (cfiCond15) Function macRxThresholdIsr
          CFI (cfiCond15) Conditional ??CrossCallReturnLabel_32
          CFI (cfiCond15) DPL0 Frame(CFA_SP, 4)
          CFI (cfiCond15) DPH0 Frame(CFA_SP, 5)
          CFI (cfiCond15) CFA_SP SP+-7
          CFI Block cfiPicker16 Using cfiCommon1
          CFI (cfiPicker16) NoFunction
          CFI (cfiPicker16) Picker
        LCALL     `??rxHaltCleanupFinalStep::?relay`; Banked call to: rxHaltCleanupFinalStep
        MOV       DPTR,#rxResetFlag
        CLR       A
        MOVX      @DPTR,A
        RET
          CFI EndBlock cfiCond14
          CFI EndBlock cfiCond15
          CFI EndBlock cfiPicker16
//  397 
//  398 
//  399 /*=================================================================================================
//  400  * @fn          rxStartIsr
//  401  *
//  402  * @brief       First ISR state for receiving a packet - compute packet length, allocate
//  403  *              buffer, initialize buffer.  Acknowledgements are handled immediately without
//  404  *              allocating a buffer.
//  405  *
//  406  * @param       none
//  407  *
//  408  * @return      none
//  409  *=================================================================================================
//  410  */

        RSEG BANKED_CODE:HUGECODE:NOROOT(0)
//  411 static void rxStartIsr(void)
rxStartIsr:
          CFI Block cfiBlock17 Using cfiCommon0
          CFI Function rxStartIsr
        CODE
//  412 {
        FUNCALL rxStartIsr, halAssertHandler
        LOCFRAME ISTACK, 0, STACK
        LOCFRAME PSTACK, 0, STACK
        LOCFRAME XSTACK, 18, STACK
        LOCFRAME IOVERLAY, 0, STATIC
        LOCFRAME DOVERLAY, 0, STATIC
        ARGFRAME ISTACK, 0, STACK
        ARGFRAME PSTACK, 0, STACK
        ARGFRAME XSTACK, 18, STACK
        ARGFRAME IOVERLAY, 0, STATIC
        ARGFRAME DOVERLAY, 0, STATIC
        FUNCALL rxStartIsr, rxPostRxUpdates
        LOCFRAME ISTACK, 0, STACK
        LOCFRAME PSTACK, 0, STACK
        LOCFRAME XSTACK, 18, STACK
        LOCFRAME IOVERLAY, 0, STATIC
        LOCFRAME DOVERLAY, 0, STATIC
        ARGFRAME ISTACK, 0, STACK
        ARGFRAME PSTACK, 0, STACK
        ARGFRAME XSTACK, 18, STACK
        ARGFRAME IOVERLAY, 0, STATIC
        ARGFRAME DOVERLAY, 0, STATIC
        FUNCALL rxStartIsr, macCspForceTxDoneIfPending
        LOCFRAME ISTACK, 0, STACK
        LOCFRAME PSTACK, 0, STACK
        LOCFRAME XSTACK, 18, STACK
        LOCFRAME IOVERLAY, 0, STATIC
        LOCFRAME DOVERLAY, 0, STATIC
        ARGFRAME ISTACK, 0, STACK
        ARGFRAME PSTACK, 0, STACK
        ARGFRAME XSTACK, 18, STACK
        ARGFRAME IOVERLAY, 0, STATIC
        ARGFRAME DOVERLAY, 0, STATIC
        FUNCALL rxStartIsr, macMemReadRxFifo
        LOCFRAME ISTACK, 0, STACK
        LOCFRAME PSTACK, 0, STACK
        LOCFRAME XSTACK, 18, STACK
        LOCFRAME IOVERLAY, 0, STATIC
        LOCFRAME DOVERLAY, 0, STATIC
        ARGFRAME ISTACK, 0, STACK
        ARGFRAME PSTACK, 0, STACK
        ARGFRAME XSTACK, 18, STACK
        ARGFRAME IOVERLAY, 0, STATIC
        ARGFRAME DOVERLAY, 0, STATIC
        FUNCALL rxStartIsr, halAssertHandler
        LOCFRAME ISTACK, 0, STACK
        LOCFRAME PSTACK, 0, STACK
        LOCFRAME XSTACK, 18, STACK
        LOCFRAME IOVERLAY, 0, STATIC
        LOCFRAME DOVERLAY, 0, STATIC
        ARGFRAME ISTACK, 0, STACK
        ARGFRAME PSTACK, 0, STACK
        ARGFRAME XSTACK, 18, STACK
        ARGFRAME IOVERLAY, 0, STATIC
        ARGFRAME DOVERLAY, 0, STATIC
        FUNCALL rxStartIsr, macMemReadRxFifo
        LOCFRAME ISTACK, 0, STACK
        LOCFRAME PSTACK, 0, STACK
        LOCFRAME XSTACK, 18, STACK
        LOCFRAME IOVERLAY, 0, STATIC
        LOCFRAME DOVERLAY, 0, STATIC
        ARGFRAME ISTACK, 0, STACK
        ARGFRAME PSTACK, 0, STACK
        ARGFRAME XSTACK, 18, STACK
        ARGFRAME IOVERLAY, 0, STATIC
        ARGFRAME DOVERLAY, 0, STATIC
        FUNCALL rxStartIsr, halAssertHandler
        LOCFRAME ISTACK, 0, STACK
        LOCFRAME PSTACK, 0, STACK
        LOCFRAME XSTACK, 18, STACK
        LOCFRAME IOVERLAY, 0, STATIC
        LOCFRAME DOVERLAY, 0, STATIC
        ARGFRAME ISTACK, 0, STACK
        ARGFRAME PSTACK, 0, STACK
        ARGFRAME XSTACK, 18, STACK
        ARGFRAME IOVERLAY, 0, STATIC
        ARGFRAME DOVERLAY, 0, STATIC
        FUNCALL rxStartIsr, macRadioComputeLQI
        LOCFRAME ISTACK, 0, STACK
        LOCFRAME PSTACK, 0, STACK
        LOCFRAME XSTACK, 18, STACK
        LOCFRAME IOVERLAY, 0, STATIC
        LOCFRAME DOVERLAY, 0, STATIC
        ARGFRAME ISTACK, 0, STACK
        ARGFRAME PSTACK, 0, STACK
        ARGFRAME XSTACK, 18, STACK
        ARGFRAME IOVERLAY, 0, STATIC
        ARGFRAME DOVERLAY, 0, STATIC
        FUNCALL rxStartIsr, macTxAckReceivedCallback
        LOCFRAME ISTACK, 0, STACK
        LOCFRAME PSTACK, 0, STACK
        LOCFRAME XSTACK, 18, STACK
        LOCFRAME IOVERLAY, 0, STATIC
        LOCFRAME DOVERLAY, 0, STATIC
        ARGFRAME ISTACK, 0, STACK
        ARGFRAME PSTACK, 0, STACK
        ARGFRAME XSTACK, 18, STACK
        ARGFRAME IOVERLAY, 0, STATIC
        ARGFRAME DOVERLAY, 0, STATIC
        FUNCALL rxStartIsr, macTxAckNotReceivedCallback
        LOCFRAME ISTACK, 0, STACK
        LOCFRAME PSTACK, 0, STACK
        LOCFRAME XSTACK, 18, STACK
        LOCFRAME IOVERLAY, 0, STATIC
        LOCFRAME DOVERLAY, 0, STATIC
        ARGFRAME ISTACK, 0, STACK
        ARGFRAME PSTACK, 0, STACK
        ARGFRAME XSTACK, 18, STACK
        ARGFRAME IOVERLAY, 0, STATIC
        ARGFRAME DOVERLAY, 0, STATIC
        FUNCALL rxStartIsr, rxDone
        LOCFRAME ISTACK, 0, STACK
        LOCFRAME PSTACK, 0, STACK
        LOCFRAME XSTACK, 18, STACK
        LOCFRAME IOVERLAY, 0, STATIC
        LOCFRAME DOVERLAY, 0, STATIC
        ARGFRAME ISTACK, 0, STACK
        ARGFRAME PSTACK, 0, STACK
        ARGFRAME XSTACK, 18, STACK
        ARGFRAME IOVERLAY, 0, STATIC
        ARGFRAME DOVERLAY, 0, STATIC
        FUNCALL rxStartIsr, macTxAckNotReceivedCallback
        LOCFRAME ISTACK, 0, STACK
        LOCFRAME PSTACK, 0, STACK
        LOCFRAME XSTACK, 18, STACK
        LOCFRAME IOVERLAY, 0, STATIC
        LOCFRAME DOVERLAY, 0, STATIC
        ARGFRAME ISTACK, 0, STACK
        ARGFRAME PSTACK, 0, STACK
        ARGFRAME XSTACK, 18, STACK
        ARGFRAME IOVERLAY, 0, STATIC
        ARGFRAME DOVERLAY, 0, STATIC
        FUNCALL rxStartIsr, rxDone
        LOCFRAME ISTACK, 0, STACK
        LOCFRAME PSTACK, 0, STACK
        LOCFRAME XSTACK, 18, STACK
        LOCFRAME IOVERLAY, 0, STATIC
        LOCFRAME DOVERLAY, 0, STATIC
        ARGFRAME ISTACK, 0, STACK
        ARGFRAME PSTACK, 0, STACK
        ARGFRAME XSTACK, 18, STACK
        ARGFRAME IOVERLAY, 0, STATIC
        ARGFRAME DOVERLAY, 0, STATIC
        FUNCALL rxStartIsr, rxDiscardFrame
        LOCFRAME ISTACK, 0, STACK
        LOCFRAME PSTACK, 0, STACK
        LOCFRAME XSTACK, 18, STACK
        LOCFRAME IOVERLAY, 0, STATIC
        LOCFRAME DOVERLAY, 0, STATIC
        ARGFRAME ISTACK, 0, STACK
        ARGFRAME PSTACK, 0, STACK
        ARGFRAME XSTACK, 18, STACK
        ARGFRAME IOVERLAY, 0, STATIC
        ARGFRAME DOVERLAY, 0, STATIC
        FUNCALL rxStartIsr, macDataRxMemAlloc
        LOCFRAME ISTACK, 0, STACK
        LOCFRAME PSTACK, 0, STACK
        LOCFRAME XSTACK, 18, STACK
        LOCFRAME IOVERLAY, 0, STATIC
        LOCFRAME DOVERLAY, 0, STATIC
        ARGFRAME ISTACK, 0, STACK
        ARGFRAME PSTACK, 0, STACK
        ARGFRAME XSTACK, 18, STACK
        ARGFRAME IOVERLAY, 0, STATIC
        ARGFRAME DOVERLAY, 0, STATIC
        FUNCALL rxStartIsr, macRxCheckMACPendingCallback
        LOCFRAME ISTACK, 0, STACK
        LOCFRAME PSTACK, 0, STACK
        LOCFRAME XSTACK, 18, STACK
        LOCFRAME IOVERLAY, 0, STATIC
        LOCFRAME DOVERLAY, 0, STATIC
        ARGFRAME ISTACK, 0, STACK
        ARGFRAME PSTACK, 0, STACK
        ARGFRAME XSTACK, 18, STACK
        ARGFRAME IOVERLAY, 0, STATIC
        ARGFRAME DOVERLAY, 0, STATIC
        FUNCALL rxStartIsr, MAC_SrcMatchCheckAllPending
        LOCFRAME ISTACK, 0, STACK
        LOCFRAME PSTACK, 0, STACK
        LOCFRAME XSTACK, 18, STACK
        LOCFRAME IOVERLAY, 0, STATIC
        LOCFRAME DOVERLAY, 0, STATIC
        ARGFRAME ISTACK, 0, STACK
        ARGFRAME PSTACK, 0, STACK
        ARGFRAME XSTACK, 18, STACK
        ARGFRAME IOVERLAY, 0, STATIC
        ARGFRAME DOVERLAY, 0, STATIC
        FUNCALL rxStartIsr, osal_memcpy
        LOCFRAME ISTACK, 0, STACK
        LOCFRAME PSTACK, 0, STACK
        LOCFRAME XSTACK, 21, STACK
        LOCFRAME IOVERLAY, 0, STATIC
        LOCFRAME DOVERLAY, 0, STATIC
        ARGFRAME ISTACK, 0, STACK
        ARGFRAME PSTACK, 0, STACK
        ARGFRAME XSTACK, 21, STACK
        ARGFRAME IOVERLAY, 0, STATIC
        ARGFRAME DOVERLAY, 0, STATIC
        FUNCALL rxStartIsr, macMcuOverflowCapture
        LOCFRAME ISTACK, 0, STACK
        LOCFRAME PSTACK, 0, STACK
        LOCFRAME XSTACK, 18, STACK
        LOCFRAME IOVERLAY, 0, STATIC
        LOCFRAME DOVERLAY, 0, STATIC
        ARGFRAME ISTACK, 0, STACK
        ARGFRAME PSTACK, 0, STACK
        ARGFRAME XSTACK, 18, STACK
        ARGFRAME IOVERLAY, 0, STATIC
        ARGFRAME DOVERLAY, 0, STATIC
        FUNCALL rxStartIsr, macMcuTimerCapture
        LOCFRAME ISTACK, 0, STACK
        LOCFRAME PSTACK, 0, STACK
        LOCFRAME XSTACK, 18, STACK
        LOCFRAME IOVERLAY, 0, STATIC
        LOCFRAME DOVERLAY, 0, STATIC
        ARGFRAME ISTACK, 0, STACK
        ARGFRAME PSTACK, 0, STACK
        ARGFRAME XSTACK, 18, STACK
        ARGFRAME IOVERLAY, 0, STATIC
        ARGFRAME DOVERLAY, 0, STATIC
        FUNCALL rxStartIsr, rxPrepPayload
        LOCFRAME ISTACK, 0, STACK
        LOCFRAME PSTACK, 0, STACK
        LOCFRAME XSTACK, 18, STACK
        LOCFRAME IOVERLAY, 0, STATIC
        LOCFRAME DOVERLAY, 0, STATIC
        ARGFRAME ISTACK, 0, STACK
        ARGFRAME PSTACK, 0, STACK
        ARGFRAME XSTACK, 18, STACK
        ARGFRAME IOVERLAY, 0, STATIC
        ARGFRAME DOVERLAY, 0, STATIC
        FUNCALL rxStartIsr, macRxCheckPendingCallback
        LOCFRAME ISTACK, 0, STACK
        LOCFRAME PSTACK, 0, STACK
        LOCFRAME XSTACK, 18, STACK
        LOCFRAME IOVERLAY, 0, STATIC
        LOCFRAME DOVERLAY, 0, STATIC
        ARGFRAME ISTACK, 0, STACK
        ARGFRAME PSTACK, 0, STACK
        ARGFRAME XSTACK, 18, STACK
        ARGFRAME IOVERLAY, 0, STATIC
        ARGFRAME DOVERLAY, 0, STATIC
        REQUIRE ?V0
        REQUIRE ?V1
        REQUIRE ?V2
        REQUIRE ?V3
        REQUIRE ?V4
        REQUIRE ?V5
        REQUIRE ?V6
        REQUIRE ?V7
        MOV       A,#-0x10
        LCALL     ?BANKED_ENTER_XDATA
          CFI DPH0 load(1, XDATA, add(CFA_XSP16, literal(-1)))
          CFI DPL0 load(1, XDATA, add(CFA_XSP16, literal(-2)))
          CFI ?BRET_EXT load(1, XDATA, add(CFA_XSP16, literal(-3)))
          CFI ?RET_HIGH load(1, XDATA, add(CFA_XSP16, literal(-4)))
          CFI ?RET_LOW load(1, XDATA, add(CFA_XSP16, literal(-5)))
          CFI R7 load(1, XDATA, add(CFA_XSP16, literal(-6)))
          CFI V7 load(1, XDATA, add(CFA_XSP16, literal(-7)))
          CFI V6 load(1, XDATA, add(CFA_XSP16, literal(-8)))
          CFI V5 load(1, XDATA, add(CFA_XSP16, literal(-9)))
          CFI V4 load(1, XDATA, add(CFA_XSP16, literal(-10)))
          CFI V3 load(1, XDATA, add(CFA_XSP16, literal(-11)))
          CFI V2 load(1, XDATA, add(CFA_XSP16, literal(-12)))
          CFI V1 load(1, XDATA, add(CFA_XSP16, literal(-13)))
          CFI V0 load(1, XDATA, add(CFA_XSP16, literal(-14)))
          CFI VB load(1, XDATA, add(CFA_XSP16, literal(-15)))
          CFI R6 load(1, XDATA, add(CFA_XSP16, literal(-16)))
          CFI CFA_SP SP+0
          CFI CFA_XSP16 add(XSP16, 16)
        ; Saved register size: 16
        ; Auto size: 2
        MOV       A,#-0x2
        LCALL     ?ALLOC_XSTACK8
          CFI CFA_XSP16 add(XSP16, 18)
//  413   uint8  addrLen;
//  414   uint8  ackWithPending;
//  415   uint8  dstAddrMode;
//  416   uint8  srcAddrMode;
//  417   uint8  mhrLen = 0;
        MOV       R6,#0x0
//  418 
//  419   MAC_ASSERT(!macRxActive); /* receive on top of receive */
        MOV       DPTR,#macRxActive
        MOVX      A,@DPTR
        JZ        ??rxStartIsr_0
        ; Setup parameters for call to function halAssertHandler
        LCALL     `??halAssertHandler::?relay`; Banked call to: halAssertHandler
//  420 
//  421   /* indicate rx is active */
//  422   macRxActive = MAC_RX_ACTIVE_STARTED;
??rxStartIsr_0:
        MOV       DPTR,#macRxActive
        MOV       A,#-0x7f
        MOVX      @DPTR,A
//  423 
//  424   /*
//  425    *  For bullet proof functionality, need to see if the receiver was just turned off.
//  426    *  The logic to request turning off the receiver, disables interrupts and then checks
//  427    *  the value of macRxActive.  If it is TRUE, the receiver will not be turned off.
//  428    *
//  429    *  There is a small hole though.  It's possible to attempt turning off the receiver
//  430    *  in the window from when the receive interrupt fires and the point where macRxActive
//  431    *  is set to TRUE.  To plug this hole, the on/off status must be tested *after*
//  432    *  macRxActive has been set.  If the receiver is off at this point, there is nothing
//  433    *  in the RX fifo and the receive is simply aborted.
//  434    *
//  435    *  Also, there are some considerations in case a hard disable just happened.  Usually,
//  436    *  the receiver will just be off at this point after a hard disable.  The check described
//  437    *  above will account for this case too.  However, if a hard disable were immediately
//  438    *  followed by an enable, the receiver would be on.  To catch this case, the receive
//  439    *  FIFO is also tested to see if it is empty.  Recovery is identical to the other cases.
//  440    */
//  441   if (!macRxOnFlag || MAC_RADIO_RX_FIFO_IS_EMPTY())
        MOV       DPTR,#macRxOnFlag
        MOVX      A,@DPTR
        JZ        ??rxStartIsr_1
        MOV       DPTR,#0x6193
        MOVX      A,@DPTR
        MOV       C,0xE0 /* A   */.7
        JC        ??rxStartIsr_2
        MOVX      A,@DPTR
        MOV       C,0xE0 /* A   */.6
        JC        ??rxStartIsr_2
//  442   {
//  443     /* reset active flag */
//  444     macRxActive = MAC_RX_ACTIVE_NO_ACTIVITY;
??rxStartIsr_1:
        MOV       DPTR,#macRxActive
        CLR       A
        MOVX      @DPTR,A
//  445 
//  446     /*
//  447      *  To be absolutely bulletproof, must make sure no transmit queue'ed up during
//  448      *  the tiny, tiny window when macRxActive was not zero.
//  449      */
//  450     rxPostRxUpdates();
        ; Setup parameters for call to function rxPostRxUpdates
        LCALL     `??rxPostRxUpdates::?relay`; Banked call to: rxPostRxUpdates
//  451 
//  452     /* return immediately from here */
//  453     return;
        LJMP      ??rxStartIsr_3 & 0xFFFF
//  454   }
//  455 
//  456   /*
//  457    *  If interrupts are held off for too long it's possible the previous "transmit done"
//  458    *  callback is pending.  If this is the case, it needs to be completed before
//  459    *  continuing with the receive logic.
//  460    */
//  461   MAC_RADIO_FORCE_TX_DONE_IF_PENDING();
??rxStartIsr_2:
        ; Setup parameters for call to function macCspForceTxDoneIfPending
        LCALL     `??macCspForceTxDoneIfPending::?relay`; Banked call to: macCspForceTxDoneIfPending
//  462 
//  463   /*
//  464    *  It's possible receive logic is still waiting for confirmation of an ACK that went out
//  465    *  for the previous receive.  This is OK but the callback needs to be canceled at this point.
//  466    *  That callback execute receive cleanup logic that will run at the completion
//  467    *  of *this* receive.  Also, it is important the flag for the outgoing ACK to be cleared.
//  468    */
//  469   MAC_RADIO_CANCEL_ACK_TX_DONE_CALLBACK();
        LCALL     ?Subroutine20 & 0xFFFF
//  470   macRxOutgoingAckFlag = 0;
//  471 
//  472   /*
//  473    *  Make a module-local copy of macRxFilter.  This prevents the selected
//  474    *  filter from changing in the middle of a receive.
//  475    */
//  476   rxFilter = macRxFilter;
??CrossCallReturnLabel_25:
        MOV       DPTR,#macRxFilter
        MOVX      A,@DPTR
        MOV       DPTR,#rxFilter
        MOVX      @DPTR,A
//  477 
//  478   /*-------------------------------------------------------------------------------
//  479    *  Read initial frame information from FIFO.
//  480    *
//  481    *   This code is not triggered until the following are in the RX FIFO:
//  482    *     frame length          - one byte containing length of MAC frame (excludes this field)
//  483    *     frame control field   - two bytes defining frame type, addressing fields, control flags
//  484    *     sequence number       - one byte unique sequence identifier
//  485    *     additional two bytes  - these bytes are available in case the received frame is an ACK,
//  486    *                             if so, the frame can be verified and responded to immediately,
//  487    *                             if not an ACK, these bytes will be processed normally
//  488    */
//  489 
//  490   /* read frame length, frame control field, and sequence number from FIFO */
//  491   MAC_RADIO_READ_RX_FIFO(rxBuf, MAC_PHY_PHR_LEN + MAC_FCF_FIELD_LEN + MAC_SEQ_NUM_FIELD_LEN);
        ; Setup parameters for call to function macMemReadRxFifo
        MOV       R1,#0x4
        MOV       R2,#rxBuf & 0xff
        MOV       R3,#(rxBuf >> 8) & 0xff
        LCALL     `??macMemReadRxFifo::?relay`; Banked call to: macMemReadRxFifo
//  492 
//  493   /* bytes to read from FIFO equals frame length minus length of MHR fields just read from FIFO */
//  494   rxUnreadLen = (rxBuf[0] & PHY_PACKET_SIZE_MASK) - MAC_FCF_FIELD_LEN - MAC_SEQ_NUM_FIELD_LEN;
        MOV       DPTR,#rxBuf
        MOVX      A,@DPTR
        ANL       A,#0x7f
        ADD       A,#-0x3
        MOV       DPTR,#rxUnreadLen
        MOVX      @DPTR,A
//  495 
//  496   /*
//  497    *  Workaround for chip bug #1547.  The receive buffer can sometimes be corrupted by hardware.
//  498    *  This usually occurs under heavy traffic.  If a corrupted receive buffer is detected
//  499    *  the entire receive buffer is flushed.
//  500    *
//  501    *  In the case that this workaround is not needed, an assert is used to make sure the
//  502    *  receive length field is not corrupted.  This is important because a corrupted receive
//  503    *  length field is utterly fatal and, if not caught here, extremely hard to track down.
//  504    */
//  505   if (macChipVersion == REV_A)
        MOV       DPTR,#macChipVersion
        MOVX      A,@DPTR
        MOV       DPTR,#rxUnreadLen
        JNZ       ??rxStartIsr_4
//  506   {
//  507     if ((rxUnreadLen > (MAC_A_MAX_PHY_PACKET_SIZE - MAC_FCF_FIELD_LEN - MAC_SEQ_NUM_FIELD_LEN)) ||
//  508         (MAC_FRAME_TYPE(&rxBuf[1]) > MAC_FRAME_TYPE_MAX_VALID))
        MOVX      A,@DPTR
        CLR       C
        SUBB      A,#0x7d
        JC        $+5
        LJMP      ??rxStartIsr_5 & 0xFFFF
        MOV       DPTR,#rxBuf + 1
        MOVX      A,@DPTR
        ANL       A,#0x7
        CLR       C
        SUBB      A,#0x4
        JC        ??rxStartIsr_6
        LJMP      ??rxStartIsr_5 & 0xFFFF
//  509     {
//  510       MAC_RADIO_FLUSH_RX_FIFO();
//  511       rxDone();
//  512       return;
//  513     }
//  514   }
//  515   else
//  516   {
//  517     /* radio supplied a corrupted receive buffer length */
//  518     MAC_ASSERT(rxUnreadLen <= (MAC_A_MAX_PHY_PACKET_SIZE - MAC_FCF_FIELD_LEN - MAC_SEQ_NUM_FIELD_LEN));
??rxStartIsr_4:
        MOVX      A,@DPTR
        CLR       C
        SUBB      A,#0x7d
        JC        ??rxStartIsr_6
        ; Setup parameters for call to function halAssertHandler
        LCALL     `??halAssertHandler::?relay`; Banked call to: halAssertHandler
//  519   }
//  520 
//  521 
//  522 
//  523   /*-------------------------------------------------------------------------------
//  524    *  Process ACKs.
//  525    *
//  526    *  If this frame is an ACK, process it immediately and exit from here.
//  527    *  If this frame is not an ACK and transmit is listening for an ACK, let
//  528    *  the transmit logic know an non-ACK was received so transmit can complete.
//  529    *
//  530    *  In promiscuous mode ACKs are treated like any other frame.
//  531    */
//  532   if ((MAC_FRAME_TYPE(&rxBuf[1]) == MAC_FRAME_TYPE_ACK) && (rxPromiscuousMode == PROMISCUOUS_MODE_OFF))
??rxStartIsr_6:
        MOV       DPTR,#rxBuf + 1
        MOVX      A,@DPTR
        ANL       A,#0x7
        XRL       A,#0x2
        JZ        $+5
        LJMP      ??rxStartIsr_7 & 0xFFFF
        MOV       DPTR,#rxPromiscuousMode
        MOVX      A,@DPTR
        JZ        $+5
        LJMP      ??rxStartIsr_7 & 0xFFFF
//  533   {
//  534     halIntState_t  s;
//  535     uint8 fcsBuf[MAC_FCF_FIELD_LEN];
//  536     /*
//  537      *  There are guaranteed to be two unread bytes in the FIFO.  By defintion, for ACK frames
//  538      *  these two bytes will be the FCS.
//  539      */
//  540 
//  541     /* read FCS from FIFO (threshold set so bytes are guaranteed to be there) */
//  542     MAC_RADIO_READ_RX_FIFO(fcsBuf, MAC_FCS_FIELD_LEN);
        ; Setup parameters for call to function macMemReadRxFifo
        MOV       R1,#0x2
        MOV       R2,?XSP + 0
        MOV       R3,?XSP + 1
        LCALL     `??macMemReadRxFifo::?relay`; Banked call to: macMemReadRxFifo
//  543 
//  544     /*
//  545      *  This critical section ensures that the ACK timeout won't be triggered in the
//  546      *  millde of receiving the ACK frame.
//  547      */
//  548     HAL_ENTER_CRITICAL_SECTION(s);
        MOV       C,0xa8.7
        CLR       A
        RLC       A
        MOV       ?V0,A
        CLR       0xa8.7
//  549 
//  550     /* see if transmit is listening for an ACK */
//  551     if (macTxActive == MAC_TX_ACTIVE_LISTEN_FOR_ACK)
        MOV       DPTR,#macTxActive
        MOVX      A,@DPTR
        XRL       A,#0x86
        JNZ       ??rxStartIsr_8
//  552     {
//  553       MAC_ASSERT(pMacDataTx != NULL); /* transmit buffer must be present */
        MOV       DPTR,#pMacDataTx
        MOVX      A,@DPTR
        MOV       R0,A
        INC       DPTR
        MOVX      A,@DPTR
        MOV       R1,A
        MOV       A,R0
        ORL       A,R1
        JNZ       ??rxStartIsr_9
        ; Setup parameters for call to function halAssertHandler
        LCALL     `??halAssertHandler::?relay`; Banked call to: halAssertHandler
//  554 
//  555       /* record link quality metrics for the receive ACK */
//  556       {
//  557         int8 rssiDbm;
//  558         uint8 corr;
//  559 
//  560         rssiDbm = PROPRIETARY_FCS_RSSI(fcsBuf) + MAC_RADIO_RSSI_OFFSET;
??rxStartIsr_9:
        MOV       DPL,?XSP + 0
        MOV       DPH,?XSP + 1
        MOVX      A,@DPTR
        ADD       A,#-0x49
        MOV       R6,A
//  561         MAC_RADIO_RSSI_LNA_OFFSET(rssiDbm);
//  562         corr = PROPRIETARY_FCS_CORRELATION_VALUE(fcsBuf);
        MOV       A,#0x1
        LCALL     ?XSTACK_DISP0_8
        MOVX      A,@DPTR
        ANL       A,#0x7f
        MOV       R7,A
//  563 
//  564         pMacDataTx->internal.mpduLinkQuality = macRadioComputeLQI(rssiDbm, corr);
        ; Setup parameters for call to function macRadioComputeLQI
        MOV       R2,A
        MOV       A,R6
        MOV       R1,A
        LCALL     `??macRadioComputeLQI::?relay`; Banked call to: macRadioComputeLQI
        MOV       DPTR,#pMacDataTx
        LCALL     ??Subroutine33_0 & 0xFFFF
//  565         pMacDataTx->internal.correlation = corr;
//  566         pMacDataTx->internal.rssi= rssiDbm;
//  567       }
??CrossCallReturnLabel_49:
        ADD       A,#0x14
        MOV       DPL,A
        CLR       A
        ADDC      A,R0
        MOV       DPH,A
        MOV       A,R1
        LCALL     ?Subroutine9 & 0xFFFF
??CrossCallReturnLabel_9:
        ADD       A,#0x15
        MOV       DPL,A
        CLR       A
        ADDC      A,R0
        MOV       DPH,A
        MOV       A,R7
        LCALL     ?Subroutine9 & 0xFFFF
??CrossCallReturnLabel_10:
        ADD       A,#0x16
        MOV       DPL,A
        CLR       A
        ADDC      A,R0
        MOV       DPH,A
        MOV       A,R6
        MOVX      @DPTR,A
//  568 
//  569       /*
//  570        *  It's okay if the ACK timeout is triggered here. The callbacks for ACK received
//  571        *  or ACK not received will check "macTxActive" flag before taking any actions.
//  572        */
//  573       HAL_EXIT_CRITICAL_SECTION(s);
        MOV       A,?V0
        MOV       C,0xE0 /* A   */.0
        MOV       0xa8.7,C
//  574 
//  575       /*
//  576        *  An ACK was received so transmit logic needs to know.  If the FCS failed,
//  577        *  the transmit logic still needs to know.  In that case, treat the frame
//  578        *  as a non-ACK to complete the active transmit.
//  579        */
//  580       if (PROPRIETARY_FCS_CRC_OK(fcsBuf))
        MOV       A,#0x1
        LCALL     ?XSTACK_DISP0_8
        MOVX      A,@DPTR
        MOV       C,0xE0 /* A   */.7
        JNC       ??rxStartIsr_10
//  581       {
//  582         /* call transmit logic to indicate ACK was received */
//  583         macTxAckReceivedCallback(MAC_SEQ_NUMBER(&rxBuf[1]), MAC_FRAME_PENDING(&rxBuf[1]));
        ; Setup parameters for call to function macTxAckReceivedCallback
        MOV       DPTR,#rxBuf + 1
        MOVX      A,@DPTR
        ANL       A,#0x10
        MOV       R2,A
        MOV       DPTR,#rxBuf + 3
        MOVX      A,@DPTR
        MOV       R1,A
        LCALL     `??macTxAckReceivedCallback::?relay`; Banked call to: macTxAckReceivedCallback
        SJMP      ??rxStartIsr_11
//  584       }
//  585       else
//  586       {
//  587         macTxAckNotReceivedCallback();
??rxStartIsr_10:
        ; Setup parameters for call to function macTxAckNotReceivedCallback
        LCALL     `??macTxAckNotReceivedCallback::?relay`; Banked call to: macTxAckNotReceivedCallback
        SJMP      ??rxStartIsr_11
//  588       }
//  589     }
//  590     else
//  591     {
//  592       HAL_EXIT_CRITICAL_SECTION(s);
??rxStartIsr_8:
        MOV       A,?V0
        MOV       C,0xE0 /* A   */.0
        MOV       0xa8.7,C
//  593     }
//  594 
//  595     /* receive is done, exit from here */
//  596     rxDone();
        ; Setup parameters for call to function rxDone
        SJMP      ??rxStartIsr_11
//  597     return;
//  598   }
//  599   else if (macTxActive == MAC_TX_ACTIVE_LISTEN_FOR_ACK)
??rxStartIsr_7:
        MOV       DPTR,#macTxActive
        MOVX      A,@DPTR
        XRL       A,#0x86
        JNZ       ??rxStartIsr_12
//  600   {
//  601     macTxAckNotReceivedCallback();
        ; Setup parameters for call to function macTxAckNotReceivedCallback
        LCALL     `??macTxAckNotReceivedCallback::?relay`; Banked call to: macTxAckNotReceivedCallback
//  602   }
//  603 
//  604   /*-------------------------------------------------------------------------------
//  605    *  Apply filtering.
//  606    *
//  607    *  For efficiency, see if filtering is even 'on' before processing.  Also test
//  608    *  to make sure promiscuous mode is disabled.  If promiscuous mode is enabled,
//  609    *  do not apply filtering.
//  610    */
//  611   if ((rxFilter != RX_FILTER_OFF) && !rxPromiscuousMode)
??rxStartIsr_12:
        MOV       DPTR,#rxFilter
        MOVX      A,@DPTR
        JZ        ??rxStartIsr_13
        MOV       DPTR,#rxPromiscuousMode
        MOVX      A,@DPTR
        JNZ       ??rxStartIsr_13
//  612   {
//  613     if (/* filter all frames */
//  614          (rxFilter == RX_FILTER_ALL) ||
//  615 
//  616          /* filter non-beacon frames */
//  617          ((rxFilter == RX_FILTER_NON_BEACON_FRAMES) &&
//  618           (MAC_FRAME_TYPE(&rxBuf[1]) != MAC_FRAME_TYPE_BEACON)) ||
//  619 
//  620          /* filter non-command frames */
//  621          ((rxFilter == RX_FILTER_NON_COMMAND_FRAMES) &&
//  622           ((MAC_FRAME_TYPE(&rxBuf[1]) != MAC_FRAME_TYPE_COMMAND))))
        MOV       DPTR,#rxFilter
        MOVX      A,@DPTR
        XRL       A,#0x1
        JNZ       $+5
        LJMP      ??rxStartIsr_14 & 0xFFFF
        MOVX      A,@DPTR
        XRL       A,#0x2
        JNZ       ??rxStartIsr_15
        MOV       DPTR,#rxBuf + 1
        MOVX      A,@DPTR
        ANL       A,#0x7
        JNZ       ??rxStartIsr_14
        SJMP      ??rxStartIsr_13
??rxStartIsr_15:
        MOVX      A,@DPTR
        XRL       A,#0x3
        JNZ       ??rxStartIsr_13
        MOV       DPTR,#rxBuf + 1
        MOVX      A,@DPTR
        ANL       A,#0x7
        XRL       A,#0x3
        JNZ       ??rxStartIsr_14
//  623     {
//  624       /* discard rest of frame */
//  625       rxDiscardFrame();
//  626       return;
//  627     }
//  628   }
//  629 
//  630   /*-------------------------------------------------------------------------------
//  631    *  Compute length of addressing fields.  Compute payload length.
//  632    */
//  633 
//  634   /* decode addressing modes */
//  635   dstAddrMode = MAC_DEST_ADDR_MODE(&rxBuf[1]);
??rxStartIsr_13:
        MOV       DPTR,#rxBuf + 2
        MOVX      A,@DPTR
        MOV       R0,A
        RRC       A
        RRC       A
        ANL       A,#0x3f
        ANL       A,#0x3
        MOV       ?V2,A
//  636   srcAddrMode = MAC_SRC_ADDR_MODE(&rxBuf[1]);
        MOV       A,R0
        SWAP      A
        RRC       A
        RRC       A
        ANL       A,#0x3
        MOV       ?V0,A
//  637 
//  638   /*
//  639   *  Workaround for chip bug #1547.  The receive buffer can sometimes be corrupted by hardware.
//  640    *  This usually occurs under heavy traffic.  If a corrupted receive buffer is detected
//  641    *  the entire receive buffer is flushed.
//  642    */
//  643   if (macChipVersion == REV_A)
        MOV       DPTR,#macChipVersion
        MOVX      A,@DPTR
        JNZ       ??rxStartIsr_16
//  644   {
//  645     if ((srcAddrMode == ADDR_MODE_RESERVERED) || (dstAddrMode == ADDR_MODE_RESERVERED))
        MOV       A,#0x1
        XRL       A,?V0
        JZ        ??rxStartIsr_5
        MOV       A,#0x1
        XRL       A,?V2
        JNZ       ??rxStartIsr_16
//  646     {
//  647       MAC_RADIO_FLUSH_RX_FIFO();
??rxStartIsr_5:
        MOV       0xe1,#-0x13
        MOV       0xe1,#-0x13
//  648       rxDone();
        ; Setup parameters for call to function rxDone
??rxStartIsr_11:
        LCALL     `??rxDone::?relay`; Banked call to: rxDone
//  649       return;
        LJMP      ??rxStartIsr_3 & 0xFFFF
//  650     }
//  651   }
//  652 
//  653   /*
//  654    *  Compute the addressing field length.  A lookup table based on addressing
//  655    *  mode is used for efficiency.  If the source address is present and the
//  656    *  frame is intra-PAN, the PAN Id is not repeated.  In this case, the address
//  657    *  length is adjusted to match the smaller length.
//  658    */
//  659   addrLen = macRxAddrLen[dstAddrMode] + macRxAddrLen[srcAddrMode];
??rxStartIsr_16:
        MOV       R0,?V0
        LCALL     ?Subroutine22 & 0xFFFF
??CrossCallReturnLabel_29:
        MOV       R2,A
        MOV       R0,?V2
        LCALL     ?Subroutine22 & 0xFFFF
??CrossCallReturnLabel_30:
        ADD       A,R2
        MOV       ?V1,A
//  660   if ((srcAddrMode != SADDR_MODE_NONE) && MAC_INTRA_PAN(&rxBuf[1]))
        MOV       A,?V0
        JZ        ??rxStartIsr_17
        MOV       DPTR,#rxBuf + 1
        MOVX      A,@DPTR
        MOV       C,0xE0 /* A   */.6
        JNC       ??rxStartIsr_17
//  661   {
//  662     addrLen -= MAC_PAN_ID_FIELD_LEN;
        DEC       ?V1
        DEC       ?V1
//  663   }
//  664 
//  665   /*
//  666    *  If there are not enough unread bytes to include the computed address
//  667    *  plus FCS field, the frame is corrupted and must be discarded.
//  668    */
//  669   if ((addrLen + MAC_FCS_FIELD_LEN) > rxUnreadLen)
??rxStartIsr_17:
        MOV       DPTR,#rxUnreadLen
        MOVX      A,@DPTR
        MOV       R2,A
        MOV       R1,#0x0
        MOV       A,?V1
        ADD       A,#0x2
        MOV       R0,A
        JNC       ??rxStartIsr_18
        INC       R1
??rxStartIsr_18:
        CLR       C
        MOV       A,R2
        SUBB      A,R0
        CLR       A
        SUBB      A,R1
        MOV       C,0xD0 /* PSW */.2
        XRL       A,PSW
        RLC       A
        JNC       ??rxStartIsr_19
//  670   {
//  671     /* discard frame and exit */
//  672     rxDiscardFrame();
??rxStartIsr_14:
        ; Setup parameters for call to function rxDiscardFrame
        LCALL     `??rxDiscardFrame::?relay`; Banked call to: rxDiscardFrame
//  673     return;
        LJMP      ??rxStartIsr_3 & 0xFFFF
//  674   }
//  675 
//  676   /* aux security header plus payload length is equal to unread bytes minus
//  677    * address length, minus the FCS
//  678    */
//  679   rxPayloadLen = rxUnreadLen - addrLen - MAC_FCS_FIELD_LEN;
??rxStartIsr_19:
        MOVX      A,@DPTR
        CLR       C
        SUBB      A,?V1
        ADD       A,#-0x2
        MOV       DPTR,#rxPayloadLen
        LCALL     ?Subroutine5 & 0xFFFF
//  680 
//  681   /*-------------------------------------------------------------------------------
//  682    *  Allocate memory for the incoming frame.
//  683    */
//  684   if (MAC_SEC_ENABLED(&rxBuf[1]))
??CrossCallReturnLabel_4:
        JNC       ??rxStartIsr_20
//  685   {
//  686     /* increase the allocation size of MAC header for security */
//  687     mhrLen = MAC_MHR_LEN;
        MOV       R6,#0x25
//  688   }
//  689 
//  690   pRxBuf = (macRx_t *) MEM_ALLOC(sizeof(macRx_t) + mhrLen + rxPayloadLen);
??rxStartIsr_20:
        ; Setup parameters for call to function macDataRxMemAlloc
        MOV       DPTR,#rxPayloadLen
        MOVX      A,@DPTR
        MOV       R0,A
        MOV       A,R6
        ADD       A,R0
        MOV       R0,A
        CLR       A
        ADDC      A,#0x0
        MOV       R1,A
        MOV       A,R0
        ADD       A,#0x35
        MOV       R2,A
        CLR       A
        ADDC      A,R1
        MOV       R3,A
        LCALL     `??macDataRxMemAlloc::?relay`; Banked call to: macDataRxMemAlloc
        MOV       DPTR,#pRxBuf
        LCALL     ??Subroutine39_0 & 0xFFFF
//  691   if (pRxBuf == NULL)
??CrossCallReturnLabel_73:
        MOV       R1,A
        MOV       A,R2
        ORL       A,R1
        JNZ       ??rxStartIsr_21
//  692   {
//  693     /* Cancel the outgoing TX ACK */
//  694     MAC_RADIO_CANCEL_TX_ACK();
        MOV       0xe1,#-0x18
        SJMP      ??rxStartIsr_14
//  695 
//  696     /* buffer allocation failed, discard the frame and exit*/
//  697     rxDiscardFrame();
//  698     return;
//  699   }
//  700 
//  701   /*-------------------------------------------------------------------------------
//  702    *  Set up to process ACK request.  Do not ACK if in promiscuous mode.
//  703    */
//  704   ackWithPending = 0;
??rxStartIsr_21:
        MOV       R6,#0x0
//  705   if (!rxPromiscuousMode)
        MOV       DPTR,#rxPromiscuousMode
        MOVX      A,@DPTR
        JNZ       ??rxStartIsr_22
//  706   {
//  707     macRxOutgoingAckFlag = MAC_ACK_REQUEST(&rxBuf[1]);
        MOV       DPTR,#rxBuf + 1
        MOVX      A,@DPTR
        ANL       A,#0x20
        MOV       DPTR,#macRxOutgoingAckFlag
        MOVX      @DPTR,A
//  708   }
//  709 
//  710   /*-------------------------------------------------------------------------------
//  711    *  Process any ACK request.
//  712    */
//  713   if (macRxOutgoingAckFlag)
??rxStartIsr_22:
        MOV       DPTR,#macRxOutgoingAckFlag
        MOVX      A,@DPTR
        JZ        ??rxStartIsr_23
//  714   {
//  715     halIntState_t  s;
//  716 
//  717     /*
//  718      *  This critical section ensures that the callback ISR is initiated within time
//  719      *  to guarantee correlation with the strobe.
//  720      */
//  721     HAL_ENTER_CRITICAL_SECTION(s);
        MOV       C,0xa8.7
        CLR       A
        RLC       A
        MOV       R7,A
        CLR       0xa8.7
//  722 
//  723     /* Do not ack data packet with pending more data */
//  724     if( MAC_FRAME_TYPE(&rxBuf[1]) == MAC_FRAME_TYPE_COMMAND )
        MOV       DPTR,#rxBuf + 1
        MOVX      A,@DPTR
        ANL       A,#0x7
        XRL       A,#0x3
        JNZ       ??rxStartIsr_24
//  725     {
//  726       if( macRxCheckMACPendingCallback())
        ; Setup parameters for call to function macRxCheckMACPendingCallback
        LCALL     `??macRxCheckMACPendingCallback::?relay`; Banked call to: macRxCheckMACPendingCallback
        MOV       A,R1
        JZ        $+5
        LJMP      ??rxStartIsr_25 & 0xFFFF
//  727       {
//  728         /* Check is any mac data pending for end devices */
//  729         ackWithPending = MAC_RX_FLAG_ACK_PENDING;
//  730       }
//  731       else
//  732       {
//  733         if( macSrcMatchIsEnabled )
        MOV       DPTR,#macSrcMatchIsEnabled
        MOVX      A,@DPTR
        JNZ       $+5
        LJMP      ??rxStartIsr_26 & 0xFFFF
//  734         {
//  735           /* When autopend is enabled, check if allpending is set to true */
//  736           if( MAC_SrcMatchCheckAllPending() == MAC_AUTOACK_PENDING_ALL_ON )
        ; Setup parameters for call to function MAC_SrcMatchCheckAllPending
        LCALL     `??MAC_SrcMatchCheckAllPending::?relay`; Banked call to: MAC_SrcMatchCheckAllPending
        MOV       A,R1
        XRL       A,#0xfe
        JNZ       $+5
        LJMP      ??rxStartIsr_25 & 0xFFFF
//  737           {
//  738             ackWithPending = MAC_RX_FLAG_ACK_PENDING;
//  739           }
//  740         }
//  741         else
//  742         {
//  743           /* When autopend is disabled, check the application pending callback */
//  744           if( macRxCheckPendingCallback() )
//  745           {
//  746             ackWithPending = MAC_RX_FLAG_ACK_PENDING;
//  747           }
//  748         }
//  749       }
//  750     }
//  751 
//  752     if( ackWithPending == MAC_RX_FLAG_ACK_PENDING )
//  753     {
//  754       MAC_RADIO_TX_ACK_PEND();
//  755     }
//  756     else
//  757     {
//  758       MAC_RADIO_TX_ACK();
??rxStartIsr_24:
        MOV       DPTR,#0x618a
        MOVX      A,@DPTR
        CLR       0xE0 /* A   */.2
//  759     }
??rxStartIsr_27:
        LCALL     ?Subroutine10 & 0xFFFF
//  760 
//  761 
//  762     /* request a callback to macRxAckTxDoneCallback() when the ACK transmit has finished */
//  763     MAC_RADIO_REQUEST_ACK_TX_DONE_CALLBACK();
??CrossCallReturnLabel_12:
        MOV       0x91,#-0x2
        MOV       A,R0
        MOV       C,0xE0 /* A   */.7
        MOV       0xa8.7,C
        MOV       DPTR,#0x61a4
        MOVX      A,@DPTR
        SETB      0xE0 /* A   */.0
        MOVX      @DPTR,A
//  764     HAL_EXIT_CRITICAL_SECTION(s);
        MOV       A,R7
        MOV       C,0xE0 /* A   */.0
        MOV       0xa8.7,C
//  765   }
//  766 
//  767  /*-------------------------------------------------------------------------------
//  768   *  Populate the receive buffer going up to high-level.
//  769   */
//  770 
//  771   /* configure the payload buffer
//  772    * save MAC header pointer regardless of security status.
//  773    */
//  774   pRxBuf->mhr.p   = pRxBuf->msdu.p   = (uint8 *) (pRxBuf + 1);
??rxStartIsr_23:
        MOV       DPTR,#pRxBuf
        MOVX      A,@DPTR
        LCALL     ?Subroutine18 & 0xFFFF
??CrossCallReturnLabel_21:
        MOV       DPH,A
        MOV       DPL,R2
        INC       DPTR
        INC       DPTR
        LCALL     ?Subroutine7 & 0xFFFF
??CrossCallReturnLabel_69:
        MOV       R2,A
        INC       DPTR
        MOVX      A,@DPTR
        XCH       A,R2
        ADD       A,#0x32
        LCALL     ?Subroutine24 & 0xFFFF
//  775   pRxBuf->mhr.len = pRxBuf->msdu.len =  rxPayloadLen;
??CrossCallReturnLabel_33:
        MOV       DPTR,#rxPayloadLen
        MOVX      A,@DPTR
        PUSH      A
          CFI CFA_SP SP+-1
        LCALL     ?Subroutine14 & 0xFFFF
??CrossCallReturnLabel_41:
        POP       A
          CFI CFA_SP SP+0
        LCALL     ??Subroutine37_0 & 0xFFFF
??CrossCallReturnLabel_68:
        LCALL     ??Subroutine29_0 & 0xFFFF
??CrossCallReturnLabel_40:
        MOVX      A,@DPTR
        PUSH      A
          CFI CFA_SP SP+-1
        MOV       DPTR,#pRxBuf + 1
        LCALL     ??Subroutine30_0 & 0xFFFF
??CrossCallReturnLabel_43:
        POP       A
          CFI CFA_SP SP+0
        LCALL     ?Subroutine5 & 0xFFFF
//  776 
//  777   if (MAC_SEC_ENABLED(&rxBuf[1]))
??CrossCallReturnLabel_5:
        JNC       ??CrossCallReturnLabel_75
//  778   {
//  779     /* Copy FCF and sequence number to RX buffer */
//  780     pRxBuf->mhr.len = MAC_FCF_FIELD_LEN + MAC_SEQ_NUM_FIELD_LEN;
        LCALL     ?Subroutine13 & 0xFFFF
??CrossCallReturnLabel_44:
        MOV       A,#0x3
        MOVX      @DPTR,A
//  781     osal_memcpy(pRxBuf->mhr.p, &rxBuf[1], pRxBuf->mhr.len);
        ; Setup parameters for call to function osal_memcpy
        MOV       ?V4,#(rxBuf + 1) & 0xff
        MOV       ?V5,#((rxBuf + 1) >> 8) & 0xff
        MOV       ?V6,#0x0
        MOV       R0,#?V4
        LCALL     ?PUSH_XSTACK_I_THREE
          CFI CFA_XSP16 add(XSP16, 21)
        LCALL     ?Subroutine13 & 0xFFFF
??CrossCallReturnLabel_45:
        MOVX      A,@DPTR
        MOV       R4,A
        MOV       R5,#0x0
        LCALL     ?Subroutine12 & 0xFFFF
??CrossCallReturnLabel_15:
        LCALL     `??osal_memcpy::?relay`; Banked call to: osal_memcpy
        MOV       A,#0x3
        LCALL     ?DEALLOC_XSTACK8
          CFI CFA_XSP16 add(XSP16, 18)
//  782     pRxBuf->mhr.p += pRxBuf->mhr.len;
        MOV       DPTR,#pRxBuf
        MOVX      A,@DPTR
        ADD       A,#0x32
        LCALL     ?Subroutine11 & 0xFFFF
//  783   }
??CrossCallReturnLabel_13:
        LCALL     ?Subroutine6 & 0xFFFF
//  784 
//  785   /* set internal values */
//  786   pRxBuf->mac.srcAddr.addrMode  = srcAddrMode;
??CrossCallReturnLabel_75:
        LCALL     ?Subroutine16 & 0xFFFF
??CrossCallReturnLabel_50:
        ADD       A,#0x1a
        LCALL     ?Subroutine2 & 0xFFFF
//  787   pRxBuf->mac.dstAddr.addrMode  = dstAddrMode;
??CrossCallReturnLabel_46:
        ADD       A,#0x23
        MOV       DPL,A
        CLR       A
        ADDC      A,R0
        MOV       DPH,A
        MOV       A,?V2
        MOVX      @DPTR,A
//  788   pRxBuf->mac.timestamp         = MAC_RADIO_BACKOFF_CAPTURE();
        ; Setup parameters for call to function macMcuOverflowCapture
        LCALL     `??macMcuOverflowCapture::?relay`; Banked call to: macMcuOverflowCapture
        MOV       ?V4,R2
        MOV       ?V5,R3
        MOV       ?V6,R4
        MOV       ?V7,R5
        LCALL     ?Subroutine16 & 0xFFFF
??CrossCallReturnLabel_51:
        ADD       A,#0x24
        MOV       DPL,A
        CLR       A
        ADDC      A,R0
        MOV       DPH,A
        MOV       R0,#?V4
        LCALL     ?L_MOV_TO_X
//  789   pRxBuf->mac.timestamp2        = MAC_RADIO_TIMER_CAPTURE();
        ; Setup parameters for call to function macMcuTimerCapture
        LCALL     `??macMcuTimerCapture::?relay`; Banked call to: macMcuTimerCapture
        MOV       ?V2,R2
        LCALL     ??Subroutine35_0 & 0xFFFF
??CrossCallReturnLabel_61:
        XCH       A,R2
        ADD       A,#0x28
        MOV       DPL,A
        CLR       A
        ADDC      A,R2
        MOV       DPH,A
        MOV       A,?V2
        LCALL     ??Subroutine40_0 & 0xFFFF
//  790   pRxBuf->internal.frameType    = MAC_FRAME_TYPE(&rxBuf[1]);
??CrossCallReturnLabel_70:
        MOV       DPTR,#rxBuf + 1
        MOVX      A,@DPTR
        ANL       A,#0x7
        PUSH      A
          CFI CFA_SP SP+-1
        LCALL     ?Subroutine14 & 0xFFFF
??CrossCallReturnLabel_42:
        INC       DPTR
        POP       A
          CFI CFA_SP SP+0
        MOVX      @DPTR,A
//  791   pRxBuf->mac.dsn               = MAC_SEQ_NUMBER(&rxBuf[1]);
        MOV       DPTR,#rxBuf + 3
        MOVX      A,@DPTR
        PUSH      A
          CFI CFA_SP SP+-1
        LCALL     ?Subroutine16 & 0xFFFF
??CrossCallReturnLabel_52:
        ADD       A,#0x31
        MOV       DPL,A
        CLR       A
        ADDC      A,R0
        MOV       DPH,A
        POP       A
          CFI CFA_SP SP+0
        MOVX      @DPTR,A
//  792   pRxBuf->internal.flags        = INTERNAL_FCF_FLAGS(&rxBuf[1]) | ackWithPending;
        MOV       DPTR,#rxBuf + 1
        MOVX      A,@DPTR
        ANL       A,#0x78
        MOV       R0,A
        INC       DPTR
        MOVX      A,@DPTR
        SWAP      A
        ANL       A,#0xf
        ANL       A,#0x3
        ORL       A,R0
        ORL       A,R6
        PUSH      A
          CFI CFA_SP SP+-1
        LCALL     ?Subroutine15 & 0xFFFF
??CrossCallReturnLabel_17:
        POP       A
          CFI CFA_SP SP+0
        MOVX      @DPTR,A
//  793 
//  794   /*-------------------------------------------------------------------------------
//  795    *  If the processing the addressing fields does not require more bytes from
//  796    *  the FIFO go directly address processing function.  Otherwise, configure
//  797    *  interrupt to jump there once bytes are received.
//  798    */
//  799   if (addrLen == 0)
        MOV       A,?V1
        JNZ       ??rxStartIsr_28
//  800   {
//  801     /* no addressing fields to read, prepare for payload interrupts */
//  802     pFuncRxState = &rxPayloadIsr;
        LCALL     ?Subroutine8 & 0xFFFF
//  803     rxPrepPayload();
//  804   }
??CrossCallReturnLabel_7:
        SJMP      ??rxStartIsr_3
??rxStartIsr_26:
        ; Setup parameters for call to function macRxCheckPendingCallback
        LCALL     `??macRxCheckPendingCallback::?relay`; Banked call to: macRxCheckPendingCallback
        MOV       A,R1
        JNZ       $+5
        LJMP      ??rxStartIsr_24 & 0xFFFF
??rxStartIsr_25:
        MOV       R6,#0x4
        MOV       DPTR,#0x618a
        MOVX      A,@DPTR
        SETB      0xE0 /* A   */.2
        LJMP      ??rxStartIsr_27 & 0xFFFF
//  805   else
//  806   {
//  807     /* need to read and process addressing fields, prepare for address interrupt */
//  808     rxNextLen = addrLen;
??rxStartIsr_28:
        MOV       DPTR,#rxNextLen
        LCALL     ?Subroutine5 & 0xFFFF
//  809     if (MAC_SEC_ENABLED(&rxBuf[1]))
??CrossCallReturnLabel_6:
        MOV       DPTR,#rxNextLen
        MOVX      A,@DPTR
        JC        ??rxStartIsr_29
//  810     {
//  811       /* When security is enabled, read off security control field as well */
//  812       MAC_RADIO_SET_RX_THRESHOLD(rxNextLen + MAC_SEC_CONTROL_FIELD_LEN);
//  813     }
//  814     else
//  815     {
//  816       MAC_RADIO_SET_RX_THRESHOLD(rxNextLen);
        DEC       A
??rxStartIsr_29:
        MOV       DPTR,#0x6194
        MOVX      @DPTR,A
//  817     }
//  818     pFuncRxState = &rxAddrIsr;
        MOV       DPTR,#pFuncRxState
        MOV       A,#`??rxAddrIsr::?relay` & 0xff
        MOVX      @DPTR,A
        INC       DPTR
        MOV       A,#(`??rxAddrIsr::?relay` >> 8) & 0xff
        MOVX      @DPTR,A
//  819   }
//  820 }
??rxStartIsr_3:
        MOV       A,#0x2
        LCALL     ?DEALLOC_XSTACK8
          CFI CFA_XSP16 add(XSP16, 16)
        MOV       R7,#0x8
        LJMP      ?BANKED_LEAVE_XDATA
          CFI EndBlock cfiBlock17
        REQUIRE RFST
        REQUIRE _A_IEN0
        REQUIRE S1CON
        REQUIRE RFIRQF1

        RSEG BANKED_CODE:HUGECODE:NOROOT(0)
?Subroutine22:
          CFI Block cfiCond18 Using cfiCommon0
          CFI Function rxStartIsr
          CFI Conditional ??CrossCallReturnLabel_29
          CFI R6 load(1, XDATA, add(CFA_XSP16, literal(-16)))
          CFI VB load(1, XDATA, add(CFA_XSP16, literal(-15)))
          CFI V0 load(1, XDATA, add(CFA_XSP16, literal(-14)))
          CFI V1 load(1, XDATA, add(CFA_XSP16, literal(-13)))
          CFI V2 load(1, XDATA, add(CFA_XSP16, literal(-12)))
          CFI V3 load(1, XDATA, add(CFA_XSP16, literal(-11)))
          CFI V4 load(1, XDATA, add(CFA_XSP16, literal(-10)))
          CFI V5 load(1, XDATA, add(CFA_XSP16, literal(-9)))
          CFI V6 load(1, XDATA, add(CFA_XSP16, literal(-8)))
          CFI V7 load(1, XDATA, add(CFA_XSP16, literal(-7)))
          CFI R7 load(1, XDATA, add(CFA_XSP16, literal(-6)))
          CFI ?RET_LOW load(1, XDATA, add(CFA_XSP16, literal(-5)))
          CFI ?RET_HIGH load(1, XDATA, add(CFA_XSP16, literal(-4)))
          CFI ?BRET_EXT load(1, XDATA, add(CFA_XSP16, literal(-3)))
          CFI DPL0 load(1, XDATA, add(CFA_XSP16, literal(-2)))
          CFI DPH0 load(1, XDATA, add(CFA_XSP16, literal(-1)))
          CFI CFA_SP SP+-2
          CFI CFA_XSP16 add(XSP16, 18)
          CFI Block cfiCond19 Using cfiCommon0
          CFI (cfiCond19) Function rxStartIsr
          CFI (cfiCond19) Conditional ??CrossCallReturnLabel_30
          CFI (cfiCond19) R6 load(1, XDATA, add(CFA_XSP16, literal(-16)))
          CFI (cfiCond19) VB load(1, XDATA, add(CFA_XSP16, literal(-15)))
          CFI (cfiCond19) V0 load(1, XDATA, add(CFA_XSP16, literal(-14)))
          CFI (cfiCond19) V1 load(1, XDATA, add(CFA_XSP16, literal(-13)))
          CFI (cfiCond19) V2 load(1, XDATA, add(CFA_XSP16, literal(-12)))
          CFI (cfiCond19) V3 load(1, XDATA, add(CFA_XSP16, literal(-11)))
          CFI (cfiCond19) V4 load(1, XDATA, add(CFA_XSP16, literal(-10)))
          CFI (cfiCond19) V5 load(1, XDATA, add(CFA_XSP16, literal(-9)))
          CFI (cfiCond19) V6 load(1, XDATA, add(CFA_XSP16, literal(-8)))
          CFI (cfiCond19) V7 load(1, XDATA, add(CFA_XSP16, literal(-7)))
          CFI (cfiCond19) R7 load(1, XDATA, add(CFA_XSP16, literal(-6)))
          CFI (cfiCond19) ?RET_LOW load(1, XDATA, add(CFA_XSP16, literal(-5)))
          CFI (cfiCond19) ?RET_HIGH load(1, XDATA, add(CFA_XSP16, literal(-4)))
          CFI (cfiCond19) ?BRET_EXT load(1, XDATA, add(CFA_XSP16, literal(-3)))
          CFI (cfiCond19) DPL0 load(1, XDATA, add(CFA_XSP16, literal(-2)))
          CFI (cfiCond19) DPH0 load(1, XDATA, add(CFA_XSP16, literal(-1)))
          CFI (cfiCond19) CFA_SP SP+-2
          CFI (cfiCond19) CFA_XSP16 add(XSP16, 18)
          CFI Block cfiPicker20 Using cfiCommon1
          CFI (cfiPicker20) NoFunction
          CFI (cfiPicker20) Picker
        MOV       A,#macRxAddrLen & 0xff
        ADD       A,R0
        MOV       DPL,A
        CLR       A
        ADDC      A,#(macRxAddrLen >> 8) & 0xff
        MOV       DPH,A
        CLR       A
        MOVC      A,@A+DPTR
        RET
          CFI EndBlock cfiCond18
          CFI EndBlock cfiCond19
          CFI EndBlock cfiPicker20

        RSEG BANKED_CODE:HUGECODE:NOROOT(0)
?Subroutine14:
          CFI Block cfiCond21 Using cfiCommon0
          CFI Function rxStartIsr
          CFI Conditional ??CrossCallReturnLabel_41
          CFI R6 load(1, XDATA, add(CFA_XSP16, literal(-16)))
          CFI VB load(1, XDATA, add(CFA_XSP16, literal(-15)))
          CFI V0 load(1, XDATA, add(CFA_XSP16, literal(-14)))
          CFI V1 load(1, XDATA, add(CFA_XSP16, literal(-13)))
          CFI V2 load(1, XDATA, add(CFA_XSP16, literal(-12)))
          CFI V3 load(1, XDATA, add(CFA_XSP16, literal(-11)))
          CFI V4 load(1, XDATA, add(CFA_XSP16, literal(-10)))
          CFI V5 load(1, XDATA, add(CFA_XSP16, literal(-9)))
          CFI V6 load(1, XDATA, add(CFA_XSP16, literal(-8)))
          CFI V7 load(1, XDATA, add(CFA_XSP16, literal(-7)))
          CFI R7 load(1, XDATA, add(CFA_XSP16, literal(-6)))
          CFI ?RET_LOW load(1, XDATA, add(CFA_XSP16, literal(-5)))
          CFI ?RET_HIGH load(1, XDATA, add(CFA_XSP16, literal(-4)))
          CFI ?BRET_EXT load(1, XDATA, add(CFA_XSP16, literal(-3)))
          CFI DPL0 load(1, XDATA, add(CFA_XSP16, literal(-2)))
          CFI DPH0 load(1, XDATA, add(CFA_XSP16, literal(-1)))
          CFI CFA_XSP16 add(XSP16, 18)
          CFI Block cfiCond22 Using cfiCommon0
          CFI (cfiCond22) Function rxStartIsr
          CFI (cfiCond22) Conditional ??CrossCallReturnLabel_42
          CFI (cfiCond22) R6 load(1, XDATA, add(CFA_XSP16, literal(-16)))
          CFI (cfiCond22) VB load(1, XDATA, add(CFA_XSP16, literal(-15)))
          CFI (cfiCond22) V0 load(1, XDATA, add(CFA_XSP16, literal(-14)))
          CFI (cfiCond22) V1 load(1, XDATA, add(CFA_XSP16, literal(-13)))
          CFI (cfiCond22) V2 load(1, XDATA, add(CFA_XSP16, literal(-12)))
          CFI (cfiCond22) V3 load(1, XDATA, add(CFA_XSP16, literal(-11)))
          CFI (cfiCond22) V4 load(1, XDATA, add(CFA_XSP16, literal(-10)))
          CFI (cfiCond22) V5 load(1, XDATA, add(CFA_XSP16, literal(-9)))
          CFI (cfiCond22) V6 load(1, XDATA, add(CFA_XSP16, literal(-8)))
          CFI (cfiCond22) V7 load(1, XDATA, add(CFA_XSP16, literal(-7)))
          CFI (cfiCond22) R7 load(1, XDATA, add(CFA_XSP16, literal(-6)))
          CFI (cfiCond22) ?RET_LOW load(1, XDATA, add(CFA_XSP16, literal(-5)))
          CFI (cfiCond22) ?RET_HIGH load(1, XDATA, add(CFA_XSP16, literal(-4)))
          CFI (cfiCond22) ?BRET_EXT load(1, XDATA, add(CFA_XSP16, literal(-3)))
          CFI (cfiCond22) DPL0 load(1, XDATA, add(CFA_XSP16, literal(-2)))
          CFI (cfiCond22) DPH0 load(1, XDATA, add(CFA_XSP16, literal(-1)))
          CFI (cfiCond22) CFA_XSP16 add(XSP16, 18)
          CFI Block cfiPicker23 Using cfiCommon1
          CFI (cfiPicker23) NoFunction
          CFI (cfiPicker23) Picker
        MOV       DPTR,#pRxBuf
        MOVX      A,@DPTR
          CFI EndBlock cfiCond21
          CFI EndBlock cfiCond22
          CFI EndBlock cfiPicker23
        REQUIRE ??Subroutine29_0
        ; // Fall through to label ??Subroutine29_0

        RSEG BANKED_CODE:HUGECODE:NOROOT(0)
??Subroutine29_0:
          CFI Block cfiCond24 Using cfiCommon0
          CFI Function rxStartIsr
          CFI Conditional ??CrossCallReturnLabel_40
          CFI R6 load(1, XDATA, add(CFA_XSP16, literal(-16)))
          CFI VB load(1, XDATA, add(CFA_XSP16, literal(-15)))
          CFI V0 load(1, XDATA, add(CFA_XSP16, literal(-14)))
          CFI V1 load(1, XDATA, add(CFA_XSP16, literal(-13)))
          CFI V2 load(1, XDATA, add(CFA_XSP16, literal(-12)))
          CFI V3 load(1, XDATA, add(CFA_XSP16, literal(-11)))
          CFI V4 load(1, XDATA, add(CFA_XSP16, literal(-10)))
          CFI V5 load(1, XDATA, add(CFA_XSP16, literal(-9)))
          CFI V6 load(1, XDATA, add(CFA_XSP16, literal(-8)))
          CFI V7 load(1, XDATA, add(CFA_XSP16, literal(-7)))
          CFI R7 load(1, XDATA, add(CFA_XSP16, literal(-6)))
          CFI ?RET_LOW load(1, XDATA, add(CFA_XSP16, literal(-5)))
          CFI ?RET_HIGH load(1, XDATA, add(CFA_XSP16, literal(-4)))
          CFI ?BRET_EXT load(1, XDATA, add(CFA_XSP16, literal(-3)))
          CFI DPL0 load(1, XDATA, add(CFA_XSP16, literal(-2)))
          CFI DPH0 load(1, XDATA, add(CFA_XSP16, literal(-1)))
          CFI CFA_SP SP+-2
          CFI CFA_XSP16 add(XSP16, 18)
          CFI Block cfiCond25 Using cfiCommon0
          CFI (cfiCond25) Function rxStartIsr
          CFI (cfiCond25) Conditional ??CrossCallReturnLabel_41
          CFI (cfiCond25) R6 load(1, XDATA, add(CFA_XSP16, literal(-16)))
          CFI (cfiCond25) VB load(1, XDATA, add(CFA_XSP16, literal(-15)))
          CFI (cfiCond25) V0 load(1, XDATA, add(CFA_XSP16, literal(-14)))
          CFI (cfiCond25) V1 load(1, XDATA, add(CFA_XSP16, literal(-13)))
          CFI (cfiCond25) V2 load(1, XDATA, add(CFA_XSP16, literal(-12)))
          CFI (cfiCond25) V3 load(1, XDATA, add(CFA_XSP16, literal(-11)))
          CFI (cfiCond25) V4 load(1, XDATA, add(CFA_XSP16, literal(-10)))
          CFI (cfiCond25) V5 load(1, XDATA, add(CFA_XSP16, literal(-9)))
          CFI (cfiCond25) V6 load(1, XDATA, add(CFA_XSP16, literal(-8)))
          CFI (cfiCond25) V7 load(1, XDATA, add(CFA_XSP16, literal(-7)))
          CFI (cfiCond25) R7 load(1, XDATA, add(CFA_XSP16, literal(-6)))
          CFI (cfiCond25) ?RET_LOW load(1, XDATA, add(CFA_XSP16, literal(-5)))
          CFI (cfiCond25) ?RET_HIGH load(1, XDATA, add(CFA_XSP16, literal(-4)))
          CFI (cfiCond25) ?BRET_EXT load(1, XDATA, add(CFA_XSP16, literal(-3)))
          CFI (cfiCond25) DPL0 load(1, XDATA, add(CFA_XSP16, literal(-2)))
          CFI (cfiCond25) DPH0 load(1, XDATA, add(CFA_XSP16, literal(-1)))
          CFI (cfiCond25) CFA_XSP16 add(XSP16, 18)
          CFI Block cfiCond26 Using cfiCommon0
          CFI (cfiCond26) Function rxStartIsr
          CFI (cfiCond26) Conditional ??CrossCallReturnLabel_42
          CFI (cfiCond26) R6 load(1, XDATA, add(CFA_XSP16, literal(-16)))
          CFI (cfiCond26) VB load(1, XDATA, add(CFA_XSP16, literal(-15)))
          CFI (cfiCond26) V0 load(1, XDATA, add(CFA_XSP16, literal(-14)))
          CFI (cfiCond26) V1 load(1, XDATA, add(CFA_XSP16, literal(-13)))
          CFI (cfiCond26) V2 load(1, XDATA, add(CFA_XSP16, literal(-12)))
          CFI (cfiCond26) V3 load(1, XDATA, add(CFA_XSP16, literal(-11)))
          CFI (cfiCond26) V4 load(1, XDATA, add(CFA_XSP16, literal(-10)))
          CFI (cfiCond26) V5 load(1, XDATA, add(CFA_XSP16, literal(-9)))
          CFI (cfiCond26) V6 load(1, XDATA, add(CFA_XSP16, literal(-8)))
          CFI (cfiCond26) V7 load(1, XDATA, add(CFA_XSP16, literal(-7)))
          CFI (cfiCond26) R7 load(1, XDATA, add(CFA_XSP16, literal(-6)))
          CFI (cfiCond26) ?RET_LOW load(1, XDATA, add(CFA_XSP16, literal(-5)))
          CFI (cfiCond26) ?RET_HIGH load(1, XDATA, add(CFA_XSP16, literal(-4)))
          CFI (cfiCond26) ?BRET_EXT load(1, XDATA, add(CFA_XSP16, literal(-3)))
          CFI (cfiCond26) DPL0 load(1, XDATA, add(CFA_XSP16, literal(-2)))
          CFI (cfiCond26) DPH0 load(1, XDATA, add(CFA_XSP16, literal(-1)))
          CFI (cfiCond26) CFA_XSP16 add(XSP16, 18)
          CFI Block cfiPicker27 Using cfiCommon1
          CFI (cfiPicker27) NoFunction
          CFI (cfiPicker27) Picker
        MOV       R0,A
        INC       DPTR
        MOVX      A,@DPTR
        MOV       DPH,A
        MOV       DPL,R0
        INC       DPTR
        INC       DPTR
        INC       DPTR
        INC       DPTR
        RET
          CFI EndBlock cfiCond24
          CFI EndBlock cfiCond25
          CFI EndBlock cfiCond26
          CFI EndBlock cfiPicker27

        RSEG BANKED_CODE:HUGECODE:NOROOT(0)
?Subroutine13:
          CFI Block cfiCond28 Using cfiCommon0
          CFI Function rxStartIsr
          CFI Conditional ??CrossCallReturnLabel_44
          CFI R6 load(1, XDATA, add(CFA_XSP16, literal(-16)))
          CFI VB load(1, XDATA, add(CFA_XSP16, literal(-15)))
          CFI V0 load(1, XDATA, add(CFA_XSP16, literal(-14)))
          CFI V1 load(1, XDATA, add(CFA_XSP16, literal(-13)))
          CFI V2 load(1, XDATA, add(CFA_XSP16, literal(-12)))
          CFI V3 load(1, XDATA, add(CFA_XSP16, literal(-11)))
          CFI V4 load(1, XDATA, add(CFA_XSP16, literal(-10)))
          CFI V5 load(1, XDATA, add(CFA_XSP16, literal(-9)))
          CFI V6 load(1, XDATA, add(CFA_XSP16, literal(-8)))
          CFI V7 load(1, XDATA, add(CFA_XSP16, literal(-7)))
          CFI R7 load(1, XDATA, add(CFA_XSP16, literal(-6)))
          CFI ?RET_LOW load(1, XDATA, add(CFA_XSP16, literal(-5)))
          CFI ?RET_HIGH load(1, XDATA, add(CFA_XSP16, literal(-4)))
          CFI ?BRET_EXT load(1, XDATA, add(CFA_XSP16, literal(-3)))
          CFI DPL0 load(1, XDATA, add(CFA_XSP16, literal(-2)))
          CFI DPH0 load(1, XDATA, add(CFA_XSP16, literal(-1)))
          CFI CFA_SP SP+-2
          CFI CFA_XSP16 add(XSP16, 18)
          CFI Block cfiCond29 Using cfiCommon0
          CFI (cfiCond29) Function rxStartIsr
          CFI (cfiCond29) Conditional ??CrossCallReturnLabel_45
          CFI (cfiCond29) R6 load(1, XDATA, add(CFA_XSP16, literal(-16)))
          CFI (cfiCond29) VB load(1, XDATA, add(CFA_XSP16, literal(-15)))
          CFI (cfiCond29) V0 load(1, XDATA, add(CFA_XSP16, literal(-14)))
          CFI (cfiCond29) V1 load(1, XDATA, add(CFA_XSP16, literal(-13)))
          CFI (cfiCond29) V2 load(1, XDATA, add(CFA_XSP16, literal(-12)))
          CFI (cfiCond29) V3 load(1, XDATA, add(CFA_XSP16, literal(-11)))
          CFI (cfiCond29) V4 load(1, XDATA, add(CFA_XSP16, literal(-10)))
          CFI (cfiCond29) V5 load(1, XDATA, add(CFA_XSP16, literal(-9)))
          CFI (cfiCond29) V6 load(1, XDATA, add(CFA_XSP16, literal(-8)))
          CFI (cfiCond29) V7 load(1, XDATA, add(CFA_XSP16, literal(-7)))
          CFI (cfiCond29) R7 load(1, XDATA, add(CFA_XSP16, literal(-6)))
          CFI (cfiCond29) ?RET_LOW load(1, XDATA, add(CFA_XSP16, literal(-5)))
          CFI (cfiCond29) ?RET_HIGH load(1, XDATA, add(CFA_XSP16, literal(-4)))
          CFI (cfiCond29) ?BRET_EXT load(1, XDATA, add(CFA_XSP16, literal(-3)))
          CFI (cfiCond29) DPL0 load(1, XDATA, add(CFA_XSP16, literal(-2)))
          CFI (cfiCond29) DPH0 load(1, XDATA, add(CFA_XSP16, literal(-1)))
          CFI (cfiCond29) CFA_SP SP+-2
          CFI (cfiCond29) CFA_XSP16 add(XSP16, 21)
          CFI Block cfiPicker30 Using cfiCommon1
          CFI (cfiPicker30) NoFunction
          CFI (cfiPicker30) Picker
        MOV       DPTR,#pRxBuf
        MOVX      A,@DPTR
        MOV       R0,A
        INC       DPTR
          CFI EndBlock cfiCond28
          CFI EndBlock cfiCond29
          CFI EndBlock cfiPicker30
        REQUIRE ??Subroutine30_0
        ; // Fall through to label ??Subroutine30_0

        RSEG BANKED_CODE:HUGECODE:NOROOT(0)
??Subroutine30_0:
          CFI Block cfiCond31 Using cfiCommon0
          CFI Function rxStartIsr
          CFI Conditional ??CrossCallReturnLabel_43
          CFI R6 load(1, XDATA, add(CFA_XSP16, literal(-16)))
          CFI VB load(1, XDATA, add(CFA_XSP16, literal(-15)))
          CFI V0 load(1, XDATA, add(CFA_XSP16, literal(-14)))
          CFI V1 load(1, XDATA, add(CFA_XSP16, literal(-13)))
          CFI V2 load(1, XDATA, add(CFA_XSP16, literal(-12)))
          CFI V3 load(1, XDATA, add(CFA_XSP16, literal(-11)))
          CFI V4 load(1, XDATA, add(CFA_XSP16, literal(-10)))
          CFI V5 load(1, XDATA, add(CFA_XSP16, literal(-9)))
          CFI V6 load(1, XDATA, add(CFA_XSP16, literal(-8)))
          CFI V7 load(1, XDATA, add(CFA_XSP16, literal(-7)))
          CFI R7 load(1, XDATA, add(CFA_XSP16, literal(-6)))
          CFI ?RET_LOW load(1, XDATA, add(CFA_XSP16, literal(-5)))
          CFI ?RET_HIGH load(1, XDATA, add(CFA_XSP16, literal(-4)))
          CFI ?BRET_EXT load(1, XDATA, add(CFA_XSP16, literal(-3)))
          CFI DPL0 load(1, XDATA, add(CFA_XSP16, literal(-2)))
          CFI DPH0 load(1, XDATA, add(CFA_XSP16, literal(-1)))
          CFI CFA_XSP16 add(XSP16, 18)
          CFI Block cfiCond32 Using cfiCommon0
          CFI (cfiCond32) Function rxStartIsr
          CFI (cfiCond32) Conditional ??CrossCallReturnLabel_44
          CFI (cfiCond32) R6 load(1, XDATA, add(CFA_XSP16, literal(-16)))
          CFI (cfiCond32) VB load(1, XDATA, add(CFA_XSP16, literal(-15)))
          CFI (cfiCond32) V0 load(1, XDATA, add(CFA_XSP16, literal(-14)))
          CFI (cfiCond32) V1 load(1, XDATA, add(CFA_XSP16, literal(-13)))
          CFI (cfiCond32) V2 load(1, XDATA, add(CFA_XSP16, literal(-12)))
          CFI (cfiCond32) V3 load(1, XDATA, add(CFA_XSP16, literal(-11)))
          CFI (cfiCond32) V4 load(1, XDATA, add(CFA_XSP16, literal(-10)))
          CFI (cfiCond32) V5 load(1, XDATA, add(CFA_XSP16, literal(-9)))
          CFI (cfiCond32) V6 load(1, XDATA, add(CFA_XSP16, literal(-8)))
          CFI (cfiCond32) V7 load(1, XDATA, add(CFA_XSP16, literal(-7)))
          CFI (cfiCond32) R7 load(1, XDATA, add(CFA_XSP16, literal(-6)))
          CFI (cfiCond32) ?RET_LOW load(1, XDATA, add(CFA_XSP16, literal(-5)))
          CFI (cfiCond32) ?RET_HIGH load(1, XDATA, add(CFA_XSP16, literal(-4)))
          CFI (cfiCond32) ?BRET_EXT load(1, XDATA, add(CFA_XSP16, literal(-3)))
          CFI (cfiCond32) DPL0 load(1, XDATA, add(CFA_XSP16, literal(-2)))
          CFI (cfiCond32) DPH0 load(1, XDATA, add(CFA_XSP16, literal(-1)))
          CFI (cfiCond32) CFA_SP SP+-2
          CFI (cfiCond32) CFA_XSP16 add(XSP16, 18)
          CFI Block cfiCond33 Using cfiCommon0
          CFI (cfiCond33) Function rxStartIsr
          CFI (cfiCond33) Conditional ??CrossCallReturnLabel_45
          CFI (cfiCond33) R6 load(1, XDATA, add(CFA_XSP16, literal(-16)))
          CFI (cfiCond33) VB load(1, XDATA, add(CFA_XSP16, literal(-15)))
          CFI (cfiCond33) V0 load(1, XDATA, add(CFA_XSP16, literal(-14)))
          CFI (cfiCond33) V1 load(1, XDATA, add(CFA_XSP16, literal(-13)))
          CFI (cfiCond33) V2 load(1, XDATA, add(CFA_XSP16, literal(-12)))
          CFI (cfiCond33) V3 load(1, XDATA, add(CFA_XSP16, literal(-11)))
          CFI (cfiCond33) V4 load(1, XDATA, add(CFA_XSP16, literal(-10)))
          CFI (cfiCond33) V5 load(1, XDATA, add(CFA_XSP16, literal(-9)))
          CFI (cfiCond33) V6 load(1, XDATA, add(CFA_XSP16, literal(-8)))
          CFI (cfiCond33) V7 load(1, XDATA, add(CFA_XSP16, literal(-7)))
          CFI (cfiCond33) R7 load(1, XDATA, add(CFA_XSP16, literal(-6)))
          CFI (cfiCond33) ?RET_LOW load(1, XDATA, add(CFA_XSP16, literal(-5)))
          CFI (cfiCond33) ?RET_HIGH load(1, XDATA, add(CFA_XSP16, literal(-4)))
          CFI (cfiCond33) ?BRET_EXT load(1, XDATA, add(CFA_XSP16, literal(-3)))
          CFI (cfiCond33) DPL0 load(1, XDATA, add(CFA_XSP16, literal(-2)))
          CFI (cfiCond33) DPH0 load(1, XDATA, add(CFA_XSP16, literal(-1)))
          CFI (cfiCond33) CFA_SP SP+-2
          CFI (cfiCond33) CFA_XSP16 add(XSP16, 21)
          CFI Block cfiPicker34 Using cfiCommon1
          CFI (cfiPicker34) NoFunction
          CFI (cfiPicker34) Picker
        MOVX      A,@DPTR
        XCH       A,R0
        ADD       A,#0x34
        MOV       DPL,A
        CLR       A
        ADDC      A,R0
        MOV       DPH,A
        RET
          CFI EndBlock cfiCond31
          CFI EndBlock cfiCond32
          CFI EndBlock cfiCond33
          CFI EndBlock cfiPicker34

        RSEG BANKED_CODE:HUGECODE:NOROOT(0)
?Subroutine10:
          CFI Block cfiCond35 Using cfiCommon0
          CFI Function macRxRadioPowerUpInit
          CFI Conditional ??CrossCallReturnLabel_11
          CFI DPL0 Frame(CFA_SP, 4)
          CFI DPH0 Frame(CFA_SP, 5)
          CFI CFA_SP SP+-7
          CFI Block cfiCond36 Using cfiCommon0
          CFI (cfiCond36) Function rxStartIsr
          CFI (cfiCond36) Conditional ??CrossCallReturnLabel_12
          CFI (cfiCond36) R6 load(1, XDATA, add(CFA_XSP16, literal(-16)))
          CFI (cfiCond36) VB load(1, XDATA, add(CFA_XSP16, literal(-15)))
          CFI (cfiCond36) V0 load(1, XDATA, add(CFA_XSP16, literal(-14)))
          CFI (cfiCond36) V1 load(1, XDATA, add(CFA_XSP16, literal(-13)))
          CFI (cfiCond36) V2 load(1, XDATA, add(CFA_XSP16, literal(-12)))
          CFI (cfiCond36) V3 load(1, XDATA, add(CFA_XSP16, literal(-11)))
          CFI (cfiCond36) V4 load(1, XDATA, add(CFA_XSP16, literal(-10)))
          CFI (cfiCond36) V5 load(1, XDATA, add(CFA_XSP16, literal(-9)))
          CFI (cfiCond36) V6 load(1, XDATA, add(CFA_XSP16, literal(-8)))
          CFI (cfiCond36) V7 load(1, XDATA, add(CFA_XSP16, literal(-7)))
          CFI (cfiCond36) R7 load(1, XDATA, add(CFA_XSP16, literal(-6)))
          CFI (cfiCond36) ?RET_LOW load(1, XDATA, add(CFA_XSP16, literal(-5)))
          CFI (cfiCond36) ?RET_HIGH load(1, XDATA, add(CFA_XSP16, literal(-4)))
          CFI (cfiCond36) ?BRET_EXT load(1, XDATA, add(CFA_XSP16, literal(-3)))
          CFI (cfiCond36) DPL0 load(1, XDATA, add(CFA_XSP16, literal(-2)))
          CFI (cfiCond36) DPH0 load(1, XDATA, add(CFA_XSP16, literal(-1)))
          CFI (cfiCond36) CFA_SP SP+-2
          CFI (cfiCond36) CFA_XSP16 add(XSP16, 18)
          CFI Block cfiPicker37 Using cfiCommon1
          CFI (cfiPicker37) NoFunction
          CFI (cfiPicker37) Picker
        MOVX      @DPTR,A
        MOV       R0,0xa8+0x0
        CLR       0xa8.7
        MOV       0x9b,#0x0
        RET
          CFI EndBlock cfiCond35
          CFI EndBlock cfiCond36
          CFI EndBlock cfiPicker37

        RSEG BANKED_CODE:HUGECODE:NOROOT(0)
?Subroutine9:
          CFI Block cfiCond38 Using cfiCommon0
          CFI Function rxStartIsr
          CFI Conditional ??CrossCallReturnLabel_9
          CFI R6 load(1, XDATA, add(CFA_XSP16, literal(-16)))
          CFI VB load(1, XDATA, add(CFA_XSP16, literal(-15)))
          CFI V0 load(1, XDATA, add(CFA_XSP16, literal(-14)))
          CFI V1 load(1, XDATA, add(CFA_XSP16, literal(-13)))
          CFI V2 load(1, XDATA, add(CFA_XSP16, literal(-12)))
          CFI V3 load(1, XDATA, add(CFA_XSP16, literal(-11)))
          CFI V4 load(1, XDATA, add(CFA_XSP16, literal(-10)))
          CFI V5 load(1, XDATA, add(CFA_XSP16, literal(-9)))
          CFI V6 load(1, XDATA, add(CFA_XSP16, literal(-8)))
          CFI V7 load(1, XDATA, add(CFA_XSP16, literal(-7)))
          CFI R7 load(1, XDATA, add(CFA_XSP16, literal(-6)))
          CFI ?RET_LOW load(1, XDATA, add(CFA_XSP16, literal(-5)))
          CFI ?RET_HIGH load(1, XDATA, add(CFA_XSP16, literal(-4)))
          CFI ?BRET_EXT load(1, XDATA, add(CFA_XSP16, literal(-3)))
          CFI DPL0 load(1, XDATA, add(CFA_XSP16, literal(-2)))
          CFI DPH0 load(1, XDATA, add(CFA_XSP16, literal(-1)))
          CFI CFA_SP SP+-2
          CFI CFA_XSP16 add(XSP16, 18)
          CFI Block cfiCond39 Using cfiCommon0
          CFI (cfiCond39) Function rxStartIsr
          CFI (cfiCond39) Conditional ??CrossCallReturnLabel_10
          CFI (cfiCond39) R6 load(1, XDATA, add(CFA_XSP16, literal(-16)))
          CFI (cfiCond39) VB load(1, XDATA, add(CFA_XSP16, literal(-15)))
          CFI (cfiCond39) V0 load(1, XDATA, add(CFA_XSP16, literal(-14)))
          CFI (cfiCond39) V1 load(1, XDATA, add(CFA_XSP16, literal(-13)))
          CFI (cfiCond39) V2 load(1, XDATA, add(CFA_XSP16, literal(-12)))
          CFI (cfiCond39) V3 load(1, XDATA, add(CFA_XSP16, literal(-11)))
          CFI (cfiCond39) V4 load(1, XDATA, add(CFA_XSP16, literal(-10)))
          CFI (cfiCond39) V5 load(1, XDATA, add(CFA_XSP16, literal(-9)))
          CFI (cfiCond39) V6 load(1, XDATA, add(CFA_XSP16, literal(-8)))
          CFI (cfiCond39) V7 load(1, XDATA, add(CFA_XSP16, literal(-7)))
          CFI (cfiCond39) R7 load(1, XDATA, add(CFA_XSP16, literal(-6)))
          CFI (cfiCond39) ?RET_LOW load(1, XDATA, add(CFA_XSP16, literal(-5)))
          CFI (cfiCond39) ?RET_HIGH load(1, XDATA, add(CFA_XSP16, literal(-4)))
          CFI (cfiCond39) ?BRET_EXT load(1, XDATA, add(CFA_XSP16, literal(-3)))
          CFI (cfiCond39) DPL0 load(1, XDATA, add(CFA_XSP16, literal(-2)))
          CFI (cfiCond39) DPH0 load(1, XDATA, add(CFA_XSP16, literal(-1)))
          CFI (cfiCond39) CFA_SP SP+-2
          CFI (cfiCond39) CFA_XSP16 add(XSP16, 18)
          CFI Block cfiPicker40 Using cfiCommon1
          CFI (cfiPicker40) NoFunction
          CFI (cfiPicker40) Picker
        MOVX      @DPTR,A
        MOV       DPTR,#pMacDataTx
        LCALL     ??Subroutine32_0 & 0xFFFF
??CrossCallReturnLabel_55:
        RET
          CFI EndBlock cfiCond38
          CFI EndBlock cfiCond39
          CFI EndBlock cfiPicker40

        RSEG BANKED_CODE:HUGECODE:NOROOT(0)
?Subroutine5:
          CFI Block cfiCond41 Using cfiCommon0
          CFI Function rxStartIsr
          CFI Conditional ??CrossCallReturnLabel_4
          CFI R6 load(1, XDATA, add(CFA_XSP16, literal(-16)))
          CFI VB load(1, XDATA, add(CFA_XSP16, literal(-15)))
          CFI V0 load(1, XDATA, add(CFA_XSP16, literal(-14)))
          CFI V1 load(1, XDATA, add(CFA_XSP16, literal(-13)))
          CFI V2 load(1, XDATA, add(CFA_XSP16, literal(-12)))
          CFI V3 load(1, XDATA, add(CFA_XSP16, literal(-11)))
          CFI V4 load(1, XDATA, add(CFA_XSP16, literal(-10)))
          CFI V5 load(1, XDATA, add(CFA_XSP16, literal(-9)))
          CFI V6 load(1, XDATA, add(CFA_XSP16, literal(-8)))
          CFI V7 load(1, XDATA, add(CFA_XSP16, literal(-7)))
          CFI R7 load(1, XDATA, add(CFA_XSP16, literal(-6)))
          CFI ?RET_LOW load(1, XDATA, add(CFA_XSP16, literal(-5)))
          CFI ?RET_HIGH load(1, XDATA, add(CFA_XSP16, literal(-4)))
          CFI ?BRET_EXT load(1, XDATA, add(CFA_XSP16, literal(-3)))
          CFI DPL0 load(1, XDATA, add(CFA_XSP16, literal(-2)))
          CFI DPH0 load(1, XDATA, add(CFA_XSP16, literal(-1)))
          CFI CFA_SP SP+-2
          CFI CFA_XSP16 add(XSP16, 18)
          CFI Block cfiCond42 Using cfiCommon0
          CFI (cfiCond42) Function rxStartIsr
          CFI (cfiCond42) Conditional ??CrossCallReturnLabel_5
          CFI (cfiCond42) R6 load(1, XDATA, add(CFA_XSP16, literal(-16)))
          CFI (cfiCond42) VB load(1, XDATA, add(CFA_XSP16, literal(-15)))
          CFI (cfiCond42) V0 load(1, XDATA, add(CFA_XSP16, literal(-14)))
          CFI (cfiCond42) V1 load(1, XDATA, add(CFA_XSP16, literal(-13)))
          CFI (cfiCond42) V2 load(1, XDATA, add(CFA_XSP16, literal(-12)))
          CFI (cfiCond42) V3 load(1, XDATA, add(CFA_XSP16, literal(-11)))
          CFI (cfiCond42) V4 load(1, XDATA, add(CFA_XSP16, literal(-10)))
          CFI (cfiCond42) V5 load(1, XDATA, add(CFA_XSP16, literal(-9)))
          CFI (cfiCond42) V6 load(1, XDATA, add(CFA_XSP16, literal(-8)))
          CFI (cfiCond42) V7 load(1, XDATA, add(CFA_XSP16, literal(-7)))
          CFI (cfiCond42) R7 load(1, XDATA, add(CFA_XSP16, literal(-6)))
          CFI (cfiCond42) ?RET_LOW load(1, XDATA, add(CFA_XSP16, literal(-5)))
          CFI (cfiCond42) ?RET_HIGH load(1, XDATA, add(CFA_XSP16, literal(-4)))
          CFI (cfiCond42) ?BRET_EXT load(1, XDATA, add(CFA_XSP16, literal(-3)))
          CFI (cfiCond42) DPL0 load(1, XDATA, add(CFA_XSP16, literal(-2)))
          CFI (cfiCond42) DPH0 load(1, XDATA, add(CFA_XSP16, literal(-1)))
          CFI (cfiCond42) CFA_SP SP+-2
          CFI (cfiCond42) CFA_XSP16 add(XSP16, 18)
          CFI Block cfiCond43 Using cfiCommon0
          CFI (cfiCond43) Function rxStartIsr
          CFI (cfiCond43) Conditional ??CrossCallReturnLabel_6
          CFI (cfiCond43) R6 load(1, XDATA, add(CFA_XSP16, literal(-16)))
          CFI (cfiCond43) VB load(1, XDATA, add(CFA_XSP16, literal(-15)))
          CFI (cfiCond43) V0 load(1, XDATA, add(CFA_XSP16, literal(-14)))
          CFI (cfiCond43) V1 load(1, XDATA, add(CFA_XSP16, literal(-13)))
          CFI (cfiCond43) V2 load(1, XDATA, add(CFA_XSP16, literal(-12)))
          CFI (cfiCond43) V3 load(1, XDATA, add(CFA_XSP16, literal(-11)))
          CFI (cfiCond43) V4 load(1, XDATA, add(CFA_XSP16, literal(-10)))
          CFI (cfiCond43) V5 load(1, XDATA, add(CFA_XSP16, literal(-9)))
          CFI (cfiCond43) V6 load(1, XDATA, add(CFA_XSP16, literal(-8)))
          CFI (cfiCond43) V7 load(1, XDATA, add(CFA_XSP16, literal(-7)))
          CFI (cfiCond43) R7 load(1, XDATA, add(CFA_XSP16, literal(-6)))
          CFI (cfiCond43) ?RET_LOW load(1, XDATA, add(CFA_XSP16, literal(-5)))
          CFI (cfiCond43) ?RET_HIGH load(1, XDATA, add(CFA_XSP16, literal(-4)))
          CFI (cfiCond43) ?BRET_EXT load(1, XDATA, add(CFA_XSP16, literal(-3)))
          CFI (cfiCond43) DPL0 load(1, XDATA, add(CFA_XSP16, literal(-2)))
          CFI (cfiCond43) DPH0 load(1, XDATA, add(CFA_XSP16, literal(-1)))
          CFI (cfiCond43) CFA_SP SP+-2
          CFI (cfiCond43) CFA_XSP16 add(XSP16, 18)
          CFI Block cfiPicker44 Using cfiCommon1
          CFI (cfiPicker44) NoFunction
          CFI (cfiPicker44) Picker
        MOVX      @DPTR,A
        MOV       DPTR,#rxBuf + 1
        MOVX      A,@DPTR
        MOV       C,0xE0 /* A   */.3
        RET
          CFI EndBlock cfiCond41
          CFI EndBlock cfiCond42
          CFI EndBlock cfiCond43
          CFI EndBlock cfiPicker44

        RSEG BANKED_CODE:HUGECODE:NOROOT(0)
?Subroutine2:
          CFI Block cfiCond45 Using cfiCommon0
          CFI Function rxStartIsr
          CFI Conditional ??CrossCallReturnLabel_46
          CFI R6 load(1, XDATA, add(CFA_XSP16, literal(-16)))
          CFI VB load(1, XDATA, add(CFA_XSP16, literal(-15)))
          CFI V0 load(1, XDATA, add(CFA_XSP16, literal(-14)))
          CFI V1 load(1, XDATA, add(CFA_XSP16, literal(-13)))
          CFI V2 load(1, XDATA, add(CFA_XSP16, literal(-12)))
          CFI V3 load(1, XDATA, add(CFA_XSP16, literal(-11)))
          CFI V4 load(1, XDATA, add(CFA_XSP16, literal(-10)))
          CFI V5 load(1, XDATA, add(CFA_XSP16, literal(-9)))
          CFI V6 load(1, XDATA, add(CFA_XSP16, literal(-8)))
          CFI V7 load(1, XDATA, add(CFA_XSP16, literal(-7)))
          CFI R7 load(1, XDATA, add(CFA_XSP16, literal(-6)))
          CFI ?RET_LOW load(1, XDATA, add(CFA_XSP16, literal(-5)))
          CFI ?RET_HIGH load(1, XDATA, add(CFA_XSP16, literal(-4)))
          CFI ?BRET_EXT load(1, XDATA, add(CFA_XSP16, literal(-3)))
          CFI DPL0 load(1, XDATA, add(CFA_XSP16, literal(-2)))
          CFI DPH0 load(1, XDATA, add(CFA_XSP16, literal(-1)))
          CFI CFA_SP SP+-2
          CFI CFA_XSP16 add(XSP16, 18)
          CFI Block cfiCond46 Using cfiCommon0
          CFI (cfiCond46) Function rxFcsIsr
          CFI (cfiCond46) Conditional ??CrossCallReturnLabel_47
          CFI (cfiCond46) R6 load(1, XDATA, add(CFA_XSP16, literal(-10)))
          CFI (cfiCond46) VB load(1, XDATA, add(CFA_XSP16, literal(-9)))
          CFI (cfiCond46) V0 load(1, XDATA, add(CFA_XSP16, literal(-8)))
          CFI (cfiCond46) V1 load(1, XDATA, add(CFA_XSP16, literal(-7)))
          CFI (cfiCond46) R7 load(1, XDATA, add(CFA_XSP16, literal(-6)))
          CFI (cfiCond46) ?RET_LOW load(1, XDATA, add(CFA_XSP16, literal(-5)))
          CFI (cfiCond46) ?RET_HIGH load(1, XDATA, add(CFA_XSP16, literal(-4)))
          CFI (cfiCond46) ?BRET_EXT load(1, XDATA, add(CFA_XSP16, literal(-3)))
          CFI (cfiCond46) DPL0 load(1, XDATA, add(CFA_XSP16, literal(-2)))
          CFI (cfiCond46) DPH0 load(1, XDATA, add(CFA_XSP16, literal(-1)))
          CFI (cfiCond46) CFA_SP SP+-2
          CFI (cfiCond46) CFA_XSP16 add(XSP16, 10)
          CFI Block cfiPicker47 Using cfiCommon1
          CFI (cfiPicker47) NoFunction
          CFI (cfiPicker47) Picker
        MOV       DPL,A
        CLR       A
        ADDC      A,R0
        MOV       DPH,A
        MOV       A,?V0
          CFI EndBlock cfiCond45
          CFI EndBlock cfiCond46
          CFI EndBlock cfiPicker47
        REQUIRE ??Subroutine31_0
        ; // Fall through to label ??Subroutine31_0

        RSEG BANKED_CODE:HUGECODE:NOROOT(0)
??Subroutine31_0:
          CFI Block cfiCond48 Using cfiCommon0
          CFI Function rxFcsIsr
          CFI Conditional ??CrossCallReturnLabel_48
          CFI R6 load(1, XDATA, add(CFA_XSP16, literal(-10)))
          CFI VB load(1, XDATA, add(CFA_XSP16, literal(-9)))
          CFI V0 load(1, XDATA, add(CFA_XSP16, literal(-8)))
          CFI V1 load(1, XDATA, add(CFA_XSP16, literal(-7)))
          CFI R7 load(1, XDATA, add(CFA_XSP16, literal(-6)))
          CFI ?RET_LOW load(1, XDATA, add(CFA_XSP16, literal(-5)))
          CFI ?RET_HIGH load(1, XDATA, add(CFA_XSP16, literal(-4)))
          CFI ?BRET_EXT load(1, XDATA, add(CFA_XSP16, literal(-3)))
          CFI DPL0 load(1, XDATA, add(CFA_XSP16, literal(-2)))
          CFI DPH0 load(1, XDATA, add(CFA_XSP16, literal(-1)))
          CFI CFA_SP SP+-2
          CFI CFA_XSP16 add(XSP16, 10)
          CFI Block cfiCond49 Using cfiCommon0
          CFI (cfiCond49) Function rxStartIsr
          CFI (cfiCond49) Conditional ??CrossCallReturnLabel_46
          CFI (cfiCond49) R6 load(1, XDATA, add(CFA_XSP16, literal(-16)))
          CFI (cfiCond49) VB load(1, XDATA, add(CFA_XSP16, literal(-15)))
          CFI (cfiCond49) V0 load(1, XDATA, add(CFA_XSP16, literal(-14)))
          CFI (cfiCond49) V1 load(1, XDATA, add(CFA_XSP16, literal(-13)))
          CFI (cfiCond49) V2 load(1, XDATA, add(CFA_XSP16, literal(-12)))
          CFI (cfiCond49) V3 load(1, XDATA, add(CFA_XSP16, literal(-11)))
          CFI (cfiCond49) V4 load(1, XDATA, add(CFA_XSP16, literal(-10)))
          CFI (cfiCond49) V5 load(1, XDATA, add(CFA_XSP16, literal(-9)))
          CFI (cfiCond49) V6 load(1, XDATA, add(CFA_XSP16, literal(-8)))
          CFI (cfiCond49) V7 load(1, XDATA, add(CFA_XSP16, literal(-7)))
          CFI (cfiCond49) R7 load(1, XDATA, add(CFA_XSP16, literal(-6)))
          CFI (cfiCond49) ?RET_LOW load(1, XDATA, add(CFA_XSP16, literal(-5)))
          CFI (cfiCond49) ?RET_HIGH load(1, XDATA, add(CFA_XSP16, literal(-4)))
          CFI (cfiCond49) ?BRET_EXT load(1, XDATA, add(CFA_XSP16, literal(-3)))
          CFI (cfiCond49) DPL0 load(1, XDATA, add(CFA_XSP16, literal(-2)))
          CFI (cfiCond49) DPH0 load(1, XDATA, add(CFA_XSP16, literal(-1)))
          CFI (cfiCond49) CFA_SP SP+-2
          CFI (cfiCond49) CFA_XSP16 add(XSP16, 18)
          CFI Block cfiCond50 Using cfiCommon0
          CFI (cfiCond50) Function rxFcsIsr
          CFI (cfiCond50) Conditional ??CrossCallReturnLabel_47
          CFI (cfiCond50) R6 load(1, XDATA, add(CFA_XSP16, literal(-10)))
          CFI (cfiCond50) VB load(1, XDATA, add(CFA_XSP16, literal(-9)))
          CFI (cfiCond50) V0 load(1, XDATA, add(CFA_XSP16, literal(-8)))
          CFI (cfiCond50) V1 load(1, XDATA, add(CFA_XSP16, literal(-7)))
          CFI (cfiCond50) R7 load(1, XDATA, add(CFA_XSP16, literal(-6)))
          CFI (cfiCond50) ?RET_LOW load(1, XDATA, add(CFA_XSP16, literal(-5)))
          CFI (cfiCond50) ?RET_HIGH load(1, XDATA, add(CFA_XSP16, literal(-4)))
          CFI (cfiCond50) ?BRET_EXT load(1, XDATA, add(CFA_XSP16, literal(-3)))
          CFI (cfiCond50) DPL0 load(1, XDATA, add(CFA_XSP16, literal(-2)))
          CFI (cfiCond50) DPH0 load(1, XDATA, add(CFA_XSP16, literal(-1)))
          CFI (cfiCond50) CFA_SP SP+-2
          CFI (cfiCond50) CFA_XSP16 add(XSP16, 10)
          CFI Block cfiPicker51 Using cfiCommon1
          CFI (cfiPicker51) NoFunction
          CFI (cfiPicker51) Picker
        MOVX      @DPTR,A
        LCALL     ?Subroutine26 & 0xFFFF
??CrossCallReturnLabel_58:
        RET
          CFI EndBlock cfiCond48
          CFI EndBlock cfiCond49
          CFI EndBlock cfiCond50
          CFI EndBlock cfiPicker51

        RSEG BANKED_CODE:HUGECODE:NOROOT(0)
?Subroutine26:
          CFI Block cfiCond52 Using cfiCommon0
          CFI Function rxStartIsr
          CFI Conditional ??CrossCallReturnLabel_58, ??CrossCallReturnLabel_46
          CFI R6 load(1, XDATA, add(CFA_XSP16, literal(-16)))
          CFI VB load(1, XDATA, add(CFA_XSP16, literal(-15)))
          CFI V0 load(1, XDATA, add(CFA_XSP16, literal(-14)))
          CFI V1 load(1, XDATA, add(CFA_XSP16, literal(-13)))
          CFI V2 load(1, XDATA, add(CFA_XSP16, literal(-12)))
          CFI V3 load(1, XDATA, add(CFA_XSP16, literal(-11)))
          CFI V4 load(1, XDATA, add(CFA_XSP16, literal(-10)))
          CFI V5 load(1, XDATA, add(CFA_XSP16, literal(-9)))
          CFI V6 load(1, XDATA, add(CFA_XSP16, literal(-8)))
          CFI V7 load(1, XDATA, add(CFA_XSP16, literal(-7)))
          CFI R7 load(1, XDATA, add(CFA_XSP16, literal(-6)))
          CFI ?RET_LOW load(1, XDATA, add(CFA_XSP16, literal(-5)))
          CFI ?RET_HIGH load(1, XDATA, add(CFA_XSP16, literal(-4)))
          CFI ?BRET_EXT load(1, XDATA, add(CFA_XSP16, literal(-3)))
          CFI DPL0 load(1, XDATA, add(CFA_XSP16, literal(-2)))
          CFI DPH0 load(1, XDATA, add(CFA_XSP16, literal(-1)))
          CFI CFA_SP SP+-4
          CFI CFA_XSP16 add(XSP16, 18)
          CFI Block cfiCond53 Using cfiCommon0
          CFI (cfiCond53) Function rxFcsIsr
          CFI (cfiCond53) Conditional ??CrossCallReturnLabel_58, ??CrossCallReturnLabel_47
          CFI (cfiCond53) R6 load(1, XDATA, add(CFA_XSP16, literal(-10)))
          CFI (cfiCond53) VB load(1, XDATA, add(CFA_XSP16, literal(-9)))
          CFI (cfiCond53) V0 load(1, XDATA, add(CFA_XSP16, literal(-8)))
          CFI (cfiCond53) V1 load(1, XDATA, add(CFA_XSP16, literal(-7)))
          CFI (cfiCond53) R7 load(1, XDATA, add(CFA_XSP16, literal(-6)))
          CFI (cfiCond53) ?RET_LOW load(1, XDATA, add(CFA_XSP16, literal(-5)))
          CFI (cfiCond53) ?RET_HIGH load(1, XDATA, add(CFA_XSP16, literal(-4)))
          CFI (cfiCond53) ?BRET_EXT load(1, XDATA, add(CFA_XSP16, literal(-3)))
          CFI (cfiCond53) DPL0 load(1, XDATA, add(CFA_XSP16, literal(-2)))
          CFI (cfiCond53) DPH0 load(1, XDATA, add(CFA_XSP16, literal(-1)))
          CFI (cfiCond53) CFA_SP SP+-4
          CFI (cfiCond53) CFA_XSP16 add(XSP16, 10)
          CFI Block cfiCond54 Using cfiCommon0
          CFI (cfiCond54) Function rxFcsIsr
          CFI (cfiCond54) Conditional ??CrossCallReturnLabel_58, ??CrossCallReturnLabel_48
          CFI (cfiCond54) R6 load(1, XDATA, add(CFA_XSP16, literal(-10)))
          CFI (cfiCond54) VB load(1, XDATA, add(CFA_XSP16, literal(-9)))
          CFI (cfiCond54) V0 load(1, XDATA, add(CFA_XSP16, literal(-8)))
          CFI (cfiCond54) V1 load(1, XDATA, add(CFA_XSP16, literal(-7)))
          CFI (cfiCond54) R7 load(1, XDATA, add(CFA_XSP16, literal(-6)))
          CFI (cfiCond54) ?RET_LOW load(1, XDATA, add(CFA_XSP16, literal(-5)))
          CFI (cfiCond54) ?RET_HIGH load(1, XDATA, add(CFA_XSP16, literal(-4)))
          CFI (cfiCond54) ?BRET_EXT load(1, XDATA, add(CFA_XSP16, literal(-3)))
          CFI (cfiCond54) DPL0 load(1, XDATA, add(CFA_XSP16, literal(-2)))
          CFI (cfiCond54) DPH0 load(1, XDATA, add(CFA_XSP16, literal(-1)))
          CFI (cfiCond54) CFA_SP SP+-4
          CFI (cfiCond54) CFA_XSP16 add(XSP16, 10)
          CFI Block cfiCond55 Using cfiCommon0
          CFI (cfiCond55) Function rxStartIsr
          CFI (cfiCond55) Conditional ??CrossCallReturnLabel_57, ??CrossCallReturnLabel_17
          CFI (cfiCond55) R6 load(1, XDATA, add(CFA_XSP16, literal(-16)))
          CFI (cfiCond55) VB load(1, XDATA, add(CFA_XSP16, literal(-15)))
          CFI (cfiCond55) V0 load(1, XDATA, add(CFA_XSP16, literal(-14)))
          CFI (cfiCond55) V1 load(1, XDATA, add(CFA_XSP16, literal(-13)))
          CFI (cfiCond55) V2 load(1, XDATA, add(CFA_XSP16, literal(-12)))
          CFI (cfiCond55) V3 load(1, XDATA, add(CFA_XSP16, literal(-11)))
          CFI (cfiCond55) V4 load(1, XDATA, add(CFA_XSP16, literal(-10)))
          CFI (cfiCond55) V5 load(1, XDATA, add(CFA_XSP16, literal(-9)))
          CFI (cfiCond55) V6 load(1, XDATA, add(CFA_XSP16, literal(-8)))
          CFI (cfiCond55) V7 load(1, XDATA, add(CFA_XSP16, literal(-7)))
          CFI (cfiCond55) R7 load(1, XDATA, add(CFA_XSP16, literal(-6)))
          CFI (cfiCond55) ?RET_LOW load(1, XDATA, add(CFA_XSP16, literal(-5)))
          CFI (cfiCond55) ?RET_HIGH load(1, XDATA, add(CFA_XSP16, literal(-4)))
          CFI (cfiCond55) ?BRET_EXT load(1, XDATA, add(CFA_XSP16, literal(-3)))
          CFI (cfiCond55) DPL0 load(1, XDATA, add(CFA_XSP16, literal(-2)))
          CFI (cfiCond55) DPH0 load(1, XDATA, add(CFA_XSP16, literal(-1)))
          CFI (cfiCond55) CFA_SP SP+-5
          CFI (cfiCond55) CFA_XSP16 add(XSP16, 18)
          CFI Block cfiCond56 Using cfiCommon0
          CFI (cfiCond56) Function rxAddrIsr
          CFI (cfiCond56) Conditional ??CrossCallReturnLabel_57, ??CrossCallReturnLabel_18
          CFI (cfiCond56) R6 load(1, XDATA, add(CFA_XSP16, literal(-10)))
          CFI (cfiCond56) VB load(1, XDATA, add(CFA_XSP16, literal(-9)))
          CFI (cfiCond56) V0 load(1, XDATA, add(CFA_XSP16, literal(-8)))
          CFI (cfiCond56) V1 load(1, XDATA, add(CFA_XSP16, literal(-7)))
          CFI (cfiCond56) R7 load(1, XDATA, add(CFA_XSP16, literal(-6)))
          CFI (cfiCond56) ?RET_LOW load(1, XDATA, add(CFA_XSP16, literal(-5)))
          CFI (cfiCond56) ?RET_HIGH load(1, XDATA, add(CFA_XSP16, literal(-4)))
          CFI (cfiCond56) ?BRET_EXT load(1, XDATA, add(CFA_XSP16, literal(-3)))
          CFI (cfiCond56) DPL0 load(1, XDATA, add(CFA_XSP16, literal(-2)))
          CFI (cfiCond56) DPH0 load(1, XDATA, add(CFA_XSP16, literal(-1)))
          CFI (cfiCond56) CFA_SP SP+-4
          CFI (cfiCond56) CFA_XSP16 add(XSP16, 30)
          CFI Block cfiCond57 Using cfiCommon0
          CFI (cfiCond57) Function rxStartIsr
          CFI (cfiCond57) Conditional ??CrossCallReturnLabel_56, ??CrossCallReturnLabel_15
          CFI (cfiCond57) R6 load(1, XDATA, add(CFA_XSP16, literal(-16)))
          CFI (cfiCond57) VB load(1, XDATA, add(CFA_XSP16, literal(-15)))
          CFI (cfiCond57) V0 load(1, XDATA, add(CFA_XSP16, literal(-14)))
          CFI (cfiCond57) V1 load(1, XDATA, add(CFA_XSP16, literal(-13)))
          CFI (cfiCond57) V2 load(1, XDATA, add(CFA_XSP16, literal(-12)))
          CFI (cfiCond57) V3 load(1, XDATA, add(CFA_XSP16, literal(-11)))
          CFI (cfiCond57) V4 load(1, XDATA, add(CFA_XSP16, literal(-10)))
          CFI (cfiCond57) V5 load(1, XDATA, add(CFA_XSP16, literal(-9)))
          CFI (cfiCond57) V6 load(1, XDATA, add(CFA_XSP16, literal(-8)))
          CFI (cfiCond57) V7 load(1, XDATA, add(CFA_XSP16, literal(-7)))
          CFI (cfiCond57) R7 load(1, XDATA, add(CFA_XSP16, literal(-6)))
          CFI (cfiCond57) ?RET_LOW load(1, XDATA, add(CFA_XSP16, literal(-5)))
          CFI (cfiCond57) ?RET_HIGH load(1, XDATA, add(CFA_XSP16, literal(-4)))
          CFI (cfiCond57) ?BRET_EXT load(1, XDATA, add(CFA_XSP16, literal(-3)))
          CFI (cfiCond57) DPL0 load(1, XDATA, add(CFA_XSP16, literal(-2)))
          CFI (cfiCond57) DPH0 load(1, XDATA, add(CFA_XSP16, literal(-1)))
          CFI (cfiCond57) CFA_SP SP+-4
          CFI (cfiCond57) CFA_XSP16 add(XSP16, 21)
          CFI Block cfiCond58 Using cfiCommon0
          CFI (cfiCond58) Function rxPayloadIsr
          CFI (cfiCond58) Conditional ??CrossCallReturnLabel_56, ??CrossCallReturnLabel_16
          CFI (cfiCond58) DPL0 Frame(CFA_SP, 4)
          CFI (cfiCond58) DPH0 Frame(CFA_SP, 5)
          CFI (cfiCond58) CFA_SP SP+-9
          CFI Block cfiPicker59 Using cfiCommon1
          CFI (cfiPicker59) NoFunction
          CFI (cfiPicker59) Picker
        MOV       DPTR,#pRxBuf
          CFI EndBlock cfiCond52
          CFI EndBlock cfiCond53
          CFI EndBlock cfiCond54
          CFI EndBlock cfiCond55
          CFI EndBlock cfiCond56
          CFI EndBlock cfiCond57
          CFI EndBlock cfiCond58
          CFI EndBlock cfiPicker59
        REQUIRE ??Subroutine32_0
        ; // Fall through to label ??Subroutine32_0

        RSEG BANKED_CODE:HUGECODE:NOROOT(0)
??Subroutine32_0:
          CFI Block cfiCond60 Using cfiCommon0
          CFI Function rxStartIsr
          CFI Conditional ??CrossCallReturnLabel_55, ??CrossCallReturnLabel_9
          CFI R6 load(1, XDATA, add(CFA_XSP16, literal(-16)))
          CFI VB load(1, XDATA, add(CFA_XSP16, literal(-15)))
          CFI V0 load(1, XDATA, add(CFA_XSP16, literal(-14)))
          CFI V1 load(1, XDATA, add(CFA_XSP16, literal(-13)))
          CFI V2 load(1, XDATA, add(CFA_XSP16, literal(-12)))
          CFI V3 load(1, XDATA, add(CFA_XSP16, literal(-11)))
          CFI V4 load(1, XDATA, add(CFA_XSP16, literal(-10)))
          CFI V5 load(1, XDATA, add(CFA_XSP16, literal(-9)))
          CFI V6 load(1, XDATA, add(CFA_XSP16, literal(-8)))
          CFI V7 load(1, XDATA, add(CFA_XSP16, literal(-7)))
          CFI R7 load(1, XDATA, add(CFA_XSP16, literal(-6)))
          CFI ?RET_LOW load(1, XDATA, add(CFA_XSP16, literal(-5)))
          CFI ?RET_HIGH load(1, XDATA, add(CFA_XSP16, literal(-4)))
          CFI ?BRET_EXT load(1, XDATA, add(CFA_XSP16, literal(-3)))
          CFI DPL0 load(1, XDATA, add(CFA_XSP16, literal(-2)))
          CFI DPH0 load(1, XDATA, add(CFA_XSP16, literal(-1)))
          CFI CFA_SP SP+-4
          CFI CFA_XSP16 add(XSP16, 18)
          CFI Block cfiCond61 Using cfiCommon0
          CFI (cfiCond61) Function rxStartIsr
          CFI (cfiCond61) Conditional ??CrossCallReturnLabel_55, ??CrossCallReturnLabel_10
          CFI (cfiCond61) R6 load(1, XDATA, add(CFA_XSP16, literal(-16)))
          CFI (cfiCond61) VB load(1, XDATA, add(CFA_XSP16, literal(-15)))
          CFI (cfiCond61) V0 load(1, XDATA, add(CFA_XSP16, literal(-14)))
          CFI (cfiCond61) V1 load(1, XDATA, add(CFA_XSP16, literal(-13)))
          CFI (cfiCond61) V2 load(1, XDATA, add(CFA_XSP16, literal(-12)))
          CFI (cfiCond61) V3 load(1, XDATA, add(CFA_XSP16, literal(-11)))
          CFI (cfiCond61) V4 load(1, XDATA, add(CFA_XSP16, literal(-10)))
          CFI (cfiCond61) V5 load(1, XDATA, add(CFA_XSP16, literal(-9)))
          CFI (cfiCond61) V6 load(1, XDATA, add(CFA_XSP16, literal(-8)))
          CFI (cfiCond61) V7 load(1, XDATA, add(CFA_XSP16, literal(-7)))
          CFI (cfiCond61) R7 load(1, XDATA, add(CFA_XSP16, literal(-6)))
          CFI (cfiCond61) ?RET_LOW load(1, XDATA, add(CFA_XSP16, literal(-5)))
          CFI (cfiCond61) ?RET_HIGH load(1, XDATA, add(CFA_XSP16, literal(-4)))
          CFI (cfiCond61) ?BRET_EXT load(1, XDATA, add(CFA_XSP16, literal(-3)))
          CFI (cfiCond61) DPL0 load(1, XDATA, add(CFA_XSP16, literal(-2)))
          CFI (cfiCond61) DPH0 load(1, XDATA, add(CFA_XSP16, literal(-1)))
          CFI (cfiCond61) CFA_SP SP+-4
          CFI (cfiCond61) CFA_XSP16 add(XSP16, 18)
          CFI Block cfiCond62 Using cfiCommon0
          CFI (cfiCond62) Function rxStartIsr
          CFI (cfiCond62) Conditional ??CrossCallReturnLabel_59, ??CrossCallReturnLabel_50
          CFI (cfiCond62) R6 load(1, XDATA, add(CFA_XSP16, literal(-16)))
          CFI (cfiCond62) VB load(1, XDATA, add(CFA_XSP16, literal(-15)))
          CFI (cfiCond62) V0 load(1, XDATA, add(CFA_XSP16, literal(-14)))
          CFI (cfiCond62) V1 load(1, XDATA, add(CFA_XSP16, literal(-13)))
          CFI (cfiCond62) V2 load(1, XDATA, add(CFA_XSP16, literal(-12)))
          CFI (cfiCond62) V3 load(1, XDATA, add(CFA_XSP16, literal(-11)))
          CFI (cfiCond62) V4 load(1, XDATA, add(CFA_XSP16, literal(-10)))
          CFI (cfiCond62) V5 load(1, XDATA, add(CFA_XSP16, literal(-9)))
          CFI (cfiCond62) V6 load(1, XDATA, add(CFA_XSP16, literal(-8)))
          CFI (cfiCond62) V7 load(1, XDATA, add(CFA_XSP16, literal(-7)))
          CFI (cfiCond62) R7 load(1, XDATA, add(CFA_XSP16, literal(-6)))
          CFI (cfiCond62) ?RET_LOW load(1, XDATA, add(CFA_XSP16, literal(-5)))
          CFI (cfiCond62) ?RET_HIGH load(1, XDATA, add(CFA_XSP16, literal(-4)))
          CFI (cfiCond62) ?BRET_EXT load(1, XDATA, add(CFA_XSP16, literal(-3)))
          CFI (cfiCond62) DPL0 load(1, XDATA, add(CFA_XSP16, literal(-2)))
          CFI (cfiCond62) DPH0 load(1, XDATA, add(CFA_XSP16, literal(-1)))
          CFI (cfiCond62) CFA_SP SP+-4
          CFI (cfiCond62) CFA_XSP16 add(XSP16, 18)
          CFI Block cfiCond63 Using cfiCommon0
          CFI (cfiCond63) Function rxStartIsr
          CFI (cfiCond63) Conditional ??CrossCallReturnLabel_59, ??CrossCallReturnLabel_51
          CFI (cfiCond63) R6 load(1, XDATA, add(CFA_XSP16, literal(-16)))
          CFI (cfiCond63) VB load(1, XDATA, add(CFA_XSP16, literal(-15)))
          CFI (cfiCond63) V0 load(1, XDATA, add(CFA_XSP16, literal(-14)))
          CFI (cfiCond63) V1 load(1, XDATA, add(CFA_XSP16, literal(-13)))
          CFI (cfiCond63) V2 load(1, XDATA, add(CFA_XSP16, literal(-12)))
          CFI (cfiCond63) V3 load(1, XDATA, add(CFA_XSP16, literal(-11)))
          CFI (cfiCond63) V4 load(1, XDATA, add(CFA_XSP16, literal(-10)))
          CFI (cfiCond63) V5 load(1, XDATA, add(CFA_XSP16, literal(-9)))
          CFI (cfiCond63) V6 load(1, XDATA, add(CFA_XSP16, literal(-8)))
          CFI (cfiCond63) V7 load(1, XDATA, add(CFA_XSP16, literal(-7)))
          CFI (cfiCond63) R7 load(1, XDATA, add(CFA_XSP16, literal(-6)))
          CFI (cfiCond63) ?RET_LOW load(1, XDATA, add(CFA_XSP16, literal(-5)))
          CFI (cfiCond63) ?RET_HIGH load(1, XDATA, add(CFA_XSP16, literal(-4)))
          CFI (cfiCond63) ?BRET_EXT load(1, XDATA, add(CFA_XSP16, literal(-3)))
          CFI (cfiCond63) DPL0 load(1, XDATA, add(CFA_XSP16, literal(-2)))
          CFI (cfiCond63) DPH0 load(1, XDATA, add(CFA_XSP16, literal(-1)))
          CFI (cfiCond63) CFA_SP SP+-4
          CFI (cfiCond63) CFA_XSP16 add(XSP16, 18)
          CFI Block cfiCond64 Using cfiCommon0
          CFI (cfiCond64) Function rxStartIsr
          CFI (cfiCond64) Conditional ??CrossCallReturnLabel_59, ??CrossCallReturnLabel_52
          CFI (cfiCond64) R6 load(1, XDATA, add(CFA_XSP16, literal(-16)))
          CFI (cfiCond64) VB load(1, XDATA, add(CFA_XSP16, literal(-15)))
          CFI (cfiCond64) V0 load(1, XDATA, add(CFA_XSP16, literal(-14)))
          CFI (cfiCond64) V1 load(1, XDATA, add(CFA_XSP16, literal(-13)))
          CFI (cfiCond64) V2 load(1, XDATA, add(CFA_XSP16, literal(-12)))
          CFI (cfiCond64) V3 load(1, XDATA, add(CFA_XSP16, literal(-11)))
          CFI (cfiCond64) V4 load(1, XDATA, add(CFA_XSP16, literal(-10)))
          CFI (cfiCond64) V5 load(1, XDATA, add(CFA_XSP16, literal(-9)))
          CFI (cfiCond64) V6 load(1, XDATA, add(CFA_XSP16, literal(-8)))
          CFI (cfiCond64) V7 load(1, XDATA, add(CFA_XSP16, literal(-7)))
          CFI (cfiCond64) R7 load(1, XDATA, add(CFA_XSP16, literal(-6)))
          CFI (cfiCond64) ?RET_LOW load(1, XDATA, add(CFA_XSP16, literal(-5)))
          CFI (cfiCond64) ?RET_HIGH load(1, XDATA, add(CFA_XSP16, literal(-4)))
          CFI (cfiCond64) ?BRET_EXT load(1, XDATA, add(CFA_XSP16, literal(-3)))
          CFI (cfiCond64) DPL0 load(1, XDATA, add(CFA_XSP16, literal(-2)))
          CFI (cfiCond64) DPH0 load(1, XDATA, add(CFA_XSP16, literal(-1)))
          CFI (cfiCond64) CFA_SP SP+-5
          CFI (cfiCond64) CFA_XSP16 add(XSP16, 18)
          CFI Block cfiCond65 Using cfiCommon0
          CFI (cfiCond65) Function rxAddrIsr
          CFI (cfiCond65) Conditional ??CrossCallReturnLabel_59, ??CrossCallReturnLabel_53
          CFI (cfiCond65) R6 load(1, XDATA, add(CFA_XSP16, literal(-10)))
          CFI (cfiCond65) VB load(1, XDATA, add(CFA_XSP16, literal(-9)))
          CFI (cfiCond65) V0 load(1, XDATA, add(CFA_XSP16, literal(-8)))
          CFI (cfiCond65) V1 load(1, XDATA, add(CFA_XSP16, literal(-7)))
          CFI (cfiCond65) R7 load(1, XDATA, add(CFA_XSP16, literal(-6)))
          CFI (cfiCond65) ?RET_LOW load(1, XDATA, add(CFA_XSP16, literal(-5)))
          CFI (cfiCond65) ?RET_HIGH load(1, XDATA, add(CFA_XSP16, literal(-4)))
          CFI (cfiCond65) ?BRET_EXT load(1, XDATA, add(CFA_XSP16, literal(-3)))
          CFI (cfiCond65) DPL0 load(1, XDATA, add(CFA_XSP16, literal(-2)))
          CFI (cfiCond65) DPH0 load(1, XDATA, add(CFA_XSP16, literal(-1)))
          CFI (cfiCond65) CFA_SP SP+-4
          CFI (cfiCond65) CFA_XSP16 add(XSP16, 30)
          CFI Block cfiCond66 Using cfiCommon0
          CFI (cfiCond66) Function rxFcsIsr
          CFI (cfiCond66) Conditional ??CrossCallReturnLabel_59, ??CrossCallReturnLabel_54
          CFI (cfiCond66) R6 load(1, XDATA, add(CFA_XSP16, literal(-10)))
          CFI (cfiCond66) VB load(1, XDATA, add(CFA_XSP16, literal(-9)))
          CFI (cfiCond66) V0 load(1, XDATA, add(CFA_XSP16, literal(-8)))
          CFI (cfiCond66) V1 load(1, XDATA, add(CFA_XSP16, literal(-7)))
          CFI (cfiCond66) R7 load(1, XDATA, add(CFA_XSP16, literal(-6)))
          CFI (cfiCond66) ?RET_LOW load(1, XDATA, add(CFA_XSP16, literal(-5)))
          CFI (cfiCond66) ?RET_HIGH load(1, XDATA, add(CFA_XSP16, literal(-4)))
          CFI (cfiCond66) ?BRET_EXT load(1, XDATA, add(CFA_XSP16, literal(-3)))
          CFI (cfiCond66) DPL0 load(1, XDATA, add(CFA_XSP16, literal(-2)))
          CFI (cfiCond66) DPH0 load(1, XDATA, add(CFA_XSP16, literal(-1)))
          CFI (cfiCond66) CFA_SP SP+-4
          CFI (cfiCond66) CFA_XSP16 add(XSP16, 10)
          CFI Block cfiCond67 Using cfiCommon0
          CFI (cfiCond67) Function rxStartIsr
          CFI (cfiCond67) Conditional ??CrossCallReturnLabel_59, ??CrossCallReturnLabel_49
          CFI (cfiCond67) R6 load(1, XDATA, add(CFA_XSP16, literal(-16)))
          CFI (cfiCond67) VB load(1, XDATA, add(CFA_XSP16, literal(-15)))
          CFI (cfiCond67) V0 load(1, XDATA, add(CFA_XSP16, literal(-14)))
          CFI (cfiCond67) V1 load(1, XDATA, add(CFA_XSP16, literal(-13)))
          CFI (cfiCond67) V2 load(1, XDATA, add(CFA_XSP16, literal(-12)))
          CFI (cfiCond67) V3 load(1, XDATA, add(CFA_XSP16, literal(-11)))
          CFI (cfiCond67) V4 load(1, XDATA, add(CFA_XSP16, literal(-10)))
          CFI (cfiCond67) V5 load(1, XDATA, add(CFA_XSP16, literal(-9)))
          CFI (cfiCond67) V6 load(1, XDATA, add(CFA_XSP16, literal(-8)))
          CFI (cfiCond67) V7 load(1, XDATA, add(CFA_XSP16, literal(-7)))
          CFI (cfiCond67) R7 load(1, XDATA, add(CFA_XSP16, literal(-6)))
          CFI (cfiCond67) ?RET_LOW load(1, XDATA, add(CFA_XSP16, literal(-5)))
          CFI (cfiCond67) ?RET_HIGH load(1, XDATA, add(CFA_XSP16, literal(-4)))
          CFI (cfiCond67) ?BRET_EXT load(1, XDATA, add(CFA_XSP16, literal(-3)))
          CFI (cfiCond67) DPL0 load(1, XDATA, add(CFA_XSP16, literal(-2)))
          CFI (cfiCond67) DPH0 load(1, XDATA, add(CFA_XSP16, literal(-1)))
          CFI (cfiCond67) CFA_SP SP+-4
          CFI (cfiCond67) CFA_XSP16 add(XSP16, 18)
          CFI Block cfiCond68 Using cfiCommon0
          CFI (cfiCond68) Function rxStartIsr
          CFI (cfiCond68) Conditional ??CrossCallReturnLabel_58, ??CrossCallReturnLabel_46
          CFI (cfiCond68) R6 load(1, XDATA, add(CFA_XSP16, literal(-16)))
          CFI (cfiCond68) VB load(1, XDATA, add(CFA_XSP16, literal(-15)))
          CFI (cfiCond68) V0 load(1, XDATA, add(CFA_XSP16, literal(-14)))
          CFI (cfiCond68) V1 load(1, XDATA, add(CFA_XSP16, literal(-13)))
          CFI (cfiCond68) V2 load(1, XDATA, add(CFA_XSP16, literal(-12)))
          CFI (cfiCond68) V3 load(1, XDATA, add(CFA_XSP16, literal(-11)))
          CFI (cfiCond68) V4 load(1, XDATA, add(CFA_XSP16, literal(-10)))
          CFI (cfiCond68) V5 load(1, XDATA, add(CFA_XSP16, literal(-9)))
          CFI (cfiCond68) V6 load(1, XDATA, add(CFA_XSP16, literal(-8)))
          CFI (cfiCond68) V7 load(1, XDATA, add(CFA_XSP16, literal(-7)))
          CFI (cfiCond68) R7 load(1, XDATA, add(CFA_XSP16, literal(-6)))
          CFI (cfiCond68) ?RET_LOW load(1, XDATA, add(CFA_XSP16, literal(-5)))
          CFI (cfiCond68) ?RET_HIGH load(1, XDATA, add(CFA_XSP16, literal(-4)))
          CFI (cfiCond68) ?BRET_EXT load(1, XDATA, add(CFA_XSP16, literal(-3)))
          CFI (cfiCond68) DPL0 load(1, XDATA, add(CFA_XSP16, literal(-2)))
          CFI (cfiCond68) DPH0 load(1, XDATA, add(CFA_XSP16, literal(-1)))
          CFI (cfiCond68) CFA_SP SP+-4
          CFI (cfiCond68) CFA_XSP16 add(XSP16, 18)
          CFI Block cfiCond69 Using cfiCommon0
          CFI (cfiCond69) Function rxFcsIsr
          CFI (cfiCond69) Conditional ??CrossCallReturnLabel_58, ??CrossCallReturnLabel_47
          CFI (cfiCond69) R6 load(1, XDATA, add(CFA_XSP16, literal(-10)))
          CFI (cfiCond69) VB load(1, XDATA, add(CFA_XSP16, literal(-9)))
          CFI (cfiCond69) V0 load(1, XDATA, add(CFA_XSP16, literal(-8)))
          CFI (cfiCond69) V1 load(1, XDATA, add(CFA_XSP16, literal(-7)))
          CFI (cfiCond69) R7 load(1, XDATA, add(CFA_XSP16, literal(-6)))
          CFI (cfiCond69) ?RET_LOW load(1, XDATA, add(CFA_XSP16, literal(-5)))
          CFI (cfiCond69) ?RET_HIGH load(1, XDATA, add(CFA_XSP16, literal(-4)))
          CFI (cfiCond69) ?BRET_EXT load(1, XDATA, add(CFA_XSP16, literal(-3)))
          CFI (cfiCond69) DPL0 load(1, XDATA, add(CFA_XSP16, literal(-2)))
          CFI (cfiCond69) DPH0 load(1, XDATA, add(CFA_XSP16, literal(-1)))
          CFI (cfiCond69) CFA_SP SP+-4
          CFI (cfiCond69) CFA_XSP16 add(XSP16, 10)
          CFI Block cfiCond70 Using cfiCommon0
          CFI (cfiCond70) Function rxFcsIsr
          CFI (cfiCond70) Conditional ??CrossCallReturnLabel_58, ??CrossCallReturnLabel_48
          CFI (cfiCond70) R6 load(1, XDATA, add(CFA_XSP16, literal(-10)))
          CFI (cfiCond70) VB load(1, XDATA, add(CFA_XSP16, literal(-9)))
          CFI (cfiCond70) V0 load(1, XDATA, add(CFA_XSP16, literal(-8)))
          CFI (cfiCond70) V1 load(1, XDATA, add(CFA_XSP16, literal(-7)))
          CFI (cfiCond70) R7 load(1, XDATA, add(CFA_XSP16, literal(-6)))
          CFI (cfiCond70) ?RET_LOW load(1, XDATA, add(CFA_XSP16, literal(-5)))
          CFI (cfiCond70) ?RET_HIGH load(1, XDATA, add(CFA_XSP16, literal(-4)))
          CFI (cfiCond70) ?BRET_EXT load(1, XDATA, add(CFA_XSP16, literal(-3)))
          CFI (cfiCond70) DPL0 load(1, XDATA, add(CFA_XSP16, literal(-2)))
          CFI (cfiCond70) DPH0 load(1, XDATA, add(CFA_XSP16, literal(-1)))
          CFI (cfiCond70) CFA_SP SP+-4
          CFI (cfiCond70) CFA_XSP16 add(XSP16, 10)
          CFI Block cfiCond71 Using cfiCommon0
          CFI (cfiCond71) Function rxStartIsr
          CFI (cfiCond71) Conditional ??CrossCallReturnLabel_57, ??CrossCallReturnLabel_17
          CFI (cfiCond71) R6 load(1, XDATA, add(CFA_XSP16, literal(-16)))
          CFI (cfiCond71) VB load(1, XDATA, add(CFA_XSP16, literal(-15)))
          CFI (cfiCond71) V0 load(1, XDATA, add(CFA_XSP16, literal(-14)))
          CFI (cfiCond71) V1 load(1, XDATA, add(CFA_XSP16, literal(-13)))
          CFI (cfiCond71) V2 load(1, XDATA, add(CFA_XSP16, literal(-12)))
          CFI (cfiCond71) V3 load(1, XDATA, add(CFA_XSP16, literal(-11)))
          CFI (cfiCond71) V4 load(1, XDATA, add(CFA_XSP16, literal(-10)))
          CFI (cfiCond71) V5 load(1, XDATA, add(CFA_XSP16, literal(-9)))
          CFI (cfiCond71) V6 load(1, XDATA, add(CFA_XSP16, literal(-8)))
          CFI (cfiCond71) V7 load(1, XDATA, add(CFA_XSP16, literal(-7)))
          CFI (cfiCond71) R7 load(1, XDATA, add(CFA_XSP16, literal(-6)))
          CFI (cfiCond71) ?RET_LOW load(1, XDATA, add(CFA_XSP16, literal(-5)))
          CFI (cfiCond71) ?RET_HIGH load(1, XDATA, add(CFA_XSP16, literal(-4)))
          CFI (cfiCond71) ?BRET_EXT load(1, XDATA, add(CFA_XSP16, literal(-3)))
          CFI (cfiCond71) DPL0 load(1, XDATA, add(CFA_XSP16, literal(-2)))
          CFI (cfiCond71) DPH0 load(1, XDATA, add(CFA_XSP16, literal(-1)))
          CFI (cfiCond71) CFA_SP SP+-5
          CFI (cfiCond71) CFA_XSP16 add(XSP16, 18)
          CFI Block cfiCond72 Using cfiCommon0
          CFI (cfiCond72) Function rxAddrIsr
          CFI (cfiCond72) Conditional ??CrossCallReturnLabel_57, ??CrossCallReturnLabel_18
          CFI (cfiCond72) R6 load(1, XDATA, add(CFA_XSP16, literal(-10)))
          CFI (cfiCond72) VB load(1, XDATA, add(CFA_XSP16, literal(-9)))
          CFI (cfiCond72) V0 load(1, XDATA, add(CFA_XSP16, literal(-8)))
          CFI (cfiCond72) V1 load(1, XDATA, add(CFA_XSP16, literal(-7)))
          CFI (cfiCond72) R7 load(1, XDATA, add(CFA_XSP16, literal(-6)))
          CFI (cfiCond72) ?RET_LOW load(1, XDATA, add(CFA_XSP16, literal(-5)))
          CFI (cfiCond72) ?RET_HIGH load(1, XDATA, add(CFA_XSP16, literal(-4)))
          CFI (cfiCond72) ?BRET_EXT load(1, XDATA, add(CFA_XSP16, literal(-3)))
          CFI (cfiCond72) DPL0 load(1, XDATA, add(CFA_XSP16, literal(-2)))
          CFI (cfiCond72) DPH0 load(1, XDATA, add(CFA_XSP16, literal(-1)))
          CFI (cfiCond72) CFA_SP SP+-4
          CFI (cfiCond72) CFA_XSP16 add(XSP16, 30)
          CFI Block cfiCond73 Using cfiCommon0
          CFI (cfiCond73) Function rxStartIsr
          CFI (cfiCond73) Conditional ??CrossCallReturnLabel_56, ??CrossCallReturnLabel_15
          CFI (cfiCond73) R6 load(1, XDATA, add(CFA_XSP16, literal(-16)))
          CFI (cfiCond73) VB load(1, XDATA, add(CFA_XSP16, literal(-15)))
          CFI (cfiCond73) V0 load(1, XDATA, add(CFA_XSP16, literal(-14)))
          CFI (cfiCond73) V1 load(1, XDATA, add(CFA_XSP16, literal(-13)))
          CFI (cfiCond73) V2 load(1, XDATA, add(CFA_XSP16, literal(-12)))
          CFI (cfiCond73) V3 load(1, XDATA, add(CFA_XSP16, literal(-11)))
          CFI (cfiCond73) V4 load(1, XDATA, add(CFA_XSP16, literal(-10)))
          CFI (cfiCond73) V5 load(1, XDATA, add(CFA_XSP16, literal(-9)))
          CFI (cfiCond73) V6 load(1, XDATA, add(CFA_XSP16, literal(-8)))
          CFI (cfiCond73) V7 load(1, XDATA, add(CFA_XSP16, literal(-7)))
          CFI (cfiCond73) R7 load(1, XDATA, add(CFA_XSP16, literal(-6)))
          CFI (cfiCond73) ?RET_LOW load(1, XDATA, add(CFA_XSP16, literal(-5)))
          CFI (cfiCond73) ?RET_HIGH load(1, XDATA, add(CFA_XSP16, literal(-4)))
          CFI (cfiCond73) ?BRET_EXT load(1, XDATA, add(CFA_XSP16, literal(-3)))
          CFI (cfiCond73) DPL0 load(1, XDATA, add(CFA_XSP16, literal(-2)))
          CFI (cfiCond73) DPH0 load(1, XDATA, add(CFA_XSP16, literal(-1)))
          CFI (cfiCond73) CFA_SP SP+-4
          CFI (cfiCond73) CFA_XSP16 add(XSP16, 21)
          CFI Block cfiCond74 Using cfiCommon0
          CFI (cfiCond74) Function rxPayloadIsr
          CFI (cfiCond74) Conditional ??CrossCallReturnLabel_56, ??CrossCallReturnLabel_16
          CFI (cfiCond74) DPL0 Frame(CFA_SP, 4)
          CFI (cfiCond74) DPH0 Frame(CFA_SP, 5)
          CFI (cfiCond74) CFA_SP SP+-9
          CFI Block cfiPicker75 Using cfiCommon1
          CFI (cfiPicker75) NoFunction
          CFI (cfiPicker75) Picker
        MOVX      A,@DPTR
        MOV       R0,A
        INC       DPTR
        MOVX      A,@DPTR
        XCH       A,R0
        RET
          CFI EndBlock cfiCond60
          CFI EndBlock cfiCond61
          CFI EndBlock cfiCond62
          CFI EndBlock cfiCond63
          CFI EndBlock cfiCond64
          CFI EndBlock cfiCond65
          CFI EndBlock cfiCond66
          CFI EndBlock cfiCond67
          CFI EndBlock cfiCond68
          CFI EndBlock cfiCond69
          CFI EndBlock cfiCond70
          CFI EndBlock cfiCond71
          CFI EndBlock cfiCond72
          CFI EndBlock cfiCond73
          CFI EndBlock cfiCond74
          CFI EndBlock cfiPicker75
//  821 
//  822 
//  823 /*=================================================================================================
//  824  * @fn          rxAddrIsr
//  825  *
//  826  * @brief       Receive ISR state for decoding address.  Reads and stores the address information
//  827  *              from the incoming packet.
//  828  *
//  829  * @param       none
//  830  *
//  831  * @return      none
//  832  *=================================================================================================
//  833  */

        RSEG BANKED_CODE:HUGECODE:NOROOT(0)
//  834 static void rxAddrIsr(void)
rxAddrIsr:
          CFI Block cfiBlock76 Using cfiCommon0
          CFI Function rxAddrIsr
        CODE
//  835 {
        FUNCALL rxAddrIsr, halAssertHandler
        LOCFRAME ISTACK, 0, STACK
        LOCFRAME PSTACK, 0, STACK
        LOCFRAME XSTACK, 30, STACK
        LOCFRAME IOVERLAY, 0, STATIC
        LOCFRAME DOVERLAY, 0, STATIC
        ARGFRAME ISTACK, 0, STACK
        ARGFRAME PSTACK, 0, STACK
        ARGFRAME XSTACK, 30, STACK
        ARGFRAME IOVERLAY, 0, STATIC
        ARGFRAME DOVERLAY, 0, STATIC
        FUNCALL rxAddrIsr, macMemReadRxFifo
        LOCFRAME ISTACK, 0, STACK
        LOCFRAME PSTACK, 0, STACK
        LOCFRAME XSTACK, 30, STACK
        LOCFRAME IOVERLAY, 0, STATIC
        LOCFRAME DOVERLAY, 0, STATIC
        ARGFRAME ISTACK, 0, STACK
        ARGFRAME PSTACK, 0, STACK
        ARGFRAME XSTACK, 30, STACK
        ARGFRAME IOVERLAY, 0, STATIC
        ARGFRAME DOVERLAY, 0, STATIC
        FUNCALL rxAddrIsr, sAddrExtCpy
        LOCFRAME ISTACK, 0, STACK
        LOCFRAME PSTACK, 0, STACK
        LOCFRAME XSTACK, 30, STACK
        LOCFRAME IOVERLAY, 0, STATIC
        LOCFRAME DOVERLAY, 0, STATIC
        ARGFRAME ISTACK, 0, STACK
        ARGFRAME PSTACK, 0, STACK
        ARGFRAME XSTACK, 30, STACK
        ARGFRAME IOVERLAY, 0, STATIC
        ARGFRAME DOVERLAY, 0, STATIC
        FUNCALL rxAddrIsr, sAddrExtCpy
        LOCFRAME ISTACK, 0, STACK
        LOCFRAME PSTACK, 0, STACK
        LOCFRAME XSTACK, 30, STACK
        LOCFRAME IOVERLAY, 0, STATIC
        LOCFRAME DOVERLAY, 0, STATIC
        ARGFRAME ISTACK, 0, STACK
        ARGFRAME PSTACK, 0, STACK
        ARGFRAME XSTACK, 30, STACK
        ARGFRAME IOVERLAY, 0, STATIC
        ARGFRAME DOVERLAY, 0, STATIC
        FUNCALL rxAddrIsr, rxPrepPayload
        LOCFRAME ISTACK, 0, STACK
        LOCFRAME PSTACK, 0, STACK
        LOCFRAME XSTACK, 30, STACK
        LOCFRAME IOVERLAY, 0, STATIC
        LOCFRAME DOVERLAY, 0, STATIC
        ARGFRAME ISTACK, 0, STACK
        ARGFRAME PSTACK, 0, STACK
        ARGFRAME XSTACK, 30, STACK
        ARGFRAME IOVERLAY, 0, STATIC
        ARGFRAME DOVERLAY, 0, STATIC
        REQUIRE ?V0
        REQUIRE ?V1
        MOV       A,#-0xa
        LCALL     ?BANKED_ENTER_XDATA
          CFI DPH0 load(1, XDATA, add(CFA_XSP16, literal(-1)))
          CFI DPL0 load(1, XDATA, add(CFA_XSP16, literal(-2)))
          CFI ?BRET_EXT load(1, XDATA, add(CFA_XSP16, literal(-3)))
          CFI ?RET_HIGH load(1, XDATA, add(CFA_XSP16, literal(-4)))
          CFI ?RET_LOW load(1, XDATA, add(CFA_XSP16, literal(-5)))
          CFI R7 load(1, XDATA, add(CFA_XSP16, literal(-6)))
          CFI V1 load(1, XDATA, add(CFA_XSP16, literal(-7)))
          CFI V0 load(1, XDATA, add(CFA_XSP16, literal(-8)))
          CFI VB load(1, XDATA, add(CFA_XSP16, literal(-9)))
          CFI R6 load(1, XDATA, add(CFA_XSP16, literal(-10)))
          CFI CFA_SP SP+0
          CFI CFA_XSP16 add(XSP16, 10)
        ; Saved register size: 10
        ; Auto size: 20
        MOV       A,#-0x14
        LCALL     ?ALLOC_XSTACK8
          CFI CFA_XSP16 add(XSP16, 30)
//  836   uint8 buf[MAX_ADDR_FIELDS_LEN];
//  837   uint8 dstAddrMode;
//  838   uint8 srcAddrMode;
//  839 #ifdef MAC_SECURITY  
//  840   uint8 securityControl;
//  841 #endif /* MAC_SECURITY */  
//  842   uint8  * p;
//  843 
//  844   MAC_ASSERT(rxNextLen != 0); /* logic assumes at least one address byte in buffer */
        MOV       DPTR,#rxNextLen
        MOVX      A,@DPTR
        JNZ       ??rxAddrIsr_0
        ; Setup parameters for call to function halAssertHandler
        LCALL     `??halAssertHandler::?relay`; Banked call to: halAssertHandler
//  845 
//  846   /*  read out address fields into local buffer in one shot */
//  847   MAC_RADIO_READ_RX_FIFO(buf, rxNextLen);
??rxAddrIsr_0:
        ; Setup parameters for call to function macMemReadRxFifo
        LCALL     ?Subroutine19 & 0xFFFF
//  848 
//  849   /* set pointer to buffer with addressing fields */
//  850   p = buf;
??CrossCallReturnLabel_23:
        MOV       R0,?XSP + 0
        MOV       R1,?XSP + 1
        MOV       ?V0,R0
        MOV       ?V1,R1
        MOV       R4,?V0
        MOV       R5,?V1
//  851 
//  852   /* destination address */
//  853   dstAddrMode = MAC_DEST_ADDR_MODE(&rxBuf[1]);
        MOV       DPTR,#rxBuf + 2
        MOVX      A,@DPTR
        RRC       A
        RRC       A
        ANL       A,#0x3f
        ANL       A,#0x3
        MOV       R6,A
//  854   if (dstAddrMode != SADDR_MODE_NONE)
        JZ        ??rxAddrIsr_1
//  855   {
//  856     pRxBuf->mac.srcPanId = pRxBuf->mac.dstPanId = BUILD_UINT16(p[0], p[1]);
        MOV       DPTR,#pRxBuf
        MOVX      A,@DPTR
        ADD       A,#0x2c
        MOV       R0,A
        INC       DPTR
        MOVX      A,@DPTR
        ADDC      A,#0x0
        MOV       R1,A
        MOV       DPL,?XSP + 0
        MOV       DPH,?XSP + 1
        MOVX      A,@DPTR
        MOV       R4,A
        MOV       A,#0x1
        LCALL     ?XSTACK_DISP0_8
        MOVX      A,@DPTR
        MOV       R3,A
        MOV       A,R4
        MOV       DPL,R0
        MOV       DPH,R1
        LCALL     ??Subroutine40_0 & 0xFFFF
??CrossCallReturnLabel_71:
        MOV       DPL,R0
        MOV       DPH,R1
        MOVX      A,@DPTR
        LCALL     ?Subroutine28 & 0xFFFF
??CrossCallReturnLabel_64:
        XCH       A,R2
        ADD       A,#0x2a
        MOV       DPL,A
        CLR       A
        ADDC      A,R2
        MOV       DPH,A
        MOV       A,R0
        LCALL     ??Subroutine40_0 & 0xFFFF
//  857     p += MAC_PAN_ID_FIELD_LEN;
//  858     if (dstAddrMode == SADDR_MODE_EXT)
??CrossCallReturnLabel_72:
        MOV       A,#0x3
        XRL       A,R6
        JNZ       ??rxAddrIsr_2
//  859     {
//  860       sAddrExtCpy(pRxBuf->mac.dstAddr.addr.extAddr, p);
        ; Setup parameters for call to function sAddrExtCpy
        MOV       A,#0x2
        LCALL     ?XSTACK_DISP0_8
        MOV       R4,DPL
        MOV       R5,DPH
        MOV       DPTR,#pRxBuf
        MOVX      A,@DPTR
        ADD       A,#0x1b
        LCALL     ?Subroutine21 & 0xFFFF
//  861       p += MAC_EXT_ADDR_FIELD_LEN;
??CrossCallReturnLabel_27:
        MOV       A,#0xa
        SJMP      ??rxAddrIsr_3
//  862     }
//  863     else
//  864     {
//  865       pRxBuf->mac.dstAddr.addr.shortAddr = BUILD_UINT16(p[0], p[1]);
??rxAddrIsr_2:
        MOV       A,#0x2
        LCALL     ?XSTACK_DISP0_8
        MOVX      A,@DPTR
        MOV       R2,A
        MOV       A,#0x3
        LCALL     ?XSTACK_DISP0_8
        LCALL     ?Subroutine17 & 0xFFFF
??CrossCallReturnLabel_19:
        ADD       A,#0x1b
        LCALL     ?Subroutine24 & 0xFFFF
//  866       p += MAC_SHORT_ADDR_FIELD_LEN;
??CrossCallReturnLabel_34:
        MOV       A,#0x4
??rxAddrIsr_3:
        LCALL     ?XSTACK_DISP0_8
        MOV       R4,DPL
        MOV       R5,DPH
//  867     }
//  868   }
//  869 
//  870   /* sources address */
//  871   srcAddrMode = MAC_SRC_ADDR_MODE(&rxBuf[1]);
??rxAddrIsr_1:
        MOV       DPTR,#rxBuf + 2
        MOVX      A,@DPTR
        SWAP      A
        RRC       A
        RRC       A
        ANL       A,#0x3
        MOV       R2,A
//  872   if (srcAddrMode != SADDR_MODE_NONE)
        JZ        ??CrossCallReturnLabel_35
//  873   {
//  874     if (!(pRxBuf->internal.flags & MAC_RX_FLAG_INTRA_PAN))
        LCALL     ?Subroutine15 & 0xFFFF
??CrossCallReturnLabel_18:
        MOVX      A,@DPTR
        MOV       C,0xE0 /* A   */.6
        JC        ??rxAddrIsr_4
//  875     {
//  876       pRxBuf->mac.srcPanId = BUILD_UINT16(p[0], p[1]);
        MOV       DPL,R4
        MOV       DPH,R5
        MOVX      A,@DPTR
        MOV       R6,A
        INC       DPTR
        MOVX      A,@DPTR
        MOV       R1,A
        MOV       DPTR,#pRxBuf
        MOVX      A,@DPTR
        MOV       R3,A
        INC       DPTR
        MOVX      A,@DPTR
        XCH       A,R3
        ADD       A,#0x2a
        MOV       DPL,A
        CLR       A
        ADDC      A,R3
        MOV       DPH,A
        MOV       A,R6
        MOVX      @DPTR,A
        INC       DPTR
        MOV       A,R1
        MOVX      @DPTR,A
//  877       p += MAC_PAN_ID_FIELD_LEN;
        MOV       A,R4
        ADD       A,#0x2
        MOV       R4,A
        JNC       ??rxAddrIsr_4
        INC       R5
//  878     }
//  879     if (srcAddrMode == SADDR_MODE_EXT)
??rxAddrIsr_4:
        MOV       A,#0x3
        XRL       A,R2
        JNZ       ??rxAddrIsr_5
//  880     {
//  881       sAddrExtCpy(pRxBuf->mac.srcAddr.addr.extAddr, p);
        ; Setup parameters for call to function sAddrExtCpy
        MOV       DPTR,#pRxBuf
        MOVX      A,@DPTR
        ADD       A,#0x12
        LCALL     ?Subroutine21 & 0xFFFF
//  882     }
??CrossCallReturnLabel_28:
        SJMP      ??CrossCallReturnLabel_35
//  883     else
//  884     {
//  885       pRxBuf->mac.srcAddr.addr.shortAddr = BUILD_UINT16(p[0], p[1]);
??rxAddrIsr_5:
        MOV       DPL,R4
        MOV       DPH,R5
        MOVX      A,@DPTR
        MOV       R2,A
        INC       DPTR
        LCALL     ?Subroutine17 & 0xFFFF
//  886     }
//  887   }
??CrossCallReturnLabel_20:
        ADD       A,#0x12
        LCALL     ?Subroutine24 & 0xFFFF
//  888 
//  889 #ifdef MAC_SECURITY
//  890   if (MAC_SEC_ENABLED(&rxBuf[1]))
//  891   {
//  892     uint8 keyIdMode;
//  893 
//  894     if (MAC_FRAME_VERSION(&rxBuf[1]) == 0)
//  895     {
//  896       /* MAC_UNSUPPORTED_LEGACY - Cancel the outgoing TX ACK.
//  897        * It may be too late but we have to try.
//  898        */
//  899       MAC_RADIO_CANCEL_TX_ACK();
//  900 
//  901       /* clean up after unsupported security legacy */
//  902       macRxHaltCleanup();
//  903       return;
//  904     }
//  905 
//  906     /* Copy addressing fields to RX buffer */
//  907     osal_memcpy(pRxBuf->mhr.p, buf, rxNextLen);
//  908     pRxBuf->mhr.p   += rxNextLen;
//  909     pRxBuf->mhr.len += rxNextLen;
//  910 
//  911     /*-------------------------------------------------------------------------------
//  912      *  Prepare for auxiliary security header interrupts.
//  913      */
//  914 
//  915     /* read out security control field from FIFO (threshold set so bytes are guaranteed to be there) */
//  916     MAC_RADIO_READ_RX_FIFO(&securityControl, MAC_SEC_CONTROL_FIELD_LEN);
//  917 
//  918     /* Copy security fields to MHR buffer */
//  919     *pRxBuf->mhr.p   = securityControl;
//  920     pRxBuf->mhr.p   += MAC_SEC_CONTROL_FIELD_LEN;
//  921     pRxBuf->mhr.len += MAC_SEC_CONTROL_FIELD_LEN;
//  922 
//  923     /* store security level and key ID mode */
//  924     pRxBuf->sec.securityLevel = SECURITY_LEVEL(securityControl);
//  925     pRxBuf->sec.keyIdMode = keyIdMode = KEY_IDENTIFIER_MODE(securityControl);
//  926 
//  927     /* corrupted RX frame, should never occur */
//  928     MAC_ASSERT(keyIdMode <= MAC_KEY_ID_MODE_8);
//  929 
//  930     if (pRxBuf->sec.securityLevel == MAC_SEC_LEVEL_NONE)
//  931     {
//  932       /* Security Enabled subfield is one but the Security Level in the header in zero
//  933        * MAC_UNSUPPORTED_SECURITY - Cancel the outgoing TX ACK.
//  934        * It may be too late but we have to try.
//  935        */
//  936       MAC_RADIO_CANCEL_TX_ACK();
//  937 
//  938       /* clean up after unsupported security */
//  939       macRxHaltCleanup();
//  940       return;
//  941     }
//  942 
//  943     /* get the next RX length according to AuxLen table minus security control field.
//  944      * The sceurity control length is counted already.
//  945      */
//  946     rxNextLen = macKeySourceLen[keyIdMode] + MAC_FRAME_COUNTER_LEN;
//  947     MAC_RADIO_SET_RX_THRESHOLD(rxNextLen);
//  948     pFuncRxState = &rxSecurityHdrIsr;
//  949   }
//  950   else
//  951 #endif /* MAC_SECURITY */
//  952   {
//  953     /* clear security level */
//  954     pRxBuf->sec.securityLevel = MAC_SEC_LEVEL_NONE;
??CrossCallReturnLabel_35:
        LCALL     ?Subroutine16 & 0xFFFF
??CrossCallReturnLabel_53:
        ADD       A,#0xf
        MOV       DPL,A
        CLR       A
        ADDC      A,R0
        MOV       DPH,A
        CLR       A
        MOVX      @DPTR,A
//  955 
//  956     /*-------------------------------------------------------------------------------
//  957      *  Prepare for payload interrupts.
//  958      */
//  959     pFuncRxState = &rxPayloadIsr;
        LCALL     ?Subroutine8 & 0xFFFF
//  960     rxPrepPayload();
//  961   }
//  962 }
??CrossCallReturnLabel_8:
        MOV       A,#0x14
        LCALL     ?DEALLOC_XSTACK8
          CFI EndBlock cfiBlock76
        REQUIRE ?Subroutine1
        ; // Fall through to label ?Subroutine1

        RSEG BANKED_CODE:HUGECODE:NOROOT(0)
?Subroutine1:
          CFI Block cfiBlock77 Using cfiCommon0
          CFI NoFunction
          CFI CFA_SP SP+0
          CFI CFA_XSP16 add(XSP16, 10)
          CFI VB load(1, XDATA, add(CFA_XSP16, literal(-9)))
          CFI DPL0 load(1, XDATA, add(CFA_XSP16, literal(-2)))
          CFI DPH0 load(1, XDATA, add(CFA_XSP16, literal(-1)))
          CFI R6 load(1, XDATA, add(CFA_XSP16, literal(-10)))
          CFI R7 load(1, XDATA, add(CFA_XSP16, literal(-6)))
          CFI V0 load(1, XDATA, add(CFA_XSP16, literal(-8)))
          CFI V1 load(1, XDATA, add(CFA_XSP16, literal(-7)))
          CFI ?BRET_EXT load(1, XDATA, add(CFA_XSP16, literal(-3)))
          CFI ?RET_HIGH load(1, XDATA, add(CFA_XSP16, literal(-4)))
          CFI ?RET_LOW load(1, XDATA, add(CFA_XSP16, literal(-5)))
        MOV       R7,#0x2
        LJMP      ?BANKED_LEAVE_XDATA
          CFI EndBlock cfiBlock77

        RSEG BANKED_CODE:HUGECODE:NOROOT(0)
?Subroutine24:
          CFI Block cfiCond78 Using cfiCommon0
          CFI Function rxStartIsr
          CFI Conditional ??CrossCallReturnLabel_33
          CFI R6 load(1, XDATA, add(CFA_XSP16, literal(-16)))
          CFI VB load(1, XDATA, add(CFA_XSP16, literal(-15)))
          CFI V0 load(1, XDATA, add(CFA_XSP16, literal(-14)))
          CFI V1 load(1, XDATA, add(CFA_XSP16, literal(-13)))
          CFI V2 load(1, XDATA, add(CFA_XSP16, literal(-12)))
          CFI V3 load(1, XDATA, add(CFA_XSP16, literal(-11)))
          CFI V4 load(1, XDATA, add(CFA_XSP16, literal(-10)))
          CFI V5 load(1, XDATA, add(CFA_XSP16, literal(-9)))
          CFI V6 load(1, XDATA, add(CFA_XSP16, literal(-8)))
          CFI V7 load(1, XDATA, add(CFA_XSP16, literal(-7)))
          CFI R7 load(1, XDATA, add(CFA_XSP16, literal(-6)))
          CFI ?RET_LOW load(1, XDATA, add(CFA_XSP16, literal(-5)))
          CFI ?RET_HIGH load(1, XDATA, add(CFA_XSP16, literal(-4)))
          CFI ?BRET_EXT load(1, XDATA, add(CFA_XSP16, literal(-3)))
          CFI DPL0 load(1, XDATA, add(CFA_XSP16, literal(-2)))
          CFI DPH0 load(1, XDATA, add(CFA_XSP16, literal(-1)))
          CFI CFA_SP SP+-2
          CFI CFA_XSP16 add(XSP16, 18)
          CFI Block cfiCond79 Using cfiCommon0
          CFI (cfiCond79) Function rxAddrIsr
          CFI (cfiCond79) Conditional ??CrossCallReturnLabel_34
          CFI (cfiCond79) R6 load(1, XDATA, add(CFA_XSP16, literal(-10)))
          CFI (cfiCond79) VB load(1, XDATA, add(CFA_XSP16, literal(-9)))
          CFI (cfiCond79) V0 load(1, XDATA, add(CFA_XSP16, literal(-8)))
          CFI (cfiCond79) V1 load(1, XDATA, add(CFA_XSP16, literal(-7)))
          CFI (cfiCond79) R7 load(1, XDATA, add(CFA_XSP16, literal(-6)))
          CFI (cfiCond79) ?RET_LOW load(1, XDATA, add(CFA_XSP16, literal(-5)))
          CFI (cfiCond79) ?RET_HIGH load(1, XDATA, add(CFA_XSP16, literal(-4)))
          CFI (cfiCond79) ?BRET_EXT load(1, XDATA, add(CFA_XSP16, literal(-3)))
          CFI (cfiCond79) DPL0 load(1, XDATA, add(CFA_XSP16, literal(-2)))
          CFI (cfiCond79) DPH0 load(1, XDATA, add(CFA_XSP16, literal(-1)))
          CFI (cfiCond79) CFA_SP SP+-2
          CFI (cfiCond79) CFA_XSP16 add(XSP16, 30)
          CFI Block cfiCond80 Using cfiCommon0
          CFI (cfiCond80) Function rxAddrIsr
          CFI (cfiCond80) Conditional ??CrossCallReturnLabel_35
          CFI (cfiCond80) R6 load(1, XDATA, add(CFA_XSP16, literal(-10)))
          CFI (cfiCond80) VB load(1, XDATA, add(CFA_XSP16, literal(-9)))
          CFI (cfiCond80) V0 load(1, XDATA, add(CFA_XSP16, literal(-8)))
          CFI (cfiCond80) V1 load(1, XDATA, add(CFA_XSP16, literal(-7)))
          CFI (cfiCond80) R7 load(1, XDATA, add(CFA_XSP16, literal(-6)))
          CFI (cfiCond80) ?RET_LOW load(1, XDATA, add(CFA_XSP16, literal(-5)))
          CFI (cfiCond80) ?RET_HIGH load(1, XDATA, add(CFA_XSP16, literal(-4)))
          CFI (cfiCond80) ?BRET_EXT load(1, XDATA, add(CFA_XSP16, literal(-3)))
          CFI (cfiCond80) DPL0 load(1, XDATA, add(CFA_XSP16, literal(-2)))
          CFI (cfiCond80) DPH0 load(1, XDATA, add(CFA_XSP16, literal(-1)))
          CFI (cfiCond80) CFA_SP SP+-2
          CFI (cfiCond80) CFA_XSP16 add(XSP16, 30)
          CFI Block cfiPicker81 Using cfiCommon1
          CFI (cfiPicker81) NoFunction
          CFI (cfiPicker81) Picker
        MOV       DPL,A
        CLR       A
        ADDC      A,R2
        MOV       DPH,A
        MOV       A,R0
        MOVX      @DPTR,A
        INC       DPTR
        MOV       A,R1
        MOVX      @DPTR,A
        RET
          CFI EndBlock cfiCond78
          CFI EndBlock cfiCond79
          CFI EndBlock cfiCond80
          CFI EndBlock cfiPicker81

        RSEG BANKED_CODE:HUGECODE:NOROOT(0)
?Subroutine21:
          CFI Block cfiCond82 Using cfiCommon0
          CFI Function rxAddrIsr
          CFI Conditional ??CrossCallReturnLabel_27
          CFI R6 load(1, XDATA, add(CFA_XSP16, literal(-10)))
          CFI VB load(1, XDATA, add(CFA_XSP16, literal(-9)))
          CFI V0 load(1, XDATA, add(CFA_XSP16, literal(-8)))
          CFI V1 load(1, XDATA, add(CFA_XSP16, literal(-7)))
          CFI R7 load(1, XDATA, add(CFA_XSP16, literal(-6)))
          CFI ?RET_LOW load(1, XDATA, add(CFA_XSP16, literal(-5)))
          CFI ?RET_HIGH load(1, XDATA, add(CFA_XSP16, literal(-4)))
          CFI ?BRET_EXT load(1, XDATA, add(CFA_XSP16, literal(-3)))
          CFI DPL0 load(1, XDATA, add(CFA_XSP16, literal(-2)))
          CFI DPH0 load(1, XDATA, add(CFA_XSP16, literal(-1)))
          CFI CFA_SP SP+-2
          CFI CFA_XSP16 add(XSP16, 30)
          CFI Block cfiCond83 Using cfiCommon0
          CFI (cfiCond83) Function rxAddrIsr
          CFI (cfiCond83) Conditional ??CrossCallReturnLabel_28
          CFI (cfiCond83) R6 load(1, XDATA, add(CFA_XSP16, literal(-10)))
          CFI (cfiCond83) VB load(1, XDATA, add(CFA_XSP16, literal(-9)))
          CFI (cfiCond83) V0 load(1, XDATA, add(CFA_XSP16, literal(-8)))
          CFI (cfiCond83) V1 load(1, XDATA, add(CFA_XSP16, literal(-7)))
          CFI (cfiCond83) R7 load(1, XDATA, add(CFA_XSP16, literal(-6)))
          CFI (cfiCond83) ?RET_LOW load(1, XDATA, add(CFA_XSP16, literal(-5)))
          CFI (cfiCond83) ?RET_HIGH load(1, XDATA, add(CFA_XSP16, literal(-4)))
          CFI (cfiCond83) ?BRET_EXT load(1, XDATA, add(CFA_XSP16, literal(-3)))
          CFI (cfiCond83) DPL0 load(1, XDATA, add(CFA_XSP16, literal(-2)))
          CFI (cfiCond83) DPH0 load(1, XDATA, add(CFA_XSP16, literal(-1)))
          CFI (cfiCond83) CFA_SP SP+-2
          CFI (cfiCond83) CFA_XSP16 add(XSP16, 30)
          CFI Block cfiPicker84 Using cfiCommon1
          CFI (cfiPicker84) NoFunction
          CFI (cfiPicker84) Picker
        MOV       R2,A
        INC       DPTR
        MOVX      A,@DPTR
        ADDC      A,#0x0
        MOV       R3,A
        LCALL     `??sAddrExtCpy::?relay`; Banked call to: sAddrExtCpy
        RET
          CFI EndBlock cfiCond82
          CFI EndBlock cfiCond83
          CFI EndBlock cfiPicker84

        RSEG BANKED_CODE:HUGECODE:NOROOT(0)
?Subroutine17:
          CFI Block cfiCond85 Using cfiCommon0
          CFI Function rxAddrIsr
          CFI Conditional ??CrossCallReturnLabel_19
          CFI R6 load(1, XDATA, add(CFA_XSP16, literal(-10)))
          CFI VB load(1, XDATA, add(CFA_XSP16, literal(-9)))
          CFI V0 load(1, XDATA, add(CFA_XSP16, literal(-8)))
          CFI V1 load(1, XDATA, add(CFA_XSP16, literal(-7)))
          CFI R7 load(1, XDATA, add(CFA_XSP16, literal(-6)))
          CFI ?RET_LOW load(1, XDATA, add(CFA_XSP16, literal(-5)))
          CFI ?RET_HIGH load(1, XDATA, add(CFA_XSP16, literal(-4)))
          CFI ?BRET_EXT load(1, XDATA, add(CFA_XSP16, literal(-3)))
          CFI DPL0 load(1, XDATA, add(CFA_XSP16, literal(-2)))
          CFI DPH0 load(1, XDATA, add(CFA_XSP16, literal(-1)))
          CFI CFA_SP SP+-2
          CFI CFA_XSP16 add(XSP16, 30)
          CFI Block cfiCond86 Using cfiCommon0
          CFI (cfiCond86) Function rxAddrIsr
          CFI (cfiCond86) Conditional ??CrossCallReturnLabel_20
          CFI (cfiCond86) R6 load(1, XDATA, add(CFA_XSP16, literal(-10)))
          CFI (cfiCond86) VB load(1, XDATA, add(CFA_XSP16, literal(-9)))
          CFI (cfiCond86) V0 load(1, XDATA, add(CFA_XSP16, literal(-8)))
          CFI (cfiCond86) V1 load(1, XDATA, add(CFA_XSP16, literal(-7)))
          CFI (cfiCond86) R7 load(1, XDATA, add(CFA_XSP16, literal(-6)))
          CFI (cfiCond86) ?RET_LOW load(1, XDATA, add(CFA_XSP16, literal(-5)))
          CFI (cfiCond86) ?RET_HIGH load(1, XDATA, add(CFA_XSP16, literal(-4)))
          CFI (cfiCond86) ?BRET_EXT load(1, XDATA, add(CFA_XSP16, literal(-3)))
          CFI (cfiCond86) DPL0 load(1, XDATA, add(CFA_XSP16, literal(-2)))
          CFI (cfiCond86) DPH0 load(1, XDATA, add(CFA_XSP16, literal(-1)))
          CFI (cfiCond86) CFA_SP SP+-2
          CFI (cfiCond86) CFA_XSP16 add(XSP16, 30)
          CFI Block cfiPicker87 Using cfiCommon1
          CFI (cfiPicker87) NoFunction
          CFI (cfiPicker87) Picker
        MOVX      A,@DPTR
        MOV       R1,A
        MOV       A,R2
        LCALL     ?Subroutine28 & 0xFFFF
??CrossCallReturnLabel_65:
        XCH       A,R2
        RET
          CFI EndBlock cfiCond85
          CFI EndBlock cfiCond86
          CFI EndBlock cfiPicker87

        RSEG BANKED_CODE:HUGECODE:NOROOT(0)
?Subroutine16:
          CFI Block cfiCond88 Using cfiCommon0
          CFI Function rxStartIsr
          CFI Conditional ??CrossCallReturnLabel_50
          CFI R6 load(1, XDATA, add(CFA_XSP16, literal(-16)))
          CFI VB load(1, XDATA, add(CFA_XSP16, literal(-15)))
          CFI V0 load(1, XDATA, add(CFA_XSP16, literal(-14)))
          CFI V1 load(1, XDATA, add(CFA_XSP16, literal(-13)))
          CFI V2 load(1, XDATA, add(CFA_XSP16, literal(-12)))
          CFI V3 load(1, XDATA, add(CFA_XSP16, literal(-11)))
          CFI V4 load(1, XDATA, add(CFA_XSP16, literal(-10)))
          CFI V5 load(1, XDATA, add(CFA_XSP16, literal(-9)))
          CFI V6 load(1, XDATA, add(CFA_XSP16, literal(-8)))
          CFI V7 load(1, XDATA, add(CFA_XSP16, literal(-7)))
          CFI R7 load(1, XDATA, add(CFA_XSP16, literal(-6)))
          CFI ?RET_LOW load(1, XDATA, add(CFA_XSP16, literal(-5)))
          CFI ?RET_HIGH load(1, XDATA, add(CFA_XSP16, literal(-4)))
          CFI ?BRET_EXT load(1, XDATA, add(CFA_XSP16, literal(-3)))
          CFI DPL0 load(1, XDATA, add(CFA_XSP16, literal(-2)))
          CFI DPH0 load(1, XDATA, add(CFA_XSP16, literal(-1)))
          CFI CFA_SP SP+-2
          CFI CFA_XSP16 add(XSP16, 18)
          CFI Block cfiCond89 Using cfiCommon0
          CFI (cfiCond89) Function rxStartIsr
          CFI (cfiCond89) Conditional ??CrossCallReturnLabel_51
          CFI (cfiCond89) R6 load(1, XDATA, add(CFA_XSP16, literal(-16)))
          CFI (cfiCond89) VB load(1, XDATA, add(CFA_XSP16, literal(-15)))
          CFI (cfiCond89) V0 load(1, XDATA, add(CFA_XSP16, literal(-14)))
          CFI (cfiCond89) V1 load(1, XDATA, add(CFA_XSP16, literal(-13)))
          CFI (cfiCond89) V2 load(1, XDATA, add(CFA_XSP16, literal(-12)))
          CFI (cfiCond89) V3 load(1, XDATA, add(CFA_XSP16, literal(-11)))
          CFI (cfiCond89) V4 load(1, XDATA, add(CFA_XSP16, literal(-10)))
          CFI (cfiCond89) V5 load(1, XDATA, add(CFA_XSP16, literal(-9)))
          CFI (cfiCond89) V6 load(1, XDATA, add(CFA_XSP16, literal(-8)))
          CFI (cfiCond89) V7 load(1, XDATA, add(CFA_XSP16, literal(-7)))
          CFI (cfiCond89) R7 load(1, XDATA, add(CFA_XSP16, literal(-6)))
          CFI (cfiCond89) ?RET_LOW load(1, XDATA, add(CFA_XSP16, literal(-5)))
          CFI (cfiCond89) ?RET_HIGH load(1, XDATA, add(CFA_XSP16, literal(-4)))
          CFI (cfiCond89) ?BRET_EXT load(1, XDATA, add(CFA_XSP16, literal(-3)))
          CFI (cfiCond89) DPL0 load(1, XDATA, add(CFA_XSP16, literal(-2)))
          CFI (cfiCond89) DPH0 load(1, XDATA, add(CFA_XSP16, literal(-1)))
          CFI (cfiCond89) CFA_SP SP+-2
          CFI (cfiCond89) CFA_XSP16 add(XSP16, 18)
          CFI Block cfiCond90 Using cfiCommon0
          CFI (cfiCond90) Function rxStartIsr
          CFI (cfiCond90) Conditional ??CrossCallReturnLabel_52
          CFI (cfiCond90) R6 load(1, XDATA, add(CFA_XSP16, literal(-16)))
          CFI (cfiCond90) VB load(1, XDATA, add(CFA_XSP16, literal(-15)))
          CFI (cfiCond90) V0 load(1, XDATA, add(CFA_XSP16, literal(-14)))
          CFI (cfiCond90) V1 load(1, XDATA, add(CFA_XSP16, literal(-13)))
          CFI (cfiCond90) V2 load(1, XDATA, add(CFA_XSP16, literal(-12)))
          CFI (cfiCond90) V3 load(1, XDATA, add(CFA_XSP16, literal(-11)))
          CFI (cfiCond90) V4 load(1, XDATA, add(CFA_XSP16, literal(-10)))
          CFI (cfiCond90) V5 load(1, XDATA, add(CFA_XSP16, literal(-9)))
          CFI (cfiCond90) V6 load(1, XDATA, add(CFA_XSP16, literal(-8)))
          CFI (cfiCond90) V7 load(1, XDATA, add(CFA_XSP16, literal(-7)))
          CFI (cfiCond90) R7 load(1, XDATA, add(CFA_XSP16, literal(-6)))
          CFI (cfiCond90) ?RET_LOW load(1, XDATA, add(CFA_XSP16, literal(-5)))
          CFI (cfiCond90) ?RET_HIGH load(1, XDATA, add(CFA_XSP16, literal(-4)))
          CFI (cfiCond90) ?BRET_EXT load(1, XDATA, add(CFA_XSP16, literal(-3)))
          CFI (cfiCond90) DPL0 load(1, XDATA, add(CFA_XSP16, literal(-2)))
          CFI (cfiCond90) DPH0 load(1, XDATA, add(CFA_XSP16, literal(-1)))
          CFI (cfiCond90) CFA_XSP16 add(XSP16, 18)
          CFI Block cfiCond91 Using cfiCommon0
          CFI (cfiCond91) Function rxAddrIsr
          CFI (cfiCond91) Conditional ??CrossCallReturnLabel_53
          CFI (cfiCond91) R6 load(1, XDATA, add(CFA_XSP16, literal(-10)))
          CFI (cfiCond91) VB load(1, XDATA, add(CFA_XSP16, literal(-9)))
          CFI (cfiCond91) V0 load(1, XDATA, add(CFA_XSP16, literal(-8)))
          CFI (cfiCond91) V1 load(1, XDATA, add(CFA_XSP16, literal(-7)))
          CFI (cfiCond91) R7 load(1, XDATA, add(CFA_XSP16, literal(-6)))
          CFI (cfiCond91) ?RET_LOW load(1, XDATA, add(CFA_XSP16, literal(-5)))
          CFI (cfiCond91) ?RET_HIGH load(1, XDATA, add(CFA_XSP16, literal(-4)))
          CFI (cfiCond91) ?BRET_EXT load(1, XDATA, add(CFA_XSP16, literal(-3)))
          CFI (cfiCond91) DPL0 load(1, XDATA, add(CFA_XSP16, literal(-2)))
          CFI (cfiCond91) DPH0 load(1, XDATA, add(CFA_XSP16, literal(-1)))
          CFI (cfiCond91) CFA_SP SP+-2
          CFI (cfiCond91) CFA_XSP16 add(XSP16, 30)
          CFI Block cfiCond92 Using cfiCommon0
          CFI (cfiCond92) Function rxFcsIsr
          CFI (cfiCond92) Conditional ??CrossCallReturnLabel_54
          CFI (cfiCond92) R6 load(1, XDATA, add(CFA_XSP16, literal(-10)))
          CFI (cfiCond92) VB load(1, XDATA, add(CFA_XSP16, literal(-9)))
          CFI (cfiCond92) V0 load(1, XDATA, add(CFA_XSP16, literal(-8)))
          CFI (cfiCond92) V1 load(1, XDATA, add(CFA_XSP16, literal(-7)))
          CFI (cfiCond92) R7 load(1, XDATA, add(CFA_XSP16, literal(-6)))
          CFI (cfiCond92) ?RET_LOW load(1, XDATA, add(CFA_XSP16, literal(-5)))
          CFI (cfiCond92) ?RET_HIGH load(1, XDATA, add(CFA_XSP16, literal(-4)))
          CFI (cfiCond92) ?BRET_EXT load(1, XDATA, add(CFA_XSP16, literal(-3)))
          CFI (cfiCond92) DPL0 load(1, XDATA, add(CFA_XSP16, literal(-2)))
          CFI (cfiCond92) DPH0 load(1, XDATA, add(CFA_XSP16, literal(-1)))
          CFI (cfiCond92) CFA_SP SP+-2
          CFI (cfiCond92) CFA_XSP16 add(XSP16, 10)
          CFI Block cfiPicker93 Using cfiCommon1
          CFI (cfiPicker93) NoFunction
          CFI (cfiPicker93) Picker
        MOV       DPTR,#pRxBuf
          CFI EndBlock cfiCond88
          CFI EndBlock cfiCond89
          CFI EndBlock cfiCond90
          CFI EndBlock cfiCond91
          CFI EndBlock cfiCond92
          CFI EndBlock cfiPicker93
        REQUIRE ??Subroutine33_0
        ; // Fall through to label ??Subroutine33_0

        RSEG BANKED_CODE:HUGECODE:NOROOT(0)
??Subroutine33_0:
          CFI Block cfiCond94 Using cfiCommon0
          CFI Function rxStartIsr
          CFI Conditional ??CrossCallReturnLabel_49
          CFI R6 load(1, XDATA, add(CFA_XSP16, literal(-16)))
          CFI VB load(1, XDATA, add(CFA_XSP16, literal(-15)))
          CFI V0 load(1, XDATA, add(CFA_XSP16, literal(-14)))
          CFI V1 load(1, XDATA, add(CFA_XSP16, literal(-13)))
          CFI V2 load(1, XDATA, add(CFA_XSP16, literal(-12)))
          CFI V3 load(1, XDATA, add(CFA_XSP16, literal(-11)))
          CFI V4 load(1, XDATA, add(CFA_XSP16, literal(-10)))
          CFI V5 load(1, XDATA, add(CFA_XSP16, literal(-9)))
          CFI V6 load(1, XDATA, add(CFA_XSP16, literal(-8)))
          CFI V7 load(1, XDATA, add(CFA_XSP16, literal(-7)))
          CFI R7 load(1, XDATA, add(CFA_XSP16, literal(-6)))
          CFI ?RET_LOW load(1, XDATA, add(CFA_XSP16, literal(-5)))
          CFI ?RET_HIGH load(1, XDATA, add(CFA_XSP16, literal(-4)))
          CFI ?BRET_EXT load(1, XDATA, add(CFA_XSP16, literal(-3)))
          CFI DPL0 load(1, XDATA, add(CFA_XSP16, literal(-2)))
          CFI DPH0 load(1, XDATA, add(CFA_XSP16, literal(-1)))
          CFI CFA_SP SP+-2
          CFI CFA_XSP16 add(XSP16, 18)
          CFI Block cfiCond95 Using cfiCommon0
          CFI (cfiCond95) Function rxStartIsr
          CFI (cfiCond95) Conditional ??CrossCallReturnLabel_50
          CFI (cfiCond95) R6 load(1, XDATA, add(CFA_XSP16, literal(-16)))
          CFI (cfiCond95) VB load(1, XDATA, add(CFA_XSP16, literal(-15)))
          CFI (cfiCond95) V0 load(1, XDATA, add(CFA_XSP16, literal(-14)))
          CFI (cfiCond95) V1 load(1, XDATA, add(CFA_XSP16, literal(-13)))
          CFI (cfiCond95) V2 load(1, XDATA, add(CFA_XSP16, literal(-12)))
          CFI (cfiCond95) V3 load(1, XDATA, add(CFA_XSP16, literal(-11)))
          CFI (cfiCond95) V4 load(1, XDATA, add(CFA_XSP16, literal(-10)))
          CFI (cfiCond95) V5 load(1, XDATA, add(CFA_XSP16, literal(-9)))
          CFI (cfiCond95) V6 load(1, XDATA, add(CFA_XSP16, literal(-8)))
          CFI (cfiCond95) V7 load(1, XDATA, add(CFA_XSP16, literal(-7)))
          CFI (cfiCond95) R7 load(1, XDATA, add(CFA_XSP16, literal(-6)))
          CFI (cfiCond95) ?RET_LOW load(1, XDATA, add(CFA_XSP16, literal(-5)))
          CFI (cfiCond95) ?RET_HIGH load(1, XDATA, add(CFA_XSP16, literal(-4)))
          CFI (cfiCond95) ?BRET_EXT load(1, XDATA, add(CFA_XSP16, literal(-3)))
          CFI (cfiCond95) DPL0 load(1, XDATA, add(CFA_XSP16, literal(-2)))
          CFI (cfiCond95) DPH0 load(1, XDATA, add(CFA_XSP16, literal(-1)))
          CFI (cfiCond95) CFA_SP SP+-2
          CFI (cfiCond95) CFA_XSP16 add(XSP16, 18)
          CFI Block cfiCond96 Using cfiCommon0
          CFI (cfiCond96) Function rxStartIsr
          CFI (cfiCond96) Conditional ??CrossCallReturnLabel_51
          CFI (cfiCond96) R6 load(1, XDATA, add(CFA_XSP16, literal(-16)))
          CFI (cfiCond96) VB load(1, XDATA, add(CFA_XSP16, literal(-15)))
          CFI (cfiCond96) V0 load(1, XDATA, add(CFA_XSP16, literal(-14)))
          CFI (cfiCond96) V1 load(1, XDATA, add(CFA_XSP16, literal(-13)))
          CFI (cfiCond96) V2 load(1, XDATA, add(CFA_XSP16, literal(-12)))
          CFI (cfiCond96) V3 load(1, XDATA, add(CFA_XSP16, literal(-11)))
          CFI (cfiCond96) V4 load(1, XDATA, add(CFA_XSP16, literal(-10)))
          CFI (cfiCond96) V5 load(1, XDATA, add(CFA_XSP16, literal(-9)))
          CFI (cfiCond96) V6 load(1, XDATA, add(CFA_XSP16, literal(-8)))
          CFI (cfiCond96) V7 load(1, XDATA, add(CFA_XSP16, literal(-7)))
          CFI (cfiCond96) R7 load(1, XDATA, add(CFA_XSP16, literal(-6)))
          CFI (cfiCond96) ?RET_LOW load(1, XDATA, add(CFA_XSP16, literal(-5)))
          CFI (cfiCond96) ?RET_HIGH load(1, XDATA, add(CFA_XSP16, literal(-4)))
          CFI (cfiCond96) ?BRET_EXT load(1, XDATA, add(CFA_XSP16, literal(-3)))
          CFI (cfiCond96) DPL0 load(1, XDATA, add(CFA_XSP16, literal(-2)))
          CFI (cfiCond96) DPH0 load(1, XDATA, add(CFA_XSP16, literal(-1)))
          CFI (cfiCond96) CFA_SP SP+-2
          CFI (cfiCond96) CFA_XSP16 add(XSP16, 18)
          CFI Block cfiCond97 Using cfiCommon0
          CFI (cfiCond97) Function rxStartIsr
          CFI (cfiCond97) Conditional ??CrossCallReturnLabel_52
          CFI (cfiCond97) R6 load(1, XDATA, add(CFA_XSP16, literal(-16)))
          CFI (cfiCond97) VB load(1, XDATA, add(CFA_XSP16, literal(-15)))
          CFI (cfiCond97) V0 load(1, XDATA, add(CFA_XSP16, literal(-14)))
          CFI (cfiCond97) V1 load(1, XDATA, add(CFA_XSP16, literal(-13)))
          CFI (cfiCond97) V2 load(1, XDATA, add(CFA_XSP16, literal(-12)))
          CFI (cfiCond97) V3 load(1, XDATA, add(CFA_XSP16, literal(-11)))
          CFI (cfiCond97) V4 load(1, XDATA, add(CFA_XSP16, literal(-10)))
          CFI (cfiCond97) V5 load(1, XDATA, add(CFA_XSP16, literal(-9)))
          CFI (cfiCond97) V6 load(1, XDATA, add(CFA_XSP16, literal(-8)))
          CFI (cfiCond97) V7 load(1, XDATA, add(CFA_XSP16, literal(-7)))
          CFI (cfiCond97) R7 load(1, XDATA, add(CFA_XSP16, literal(-6)))
          CFI (cfiCond97) ?RET_LOW load(1, XDATA, add(CFA_XSP16, literal(-5)))
          CFI (cfiCond97) ?RET_HIGH load(1, XDATA, add(CFA_XSP16, literal(-4)))
          CFI (cfiCond97) ?BRET_EXT load(1, XDATA, add(CFA_XSP16, literal(-3)))
          CFI (cfiCond97) DPL0 load(1, XDATA, add(CFA_XSP16, literal(-2)))
          CFI (cfiCond97) DPH0 load(1, XDATA, add(CFA_XSP16, literal(-1)))
          CFI (cfiCond97) CFA_XSP16 add(XSP16, 18)
          CFI Block cfiCond98 Using cfiCommon0
          CFI (cfiCond98) Function rxAddrIsr
          CFI (cfiCond98) Conditional ??CrossCallReturnLabel_53
          CFI (cfiCond98) R6 load(1, XDATA, add(CFA_XSP16, literal(-10)))
          CFI (cfiCond98) VB load(1, XDATA, add(CFA_XSP16, literal(-9)))
          CFI (cfiCond98) V0 load(1, XDATA, add(CFA_XSP16, literal(-8)))
          CFI (cfiCond98) V1 load(1, XDATA, add(CFA_XSP16, literal(-7)))
          CFI (cfiCond98) R7 load(1, XDATA, add(CFA_XSP16, literal(-6)))
          CFI (cfiCond98) ?RET_LOW load(1, XDATA, add(CFA_XSP16, literal(-5)))
          CFI (cfiCond98) ?RET_HIGH load(1, XDATA, add(CFA_XSP16, literal(-4)))
          CFI (cfiCond98) ?BRET_EXT load(1, XDATA, add(CFA_XSP16, literal(-3)))
          CFI (cfiCond98) DPL0 load(1, XDATA, add(CFA_XSP16, literal(-2)))
          CFI (cfiCond98) DPH0 load(1, XDATA, add(CFA_XSP16, literal(-1)))
          CFI (cfiCond98) CFA_SP SP+-2
          CFI (cfiCond98) CFA_XSP16 add(XSP16, 30)
          CFI Block cfiCond99 Using cfiCommon0
          CFI (cfiCond99) Function rxFcsIsr
          CFI (cfiCond99) Conditional ??CrossCallReturnLabel_54
          CFI (cfiCond99) R6 load(1, XDATA, add(CFA_XSP16, literal(-10)))
          CFI (cfiCond99) VB load(1, XDATA, add(CFA_XSP16, literal(-9)))
          CFI (cfiCond99) V0 load(1, XDATA, add(CFA_XSP16, literal(-8)))
          CFI (cfiCond99) V1 load(1, XDATA, add(CFA_XSP16, literal(-7)))
          CFI (cfiCond99) R7 load(1, XDATA, add(CFA_XSP16, literal(-6)))
          CFI (cfiCond99) ?RET_LOW load(1, XDATA, add(CFA_XSP16, literal(-5)))
          CFI (cfiCond99) ?RET_HIGH load(1, XDATA, add(CFA_XSP16, literal(-4)))
          CFI (cfiCond99) ?BRET_EXT load(1, XDATA, add(CFA_XSP16, literal(-3)))
          CFI (cfiCond99) DPL0 load(1, XDATA, add(CFA_XSP16, literal(-2)))
          CFI (cfiCond99) DPH0 load(1, XDATA, add(CFA_XSP16, literal(-1)))
          CFI (cfiCond99) CFA_SP SP+-2
          CFI (cfiCond99) CFA_XSP16 add(XSP16, 10)
          CFI Block cfiPicker100 Using cfiCommon1
          CFI (cfiPicker100) NoFunction
          CFI (cfiPicker100) Picker
        LCALL     ??Subroutine32_0 & 0xFFFF
??CrossCallReturnLabel_59:
        RET
          CFI EndBlock cfiCond94
          CFI EndBlock cfiCond95
          CFI EndBlock cfiCond96
          CFI EndBlock cfiCond97
          CFI EndBlock cfiCond98
          CFI EndBlock cfiCond99
          CFI EndBlock cfiPicker100

        RSEG BANKED_CODE:HUGECODE:NOROOT(0)
?Subroutine15:
          CFI Block cfiCond101 Using cfiCommon0
          CFI Function rxStartIsr
          CFI Conditional ??CrossCallReturnLabel_17
          CFI R6 load(1, XDATA, add(CFA_XSP16, literal(-16)))
          CFI VB load(1, XDATA, add(CFA_XSP16, literal(-15)))
          CFI V0 load(1, XDATA, add(CFA_XSP16, literal(-14)))
          CFI V1 load(1, XDATA, add(CFA_XSP16, literal(-13)))
          CFI V2 load(1, XDATA, add(CFA_XSP16, literal(-12)))
          CFI V3 load(1, XDATA, add(CFA_XSP16, literal(-11)))
          CFI V4 load(1, XDATA, add(CFA_XSP16, literal(-10)))
          CFI V5 load(1, XDATA, add(CFA_XSP16, literal(-9)))
          CFI V6 load(1, XDATA, add(CFA_XSP16, literal(-8)))
          CFI V7 load(1, XDATA, add(CFA_XSP16, literal(-7)))
          CFI R7 load(1, XDATA, add(CFA_XSP16, literal(-6)))
          CFI ?RET_LOW load(1, XDATA, add(CFA_XSP16, literal(-5)))
          CFI ?RET_HIGH load(1, XDATA, add(CFA_XSP16, literal(-4)))
          CFI ?BRET_EXT load(1, XDATA, add(CFA_XSP16, literal(-3)))
          CFI DPL0 load(1, XDATA, add(CFA_XSP16, literal(-2)))
          CFI DPH0 load(1, XDATA, add(CFA_XSP16, literal(-1)))
          CFI CFA_XSP16 add(XSP16, 18)
          CFI Block cfiCond102 Using cfiCommon0
          CFI (cfiCond102) Function rxAddrIsr
          CFI (cfiCond102) Conditional ??CrossCallReturnLabel_18
          CFI (cfiCond102) R6 load(1, XDATA, add(CFA_XSP16, literal(-10)))
          CFI (cfiCond102) VB load(1, XDATA, add(CFA_XSP16, literal(-9)))
          CFI (cfiCond102) V0 load(1, XDATA, add(CFA_XSP16, literal(-8)))
          CFI (cfiCond102) V1 load(1, XDATA, add(CFA_XSP16, literal(-7)))
          CFI (cfiCond102) R7 load(1, XDATA, add(CFA_XSP16, literal(-6)))
          CFI (cfiCond102) ?RET_LOW load(1, XDATA, add(CFA_XSP16, literal(-5)))
          CFI (cfiCond102) ?RET_HIGH load(1, XDATA, add(CFA_XSP16, literal(-4)))
          CFI (cfiCond102) ?BRET_EXT load(1, XDATA, add(CFA_XSP16, literal(-3)))
          CFI (cfiCond102) DPL0 load(1, XDATA, add(CFA_XSP16, literal(-2)))
          CFI (cfiCond102) DPH0 load(1, XDATA, add(CFA_XSP16, literal(-1)))
          CFI (cfiCond102) CFA_SP SP+-2
          CFI (cfiCond102) CFA_XSP16 add(XSP16, 30)
          CFI Block cfiPicker103 Using cfiCommon1
          CFI (cfiPicker103) NoFunction
          CFI (cfiPicker103) Picker
        LCALL     ?Subroutine26 & 0xFFFF
??CrossCallReturnLabel_57:
        ADD       A,#0x6
        MOV       DPL,A
        CLR       A
        ADDC      A,R0
        MOV       DPH,A
        RET
          CFI EndBlock cfiCond101
          CFI EndBlock cfiCond102
          CFI EndBlock cfiPicker103

        RSEG BANKED_CODE:HUGECODE:NOROOT(0)
?Subroutine8:
          CFI Block cfiCond104 Using cfiCommon0
          CFI Function rxStartIsr
          CFI Conditional ??CrossCallReturnLabel_7
          CFI R6 load(1, XDATA, add(CFA_XSP16, literal(-16)))
          CFI VB load(1, XDATA, add(CFA_XSP16, literal(-15)))
          CFI V0 load(1, XDATA, add(CFA_XSP16, literal(-14)))
          CFI V1 load(1, XDATA, add(CFA_XSP16, literal(-13)))
          CFI V2 load(1, XDATA, add(CFA_XSP16, literal(-12)))
          CFI V3 load(1, XDATA, add(CFA_XSP16, literal(-11)))
          CFI V4 load(1, XDATA, add(CFA_XSP16, literal(-10)))
          CFI V5 load(1, XDATA, add(CFA_XSP16, literal(-9)))
          CFI V6 load(1, XDATA, add(CFA_XSP16, literal(-8)))
          CFI V7 load(1, XDATA, add(CFA_XSP16, literal(-7)))
          CFI R7 load(1, XDATA, add(CFA_XSP16, literal(-6)))
          CFI ?RET_LOW load(1, XDATA, add(CFA_XSP16, literal(-5)))
          CFI ?RET_HIGH load(1, XDATA, add(CFA_XSP16, literal(-4)))
          CFI ?BRET_EXT load(1, XDATA, add(CFA_XSP16, literal(-3)))
          CFI DPL0 load(1, XDATA, add(CFA_XSP16, literal(-2)))
          CFI DPH0 load(1, XDATA, add(CFA_XSP16, literal(-1)))
          CFI CFA_SP SP+-2
          CFI CFA_XSP16 add(XSP16, 18)
          CFI Block cfiCond105 Using cfiCommon0
          CFI (cfiCond105) Function rxAddrIsr
          CFI (cfiCond105) Conditional ??CrossCallReturnLabel_8
          CFI (cfiCond105) R6 load(1, XDATA, add(CFA_XSP16, literal(-10)))
          CFI (cfiCond105) VB load(1, XDATA, add(CFA_XSP16, literal(-9)))
          CFI (cfiCond105) V0 load(1, XDATA, add(CFA_XSP16, literal(-8)))
          CFI (cfiCond105) V1 load(1, XDATA, add(CFA_XSP16, literal(-7)))
          CFI (cfiCond105) R7 load(1, XDATA, add(CFA_XSP16, literal(-6)))
          CFI (cfiCond105) ?RET_LOW load(1, XDATA, add(CFA_XSP16, literal(-5)))
          CFI (cfiCond105) ?RET_HIGH load(1, XDATA, add(CFA_XSP16, literal(-4)))
          CFI (cfiCond105) ?BRET_EXT load(1, XDATA, add(CFA_XSP16, literal(-3)))
          CFI (cfiCond105) DPL0 load(1, XDATA, add(CFA_XSP16, literal(-2)))
          CFI (cfiCond105) DPH0 load(1, XDATA, add(CFA_XSP16, literal(-1)))
          CFI (cfiCond105) CFA_SP SP+-2
          CFI (cfiCond105) CFA_XSP16 add(XSP16, 30)
          CFI Block cfiPicker106 Using cfiCommon1
          CFI (cfiPicker106) NoFunction
          CFI (cfiPicker106) Picker
        MOV       DPTR,#pFuncRxState
        MOV       A,#`??rxPayloadIsr::?relay` & 0xff
        MOVX      @DPTR,A
        INC       DPTR
        MOV       A,#(`??rxPayloadIsr::?relay` >> 8) & 0xff
        MOVX      @DPTR,A
        ; Setup parameters for call to function rxPrepPayload
        ; Setup parameters for call to function rxPrepPayload
        LCALL     `??rxPrepPayload::?relay`; Banked call to: rxPrepPayload
        RET
          CFI EndBlock cfiCond104
          CFI EndBlock cfiCond105
          CFI EndBlock cfiPicker106
//  963 
//  964 
//  965 #ifdef MAC_SECURITY
//  966 /*=================================================================================================
//  967  * @fn          rxSecurityHdrIsr
//  968  *
//  969  * @brief       Receive ISR state for reading out and storing the auxiliary security header.
//  970  *
//  971  * @param       none
//  972  *
//  973  * @return      none
//  974  *=================================================================================================
//  975  */
//  976 static void rxSecurityHdrIsr(void)
//  977 {
//  978   uint8 buf[MAC_FRAME_COUNTER_LEN + MAC_KEY_ID_8_LEN];
//  979 
//  980   /* read out frame counter and key ID */
//  981   MAC_RADIO_READ_RX_FIFO(buf, rxNextLen);
//  982 
//  983   /* Incoming frame counter */
//  984   macFrameCounter = BUILD_UINT32(buf[0], buf[1], buf[2], buf[3]);
//  985   if (rxNextLen - MAC_FRAME_COUNTER_LEN > 0)
//  986   {
//  987     /* Explicit mode */
//  988     osal_memcpy(pRxBuf->sec.keySource, &buf[MAC_FRAME_COUNTER_LEN], rxNextLen - MAC_FRAME_COUNTER_LEN - 1);
//  989     pRxBuf->sec.keyIndex = buf[rxNextLen - MAC_KEY_INDEX_LEN];
//  990   }
//  991 
//  992   /* Copy security fields to RX buffer */
//  993   osal_memcpy(pRxBuf->mhr.p, buf, rxNextLen);
//  994   pRxBuf->mhr.p   += rxNextLen;
//  995   pRxBuf->mhr.len += rxNextLen;
//  996 
//  997   /* Update payload pointer and payload length. The rxPayloadLen includes security header length
//  998    * and SCF byte. The security header and SCF length must be deducted from the rxPayloadLen.
//  999    */
// 1000   rxPayloadLen    -= (rxNextLen + MAC_SEC_CONTROL_FIELD_LEN);
// 1001   pRxBuf->msdu.len = rxPayloadLen;
// 1002   pRxBuf->mhr.len += rxPayloadLen;
// 1003 
// 1004   /*-------------------------------------------------------------------------------
// 1005    *  Prepare for payload interrupts.
// 1006    */
// 1007   pFuncRxState = &rxPayloadIsr;
// 1008   rxPrepPayload();
// 1009 }
// 1010 #endif /* MAC_SECURITY */
// 1011 
// 1012 
// 1013 /*=================================================================================================
// 1014  * @fn          rxPrepPayload
// 1015  *
// 1016  * @brief       Common code to prepare for the payload ISR.
// 1017  *
// 1018  * @param       none
// 1019  *
// 1020  * @return      none
// 1021  *=================================================================================================
// 1022  */

        RSEG BANKED_CODE:HUGECODE:NOROOT(0)
// 1023 static void rxPrepPayload(void)
rxPrepPayload:
          CFI Block cfiBlock107 Using cfiCommon0
          CFI Function rxPrepPayload
        CODE
// 1024 {
        PUSH      DPL
          CFI DPL0 Frame(CFA_SP, 4)
          CFI CFA_SP SP+-4
        PUSH      DPH
          CFI DPH0 Frame(CFA_SP, 5)
          CFI CFA_SP SP+-5
        ; Saved register size: 2
        ; Auto size: 0
// 1025   if (rxPayloadLen == 0)
        MOV       DPTR,#rxPayloadLen
        MOVX      A,@DPTR
        JNZ       ??rxPrepPayload_0
// 1026   {
// 1027     MAC_RADIO_SET_RX_THRESHOLD(MAC_FCS_FIELD_LEN);
        MOV       DPTR,#0x6194
        MOV       A,#0x1
        MOVX      @DPTR,A
// 1028     pFuncRxState = &rxFcsIsr;
        MOV       DPTR,#pFuncRxState
        MOV       A,#`??rxFcsIsr::?relay` & 0xff
        MOVX      @DPTR,A
        INC       DPTR
        MOV       A,#(`??rxFcsIsr::?relay` >> 8) & 0xff
        SJMP      ??rxPrepPayload_1
// 1029   }
// 1030   else
// 1031   {
// 1032     rxNextLen = MIN(rxPayloadLen, MAX_PAYLOAD_BYTES_READ_PER_INTERRUPT);
??rxPrepPayload_0:
        CLR       C
        SUBB      A,#0x10
        JNC       ??rxPrepPayload_2
        MOVX      A,@DPTR
        MOV       DPTR,#rxNextLen
        SJMP      ??rxPrepPayload_3
??rxPrepPayload_2:
        MOV       DPTR,#rxNextLen
        MOV       A,#0x10
??rxPrepPayload_3:
        MOVX      @DPTR,A
// 1033     MAC_RADIO_SET_RX_THRESHOLD(rxNextLen);
        MOVX      A,@DPTR
        DEC       A
        MOV       DPTR,#0x6194
// 1034   }
??rxPrepPayload_1:
        SJMP      ?Subroutine0
// 1035 }
          CFI EndBlock cfiBlock107
// 1036 
// 1037 
// 1038 /*=================================================================================================
// 1039  * @fn          rxPayloadIsr
// 1040  *
// 1041  * @brief       Receive ISR state for reading out and storing the packet payload.
// 1042  *
// 1043  * @param       none
// 1044  *
// 1045  * @return      none
// 1046  *=================================================================================================
// 1047  */

        RSEG BANKED_CODE:HUGECODE:NOROOT(0)
// 1048 static void rxPayloadIsr(void)
rxPayloadIsr:
          CFI Block cfiBlock108 Using cfiCommon0
          CFI Function rxPayloadIsr
        CODE
// 1049 {
        FUNCALL rxPayloadIsr, macMemReadRxFifo
        LOCFRAME ISTACK, 2, STACK
        LOCFRAME PSTACK, 0, STACK
        LOCFRAME XSTACK, 0, STACK
        LOCFRAME IOVERLAY, 0, STATIC
        LOCFRAME DOVERLAY, 0, STATIC
        ARGFRAME ISTACK, 2, STACK
        ARGFRAME PSTACK, 0, STACK
        ARGFRAME XSTACK, 0, STACK
        ARGFRAME IOVERLAY, 0, STATIC
        ARGFRAME DOVERLAY, 0, STATIC
        FUNCALL rxPayloadIsr, rxPrepPayload
        LOCFRAME ISTACK, 2, STACK
        LOCFRAME PSTACK, 0, STACK
        LOCFRAME XSTACK, 0, STACK
        LOCFRAME IOVERLAY, 0, STATIC
        LOCFRAME DOVERLAY, 0, STATIC
        ARGFRAME ISTACK, 2, STACK
        ARGFRAME PSTACK, 0, STACK
        ARGFRAME XSTACK, 0, STACK
        ARGFRAME IOVERLAY, 0, STATIC
        ARGFRAME DOVERLAY, 0, STATIC
        PUSH      DPL
          CFI DPL0 Frame(CFA_SP, 4)
          CFI CFA_SP SP+-4
        PUSH      DPH
          CFI DPH0 Frame(CFA_SP, 5)
          CFI CFA_SP SP+-5
        ; Saved register size: 2
        ; Auto size: 0
// 1050   MAC_RADIO_READ_RX_FIFO(pRxBuf->mhr.p, rxNextLen);
        ; Setup parameters for call to function macMemReadRxFifo
        MOV       DPTR,#rxNextLen
        MOVX      A,@DPTR
        MOV       R1,A
        LCALL     ?Subroutine12 & 0xFFFF
??CrossCallReturnLabel_16:
        LCALL     `??macMemReadRxFifo::?relay`; Banked call to: macMemReadRxFifo
// 1051   pRxBuf->mhr.p += rxNextLen;
        MOV       DPTR,#pRxBuf
        MOVX      A,@DPTR
        ADD       A,#0x32
        MOV       R0,A
        INC       DPTR
        MOVX      A,@DPTR
        ADDC      A,#0x0
        MOV       R1,A
        MOV       DPTR,#rxNextLen
        LCALL     ?Subroutine6 & 0xFFFF
// 1052 
// 1053   rxPayloadLen -= rxNextLen;
??CrossCallReturnLabel_76:
        MOV       DPTR,#rxNextLen
        MOVX      A,@DPTR
        MOV       R0,A
        MOV       DPTR,#rxPayloadLen
        MOVX      A,@DPTR
        CLR       C
        SUBB      A,R0
        MOVX      @DPTR,A
// 1054 
// 1055   rxPrepPayload();
        ; Setup parameters for call to function rxPrepPayload
        LCALL     `??rxPrepPayload::?relay`; Banked call to: rxPrepPayload
// 1056 }
        SJMP      ??Subroutine34_0
          CFI EndBlock cfiBlock108

        RSEG BANKED_CODE:HUGECODE:NOROOT(0)
?Subroutine12:
          CFI Block cfiCond109 Using cfiCommon0
          CFI Function rxStartIsr
          CFI Conditional ??CrossCallReturnLabel_15
          CFI R6 load(1, XDATA, add(CFA_XSP16, literal(-16)))
          CFI VB load(1, XDATA, add(CFA_XSP16, literal(-15)))
          CFI V0 load(1, XDATA, add(CFA_XSP16, literal(-14)))
          CFI V1 load(1, XDATA, add(CFA_XSP16, literal(-13)))
          CFI V2 load(1, XDATA, add(CFA_XSP16, literal(-12)))
          CFI V3 load(1, XDATA, add(CFA_XSP16, literal(-11)))
          CFI V4 load(1, XDATA, add(CFA_XSP16, literal(-10)))
          CFI V5 load(1, XDATA, add(CFA_XSP16, literal(-9)))
          CFI V6 load(1, XDATA, add(CFA_XSP16, literal(-8)))
          CFI V7 load(1, XDATA, add(CFA_XSP16, literal(-7)))
          CFI R7 load(1, XDATA, add(CFA_XSP16, literal(-6)))
          CFI ?RET_LOW load(1, XDATA, add(CFA_XSP16, literal(-5)))
          CFI ?RET_HIGH load(1, XDATA, add(CFA_XSP16, literal(-4)))
          CFI ?BRET_EXT load(1, XDATA, add(CFA_XSP16, literal(-3)))
          CFI DPL0 load(1, XDATA, add(CFA_XSP16, literal(-2)))
          CFI DPH0 load(1, XDATA, add(CFA_XSP16, literal(-1)))
          CFI CFA_SP SP+-2
          CFI CFA_XSP16 add(XSP16, 21)
          CFI Block cfiCond110 Using cfiCommon0
          CFI (cfiCond110) Function rxPayloadIsr
          CFI (cfiCond110) Conditional ??CrossCallReturnLabel_16
          CFI (cfiCond110) DPL0 Frame(CFA_SP, 4)
          CFI (cfiCond110) DPH0 Frame(CFA_SP, 5)
          CFI (cfiCond110) CFA_SP SP+-7
          CFI Block cfiPicker111 Using cfiCommon1
          CFI (cfiPicker111) NoFunction
          CFI (cfiPicker111) Picker
        LCALL     ?Subroutine26 & 0xFFFF
??CrossCallReturnLabel_56:
        ADD       A,#0x32
        MOV       DPL,A
        CLR       A
        ADDC      A,R0
        MOV       DPH,A
        LCALL     ??Subroutine36_0 & 0xFFFF
??CrossCallReturnLabel_60:
        MOV       R3,A
        RET
          CFI EndBlock cfiCond109
          CFI EndBlock cfiCond110
          CFI EndBlock cfiPicker111

        RSEG BANKED_CODE:HUGECODE:NOROOT(0)
?Subroutine0:
          CFI Block cfiBlock112 Using cfiCommon0
          CFI NoFunction
          CFI CFA_SP SP+-5
          CFI DPL0 Frame(CFA_SP, 4)
          CFI DPH0 Frame(CFA_SP, 5)
        MOVX      @DPTR,A
          CFI EndBlock cfiBlock112
        REQUIRE ??Subroutine34_0
        ; // Fall through to label ??Subroutine34_0

        RSEG BANKED_CODE:HUGECODE:NOROOT(0)
??Subroutine34_0:
          CFI Block cfiBlock113 Using cfiCommon0
          CFI NoFunction
          CFI CFA_SP SP+-5
          CFI DPL0 Frame(CFA_SP, 4)
          CFI DPH0 Frame(CFA_SP, 5)
        POP       DPH
          CFI CFA_SP SP+-4
          CFI DPH0 SameValue
        POP       DPL
          CFI CFA_SP SP+-3
          CFI DPL0 SameValue
        LJMP      ?BRET
          CFI EndBlock cfiBlock113
// 1057 
// 1058 
// 1059 /*=================================================================================================
// 1060  * @fn          rxFcsIsr
// 1061  *
// 1062  * @brief       Receive ISR state for handling the FCS.
// 1063  *
// 1064  * @param       none
// 1065  *
// 1066  * @return      none
// 1067  *=================================================================================================
// 1068  */

        RSEG BANKED_CODE:HUGECODE:NOROOT(0)
// 1069 static void rxFcsIsr(void)
rxFcsIsr:
          CFI Block cfiBlock114 Using cfiCommon0
          CFI Function rxFcsIsr
        CODE
// 1070 {
        FUNCALL rxFcsIsr, macMemReadRxFifo
        LOCFRAME ISTACK, 0, STACK
        LOCFRAME PSTACK, 0, STACK
        LOCFRAME XSTACK, 10, STACK
        LOCFRAME IOVERLAY, 0, STATIC
        LOCFRAME DOVERLAY, 0, STATIC
        ARGFRAME ISTACK, 0, STACK
        ARGFRAME PSTACK, 0, STACK
        ARGFRAME XSTACK, 10, STACK
        ARGFRAME IOVERLAY, 0, STATIC
        ARGFRAME DOVERLAY, 0, STATIC
        FUNCALL rxFcsIsr, macRxOffRequest
        LOCFRAME ISTACK, 0, STACK
        LOCFRAME PSTACK, 0, STACK
        LOCFRAME XSTACK, 10, STACK
        LOCFRAME IOVERLAY, 0, STATIC
        LOCFRAME DOVERLAY, 0, STATIC
        ARGFRAME ISTACK, 0, STACK
        ARGFRAME PSTACK, 0, STACK
        ARGFRAME XSTACK, 10, STACK
        ARGFRAME IOVERLAY, 0, STATIC
        ARGFRAME DOVERLAY, 0, STATIC
        FUNCALL rxFcsIsr, MAC_SrcMatchCheckResult
        LOCFRAME ISTACK, 0, STACK
        LOCFRAME PSTACK, 0, STACK
        LOCFRAME XSTACK, 10, STACK
        LOCFRAME IOVERLAY, 0, STATIC
        LOCFRAME DOVERLAY, 0, STATIC
        ARGFRAME ISTACK, 0, STACK
        ARGFRAME PSTACK, 0, STACK
        ARGFRAME XSTACK, 10, STACK
        ARGFRAME IOVERLAY, 0, STATIC
        ARGFRAME DOVERLAY, 0, STATIC
        FUNCALL rxFcsIsr, macRadioComputeLQI
        LOCFRAME ISTACK, 0, STACK
        LOCFRAME PSTACK, 0, STACK
        LOCFRAME XSTACK, 10, STACK
        LOCFRAME IOVERLAY, 0, STATIC
        LOCFRAME DOVERLAY, 0, STATIC
        ARGFRAME ISTACK, 0, STACK
        ARGFRAME PSTACK, 0, STACK
        ARGFRAME XSTACK, 10, STACK
        ARGFRAME IOVERLAY, 0, STATIC
        ARGFRAME DOVERLAY, 0, STATIC
        FUNCALL rxFcsIsr, macRxCompleteCallback
        LOCFRAME ISTACK, 0, STACK
        LOCFRAME PSTACK, 0, STACK
        LOCFRAME XSTACK, 10, STACK
        LOCFRAME IOVERLAY, 0, STATIC
        LOCFRAME DOVERLAY, 0, STATIC
        ARGFRAME ISTACK, 0, STACK
        ARGFRAME PSTACK, 0, STACK
        ARGFRAME XSTACK, 10, STACK
        ARGFRAME IOVERLAY, 0, STATIC
        ARGFRAME DOVERLAY, 0, STATIC
        FUNCALL rxFcsIsr, macDataRxMemFree
        LOCFRAME ISTACK, 0, STACK
        LOCFRAME PSTACK, 0, STACK
        LOCFRAME XSTACK, 10, STACK
        LOCFRAME IOVERLAY, 0, STATIC
        LOCFRAME DOVERLAY, 0, STATIC
        ARGFRAME ISTACK, 0, STACK
        ARGFRAME PSTACK, 0, STACK
        ARGFRAME XSTACK, 10, STACK
        ARGFRAME IOVERLAY, 0, STATIC
        ARGFRAME DOVERLAY, 0, STATIC
        FUNCALL rxFcsIsr, rxDone
        LOCFRAME ISTACK, 0, STACK
        LOCFRAME PSTACK, 0, STACK
        LOCFRAME XSTACK, 10, STACK
        LOCFRAME IOVERLAY, 0, STATIC
        LOCFRAME DOVERLAY, 0, STATIC
        ARGFRAME ISTACK, 0, STACK
        ARGFRAME PSTACK, 0, STACK
        ARGFRAME XSTACK, 10, STACK
        ARGFRAME IOVERLAY, 0, STATIC
        ARGFRAME DOVERLAY, 0, STATIC
        REQUIRE ?V0
        REQUIRE ?V1
        MOV       A,#-0xa
        LCALL     ?BANKED_ENTER_XDATA
          CFI DPH0 load(1, XDATA, add(CFA_XSP16, literal(-1)))
          CFI DPL0 load(1, XDATA, add(CFA_XSP16, literal(-2)))
          CFI ?BRET_EXT load(1, XDATA, add(CFA_XSP16, literal(-3)))
          CFI ?RET_HIGH load(1, XDATA, add(CFA_XSP16, literal(-4)))
          CFI ?RET_LOW load(1, XDATA, add(CFA_XSP16, literal(-5)))
          CFI R7 load(1, XDATA, add(CFA_XSP16, literal(-6)))
          CFI V1 load(1, XDATA, add(CFA_XSP16, literal(-7)))
          CFI V0 load(1, XDATA, add(CFA_XSP16, literal(-8)))
          CFI VB load(1, XDATA, add(CFA_XSP16, literal(-9)))
          CFI R6 load(1, XDATA, add(CFA_XSP16, literal(-10)))
          CFI CFA_SP SP+0
          CFI CFA_XSP16 add(XSP16, 10)
        ; Saved register size: 10
        ; Auto size: 0
// 1071   uint8 crcOK;
// 1072   uint8 ackWithPending = 0;
        MOV       R6,#0x0
// 1073 
// 1074   /* read FCS, rxBuf is now available storage */
// 1075   MAC_RADIO_READ_RX_FIFO(rxBuf, MAC_FCS_FIELD_LEN);
        ; Setup parameters for call to function macMemReadRxFifo
        MOV       R1,#0x2
        MOV       R2,#rxBuf & 0xff
        MOV       R3,#(rxBuf >> 8) & 0xff
        LCALL     `??macMemReadRxFifo::?relay`; Banked call to: macMemReadRxFifo
// 1076 
// 1077   /*
// 1078    *  The FCS has actually been replaced within the radio by a proprietary version of the FCS.
// 1079    *  This proprietary FCS is two bytes (same length as the real FCS) and contains:
// 1080    *    1) the RSSI value
// 1081    *    2) the average correlation value (used for LQI)
// 1082    *    3) a CRC passed bit
// 1083    */
// 1084 
// 1085   /* save the "CRC-is-OK" status */
// 1086   crcOK = PROPRIETARY_FCS_CRC_OK(rxBuf);
        MOV       DPTR,#rxBuf + 1
        MOVX      A,@DPTR
        ANL       A,#0x80
        MOV       ?V1,A
// 1087 
// 1088   /*
// 1089    *  See if the frame should be passed up to high-level MAC.  If the CRC is OK, the
// 1090    *  the frame is always passed up.  Frames with a bad CRC are also passed up *if*
// 1091    *  a special variant of promiscuous mode is active.
// 1092    */
// 1093   if (crcOK || (rxPromiscuousMode == MAC_PROMISCUOUS_MODE_WITH_BAD_CRC))
        JNZ       ??rxFcsIsr_0
        MOV       DPTR,#rxPromiscuousMode
        MOVX      A,@DPTR
        XRL       A,#0x2
        JZ        $+5
        LJMP      ??rxFcsIsr_1 & 0xFFFF
// 1094   {
// 1095     int8 rssiDbm;
// 1096     uint8 corr;
// 1097 
// 1098 #ifdef PACKET_FILTER_STATS
// 1099     rxCrcSuccess++;
// 1100 #endif /* PACKET_FILTER_STATS */
// 1101 
// 1102     /*
// 1103      *  As power saving optimization, set state variable to indicate physical receive
// 1104      *  has completed and then request turning of the receiver.  This means the receiver
// 1105      *  can be off (if other conditions permit) during execution of the callback function.
// 1106      *
// 1107      *  The receiver will be requested to turn off once again at the end of the receive
// 1108      *  logic.  There is no harm in doing this.
// 1109      */
// 1110     macRxActive = MAC_RX_ACTIVE_DONE;
??rxFcsIsr_0:
        MOV       DPTR,#macRxActive
        MOV       A,#0x2
        MOVX      @DPTR,A
// 1111     macRxOffRequest();
        ; Setup parameters for call to function macRxOffRequest
        LCALL     `??macRxOffRequest::?relay`; Banked call to: macRxOffRequest
// 1112 
// 1113     /* decode RSSI and correlation values */
// 1114     rssiDbm = PROPRIETARY_FCS_RSSI(rxBuf) + MAC_RADIO_RSSI_OFFSET;
        MOV       DPTR,#rxBuf
        MOVX      A,@DPTR
        ADD       A,#-0x49
        MOV       ?V0,A
// 1115     MAC_RADIO_RSSI_LNA_OFFSET(rssiDbm);
// 1116     corr = PROPRIETARY_FCS_CORRELATION_VALUE(rxBuf);
        INC       DPTR
        MOVX      A,@DPTR
        ANL       A,#0x7f
        MOV       R7,A
// 1117 
// 1118     /* Read the source matching result back */
// 1119     if( macSrcMatchIsEnabled && MAC_RADIO_SRC_MATCH_RESULT() )
        MOV       DPTR,#macSrcMatchIsEnabled
        MOVX      A,@DPTR
        JZ        ??rxFcsIsr_2
        ; Setup parameters for call to function MAC_SrcMatchCheckResult
        LCALL     `??MAC_SrcMatchCheckResult::?relay`; Banked call to: MAC_SrcMatchCheckResult
        MOV       A,R1
        JZ        ??rxFcsIsr_2
// 1120     {
// 1121       /* This result will not overwrite the previously determined pRxBuf->internal.flags */
// 1122       ackWithPending = MAC_RX_FLAG_ACK_PENDING;
        MOV       R6,#0x4
// 1123     }
// 1124 
// 1125     /* record parameters that get passed up to high-level */
// 1126     pRxBuf->internal.flags |= ( crcOK | ackWithPending );
??rxFcsIsr_2:
        MOV       A,?V1
        ORL       A,R6
        MOV       R0,A
        MOV       DPTR,#pRxBuf
        MOVX      A,@DPTR
        MOV       R1,A
        INC       DPTR
        MOVX      A,@DPTR
        XCH       A,R1
        ADD       A,#0x6
        MOV       DPL,A
        CLR       A
        ADDC      A,R1
        MOV       DPH,A
        MOVX      A,@DPTR
        ORL       A,R0
        MOVX      @DPTR,A
// 1127     pRxBuf->mac.mpduLinkQuality = macRadioComputeLQI(rssiDbm, corr);
        ; Setup parameters for call to function macRadioComputeLQI
        MOV       A,R7
        MOV       R2,A
        MOV       R1,?V0
        LCALL     `??macRadioComputeLQI::?relay`; Banked call to: macRadioComputeLQI
        LCALL     ?Subroutine16 & 0xFFFF
??CrossCallReturnLabel_54:
        ADD       A,#0x2e
        MOV       DPL,A
        CLR       A
        ADDC      A,R0
        MOV       DPH,A
        MOV       A,R1
        LCALL     ??Subroutine31_0 & 0xFFFF
// 1128     pRxBuf->mac.rssi = rssiDbm;
??CrossCallReturnLabel_48:
        ADD       A,#0x30
        LCALL     ?Subroutine2 & 0xFFFF
// 1129     pRxBuf->mac.correlation = corr;
??CrossCallReturnLabel_47:
        ADD       A,#0x2f
        MOV       DPL,A
        CLR       A
        ADDC      A,R0
        MOV       DPH,A
        MOV       A,R7
        LCALL     ??Subroutine37_0 & 0xFFFF
// 1130 
// 1131     /* set the MSDU pointer to point at start of data */
// 1132     pRxBuf->mhr.p   = (uint8 *) (pRxBuf + 1);
??CrossCallReturnLabel_67:
        LCALL     ?Subroutine18 & 0xFFFF
??CrossCallReturnLabel_22:
        XCH       A,R2
        ADD       A,#0x32
        MOV       DPL,A
        CLR       A
        ADDC      A,R2
        MOV       DPH,A
        LCALL     ?Subroutine7 & 0xFFFF
// 1133     pRxBuf->msdu.p += (pRxBuf->mhr.len - pRxBuf->msdu.len);
??CrossCallReturnLabel_66:
        ADD       A,#0x2
        LCALL     ?Subroutine11 & 0xFFFF
??CrossCallReturnLabel_14:
        MOVX      A,@DPTR
        MOV       R2,A
        MOV       DPTR,#pRxBuf
        MOVX      A,@DPTR
        MOV       R4,A
        INC       DPTR
        MOVX      A,@DPTR
        MOV       DPH,A
        MOV       DPL,R4
        INC       DPTR
        INC       DPTR
        INC       DPTR
        INC       DPTR
        MOVX      A,@DPTR
        MOV       R4,A
        MOV       A,R2
        CLR       C
        SUBB      A,R4
        MOV       R2,A
        SUBB      A,0xE0 /* A   */
        MOV       R3,A
        MOV       DPL,R0
        MOV       DPH,R1
        MOVX      A,@DPTR
        ADD       A,R2
        MOV       R2,A
        INC       DPTR
        MOVX      A,@DPTR
        ADDC      A,R3
        LCALL     ??Subroutine38_0 & 0xFFFF
// 1134 
// 1135     /* finally... execute callback function */
// 1136     macRxCompleteCallback(pRxBuf);
??CrossCallReturnLabel_74:
        ; Setup parameters for call to function macRxCompleteCallback
        LCALL     ??Subroutine35_0 & 0xFFFF
??CrossCallReturnLabel_62:
        MOV       R3,A
        LCALL     `??macRxCompleteCallback::?relay`; Banked call to: macRxCompleteCallback
// 1137     pRxBuf = NULL; /* needed to indicate buffer is no longer allocated */
        SJMP      ??rxFcsIsr_3
// 1138   }
// 1139   else
// 1140   {
// 1141 #ifdef PACKET_FILTER_STATS
// 1142     rxCrcFailure++;
// 1143 #endif /* PACKET_FILTER_STATS */
// 1144 
// 1145     /*
// 1146      *  The CRC is bad so no ACK was sent.  Cancel any callback and clear the flag.
// 1147      *  (It's OK to cancel the outgoing ACK even if an ACK was not requested.  It's
// 1148      *  slightly more efficient to do so.)
// 1149      */
// 1150     MAC_RADIO_CANCEL_ACK_TX_DONE_CALLBACK();
??rxFcsIsr_1:
        LCALL     ?Subroutine20 & 0xFFFF
// 1151     macRxOutgoingAckFlag = 0;
// 1152 
// 1153     /* the CRC failed so the packet must be discarded */
// 1154     MEM_FREE((uint8 **)&pRxBuf);
??CrossCallReturnLabel_26:
        ; Setup parameters for call to function macDataRxMemFree
        MOV       R2,#pRxBuf & 0xff
        MOV       R3,#(pRxBuf >> 8) & 0xff
        LCALL     `??macDataRxMemFree::?relay`; Banked call to: macDataRxMemFree
// 1155     pRxBuf = NULL;  /* needed to indicate buffer is no longer allocated */
??rxFcsIsr_3:
        MOV       DPTR,#pRxBuf
        CLR       A
        MOVX      @DPTR,A
        INC       DPTR
        MOVX      @DPTR,A
// 1156   }
// 1157 
// 1158   /* reset threshold level, reset receive state, and complete receive logic */
// 1159   MAC_RADIO_SET_RX_THRESHOLD(RX_THRESHOLD_START_LEN);
        LCALL     ?Subroutine3 & 0xFFFF
// 1160   pFuncRxState = &rxStartIsr;
// 1161   rxDone();
// 1162 }
??CrossCallReturnLabel_0:
        LJMP      ?Subroutine1 & 0xFFFF
          CFI EndBlock cfiBlock114

        RSEG BANKED_CODE:HUGECODE:NOROOT(0)
?Subroutine20:
          CFI Block cfiCond115 Using cfiCommon0
          CFI Function rxStartIsr
          CFI Conditional ??CrossCallReturnLabel_25
          CFI R6 load(1, XDATA, add(CFA_XSP16, literal(-16)))
          CFI VB load(1, XDATA, add(CFA_XSP16, literal(-15)))
          CFI V0 load(1, XDATA, add(CFA_XSP16, literal(-14)))
          CFI V1 load(1, XDATA, add(CFA_XSP16, literal(-13)))
          CFI V2 load(1, XDATA, add(CFA_XSP16, literal(-12)))
          CFI V3 load(1, XDATA, add(CFA_XSP16, literal(-11)))
          CFI V4 load(1, XDATA, add(CFA_XSP16, literal(-10)))
          CFI V5 load(1, XDATA, add(CFA_XSP16, literal(-9)))
          CFI V6 load(1, XDATA, add(CFA_XSP16, literal(-8)))
          CFI V7 load(1, XDATA, add(CFA_XSP16, literal(-7)))
          CFI R7 load(1, XDATA, add(CFA_XSP16, literal(-6)))
          CFI ?RET_LOW load(1, XDATA, add(CFA_XSP16, literal(-5)))
          CFI ?RET_HIGH load(1, XDATA, add(CFA_XSP16, literal(-4)))
          CFI ?BRET_EXT load(1, XDATA, add(CFA_XSP16, literal(-3)))
          CFI DPL0 load(1, XDATA, add(CFA_XSP16, literal(-2)))
          CFI DPH0 load(1, XDATA, add(CFA_XSP16, literal(-1)))
          CFI CFA_SP SP+-2
          CFI CFA_XSP16 add(XSP16, 18)
          CFI Block cfiCond116 Using cfiCommon0
          CFI (cfiCond116) Function rxFcsIsr
          CFI (cfiCond116) Conditional ??CrossCallReturnLabel_26
          CFI (cfiCond116) R6 load(1, XDATA, add(CFA_XSP16, literal(-10)))
          CFI (cfiCond116) VB load(1, XDATA, add(CFA_XSP16, literal(-9)))
          CFI (cfiCond116) V0 load(1, XDATA, add(CFA_XSP16, literal(-8)))
          CFI (cfiCond116) V1 load(1, XDATA, add(CFA_XSP16, literal(-7)))
          CFI (cfiCond116) R7 load(1, XDATA, add(CFA_XSP16, literal(-6)))
          CFI (cfiCond116) ?RET_LOW load(1, XDATA, add(CFA_XSP16, literal(-5)))
          CFI (cfiCond116) ?RET_HIGH load(1, XDATA, add(CFA_XSP16, literal(-4)))
          CFI (cfiCond116) ?BRET_EXT load(1, XDATA, add(CFA_XSP16, literal(-3)))
          CFI (cfiCond116) DPL0 load(1, XDATA, add(CFA_XSP16, literal(-2)))
          CFI (cfiCond116) DPH0 load(1, XDATA, add(CFA_XSP16, literal(-1)))
          CFI (cfiCond116) CFA_SP SP+-2
          CFI (cfiCond116) CFA_XSP16 add(XSP16, 10)
          CFI Block cfiPicker117 Using cfiCommon1
          CFI (cfiPicker117) NoFunction
          CFI (cfiPicker117) Picker
        MOV       DPTR,#0x61a4
        MOVX      A,@DPTR
        CLR       0xE0 /* A   */.0
        MOVX      @DPTR,A
        MOV       DPTR,#macRxOutgoingAckFlag
        CLR       A
        MOVX      @DPTR,A
        RET
          CFI EndBlock cfiCond115
          CFI EndBlock cfiCond116
          CFI EndBlock cfiPicker117

        RSEG BANKED_CODE:HUGECODE:NOROOT(0)
?Subroutine18:
          CFI Block cfiCond118 Using cfiCommon0
          CFI Function rxStartIsr
          CFI Conditional ??CrossCallReturnLabel_21
          CFI R6 load(1, XDATA, add(CFA_XSP16, literal(-16)))
          CFI VB load(1, XDATA, add(CFA_XSP16, literal(-15)))
          CFI V0 load(1, XDATA, add(CFA_XSP16, literal(-14)))
          CFI V1 load(1, XDATA, add(CFA_XSP16, literal(-13)))
          CFI V2 load(1, XDATA, add(CFA_XSP16, literal(-12)))
          CFI V3 load(1, XDATA, add(CFA_XSP16, literal(-11)))
          CFI V4 load(1, XDATA, add(CFA_XSP16, literal(-10)))
          CFI V5 load(1, XDATA, add(CFA_XSP16, literal(-9)))
          CFI V6 load(1, XDATA, add(CFA_XSP16, literal(-8)))
          CFI V7 load(1, XDATA, add(CFA_XSP16, literal(-7)))
          CFI R7 load(1, XDATA, add(CFA_XSP16, literal(-6)))
          CFI ?RET_LOW load(1, XDATA, add(CFA_XSP16, literal(-5)))
          CFI ?RET_HIGH load(1, XDATA, add(CFA_XSP16, literal(-4)))
          CFI ?BRET_EXT load(1, XDATA, add(CFA_XSP16, literal(-3)))
          CFI DPL0 load(1, XDATA, add(CFA_XSP16, literal(-2)))
          CFI DPH0 load(1, XDATA, add(CFA_XSP16, literal(-1)))
          CFI CFA_SP SP+-2
          CFI CFA_XSP16 add(XSP16, 18)
          CFI Block cfiCond119 Using cfiCommon0
          CFI (cfiCond119) Function rxFcsIsr
          CFI (cfiCond119) Conditional ??CrossCallReturnLabel_22
          CFI (cfiCond119) R6 load(1, XDATA, add(CFA_XSP16, literal(-10)))
          CFI (cfiCond119) VB load(1, XDATA, add(CFA_XSP16, literal(-9)))
          CFI (cfiCond119) V0 load(1, XDATA, add(CFA_XSP16, literal(-8)))
          CFI (cfiCond119) V1 load(1, XDATA, add(CFA_XSP16, literal(-7)))
          CFI (cfiCond119) R7 load(1, XDATA, add(CFA_XSP16, literal(-6)))
          CFI (cfiCond119) ?RET_LOW load(1, XDATA, add(CFA_XSP16, literal(-5)))
          CFI (cfiCond119) ?RET_HIGH load(1, XDATA, add(CFA_XSP16, literal(-4)))
          CFI (cfiCond119) ?BRET_EXT load(1, XDATA, add(CFA_XSP16, literal(-3)))
          CFI (cfiCond119) DPL0 load(1, XDATA, add(CFA_XSP16, literal(-2)))
          CFI (cfiCond119) DPH0 load(1, XDATA, add(CFA_XSP16, literal(-1)))
          CFI (cfiCond119) CFA_SP SP+-2
          CFI (cfiCond119) CFA_XSP16 add(XSP16, 10)
          CFI Block cfiPicker120 Using cfiCommon1
          CFI (cfiPicker120) NoFunction
          CFI (cfiPicker120) Picker
        ADD       A,#0x35
        LCALL     ?Subroutine27 & 0xFFFF
??CrossCallReturnLabel_39:
        RET
          CFI EndBlock cfiCond118
          CFI EndBlock cfiCond119
          CFI EndBlock cfiPicker120

        RSEG BANKED_CODE:HUGECODE:NOROOT(0)
?Subroutine27:
          CFI Block cfiCond121 Using cfiCommon0
          CFI Function rxStartIsr
          CFI Conditional ??CrossCallReturnLabel_39, ??CrossCallReturnLabel_21
          CFI R6 load(1, XDATA, add(CFA_XSP16, literal(-16)))
          CFI VB load(1, XDATA, add(CFA_XSP16, literal(-15)))
          CFI V0 load(1, XDATA, add(CFA_XSP16, literal(-14)))
          CFI V1 load(1, XDATA, add(CFA_XSP16, literal(-13)))
          CFI V2 load(1, XDATA, add(CFA_XSP16, literal(-12)))
          CFI V3 load(1, XDATA, add(CFA_XSP16, literal(-11)))
          CFI V4 load(1, XDATA, add(CFA_XSP16, literal(-10)))
          CFI V5 load(1, XDATA, add(CFA_XSP16, literal(-9)))
          CFI V6 load(1, XDATA, add(CFA_XSP16, literal(-8)))
          CFI V7 load(1, XDATA, add(CFA_XSP16, literal(-7)))
          CFI R7 load(1, XDATA, add(CFA_XSP16, literal(-6)))
          CFI ?RET_LOW load(1, XDATA, add(CFA_XSP16, literal(-5)))
          CFI ?RET_HIGH load(1, XDATA, add(CFA_XSP16, literal(-4)))
          CFI ?BRET_EXT load(1, XDATA, add(CFA_XSP16, literal(-3)))
          CFI DPL0 load(1, XDATA, add(CFA_XSP16, literal(-2)))
          CFI DPH0 load(1, XDATA, add(CFA_XSP16, literal(-1)))
          CFI CFA_SP SP+-4
          CFI CFA_XSP16 add(XSP16, 18)
          CFI Block cfiCond122 Using cfiCommon0
          CFI (cfiCond122) Function rxFcsIsr
          CFI (cfiCond122) Conditional ??CrossCallReturnLabel_39, ??CrossCallReturnLabel_22
          CFI (cfiCond122) R6 load(1, XDATA, add(CFA_XSP16, literal(-10)))
          CFI (cfiCond122) VB load(1, XDATA, add(CFA_XSP16, literal(-9)))
          CFI (cfiCond122) V0 load(1, XDATA, add(CFA_XSP16, literal(-8)))
          CFI (cfiCond122) V1 load(1, XDATA, add(CFA_XSP16, literal(-7)))
          CFI (cfiCond122) R7 load(1, XDATA, add(CFA_XSP16, literal(-6)))
          CFI (cfiCond122) ?RET_LOW load(1, XDATA, add(CFA_XSP16, literal(-5)))
          CFI (cfiCond122) ?RET_HIGH load(1, XDATA, add(CFA_XSP16, literal(-4)))
          CFI (cfiCond122) ?BRET_EXT load(1, XDATA, add(CFA_XSP16, literal(-3)))
          CFI (cfiCond122) DPL0 load(1, XDATA, add(CFA_XSP16, literal(-2)))
          CFI (cfiCond122) DPH0 load(1, XDATA, add(CFA_XSP16, literal(-1)))
          CFI (cfiCond122) CFA_SP SP+-4
          CFI (cfiCond122) CFA_XSP16 add(XSP16, 10)
          CFI Block cfiCond123 Using cfiCommon0
          CFI (cfiCond123) Function rxStartIsr
          CFI (cfiCond123) Conditional ??CrossCallReturnLabel_38, ??CrossCallReturnLabel_13
          CFI (cfiCond123) R6 load(1, XDATA, add(CFA_XSP16, literal(-16)))
          CFI (cfiCond123) VB load(1, XDATA, add(CFA_XSP16, literal(-15)))
          CFI (cfiCond123) V0 load(1, XDATA, add(CFA_XSP16, literal(-14)))
          CFI (cfiCond123) V1 load(1, XDATA, add(CFA_XSP16, literal(-13)))
          CFI (cfiCond123) V2 load(1, XDATA, add(CFA_XSP16, literal(-12)))
          CFI (cfiCond123) V3 load(1, XDATA, add(CFA_XSP16, literal(-11)))
          CFI (cfiCond123) V4 load(1, XDATA, add(CFA_XSP16, literal(-10)))
          CFI (cfiCond123) V5 load(1, XDATA, add(CFA_XSP16, literal(-9)))
          CFI (cfiCond123) V6 load(1, XDATA, add(CFA_XSP16, literal(-8)))
          CFI (cfiCond123) V7 load(1, XDATA, add(CFA_XSP16, literal(-7)))
          CFI (cfiCond123) R7 load(1, XDATA, add(CFA_XSP16, literal(-6)))
          CFI (cfiCond123) ?RET_LOW load(1, XDATA, add(CFA_XSP16, literal(-5)))
          CFI (cfiCond123) ?RET_HIGH load(1, XDATA, add(CFA_XSP16, literal(-4)))
          CFI (cfiCond123) ?BRET_EXT load(1, XDATA, add(CFA_XSP16, literal(-3)))
          CFI (cfiCond123) DPL0 load(1, XDATA, add(CFA_XSP16, literal(-2)))
          CFI (cfiCond123) DPH0 load(1, XDATA, add(CFA_XSP16, literal(-1)))
          CFI (cfiCond123) CFA_SP SP+-4
          CFI (cfiCond123) CFA_XSP16 add(XSP16, 18)
          CFI Block cfiCond124 Using cfiCommon0
          CFI (cfiCond124) Function rxFcsIsr
          CFI (cfiCond124) Conditional ??CrossCallReturnLabel_38, ??CrossCallReturnLabel_14
          CFI (cfiCond124) R6 load(1, XDATA, add(CFA_XSP16, literal(-10)))
          CFI (cfiCond124) VB load(1, XDATA, add(CFA_XSP16, literal(-9)))
          CFI (cfiCond124) V0 load(1, XDATA, add(CFA_XSP16, literal(-8)))
          CFI (cfiCond124) V1 load(1, XDATA, add(CFA_XSP16, literal(-7)))
          CFI (cfiCond124) R7 load(1, XDATA, add(CFA_XSP16, literal(-6)))
          CFI (cfiCond124) ?RET_LOW load(1, XDATA, add(CFA_XSP16, literal(-5)))
          CFI (cfiCond124) ?RET_HIGH load(1, XDATA, add(CFA_XSP16, literal(-4)))
          CFI (cfiCond124) ?BRET_EXT load(1, XDATA, add(CFA_XSP16, literal(-3)))
          CFI (cfiCond124) DPL0 load(1, XDATA, add(CFA_XSP16, literal(-2)))
          CFI (cfiCond124) DPH0 load(1, XDATA, add(CFA_XSP16, literal(-1)))
          CFI (cfiCond124) CFA_SP SP+-4
          CFI (cfiCond124) CFA_XSP16 add(XSP16, 10)
          CFI Block cfiPicker125 Using cfiCommon1
          CFI (cfiPicker125) NoFunction
          CFI (cfiPicker125) Picker
        MOV       R0,A
        INC       DPTR
        MOVX      A,@DPTR
        ADDC      A,#0x0
        MOV       R1,A
        LCALL     ??Subroutine35_0 & 0xFFFF
??CrossCallReturnLabel_63:
        RET
          CFI EndBlock cfiCond121
          CFI EndBlock cfiCond122
          CFI EndBlock cfiCond123
          CFI EndBlock cfiCond124
          CFI EndBlock cfiPicker125

        RSEG BANKED_CODE:HUGECODE:NOROOT(0)
?Subroutine28:
          CFI Block cfiCond126 Using cfiCommon0
          CFI Function rxAddrIsr
          CFI Conditional ??CrossCallReturnLabel_64
          CFI R6 load(1, XDATA, add(CFA_XSP16, literal(-10)))
          CFI VB load(1, XDATA, add(CFA_XSP16, literal(-9)))
          CFI V0 load(1, XDATA, add(CFA_XSP16, literal(-8)))
          CFI V1 load(1, XDATA, add(CFA_XSP16, literal(-7)))
          CFI R7 load(1, XDATA, add(CFA_XSP16, literal(-6)))
          CFI ?RET_LOW load(1, XDATA, add(CFA_XSP16, literal(-5)))
          CFI ?RET_HIGH load(1, XDATA, add(CFA_XSP16, literal(-4)))
          CFI ?BRET_EXT load(1, XDATA, add(CFA_XSP16, literal(-3)))
          CFI DPL0 load(1, XDATA, add(CFA_XSP16, literal(-2)))
          CFI DPH0 load(1, XDATA, add(CFA_XSP16, literal(-1)))
          CFI CFA_SP SP+-2
          CFI CFA_XSP16 add(XSP16, 30)
          CFI Block cfiCond127 Using cfiCommon0
          CFI (cfiCond127) Function rxAddrIsr
          CFI (cfiCond127) Conditional ??CrossCallReturnLabel_65, ??CrossCallReturnLabel_19
          CFI (cfiCond127) R6 load(1, XDATA, add(CFA_XSP16, literal(-10)))
          CFI (cfiCond127) VB load(1, XDATA, add(CFA_XSP16, literal(-9)))
          CFI (cfiCond127) V0 load(1, XDATA, add(CFA_XSP16, literal(-8)))
          CFI (cfiCond127) V1 load(1, XDATA, add(CFA_XSP16, literal(-7)))
          CFI (cfiCond127) R7 load(1, XDATA, add(CFA_XSP16, literal(-6)))
          CFI (cfiCond127) ?RET_LOW load(1, XDATA, add(CFA_XSP16, literal(-5)))
          CFI (cfiCond127) ?RET_HIGH load(1, XDATA, add(CFA_XSP16, literal(-4)))
          CFI (cfiCond127) ?BRET_EXT load(1, XDATA, add(CFA_XSP16, literal(-3)))
          CFI (cfiCond127) DPL0 load(1, XDATA, add(CFA_XSP16, literal(-2)))
          CFI (cfiCond127) DPH0 load(1, XDATA, add(CFA_XSP16, literal(-1)))
          CFI (cfiCond127) CFA_SP SP+-4
          CFI (cfiCond127) CFA_XSP16 add(XSP16, 30)
          CFI Block cfiCond128 Using cfiCommon0
          CFI (cfiCond128) Function rxAddrIsr
          CFI (cfiCond128) Conditional ??CrossCallReturnLabel_65, ??CrossCallReturnLabel_20
          CFI (cfiCond128) R6 load(1, XDATA, add(CFA_XSP16, literal(-10)))
          CFI (cfiCond128) VB load(1, XDATA, add(CFA_XSP16, literal(-9)))
          CFI (cfiCond128) V0 load(1, XDATA, add(CFA_XSP16, literal(-8)))
          CFI (cfiCond128) V1 load(1, XDATA, add(CFA_XSP16, literal(-7)))
          CFI (cfiCond128) R7 load(1, XDATA, add(CFA_XSP16, literal(-6)))
          CFI (cfiCond128) ?RET_LOW load(1, XDATA, add(CFA_XSP16, literal(-5)))
          CFI (cfiCond128) ?RET_HIGH load(1, XDATA, add(CFA_XSP16, literal(-4)))
          CFI (cfiCond128) ?BRET_EXT load(1, XDATA, add(CFA_XSP16, literal(-3)))
          CFI (cfiCond128) DPL0 load(1, XDATA, add(CFA_XSP16, literal(-2)))
          CFI (cfiCond128) DPH0 load(1, XDATA, add(CFA_XSP16, literal(-1)))
          CFI (cfiCond128) CFA_SP SP+-4
          CFI (cfiCond128) CFA_XSP16 add(XSP16, 30)
          CFI Block cfiPicker129 Using cfiCommon1
          CFI (cfiPicker129) NoFunction
          CFI (cfiPicker129) Picker
        MOV       R0,A
          CFI EndBlock cfiCond126
          CFI EndBlock cfiCond127
          CFI EndBlock cfiCond128
          CFI EndBlock cfiPicker129
        REQUIRE ??Subroutine35_0
        ; // Fall through to label ??Subroutine35_0

        RSEG BANKED_CODE:HUGECODE:NOROOT(0)
??Subroutine35_0:
          CFI Block cfiCond130 Using cfiCommon0
          CFI Function rxStartIsr
          CFI Conditional ??CrossCallReturnLabel_61
          CFI R6 load(1, XDATA, add(CFA_XSP16, literal(-16)))
          CFI VB load(1, XDATA, add(CFA_XSP16, literal(-15)))
          CFI V0 load(1, XDATA, add(CFA_XSP16, literal(-14)))
          CFI V1 load(1, XDATA, add(CFA_XSP16, literal(-13)))
          CFI V2 load(1, XDATA, add(CFA_XSP16, literal(-12)))
          CFI V3 load(1, XDATA, add(CFA_XSP16, literal(-11)))
          CFI V4 load(1, XDATA, add(CFA_XSP16, literal(-10)))
          CFI V5 load(1, XDATA, add(CFA_XSP16, literal(-9)))
          CFI V6 load(1, XDATA, add(CFA_XSP16, literal(-8)))
          CFI V7 load(1, XDATA, add(CFA_XSP16, literal(-7)))
          CFI R7 load(1, XDATA, add(CFA_XSP16, literal(-6)))
          CFI ?RET_LOW load(1, XDATA, add(CFA_XSP16, literal(-5)))
