///////////////////////////////////////////////////////////////////////////////
//
// IAR C/C++ Compiler V10.30.1.6000 for 8051              22/Aug/2019  20:42:41
// Copyright 2004-2018 IAR Systems AB.
// PC-locked license - IAR Embedded Workbench for 8051
//
//    Core               =  plain
//    Code model         =  banked
//    Data model         =  large
//    Calling convention =  xdata reentrant
//    Constant location  =  data_rom
//    Dptr setup         =  1,16
//                          
//    Source file        =  
//        E:\gitRepository\OldPeopleHome\zigbee\ZStack-CC2530-r200\Components\stack\zdo\ZDProfile.c
//    Command line       =  
//        -f C:\Users\VULCAN\AppData\Local\Temp\EW80.tmp
//        (E:\gitRepository\OldPeopleHome\zigbee\ZStack-CC2530-r200\Components\stack\zdo\ZDProfile.c
//        -D ZIGBEEPRO -D ZTOOL_P1 -D MT_TASK -D MT_SYS_FUNC -D MT_ZDO_FUNC -D
//        LCD_SUPPORTED=DEBUG -D SAPP_ZSTACK -lC
//        E:\gitRepository\OldPeopleHome\zigbee\ZStack-CC2530-r200\Projects\SappWsn\RouterEB\List
//        -lA
//        E:\gitRepository\OldPeopleHome\zigbee\ZStack-CC2530-r200\Projects\SappWsn\RouterEB\List
//        --diag_suppress Pe001,Pa010 -o
//        E:\gitRepository\OldPeopleHome\zigbee\ZStack-CC2530-r200\Projects\SappWsn\RouterEB\Obj
//        -e --debug --core=plain --dptr=16,1 --data_model=large
//        --code_model=banked --calling_convention=xdata_reentrant
//        --place_constants=data_rom --nr_virtual_regs 8 -f
//        E:\gitRepository\OldPeopleHome\zigbee\ZStack-CC2530-r200\Projects\SappWsn\..\zstack\Tools\CC2530DB\f8wRouter.cfg
//        (-DCPU32MHZ -DROOT=__near_func -DMAC_CFG_APP_PENDING_QUEUE=TRUE
//        -DMAC_CFG_TX_DATA_MAX=5 -DMAC_CFG_TX_MAX=8 -DMAC_CFG_RX_MAX=5
//        -DRTR_NWK) -f
//        E:\gitRepository\OldPeopleHome\zigbee\ZStack-CC2530-r200\Projects\SappWsn\..\zstack\Tools\CC2530DB\f8wConfig.cfg
//        (-DZIGBEEPRO -DSECURE=0 -DZG_SECURE_DYNAMIC=0 -DREFLECTOR
//        -DDEFAULT_CHANLIST=0x00000800 -DZDAPP_CONFIG_PAN_ID=0x0057
//        -DNWK_START_DELAY=100 -DEXTENDED_JOINING_RANDOM_MASK=0x007F
//        -DBEACON_REQUEST_DELAY=100 -DBEACON_REQ_DELAY_MASK=0x00FF
//        -DLINK_STATUS_JITTER_MASK=0x007F -DROUTE_EXPIRY_TIME=30
//        -DAPSC_ACK_WAIT_DURATION_POLLED=3000 -DNWK_INDIRECT_MSG_TIMEOUT=7
//        -DMAX_RREQ_ENTRIES=8 -DAPSC_MAX_FRAME_RETRIES=3
//        -DNWK_MAX_DATA_RETRIES=2 -DMAX_POLL_FAILURE_RETRIES=2 -DMAX_BCAST=9
//        -DAPS_MAX_GROUPS=16 -DMAX_RTG_ENTRIES=40 -DNWK_MAX_BINDING_ENTRIES=4
//        -DMAX_BINDING_CLUSTER_IDS=4 "-DDEFAULT_KEY={0x01, 0x03, 0x05, 0x07,
//        0x09, 0x0B, 0x0D, 0x0F, 0x00, 0x02, 0x04, 0x06, 0x08, 0x0A, 0x0C,
//        0x0D}" -DMAC_MAX_FRAME_SIZE=116 -DZDNWKMGR_MIN_TRANSMISSIONS=20
//        "-DCONST=const __code" -DGENERIC=__generic -DRFD_RCVC_ALWAYS_ON=FALSE
//        -DPOLL_RATE=1000 -DQUEUED_POLL_RATE=100 -DRESPONSE_POLL_RATE=100
//        -DREJOIN_POLL_RATE=440) -I
//        E:\gitRepository\OldPeopleHome\zigbee\ZStack-CC2530-r200\Projects\SappWsn\
//        -I
//        E:\gitRepository\OldPeopleHome\zigbee\ZStack-CC2530-r200\Projects\SappWsn\Source\
//        -I
//        E:\gitRepository\OldPeopleHome\zigbee\ZStack-CC2530-r200\Projects\SappWsn\..\zstack\ZMain\TI2530DB\
//        -I
//        E:\gitRepository\OldPeopleHome\zigbee\ZStack-CC2530-r200\Projects\SappWsn\..\..\Components\hal\include\
//        -I
//        E:\gitRepository\OldPeopleHome\zigbee\ZStack-CC2530-r200\Projects\SappWsn\..\..\Components\hal\target\CC2530EB\
//        -I
//        E:\gitRepository\OldPeopleHome\zigbee\ZStack-CC2530-r200\Projects\SappWsn\..\..\Components\mac\include\
//        -I
//        E:\gitRepository\OldPeopleHome\zigbee\ZStack-CC2530-r200\Projects\SappWsn\..\..\Components\mac\high_level\
//        -I
//        E:\gitRepository\OldPeopleHome\zigbee\ZStack-CC2530-r200\Projects\SappWsn\..\..\Components\mac\low_level\srf04\
//        -I
//        E:\gitRepository\OldPeopleHome\zigbee\ZStack-CC2530-r200\Projects\SappWsn\..\..\Components\mac\low_level\srf04\single_chip\
//        -I
//        E:\gitRepository\OldPeopleHome\zigbee\ZStack-CC2530-r200\Projects\SappWsn\..\..\Components\mt\
//        -I
//        E:\gitRepository\OldPeopleHome\zigbee\ZStack-CC2530-r200\Projects\SappWsn\..\..\Components\osal\include\
//        -I
//        E:\gitRepository\OldPeopleHome\zigbee\ZStack-CC2530-r200\Projects\SappWsn\..\..\Components\services\saddr\
//        -I
//        E:\gitRepository\OldPeopleHome\zigbee\ZStack-CC2530-r200\Projects\SappWsn\..\..\Components\services\sdata\
//        -I
//        E:\gitRepository\OldPeopleHome\zigbee\ZStack-CC2530-r200\Projects\SappWsn\..\..\Components\stack\af\
//        -I
//        E:\gitRepository\OldPeopleHome\zigbee\ZStack-CC2530-r200\Projects\SappWsn\..\..\Components\stack\nwk\
//        -I
//        E:\gitRepository\OldPeopleHome\zigbee\ZStack-CC2530-r200\Projects\SappWsn\..\..\Components\stack\sapi\
//        -I
//        E:\gitRepository\OldPeopleHome\zigbee\ZStack-CC2530-r200\Projects\SappWsn\..\..\Components\stack\sec\
//        -I
//        E:\gitRepository\OldPeopleHome\zigbee\ZStack-CC2530-r200\Projects\SappWsn\..\..\Components\stack\sys\
//        -I
//        E:\gitRepository\OldPeopleHome\zigbee\ZStack-CC2530-r200\Projects\SappWsn\..\..\Components\stack\zdo\
//        -I
//        E:\gitRepository\OldPeopleHome\zigbee\ZStack-CC2530-r200\Projects\SappWsn\..\..\Components\zmac\
//        -I
//        E:\gitRepository\OldPeopleHome\zigbee\ZStack-CC2530-r200\Projects\SappWsn\..\..\Components\zmac\f8w\
//        -Ohz --require_prototypes --no_code_motion)
//    Locale             =  Chinese (Simplified)_CHN.936
//    List file          =  
//        E:\gitRepository\OldPeopleHome\zigbee\ZStack-CC2530-r200\Projects\SappWsn\RouterEB\List\ZDProfile.s51
//
///////////////////////////////////////////////////////////////////////////////

        NAME ZDProfile

        RTMODEL "__SystemLibrary", "CLib"
        RTMODEL "__calling_convention", "xdata_reentrant"
        RTMODEL "__code_model", "banked"
        RTMODEL "__core", "plain"
        RTMODEL "__data_model", "large"
        RTMODEL "__dptr_size", "16"
        RTMODEL "__extended_stack", "disabled"
        RTMODEL "__location_for_constants", "data"
        RTMODEL "__number_of_dptrs", "1"
        RTMODEL "__register_banks", "*"
        RTMODEL "__rt_version", "1"

        RSEG DOVERLAY:DATA:NOROOT(0)
        RSEG IOVERLAY:IDATA:NOROOT(0)
        RSEG ISTACK:IDATA:NOROOT(0)
        RSEG PSTACK:XDATA:NOROOT(0)
        RSEG XSTACK:XDATA:NOROOT(0)

        EXTERN ?V0
        EXTERN ?V1
        EXTERN ?V2
        EXTERN ?V3
        EXTERN ?V4
        EXTERN ?V5
        EXTERN ?V6
        EXTERN ?V7
        EXTERN ?ALLOC_XSTACK8
        EXTERN ?BANKED_ENTER_XDATA
        EXTERN ?BANKED_LEAVE_XDATA
        EXTERN ?BDISPATCH
        EXTERN ?CALL_IND
        EXTERN ?DEALLOC_XSTACK8
        EXTERN ?PUSH_XSTACK8_X_FOUR
        EXTERN ?PUSH_XSTACK8_X_TWO
        EXTERN ?PUSH_XSTACK_I_ONE
        EXTERN ?PUSH_XSTACK_I_THREE
        EXTERN ?PUSH_XSTACK_I_TWO
        EXTERN ?S_SHL
        EXTERN ?US_SHR
        EXTERN ?XSP
        EXTERN ?XSTACK_DISP0_8
        EXTERN ?XSTACK_DISP101_8
        EXTERN ?XSTACK_DISP102_8
        EXTERN __INIT_XDATA_I
        EXTERN __INIT_XDATA_Z

        PUBLIC `??ZDO_RegisterForZDOMsg::?relay`
        FUNCTION `??ZDO_RegisterForZDOMsg::?relay`,0203H
        PUBLIC `??ZDO_RemoveRegisteredCB::?relay`
        FUNCTION `??ZDO_RemoveRegisteredCB::?relay`,0203H
        PUBLIC `??ZDO_SendMsgCBs::?relay`
        FUNCTION `??ZDO_SendMsgCBs::?relay`,0203H
        PUBLIC `??ZDP_BindUnbindReq::?relay`
        FUNCTION `??ZDP_BindUnbindReq::?relay`,0203H
        PUBLIC `??ZDP_DeviceAnnce::?relay`
        FUNCTION `??ZDP_DeviceAnnce::?relay`,0203H
        PUBLIC `??ZDP_EPRsp::?relay`
        FUNCTION `??ZDP_EPRsp::?relay`,0203H
        PUBLIC `??ZDP_EndDeviceBindReq::?relay`
        FUNCTION `??ZDP_EndDeviceBindReq::?relay`,0203H
        PUBLIC `??ZDP_GenericRsp::?relay`
        FUNCTION `??ZDP_GenericRsp::?relay`,0203H
        PUBLIC `??ZDP_IEEEAddrReq::?relay`
        FUNCTION `??ZDP_IEEEAddrReq::?relay`,0203H
        PUBLIC `??ZDP_IncomingData::?relay`
        FUNCTION `??ZDP_IncomingData::?relay`,0203H
        PUBLIC `??ZDP_MatchDescReq::?relay`
        FUNCTION `??ZDP_MatchDescReq::?relay`,0203H
        PUBLIC `??ZDP_MgmtBindRsp::?relay`
        FUNCTION `??ZDP_MgmtBindRsp::?relay`,0203H
        PUBLIC `??ZDP_MgmtDirectJoinReq::?relay`
        FUNCTION `??ZDP_MgmtDirectJoinReq::?relay`,0203H
        PUBLIC `??ZDP_MgmtLeaveReq::?relay`
        FUNCTION `??ZDP_MgmtLeaveReq::?relay`,0203H
        PUBLIC `??ZDP_MgmtLqiRsp::?relay`
        FUNCTION `??ZDP_MgmtLqiRsp::?relay`,0203H
        PUBLIC `??ZDP_MgmtNwkDiscReq::?relay`
        FUNCTION `??ZDP_MgmtNwkDiscReq::?relay`,0203H
        PUBLIC `??ZDP_MgmtNwkDiscRsp::?relay`
        FUNCTION `??ZDP_MgmtNwkDiscRsp::?relay`,0203H
        PUBLIC `??ZDP_MgmtNwkUpdateNotify::?relay`
        FUNCTION `??ZDP_MgmtNwkUpdateNotify::?relay`,0203H
        PUBLIC `??ZDP_MgmtNwkUpdateReq::?relay`
        FUNCTION `??ZDP_MgmtNwkUpdateReq::?relay`,0203H
        PUBLIC `??ZDP_MgmtPermitJoinReq::?relay`
        FUNCTION `??ZDP_MgmtPermitJoinReq::?relay`,0203H
        PUBLIC `??ZDP_MgmtRtgRsp::?relay`
        FUNCTION `??ZDP_MgmtRtgRsp::?relay`,0203H
        PUBLIC `??ZDP_NWKAddrOfInterestReq::?relay`
        FUNCTION `??ZDP_NWKAddrOfInterestReq::?relay`,0203H
        PUBLIC `??ZDP_NodeDescMsg::?relay`
        FUNCTION `??ZDP_NodeDescMsg::?relay`,0203H
        PUBLIC `??ZDP_NwkAddrReq::?relay`
        FUNCTION `??ZDP_NwkAddrReq::?relay`,0203H
        PUBLIC `??ZDP_PowerDescMsg::?relay`
        FUNCTION `??ZDP_PowerDescMsg::?relay`,0203H
        PUBLIC `??ZDP_SendData::?relay`
        FUNCTION `??ZDP_SendData::?relay`,0203H
        PUBLIC `??ZDP_ServerDiscReq::?relay`
        FUNCTION `??ZDP_ServerDiscReq::?relay`,0203H
        PUBLIC `??ZDP_ServerDiscRsp::?relay`
        FUNCTION `??ZDP_ServerDiscRsp::?relay`,0203H
        PUBLIC `??ZDP_SimpleDescMsg::?relay`
        FUNCTION `??ZDP_SimpleDescMsg::?relay`,0203H
        PUBLIC `??ZDP_SimpleDescReq::?relay`
        FUNCTION `??ZDP_SimpleDescReq::?relay`,0203H
        PUBLIC `??ZDP_UserDescRsp::?relay`
        FUNCTION `??ZDP_UserDescRsp::?relay`,0203H
        PUBLIC `??ZDP_UserDescSet::?relay`
        FUNCTION `??ZDP_UserDescSet::?relay`,0203H
        FUNCTION `??fillAndSend::?relay`,0203H
        PUBLIC `??zdpProcessAddrReq::?relay`
        FUNCTION `??zdpProcessAddrReq::?relay`,0203H
        PUBLIC ZDO_RegisterForZDOMsg
        FUNCTION ZDO_RegisterForZDOMsg,0a1203H
        ARGFRAME XSTACK, 0, STACK
        LOCFRAME ISTACK, 1, STACK
        LOCFRAME XSTACK, 14, STACK
        PUBLIC ZDO_RemoveRegisteredCB
        FUNCTION ZDO_RemoveRegisteredCB,021203H
        ARGFRAME XSTACK, 0, STACK
        LOCFRAME XSTACK, 9, STACK
        PUBLIC ZDO_SendMsgCBs
        FUNCTION ZDO_SendMsgCBs,0a1203H
        ARGFRAME XSTACK, 31, STACK
        ARGFRAME IOVERLAY, 0, STATIC
        ARGFRAME DOVERLAY, 0, STATIC
        LOCFRAME XSTACK, 19, STACK
        PUBLIC ZDP_AF_ENDPOINT
        PUBLIC ZDP_BindUnbindReq
        FUNCTION ZDP_BindUnbindReq,0a1203H
        ARGFRAME XSTACK, 8, STACK
        LOCFRAME ISTACK, 1, STACK
        LOCFRAME XSTACK, 18, STACK
        PUBLIC ZDP_DeviceAnnce
        FUNCTION ZDP_DeviceAnnce,0a1203H
        ARGFRAME XSTACK, 1, STACK
        LOCFRAME ISTACK, 1, STACK
        LOCFRAME XSTACK, 21, STACK
        PUBLIC ZDP_EPRsp
        FUNCTION ZDP_EPRsp,0a1203H
        ARGFRAME XSTACK, 7, STACK
        LOCFRAME ISTACK, 1, STACK
        LOCFRAME XSTACK, 20, STACK
        PUBLIC ZDP_EndDeviceBindReq
        FUNCTION ZDP_EndDeviceBindReq,0a1203H
        ARGFRAME XSTACK, 9, STACK
        LOCFRAME ISTACK, 1, STACK
        LOCFRAME XSTACK, 20, STACK
        PUBLIC ZDP_GenericRsp
        FUNCTION ZDP_GenericRsp,021203H
        ARGFRAME XSTACK, 4, STACK
        LOCFRAME ISTACK, 1, STACK
        LOCFRAME XSTACK, 12, STACK
        PUBLIC ZDP_IEEEAddrReq
        FUNCTION ZDP_IEEEAddrReq,0a1203H
        ARGFRAME XSTACK, 0, STACK
        LOCFRAME ISTACK, 1, STACK
        LOCFRAME XSTACK, 21, STACK
        PUBLIC ZDP_IncomingData
        FUNCTION ZDP_IncomingData,0a1203H
        ARGFRAME XSTACK, 0, STACK
        LOCFRAME ISTACK, 1, STACK
        LOCFRAME XSTACK, 31, STACK
        PUBLIC ZDP_MatchDescReq
        FUNCTION ZDP_MatchDescReq,0a1203H
        ARGFRAME XSTACK, 8, STACK
        LOCFRAME ISTACK, 1, STACK
        LOCFRAME XSTACK, 16, STACK
        PUBLIC ZDP_MgmtBindRsp
        FUNCTION ZDP_MgmtBindRsp,0a1203H
        ARGFRAME XSTACK, 5, STACK
        LOCFRAME ISTACK, 1, STACK
        LOCFRAME XSTACK, 22, STACK
        PUBLIC ZDP_MgmtDirectJoinReq
        FUNCTION ZDP_MgmtDirectJoinReq,0a1203H
        ARGFRAME XSTACK, 1, STACK
        LOCFRAME ISTACK, 1, STACK
        LOCFRAME XSTACK, 14, STACK
        PUBLIC ZDP_MgmtLeaveReq
        FUNCTION ZDP_MgmtLeaveReq,0a1203H
        ARGFRAME XSTACK, 2, STACK
        LOCFRAME XSTACK, 14, STACK
        PUBLIC ZDP_MgmtLqiRsp
        FUNCTION ZDP_MgmtLqiRsp,0a1203H
        ARGFRAME XSTACK, 5, STACK
        LOCFRAME ISTACK, 1, STACK
        LOCFRAME XSTACK, 22, STACK
        PUBLIC ZDP_MgmtNwkDiscReq
        FUNCTION ZDP_MgmtNwkDiscReq,0a1203H
        ARGFRAME XSTACK, 4, STACK
        LOCFRAME ISTACK, 1, STACK
        LOCFRAME XSTACK, 16, STACK
        PUBLIC ZDP_MgmtNwkDiscRsp
        FUNCTION ZDP_MgmtNwkDiscRsp,0a1203H
        ARGFRAME XSTACK, 5, STACK
        LOCFRAME ISTACK, 1, STACK
        LOCFRAME XSTACK, 22, STACK
        PUBLIC ZDP_MgmtNwkUpdateNotify
        FUNCTION ZDP_MgmtNwkUpdateNotify,0a1203H
        ARGFRAME XSTACK, 12, STACK
        LOCFRAME ISTACK, 1, STACK
        LOCFRAME XSTACK, 21, STACK
        PUBLIC ZDP_MgmtNwkUpdateReq
        FUNCTION ZDP_MgmtNwkUpdateReq,0a1203H
        ARGFRAME XSTACK, 6, STACK
        LOCFRAME ISTACK, 1, STACK
        LOCFRAME XSTACK, 18, STACK
        PUBLIC ZDP_MgmtPermitJoinReq
        FUNCTION ZDP_MgmtPermitJoinReq,0a1203H
        ARGFRAME XSTACK, 0, STACK
        LOCFRAME ISTACK, 1, STACK
        LOCFRAME XSTACK, 12, STACK
        PUBLIC ZDP_MgmtRtgRsp
        FUNCTION ZDP_MgmtRtgRsp,0a1203H
        ARGFRAME XSTACK, 5, STACK
        LOCFRAME ISTACK, 1, STACK
        LOCFRAME XSTACK, 21, STACK
        PUBLIC ZDP_NWKAddrOfInterestReq
        FUNCTION ZDP_NWKAddrOfInterestReq,0a1203H
        ARGFRAME XSTACK, 1, STACK
        LOCFRAME ISTACK, 1, STACK
        LOCFRAME XSTACK, 12, STACK
        PUBLIC ZDP_NodeDescMsg
        FUNCTION ZDP_NodeDescMsg,0a1203H
        ARGFRAME XSTACK, 2, STACK
        LOCFRAME ISTACK, 1, STACK
        LOCFRAME XSTACK, 12, STACK
        PUBLIC ZDP_NwkAddrReq
        FUNCTION ZDP_NwkAddrReq,0a1203H
        ARGFRAME XSTACK, 0, STACK
        LOCFRAME ISTACK, 1, STACK
        LOCFRAME XSTACK, 23, STACK
        PUBLIC ZDP_PowerDescMsg
        FUNCTION ZDP_PowerDescMsg,0a1203H
        ARGFRAME XSTACK, 2, STACK
        LOCFRAME ISTACK, 1, STACK
        LOCFRAME XSTACK, 12, STACK
        PUBLIC ZDP_SendData
        FUNCTION ZDP_SendData,0a1203H
        ARGFRAME XSTACK, 5, STACK
        LOCFRAME ISTACK, 1, STACK
        LOCFRAME XSTACK, 14, STACK
        PUBLIC ZDP_ServerDiscReq
        FUNCTION ZDP_ServerDiscReq,0a1203H
        ARGFRAME XSTACK, 0, STACK
        LOCFRAME ISTACK, 1, STACK
        LOCFRAME XSTACK, 21, STACK
        PUBLIC ZDP_ServerDiscRsp
        FUNCTION ZDP_ServerDiscRsp,0a1203H
        ARGFRAME XSTACK, 4, STACK
        LOCFRAME ISTACK, 1, STACK
        LOCFRAME XSTACK, 13, STACK
        PUBLIC ZDP_SimpleDescMsg
        FUNCTION ZDP_SimpleDescMsg,0a1203H
        ARGFRAME XSTACK, 0, STACK
        LOCFRAME ISTACK, 1, STACK
        LOCFRAME XSTACK, 17, STACK
        PUBLIC ZDP_SimpleDescReq
        FUNCTION ZDP_SimpleDescReq,0a1203H
        ARGFRAME XSTACK, 1, STACK
        LOCFRAME ISTACK, 1, STACK
        LOCFRAME XSTACK, 12, STACK
        PUBLIC ZDP_TransID
        PUBLIC ZDP_TxOptions
        PUBLIC ZDP_UserDescRsp
        FUNCTION ZDP_UserDescRsp,0a1203H
        ARGFRAME XSTACK, 3, STACK
        LOCFRAME ISTACK, 1, STACK
        LOCFRAME XSTACK, 20, STACK
        PUBLIC ZDP_UserDescSet
        FUNCTION ZDP_UserDescSet,0a1203H
        ARGFRAME XSTACK, 2, STACK
        LOCFRAME ISTACK, 1, STACK
        LOCFRAME XSTACK, 17, STACK
        FUNCTION fillAndSend,0a1203H
        ARGFRAME XSTACK, 33, STACK
        ARGFRAME IOVERLAY, 0, STATIC
        ARGFRAME DOVERLAY, 0, STATIC
        LOCFRAME ISTACK, 1, STACK
        LOCFRAME XSTACK, 34, STACK
        PUBLIC zdoMsgCBs
        PUBLIC zdpMsgProcs
        PUBLIC zdpProcessAddrReq
        FUNCTION zdpProcessAddrReq,0a1603H
        ARGFRAME XSTACK, 0, STACK
        LOCFRAME ISTACK, 1, STACK
        LOCFRAME XSTACK, 33, STACK
        
          CFI Names cfiNames0
          CFI StackFrame CFA_SP SP IDATA
          CFI StackFrame CFA_PSP16 PSP16 XDATA
          CFI StackFrame CFA_XSP16 XSP16 XDATA
          CFI StaticOverlayFrame CFA_IOVERLAY IOVERLAY
          CFI StaticOverlayFrame CFA_DOVERLAY DOVERLAY
          CFI Resource `PSW.CY`:1, `B.BR0`:1, `B.BR1`:1, `B.BR2`:1, `B.BR3`:1
          CFI Resource `B.BR4`:1, `B.BR5`:1, `B.BR6`:1, `B.BR7`:1, `VB.BR8`:1
          CFI Resource `VB.BR9`:1, `VB.BR10`:1, `VB.BR11`:1, `VB.BR12`:1
          CFI Resource `VB.BR13`:1, `VB.BR14`:1, `VB.BR15`:1, VB:8, B:8, A:8
          CFI Resource PSW:8, DPL0:8, DPH0:8, R0:8, R1:8, R2:8, R3:8, R4:8, R5:8
          CFI Resource R6:8, R7:8, V0:8, V1:8, V2:8, V3:8, V4:8, V5:8, V6:8, V7:8
          CFI Resource SP:8, PSPH:8, PSPL:8, PSP16:16, XSPH:8, XSPL:8, XSP16:16
          CFI VirtualResource ?RET:24
          CFI Resource ?BRET_EXT:8
          CFI VirtualResource ?RET_HIGH:8, ?RET_LOW:8
          CFI ResourceParts PSP16 PSPH, PSPL
          CFI ResourceParts XSP16 XSPH, XSPL
          CFI ResourceParts ?RET ?BRET_EXT, ?RET_HIGH, ?RET_LOW
          CFI EndNames cfiNames0
        
          CFI Common cfiCommon0 Using cfiNames0
          CFI CodeAlign 1
          CFI DataAlign -1
          CFI ReturnAddress ?RET CODE
          CFI CFA_DOVERLAY Used
          CFI CFA_IOVERLAY Used
          CFI CFA_SP SP+-3
          CFI CFA_PSP16 PSP16+0
          CFI CFA_XSP16 XSP16+0
          CFI `PSW.CY` SameValue
          CFI `B.BR0` SameValue
          CFI `B.BR1` SameValue
          CFI `B.BR2` SameValue
          CFI `B.BR3` SameValue
          CFI `B.BR4` SameValue
          CFI `B.BR5` SameValue
          CFI `B.BR6` SameValue
          CFI `B.BR7` SameValue
          CFI `VB.BR8` SameValue
          CFI `VB.BR9` SameValue
          CFI `VB.BR10` SameValue
          CFI `VB.BR11` SameValue
          CFI `VB.BR12` SameValue
          CFI `VB.BR13` SameValue
          CFI `VB.BR14` SameValue
          CFI `VB.BR15` SameValue
          CFI VB SameValue
          CFI B Undefined
          CFI A Undefined
          CFI PSW SameValue
          CFI DPL0 SameValue
          CFI DPH0 SameValue
          CFI R0 Undefined
          CFI R1 Undefined
          CFI R2 Undefined
          CFI R3 Undefined
          CFI R4 Undefined
          CFI R5 Undefined
          CFI R6 SameValue
          CFI R7 SameValue
          CFI V0 SameValue
          CFI V1 SameValue
          CFI V2 SameValue
          CFI V3 SameValue
          CFI V4 SameValue
          CFI V5 SameValue
          CFI V6 SameValue
          CFI V7 SameValue
          CFI PSPH Undefined
          CFI PSPL Undefined
          CFI XSPH Undefined
          CFI XSPL Undefined
          CFI ?RET Concat
          CFI ?BRET_EXT Frame(CFA_SP, 3)
          CFI ?RET_HIGH Frame(CFA_SP, 2)
          CFI ?RET_LOW Frame(CFA_SP, 1)
          CFI EndCommon cfiCommon0
        
        
          CFI Common cfiCommon1 Using cfiNames0
          CFI CodeAlign 1
          CFI DataAlign -1
          CFI ReturnAddress ?RET CODE
          CFI CFA_DOVERLAY Used
          CFI CFA_IOVERLAY Used
          CFI CFA_SP SP+-2
          CFI CFA_PSP16 PSP16+0
          CFI CFA_XSP16 XSP16+0
          CFI `PSW.CY` SameValue
          CFI `B.BR0` SameValue
          CFI `B.BR1` SameValue
          CFI `B.BR2` SameValue
          CFI `B.BR3` SameValue
          CFI `B.BR4` SameValue
          CFI `B.BR5` SameValue
          CFI `B.BR6` SameValue
          CFI `B.BR7` SameValue
          CFI `VB.BR8` SameValue
          CFI `VB.BR9` SameValue
          CFI `VB.BR10` SameValue
          CFI `VB.BR11` SameValue
          CFI `VB.BR12` SameValue
          CFI `VB.BR13` SameValue
          CFI `VB.BR14` SameValue
          CFI `VB.BR15` SameValue
          CFI VB SameValue
          CFI B SameValue
          CFI A SameValue
          CFI PSW SameValue
          CFI DPL0 SameValue
          CFI DPH0 SameValue
          CFI R0 SameValue
          CFI R1 SameValue
          CFI R2 SameValue
          CFI R3 SameValue
          CFI R4 SameValue
          CFI R5 SameValue
          CFI R6 SameValue
          CFI R7 SameValue
          CFI V0 SameValue
          CFI V1 SameValue
          CFI V2 SameValue
          CFI V3 SameValue
          CFI V4 SameValue
          CFI V5 SameValue
          CFI V6 SameValue
          CFI V7 SameValue
          CFI PSPH Undefined
          CFI PSPL Undefined
          CFI XSPH Undefined
          CFI XSPL Undefined
          CFI ?RET Concat
          CFI ?BRET_EXT SameValue
          CFI ?RET_HIGH Frame(CFA_SP, 2)
          CFI ?RET_LOW Frame(CFA_SP, 1)
          CFI EndCommon cfiCommon1
        
AF_DataRequest      SYMBOL "AF_DataRequest"
`??AF_DataRequest::?relay` SYMBOL "?relay", AF_DataRequest
AddrMgrEntryGet     SYMBOL "AddrMgrEntryGet"
`??AddrMgrEntryGet::?relay` SYMBOL "?relay", AddrMgrEntryGet
AssocGetWithExt     SYMBOL "AssocGetWithExt"
`??AssocGetWithExt::?relay` SYMBOL "?relay", AssocGetWithExt
AssocGetWithShort   SYMBOL "AssocGetWithShort"
`??AssocGetWithShort::?relay` SYMBOL "?relay", AssocGetWithShort
AssocMakeList       SYMBOL "AssocMakeList"
`??AssocMakeList::?relay` SYMBOL "?relay", AssocMakeList
NLME_GetExtAddr     SYMBOL "NLME_GetExtAddr"
`??NLME_GetExtAddr::?relay` SYMBOL "?relay", NLME_GetExtAddr
NLME_GetShortAddr   SYMBOL "NLME_GetShortAddr"
`??NLME_GetShortAddr::?relay` SYMBOL "?relay", NLME_GetShortAddr
ZDApp_InMsgCB       SYMBOL "ZDApp_InMsgCB"
`??ZDApp_InMsgCB::?relay` SYMBOL "?relay", ZDApp_InMsgCB
`?<Name ZDO_ProcessActiveEPR 16>` SYMBOL "ZDO_ProcessActiveEPReq"
`??ZDO_ProcessActiveEPReq::?relay` SYMBOL "?relay", `?<Name ZDO_ProcessActiveEPR 16>`
`?<Name ZDO_ProcessDeviceAnn 18>` SYMBOL "ZDO_ProcessDeviceAnnce"
`??ZDO_ProcessDeviceAnnce::?relay` SYMBOL "?relay", `?<Name ZDO_ProcessDeviceAnn 18>`
`?<Name ZDO_ProcessMatchDesc 20>` SYMBOL "ZDO_ProcessMatchDescReq"
`??ZDO_ProcessMatchDescReq::?relay` SYMBOL "?relay", `?<Name ZDO_ProcessMatchDesc 20>`
`?<Name ZDO_ProcessNodeDescR 22>` SYMBOL "ZDO_ProcessNodeDescReq"
`??ZDO_ProcessNodeDescReq::?relay` SYMBOL "?relay", `?<Name ZDO_ProcessNodeDescR 22>`
`?<Name ZDO_ProcessPowerDesc 24>` SYMBOL "ZDO_ProcessPowerDescReq"
`??ZDO_ProcessPowerDescReq::?relay` SYMBOL "?relay", `?<Name ZDO_ProcessPowerDesc 24>`
`?<Name ZDO_ProcessServerDis 26>` SYMBOL "ZDO_ProcessServerDiscReq"
`??ZDO_ProcessServerDiscReq::?relay` SYMBOL "?relay", `?<Name ZDO_ProcessServerDis 26>`
`?<Name ZDO_ProcessSimpleDes 28>` SYMBOL "ZDO_ProcessSimpleDescReq"
`??ZDO_ProcessSimpleDescReq::?relay` SYMBOL "?relay", `?<Name ZDO_ProcessSimpleDes 28>`
`?<Name ZDO_ProcessUserDescR 30>` SYMBOL "ZDO_ProcessUserDescReq"
`??ZDO_ProcessUserDescReq::?relay` SYMBOL "?relay", `?<Name ZDO_ProcessUserDescR 30>`
`?<Name ZDO_ProcessUserDescS 32>` SYMBOL "ZDO_ProcessUserDescSet"
`??ZDO_ProcessUserDescSet::?relay` SYMBOL "?relay", `?<Name ZDO_ProcessUserDescS 32>`
osal_buffer_uint32  SYMBOL "osal_buffer_uint32"
`??osal_buffer_uint32::?relay` SYMBOL "?relay", osal_buffer_uint32
osal_mem_alloc      SYMBOL "osal_mem_alloc"
`??osal_mem_alloc::?relay` SYMBOL "?relay", osal_mem_alloc
osal_mem_free       SYMBOL "osal_mem_free"
`??osal_mem_free::?relay` SYMBOL "?relay", osal_mem_free
osal_memcpy         SYMBOL "osal_memcpy"
`??osal_memcpy::?relay` SYMBOL "?relay", osal_memcpy
osal_memset         SYMBOL "osal_memset"
`??osal_memset::?relay` SYMBOL "?relay", osal_memset
osal_msg_allocate   SYMBOL "osal_msg_allocate"
`??osal_msg_allocate::?relay` SYMBOL "?relay", osal_msg_allocate
osal_msg_send       SYMBOL "osal_msg_send"
`??osal_msg_send::?relay` SYMBOL "?relay", osal_msg_send
sAddrExtCmp         SYMBOL "sAddrExtCmp"
`??sAddrExtCmp::?relay` SYMBOL "?relay", sAddrExtCmp
sAddrExtCpy         SYMBOL "sAddrExtCpy"
`??sAddrExtCpy::?relay` SYMBOL "?relay", sAddrExtCpy
ZDO_RegisterForZDOMsg SYMBOL "ZDO_RegisterForZDOMsg"
`??ZDO_RegisterForZDOMsg::?relay` SYMBOL "?relay", ZDO_RegisterForZDOMsg
ZDO_RemoveRegisteredCB SYMBOL "ZDO_RemoveRegisteredCB"
`??ZDO_RemoveRegisteredCB::?relay` SYMBOL "?relay", ZDO_RemoveRegisteredCB
ZDO_SendMsgCBs      SYMBOL "ZDO_SendMsgCBs"
`??ZDO_SendMsgCBs::?relay` SYMBOL "?relay", ZDO_SendMsgCBs
ZDP_BindUnbindReq   SYMBOL "ZDP_BindUnbindReq"
`??ZDP_BindUnbindReq::?relay` SYMBOL "?relay", ZDP_BindUnbindReq
ZDP_DeviceAnnce     SYMBOL "ZDP_DeviceAnnce"
`??ZDP_DeviceAnnce::?relay` SYMBOL "?relay", ZDP_DeviceAnnce
ZDP_EPRsp           SYMBOL "ZDP_EPRsp"
`??ZDP_EPRsp::?relay` SYMBOL "?relay", ZDP_EPRsp
ZDP_EndDeviceBindReq SYMBOL "ZDP_EndDeviceBindReq"
`??ZDP_EndDeviceBindReq::?relay` SYMBOL "?relay", ZDP_EndDeviceBindReq
ZDP_GenericRsp      SYMBOL "ZDP_GenericRsp"
`??ZDP_GenericRsp::?relay` SYMBOL "?relay", ZDP_GenericRsp
ZDP_IEEEAddrReq     SYMBOL "ZDP_IEEEAddrReq"
`??ZDP_IEEEAddrReq::?relay` SYMBOL "?relay", ZDP_IEEEAddrReq
ZDP_IncomingData    SYMBOL "ZDP_IncomingData"
`??ZDP_IncomingData::?relay` SYMBOL "?relay", ZDP_IncomingData
ZDP_MatchDescReq    SYMBOL "ZDP_MatchDescReq"
`??ZDP_MatchDescReq::?relay` SYMBOL "?relay", ZDP_MatchDescReq
ZDP_MgmtBindRsp     SYMBOL "ZDP_MgmtBindRsp"
`??ZDP_MgmtBindRsp::?relay` SYMBOL "?relay", ZDP_MgmtBindRsp
ZDP_MgmtDirectJoinReq SYMBOL "ZDP_MgmtDirectJoinReq"
`??ZDP_MgmtDirectJoinReq::?relay` SYMBOL "?relay", ZDP_MgmtDirectJoinReq
ZDP_MgmtLeaveReq    SYMBOL "ZDP_MgmtLeaveReq"
`??ZDP_MgmtLeaveReq::?relay` SYMBOL "?relay", ZDP_MgmtLeaveReq
ZDP_MgmtLqiRsp      SYMBOL "ZDP_MgmtLqiRsp"
`??ZDP_MgmtLqiRsp::?relay` SYMBOL "?relay", ZDP_MgmtLqiRsp
ZDP_MgmtNwkDiscReq  SYMBOL "ZDP_MgmtNwkDiscReq"
`??ZDP_MgmtNwkDiscReq::?relay` SYMBOL "?relay", ZDP_MgmtNwkDiscReq
ZDP_MgmtNwkDiscRsp  SYMBOL "ZDP_MgmtNwkDiscRsp"
`??ZDP_MgmtNwkDiscRsp::?relay` SYMBOL "?relay", ZDP_MgmtNwkDiscRsp
ZDP_MgmtNwkUpdateNotify SYMBOL "ZDP_MgmtNwkUpdateNotify"
`??ZDP_MgmtNwkUpdateNotify::?relay` SYMBOL "?relay", ZDP_MgmtNwkUpdateNotify
ZDP_MgmtNwkUpdateReq SYMBOL "ZDP_MgmtNwkUpdateReq"
`??ZDP_MgmtNwkUpdateReq::?relay` SYMBOL "?relay", ZDP_MgmtNwkUpdateReq
ZDP_MgmtPermitJoinReq SYMBOL "ZDP_MgmtPermitJoinReq"
`??ZDP_MgmtPermitJoinReq::?relay` SYMBOL "?relay", ZDP_MgmtPermitJoinReq
ZDP_MgmtRtgRsp      SYMBOL "ZDP_MgmtRtgRsp"
`??ZDP_MgmtRtgRsp::?relay` SYMBOL "?relay", ZDP_MgmtRtgRsp
ZDP_NWKAddrOfInterestReq SYMBOL "ZDP_NWKAddrOfInterestReq"
`??ZDP_NWKAddrOfInterestReq::?relay` SYMBOL "?relay", ZDP_NWKAddrOfInterestReq
ZDP_NodeDescMsg     SYMBOL "ZDP_NodeDescMsg"
`??ZDP_NodeDescMsg::?relay` SYMBOL "?relay", ZDP_NodeDescMsg
ZDP_NwkAddrReq      SYMBOL "ZDP_NwkAddrReq"
`??ZDP_NwkAddrReq::?relay` SYMBOL "?relay", ZDP_NwkAddrReq
ZDP_PowerDescMsg    SYMBOL "ZDP_PowerDescMsg"
`??ZDP_PowerDescMsg::?relay` SYMBOL "?relay", ZDP_PowerDescMsg
ZDP_SendData        SYMBOL "ZDP_SendData"
`??ZDP_SendData::?relay` SYMBOL "?relay", ZDP_SendData
ZDP_ServerDiscReq   SYMBOL "ZDP_ServerDiscReq"
`??ZDP_ServerDiscReq::?relay` SYMBOL "?relay", ZDP_ServerDiscReq
ZDP_ServerDiscRsp   SYMBOL "ZDP_ServerDiscRsp"
`??ZDP_ServerDiscRsp::?relay` SYMBOL "?relay", ZDP_ServerDiscRsp
ZDP_SimpleDescMsg   SYMBOL "ZDP_SimpleDescMsg"
`??ZDP_SimpleDescMsg::?relay` SYMBOL "?relay", ZDP_SimpleDescMsg
ZDP_SimpleDescReq   SYMBOL "ZDP_SimpleDescReq"
`??ZDP_SimpleDescReq::?relay` SYMBOL "?relay", ZDP_SimpleDescReq
ZDP_UserDescRsp     SYMBOL "ZDP_UserDescRsp"
`??ZDP_UserDescRsp::?relay` SYMBOL "?relay", ZDP_UserDescRsp
ZDP_UserDescSet     SYMBOL "ZDP_UserDescSet"
`??ZDP_UserDescSet::?relay` SYMBOL "?relay", ZDP_UserDescSet
zdpProcessAddrReq   SYMBOL "zdpProcessAddrReq"
`??zdpProcessAddrReq::?relay` SYMBOL "?relay", zdpProcessAddrReq

        EXTERN `??AF_DataRequest::?relay`
        FUNCTION `??AF_DataRequest::?relay`,00H
        EXTERN `??AddrMgrEntryGet::?relay`
        FUNCTION `??AddrMgrEntryGet::?relay`,00H
        EXTERN `??AssocGetWithExt::?relay`
        FUNCTION `??AssocGetWithExt::?relay`,00H
        EXTERN `??AssocGetWithShort::?relay`
        FUNCTION `??AssocGetWithShort::?relay`,00H
        EXTERN `??AssocMakeList::?relay`
        FUNCTION `??AssocMakeList::?relay`,00H
        EXTERN `??NLME_GetExtAddr::?relay`
        FUNCTION `??NLME_GetExtAddr::?relay`,00H
        EXTERN `??NLME_GetShortAddr::?relay`
        FUNCTION `??NLME_GetShortAddr::?relay`,00H
        EXTERN `??ZDApp_InMsgCB::?relay`
        FUNCTION `??ZDApp_InMsgCB::?relay`,00H
        EXTERN `??ZDO_ProcessActiveEPReq::?relay`
        FUNCTION `??ZDO_ProcessActiveEPReq::?relay`,00H
        EXTERN `??ZDO_ProcessDeviceAnnce::?relay`
        FUNCTION `??ZDO_ProcessDeviceAnnce::?relay`,00H
        EXTERN `??ZDO_ProcessMatchDescReq::?relay`
        FUNCTION `??ZDO_ProcessMatchDescReq::?relay`,00H
        EXTERN `??ZDO_ProcessNodeDescReq::?relay`
        FUNCTION `??ZDO_ProcessNodeDescReq::?relay`,00H
        EXTERN `??ZDO_ProcessPowerDescReq::?relay`
        FUNCTION `??ZDO_ProcessPowerDescReq::?relay`,00H
        EXTERN `??ZDO_ProcessServerDiscReq::?relay`
        FUNCTION `??ZDO_ProcessServerDiscReq::?relay`,00H
        EXTERN `??ZDO_ProcessSimpleDescReq::?relay`
        FUNCTION `??ZDO_ProcessSimpleDescReq::?relay`,00H
        EXTERN `??ZDO_ProcessUserDescReq::?relay`
        FUNCTION `??ZDO_ProcessUserDescReq::?relay`,00H
        EXTERN `??ZDO_ProcessUserDescSet::?relay`
        FUNCTION `??ZDO_ProcessUserDescSet::?relay`,00H
        EXTERN `??osal_buffer_uint32::?relay`
        FUNCTION `??osal_buffer_uint32::?relay`,00H
        EXTERN `??osal_mem_alloc::?relay`
        FUNCTION `??osal_mem_alloc::?relay`,00H
        EXTERN `??osal_mem_free::?relay`
        FUNCTION `??osal_mem_free::?relay`,00H
        EXTERN `??osal_memcpy::?relay`
        FUNCTION `??osal_memcpy::?relay`,00H
        EXTERN `??osal_memset::?relay`
        FUNCTION `??osal_memset::?relay`,00H
        EXTERN `??osal_msg_allocate::?relay`
        FUNCTION `??osal_msg_allocate::?relay`,00H
        EXTERN `??osal_msg_send::?relay`
        FUNCTION `??osal_msg_send::?relay`,00H
        EXTERN `??sAddrExtCmp::?relay`
        FUNCTION `??sAddrExtCmp::?relay`,00H
        EXTERN `??sAddrExtCpy::?relay`
        FUNCTION `??sAddrExtCpy::?relay`,00H
        EXTERN AF_DataRequest
        FUNCTION AF_DataRequest,0202H
        ARGFRAME ISTACK, 0, STACK
        ARGFRAME PSTACK, 0, STACK
        ARGFRAME XSTACK, 34, STACK
        ARGFRAME IOVERLAY, 0, STATIC
        ARGFRAME DOVERLAY, 0, STATIC
        EXTERN AddrMgrEntryGet
        FUNCTION AddrMgrEntryGet,0202H
        ARGFRAME ISTACK, 0, STACK
        ARGFRAME PSTACK, 0, STACK
        ARGFRAME XSTACK, 31, STACK
        ARGFRAME IOVERLAY, 0, STATIC
        ARGFRAME DOVERLAY, 0, STATIC
        EXTERN AssocGetWithExt
        FUNCTION AssocGetWithExt,0202H
        ARGFRAME ISTACK, 0, STACK
        ARGFRAME PSTACK, 0, STACK
        ARGFRAME XSTACK, 31, STACK
        ARGFRAME IOVERLAY, 0, STATIC
        ARGFRAME DOVERLAY, 0, STATIC
        EXTERN AssocGetWithShort
        FUNCTION AssocGetWithShort,0202H
        ARGFRAME ISTACK, 0, STACK
        ARGFRAME PSTACK, 0, STACK
        ARGFRAME XSTACK, 31, STACK
        ARGFRAME IOVERLAY, 0, STATIC
        ARGFRAME DOVERLAY, 0, STATIC
        EXTERN AssocMakeList
        FUNCTION AssocMakeList,0202H
        ARGFRAME ISTACK, 0, STACK
        ARGFRAME PSTACK, 0, STACK
        ARGFRAME XSTACK, 31, STACK
        ARGFRAME IOVERLAY, 0, STATIC
        ARGFRAME DOVERLAY, 0, STATIC
        EXTERN NLME_GetExtAddr
        FUNCTION NLME_GetExtAddr,0202H
        ARGFRAME ISTACK, 0, STACK
        ARGFRAME PSTACK, 0, STACK
        ARGFRAME XSTACK, 18, STACK
        ARGFRAME IOVERLAY, 0, STATIC
        ARGFRAME DOVERLAY, 0, STATIC
        EXTERN NLME_GetShortAddr
        FUNCTION NLME_GetShortAddr,0202H
        ARGFRAME ISTACK, 0, STACK
        ARGFRAME PSTACK, 0, STACK
        ARGFRAME XSTACK, 18, STACK
        ARGFRAME IOVERLAY, 0, STATIC
        ARGFRAME DOVERLAY, 0, STATIC
        EXTERN ZDAppNwkAddr
        EXTERN ZDApp_InMsgCB
        FUNCTION ZDApp_InMsgCB,0202H
        ARGFRAME ISTACK, 0, STACK
        ARGFRAME PSTACK, 0, STACK
        ARGFRAME XSTACK, 31, STACK
        ARGFRAME IOVERLAY, 0, STATIC
        ARGFRAME DOVERLAY, 0, STATIC
        EXTERN ZDApp_epDesc
        EXTERN osal_buffer_uint32
        FUNCTION osal_buffer_uint32,0202H
        ARGFRAME ISTACK, 0, STACK
        ARGFRAME PSTACK, 0, STACK
        ARGFRAME XSTACK, 21, STACK
        ARGFRAME IOVERLAY, 0, STATIC
        ARGFRAME DOVERLAY, 0, STATIC
        EXTERN osal_mem_alloc
        FUNCTION osal_mem_alloc,0202H
        ARGFRAME ISTACK, 0, STACK
        ARGFRAME PSTACK, 0, STACK
        ARGFRAME XSTACK, 20, STACK
        ARGFRAME IOVERLAY, 0, STATIC
        ARGFRAME DOVERLAY, 0, STATIC
        EXTERN osal_mem_free
        FUNCTION osal_mem_free,0202H
        ARGFRAME ISTACK, 0, STACK
        ARGFRAME PSTACK, 0, STACK
        ARGFRAME XSTACK, 31, STACK
        ARGFRAME IOVERLAY, 0, STATIC
        ARGFRAME DOVERLAY, 0, STATIC
        EXTERN osal_memcpy
        FUNCTION osal_memcpy,0202H
        ARGFRAME ISTACK, 0, STACK
        ARGFRAME PSTACK, 0, STACK
        ARGFRAME XSTACK, 20, STACK
        ARGFRAME IOVERLAY, 0, STATIC
        ARGFRAME DOVERLAY, 0, STATIC
        EXTERN osal_memset
        FUNCTION osal_memset,0202H
        ARGFRAME ISTACK, 0, STACK
        ARGFRAME PSTACK, 0, STACK
        ARGFRAME XSTACK, 25, STACK
        ARGFRAME IOVERLAY, 0, STATIC
        ARGFRAME DOVERLAY, 0, STATIC
        EXTERN osal_msg_allocate
        FUNCTION osal_msg_allocate,0202H
        ARGFRAME ISTACK, 0, STACK
        ARGFRAME PSTACK, 0, STACK
        ARGFRAME XSTACK, 16, STACK
        ARGFRAME IOVERLAY, 0, STATIC
        ARGFRAME DOVERLAY, 0, STATIC
        EXTERN osal_msg_send
        FUNCTION osal_msg_send,0202H
        ARGFRAME ISTACK, 0, STACK
        ARGFRAME PSTACK, 0, STACK
        ARGFRAME XSTACK, 16, STACK
        ARGFRAME IOVERLAY, 0, STATIC
        ARGFRAME DOVERLAY, 0, STATIC
        EXTERN sAddrExtCmp
        FUNCTION sAddrExtCmp,0202H
        ARGFRAME ISTACK, 0, STACK
        ARGFRAME PSTACK, 0, STACK
        ARGFRAME XSTACK, 31, STACK
        ARGFRAME IOVERLAY, 0, STATIC
        ARGFRAME DOVERLAY, 0, STATIC
        EXTERN sAddrExtCpy
        FUNCTION sAddrExtCpy,0202H
        ARGFRAME ISTACK, 1, STACK
        ARGFRAME PSTACK, 0, STACK
        ARGFRAME XSTACK, 31, STACK
        ARGFRAME IOVERLAY, 0, STATIC
        ARGFRAME DOVERLAY, 0, STATIC
        EXTERN saveExtAddr

// E:\gitRepository\OldPeopleHome\zigbee\ZStack-CC2530-r200\Components\stack\zdo\ZDProfile.c
//    1 /**************************************************************************************************
//    2   Filename:       ZDProfile.c
//    3   Revised:        $Date: 2010-10-13 10:54:13 -0700 (Wed, 13 Oct 2010) $
//    4   Revision:       $Revision: 24112 $
//    5 
//    6   Description:    This is the Zigbee Device Profile.
//    7 
//    8 
//    9   Copyright 2004-2010 Texas Instruments Incorporated. All rights reserved.
//   10 
//   11   IMPORTANT: Your use of this Software is limited to those specific rights
//   12   granted under the terms of a software license agreement between the user
//   13   who downloaded the software, his/her employer (which must be your employer)
//   14   and Texas Instruments Incorporated (the "License").  You may not use this
//   15   Software unless you agree to abide by the terms of the License. The License
//   16   limits your use, and you acknowledge, that the Software may not be modified,
//   17   copied or distributed unless embedded on a Texas Instruments microcontroller
//   18   or used solely and exclusively in conjunction with a Texas Instruments radio
//   19   frequency transceiver, which is integrated into your product.  Other than for
//   20   the foregoing purpose, you may not use, reproduce, copy, prepare derivative
//   21   works of, modify, distribute, perform, display or sell this Software and/or
//   22   its documentation for any purpose.
//   23 
//   24   YOU FURTHER ACKNOWLEDGE AND AGREE THAT THE SOFTWARE AND DOCUMENTATION ARE
//   25   PROVIDED “AS IS” WITHOUT WARRANTY OF ANY KIND, EITHER EXPRESS OR IMPLIED,
//   26   INCLUDING WITHOUT LIMITATION, ANY WARRANTY OF MERCHANTABILITY, TITLE,
//   27   NON-INFRINGEMENT AND FITNESS FOR A PARTICULAR PURPOSE. IN NO EVENT SHALL
//   28   TEXAS INSTRUMENTS OR ITS LICENSORS BE LIABLE OR OBLIGATED UNDER CONTRACT,
//   29   NEGLIGENCE, STRICT LIABILITY, CONTRIBUTION, BREACH OF WARRANTY, OR OTHER
//   30   LEGAL EQUITABLE THEORY ANY DIRECT OR INDIRECT DAMAGES OR EXPENSES
//   31   INCLUDING BUT NOT LIMITED TO ANY INCIDENTAL, SPECIAL, INDIRECT, PUNITIVE
//   32   OR CONSEQUENTIAL DAMAGES, LOST PROFITS OR LOST DATA, COST OF PROCUREMENT
//   33   OF SUBSTITUTE GOODS, TECHNOLOGY, SERVICES, OR ANY CLAIMS BY THIRD PARTIES
//   34   (INCLUDING BUT NOT LIMITED TO ANY DEFENSE THEREOF), OR OTHER SIMILAR COSTS.
//   35 
//   36   Should you have any questions regarding your right to use this Software,
//   37   contact Texas Instruments Incorporated at www.TI.com.
//   38 **************************************************************************************************/
//   39 
//   40 /*********************************************************************
//   41  * INCLUDES
//   42  */
//   43 #include "ZComdef.h"
//   44 #include "OSAL.h"
//   45 #include "AF.h"
//   46 #include "NLMEDE.h"
//   47 #include "nwk_util.h"
//   48 #include "APS.h"
//   49 
//   50 #include "AddrMgr.h"
//   51 #include "ZDConfig.h"
//   52 #include "ZDProfile.h"
//   53 #include "ZDObject.h"
//   54 #include "ZDNwkMgr.h"
//   55 
//   56 #if defined( LCD_SUPPORTED )
//   57   #include "OnBoard.h"
//   58 #endif
//   59 
//   60 #include "nwk_util.h"
//   61 
//   62 #if defined( MT_ZDO_FUNC )
//   63   #include "MT_ZDO.h"
//   64 #endif
//   65 
//   66 /*********************************************************************
//   67  * MACROS
//   68  */
//   69 
//   70 #define ZADDR_TO_AFADDR( pZADDR, AFADDR ) {                            \ 
//   71   (AFADDR).endPoint = ZDP_AF_ENDPOINT;                                 \ 
//   72   (AFADDR).addrMode = (afAddrMode_t)(pZADDR)->addrMode;                \ 
//   73   (AFADDR).addr.shortAddr = (pZADDR)->addr.shortAddr;                  \ 
//   74 }
//   75 
//   76 #define FillAndSendBuffer( TRANSSEQ, ADDR, ID, LEN, BUF ) {     \ 
//   77   afStatus_t stat;                                    \ 
//   78   ZDP_TmpBuf = (BUF)+1;                               \ 
//   79   stat = fillAndSend( (TRANSSEQ), (ADDR), (ID), (LEN) );          \ 
//   80   osal_mem_free( (BUF) );                             \ 
//   81   ZDP_TmpBuf = ZDP_Buf+1;                             \ 
//   82   return stat;                                        \ 
//   83 }
//   84 
//   85 #define FillAndSendTxOptions( TRANSSEQ, ADDR, ID, LEN, TxO ) {  \ 
//   86   afStatus_t stat;                                    \ 
//   87   ZDP_TxOptions = (TxO);                              \ 
//   88   stat = fillAndSend( (TRANSSEQ), (ADDR), (ID), (LEN) );          \ 
//   89   ZDP_TxOptions = AF_TX_OPTIONS_NONE;                 \ 
//   90   return stat;                                        \ 
//   91 }
//   92 
//   93 #define FillAndSendBufferTxOptions( TRANSSEQ, ADDR, ID, LEN, BUF, TxO ) { \ 
//   94   afStatus_t stat;                                    \ 
//   95   ZDP_TmpBuf = (BUF)+1;                               \ 
//   96   ZDP_TxOptions = (TxO);                              \ 
//   97   stat = fillAndSend( (TRANSSEQ), (ADDR), (ID), (LEN) );          \ 
//   98   osal_mem_free( (BUF) );                             \ 
//   99   ZDP_TmpBuf = ZDP_Buf+1;                             \ 
//  100   ZDP_TxOptions = AF_TX_OPTIONS_NONE;                 \ 
//  101   return stat;                                        \ 
//  102 }
//  103 
//  104 /*********************************************************************
//  105  * CONSTANTS
//  106  */
//  107 
//  108 #define ZDP_BUF_SZ          80
//  109 

        RSEG CODE_C:CODE:REORDER:NOROOT(0)
        DATA8
//  110 CONST byte ZDP_AF_ENDPOINT = 0;
ZDP_AF_ENDPOINT:
        DB 0
//  111 
//  112 /*********************************************************************
//  113  * TYPEDEFS
//  114  */
//  115 typedef struct
//  116 {
//  117   void *next;
//  118   uint8 taskID;
//  119   uint16 clusterID;
//  120 } ZDO_MsgCB_t;
//  121 
//  122 
//  123 /*********************************************************************
//  124  * GLOBAL VARIABLES
//  125  */
//  126 

        RSEG XDATA_Z:XDATA:NOROOT(0)
        DATA8
//  127 byte ZDP_TransID = 0;
ZDP_TransID:
        DS 1
        REQUIRE __INIT_XDATA_Z
//  128 
//  129 /*********************************************************************
//  130  * EXTERNAL VARIABLES
//  131  */
//  132 
//  133 extern endPointDesc_t ZDApp_epDesc;
//  134 
//  135 /*********************************************************************
//  136  * EXTERNAL FUNCTIONS
//  137  */
//  138 
//  139 /*********************************************************************
//  140  * LOCAL FUNCTIONS
//  141  */
//  142 
//  143 static afStatus_t fillAndSend( uint8 *transSeq, zAddrType_t *addr, cId_t clusterID, byte len );
//  144 uint8 ZDO_SendMsgCBs( zdoIncomingMsg_t *inMsg );
//  145 void zdpProcessAddrReq( zdoIncomingMsg_t *inMsg );
//  146 
//  147 /*********************************************************************
//  148  * LOCAL VARIABLES
//  149  */
//  150 

        RSEG XDATA_Z:XDATA:NOROOT(0)
        DATA8
//  151 static uint8  ZDP_Buf[ ZDP_BUF_SZ ];
ZDP_Buf:
        DS 80
        REQUIRE __INIT_XDATA_Z

        RSEG XDATA_I:XDATA:NOROOT(0)
//  152 static uint8 *ZDP_TmpBuf = ZDP_Buf+1;
ZDP_TmpBuf:
        DATA16
        DS 2
        REQUIRE `?<Initializer for ZDP_TmpBuf>`
        REQUIRE __INIT_XDATA_I
//  153 

        RSEG XDATA_Z:XDATA:NOROOT(0)
        DATA8
//  154 byte ZDP_TxOptions = AF_TX_OPTIONS_NONE;
ZDP_TxOptions:
        DS 1
        REQUIRE __INIT_XDATA_Z

        RSEG XDATA_Z:XDATA:NOROOT(0)
        DATA16
//  155 ZDO_MsgCB_t *zdoMsgCBs = (ZDO_MsgCB_t *)NULL;
zdoMsgCBs:
        DS 2
        REQUIRE __INIT_XDATA_Z
//  156 
//  157 /*********************************************************************
//  158  * ZDO Message Processing table
//  159  */
//  160 
//  161 typedef void (*pfnZDPMsgProcessor)( zdoIncomingMsg_t *inMsg );
//  162 
//  163 typedef struct
//  164 {
//  165   uint16                clusterID;
//  166   pfnZDPMsgProcessor    pFn;
//  167 } zdpMsgProcItem_t;
//  168 

        RSEG CODE_C:CODE:REORDER:NOROOT(0)
        DATA8
//  169 CONST zdpMsgProcItem_t zdpMsgProcs[] =
zdpMsgProcs:
        DATA16
        DW 0
        DW `??zdpProcessAddrReq::?relay`
        DW 19
        DW `??ZDO_ProcessDeviceAnnce::?relay`
        DW 1
        DW `??zdpProcessAddrReq::?relay`
        DW 2
        DW `??ZDO_ProcessNodeDescReq::?relay`
        DW 3
        DW `??ZDO_ProcessPowerDescReq::?relay`
        DW 4
        DW `??ZDO_ProcessSimpleDescReq::?relay`
        DW 5
        DW `??ZDO_ProcessActiveEPReq::?relay`
        DW 6
        DW `??ZDO_ProcessMatchDescReq::?relay`
        DW 17
        DW `??ZDO_ProcessUserDescReq::?relay`
        DW 20
        DW `??ZDO_ProcessUserDescSet::?relay`
        DW 21
        DW `??ZDO_ProcessServerDiscReq::?relay`
        DW 65535
        DW 0H
//  170 {
//  171 #if ( RFD_RCVC_ALWAYS_ON==TRUE ) || ( ZG_BUILD_RTR_TYPE )
//  172   // These aren't processed by sleeping end devices.
//  173   { NWK_addr_req,           zdpProcessAddrReq },
//  174   { Device_annce,           ZDO_ProcessDeviceAnnce },
//  175 #endif
//  176   { IEEE_addr_req,          zdpProcessAddrReq },
//  177   { Node_Desc_req,          ZDO_ProcessNodeDescReq },
//  178   { Power_Desc_req,         ZDO_ProcessPowerDescReq },
//  179   { Simple_Desc_req,        ZDO_ProcessSimpleDescReq },
//  180   { Active_EP_req,          ZDO_ProcessActiveEPReq },
//  181   { Match_Desc_req,         ZDO_ProcessMatchDescReq },
//  182 #if defined ( ZDO_MGMT_NWKDISC_RESPONSE )
//  183   { Mgmt_NWK_Disc_req,      ZDO_ProcessMgmtNwkDiscReq },
//  184 #endif
//  185 #if defined ( ZDO_MGMT_LQI_RESPONSE ) && ( ZG_BUILD_RTR_TYPE )
//  186   { Mgmt_Lqi_req,           ZDO_ProcessMgmtLqiReq },
//  187 #endif
//  188 #if defined ( ZDO_MGMT_RTG_RESPONSE ) && ( ZG_BUILD_RTR_TYPE )
//  189   { Mgmt_Rtg_req,           ZDO_ProcessMgmtRtgReq },
//  190 #endif
//  191 #if defined ( ZDO_MGMT_BIND_RESPONSE ) && defined ( REFLECTOR )
//  192   { Mgmt_Bind_req,          ZDO_ProcessMgmtBindReq },
//  193 #endif
//  194 #if defined ( ZDO_MGMT_JOINDIRECT_RESPONSE ) && ( ZG_BUILD_RTR_TYPE )
//  195   { Mgmt_Direct_Join_req,   ZDO_ProcessMgmtDirectJoinReq },
//  196 #endif
//  197 #if defined ( ZDO_MGMT_LEAVE_RESPONSE )
//  198   { Mgmt_Leave_req,         ZDO_ProcessMgmtLeaveReq },
//  199 #endif
//  200 #if defined ( ZDO_MGMT_PERMIT_JOIN_RESPONSE )  && ( ZG_BUILD_RTR_TYPE )
//  201   { Mgmt_Permit_Join_req,   ZDO_ProcessMgmtPermitJoinReq },
//  202 #endif
//  203 #if defined ( ZDO_USERDESC_RESPONSE )
//  204   { User_Desc_req,          ZDO_ProcessUserDescReq },
//  205 #endif
//  206 #if defined ( ZDO_USERDESCSET_RESPONSE )
//  207   { User_Desc_set,          ZDO_ProcessUserDescSet },
//  208 #endif
//  209 #if defined ( ZDO_SERVERDISC_RESPONSE )
//  210   { Server_Discovery_req,   ZDO_ProcessServerDiscReq },
//  211 #endif
//  212   {0xFFFF, NULL} // Last
//  213 };
//  214 
//  215 /*********************************************************************
//  216  * @fn          fillAndSend
//  217  *
//  218  * @brief       Combined to reduce space
//  219  *
//  220  * @param
//  221  * @param
//  222  *
//  223  * @return      afStatus_t
//  224  */

        RSEG BANKED_CODE:HUGECODE:NOROOT(0)
//  225 static afStatus_t fillAndSend( uint8 *transSeq, zAddrType_t *addr, cId_t clusterID, byte len )
fillAndSend:
          CFI Block cfiBlock0 Using cfiCommon0
          CFI Function fillAndSend
        CODE
//  226 {
        FUNCALL fillAndSend, osal_memset
        LOCFRAME ISTACK, 0, STACK
        LOCFRAME PSTACK, 0, STACK
        LOCFRAME XSTACK, 25, STACK
        LOCFRAME IOVERLAY, 0, STATIC
        LOCFRAME DOVERLAY, 0, STATIC
        ARGFRAME ISTACK, 0, STACK
        ARGFRAME PSTACK, 0, STACK
        ARGFRAME XSTACK, 25, STACK
        ARGFRAME IOVERLAY, 0, STATIC
        ARGFRAME DOVERLAY, 0, STATIC
        FUNCALL fillAndSend, AF_DataRequest
        LOCFRAME ISTACK, 0, STACK
        LOCFRAME PSTACK, 0, STACK
        LOCFRAME XSTACK, 34, STACK
        LOCFRAME IOVERLAY, 0, STATIC
        LOCFRAME DOVERLAY, 0, STATIC
        ARGFRAME ISTACK, 0, STACK
        ARGFRAME PSTACK, 0, STACK
        ARGFRAME XSTACK, 34, STACK
        ARGFRAME IOVERLAY, 0, STATIC
        ARGFRAME DOVERLAY, 0, STATIC
        REQUIRE ?V0
        REQUIRE ?V1
        REQUIRE ?V2
        REQUIRE ?V3
        REQUIRE ?V4
        MOV       A,#-0xd
        LCALL     ?BANKED_ENTER_XDATA
          CFI DPH0 load(1, XDATA, add(CFA_XSP16, literal(-1)))
          CFI DPL0 load(1, XDATA, add(CFA_XSP16, literal(-2)))
          CFI ?BRET_EXT load(1, XDATA, add(CFA_XSP16, literal(-3)))
          CFI ?RET_HIGH load(1, XDATA, add(CFA_XSP16, literal(-4)))
          CFI ?RET_LOW load(1, XDATA, add(CFA_XSP16, literal(-5)))
          CFI R7 load(1, XDATA, add(CFA_XSP16, literal(-6)))
          CFI V4 load(1, XDATA, add(CFA_XSP16, literal(-7)))
          CFI V3 load(1, XDATA, add(CFA_XSP16, literal(-8)))
          CFI V2 load(1, XDATA, add(CFA_XSP16, literal(-9)))
          CFI V1 load(1, XDATA, add(CFA_XSP16, literal(-10)))
          CFI V0 load(1, XDATA, add(CFA_XSP16, literal(-11)))
          CFI VB load(1, XDATA, add(CFA_XSP16, literal(-12)))
          CFI R6 load(1, XDATA, add(CFA_XSP16, literal(-13)))
          CFI CFA_SP SP+0
          CFI CFA_XSP16 add(XSP16, 13)
        ; Saved register size: 13
        ; Auto size: 12
        MOV       A,#-0xc
        LCALL     ?ALLOC_XSTACK8
          CFI CFA_XSP16 add(XSP16, 25)
        MOV       ?V2,R2
        MOV       ?V3,R3
        MOV       ?V0,R4
        MOV       ?V1,R5
        MOV       A,R1
        MOV       R6,A
//  227   afAddrType_t afAddr;
//  228 
//  229   osal_memset( &afAddr, 0, sizeof(afAddrType_t) );
        ; Setup parameters for call to function osal_memset
        MOV       R4,#0xc
        MOV       R5,#0x0
        MOV       R1,#0x0
        MOV       R2,?XSP + 0
        MOV       R3,?XSP + 1
        LCALL     `??osal_memset::?relay`; Banked call to: osal_memset
//  230   ZADDR_TO_AFADDR( addr, afAddr );
        MOV       A,#0x9
        LCALL     ?XSTACK_DISP0_8
        CLR       A
        LCALL     ?Subroutine17 & 0xFFFF
??CrossCallReturnLabel_20:
        INC       DPTR
        MOVX      A,@DPTR
        PUSH      A
          CFI CFA_SP SP+-1
        MOV       A,#0x8
        LCALL     ?XSTACK_DISP0_8
        POP       A
          CFI CFA_SP SP+0
        MOVX      @DPTR,A
        MOV       DPL,?V0
        MOV       DPH,?V1
        LCALL     ?Subroutine44 & 0xFFFF
??CrossCallReturnLabel_63:
        LCALL     ??Subroutine134_0 & 0xFFFF
//  231 
//  232   *(ZDP_TmpBuf-1) = *transSeq;
??CrossCallReturnLabel_249:
        MOV       DPTR,#ZDP_TmpBuf
        MOVX      A,@DPTR
        ADD       A,#-0x1
        MOV       ?V0,A
        INC       DPTR
        MOVX      A,@DPTR
        ADDC      A,#-0x1
        MOV       ?V1,A
        MOV       DPL,?V2
        MOV       DPH,?V3
        LCALL     ?Subroutine61 & 0xFFFF
//  233 
//  234   return AF_DataRequest( &afAddr, &ZDApp_epDesc, clusterID,
//  235                            (uint16)(len+1), (uint8*)(ZDP_TmpBuf-1),
//  236                            transSeq, ZDP_TxOptions,  AF_DEFAULT_RADIUS );
??CrossCallReturnLabel_94:
        ; Setup parameters for call to function AF_DataRequest
        MOV       ?V4,#0x1e
        MOV       R0,#?V4
        LCALL     ?PUSH_XSTACK_I_ONE
          CFI CFA_XSP16 add(XSP16, 26)
        MOV       R0,#?V2
        LCALL     ?PUSH_XSTACK_I_TWO
          CFI CFA_XSP16 add(XSP16, 28)
        MOV       R0,#?V0
        LCALL     ?PUSH_XSTACK_I_TWO
          CFI CFA_XSP16 add(XSP16, 30)
        MOV       A,R6
        ADD       A,#0x1
        MOV       ?V0,A
        CLR       A
        ADDC      A,#0x0
        MOV       ?V1,A
        MOV       R0,#?V0
        LCALL     ?PUSH_XSTACK_I_TWO
          CFI CFA_XSP16 add(XSP16, 32)
        MOV       A,#0x20
        LCALL     ?XSTACK_DISP0_8
        LCALL     ?PUSH_XSTACK8_X_TWO
          CFI CFA_XSP16 add(XSP16, 34)
        MOV       DPTR,#ZDP_TxOptions
        MOVX      A,@DPTR
        MOV       R1,A
        MOV       R4,#ZDApp_epDesc & 0xff
        MOV       R5,#(ZDApp_epDesc >> 8) & 0xff
        MOV       A,#0x9
        LCALL     ?XSTACK_DISP101_8
        LCALL     `??AF_DataRequest::?relay`; Banked call to: AF_DataRequest
        MOV       A,#0x9
        LCALL     ?DEALLOC_XSTACK8
          CFI CFA_XSP16 add(XSP16, 25)
        MOV       A,#0xc
        LCALL     ?DEALLOC_XSTACK8
          CFI CFA_XSP16 add(XSP16, 13)
        MOV       R7,#0x5
        LJMP      ?BANKED_LEAVE_XDATA
//  237 
//  238 }
          CFI EndBlock cfiBlock0
//  239 
//  240 /*********************************************************************
//  241  * @fn          ZDP_SendData
//  242  *
//  243  * @brief       This builds and send a request message that has
//  244  *              NWKAddrOfInterest as its only parameter.
//  245  *
//  246  * @param       dstAddr - destination address
//  247  * @param       cmd - clusterID
//  248  * @param       dataLen - number of bytes of data
//  249  * @param       data - pointer to the data
//  250  * @param       SecurityEnable - Security Options
//  251  *
//  252  * @return      afStatus_t
//  253  */

        RSEG BANKED_CODE:HUGECODE:NOROOT(0)
//  254 afStatus_t ZDP_SendData( uint8 *TransSeq, zAddrType_t *dstAddr, uint16 cmd,
ZDP_SendData:
          CFI Block cfiBlock1 Using cfiCommon0
          CFI Function ZDP_SendData
        CODE
//  255                         byte len, uint8 *buf, byte SecurityEnable )
//  256 {
        FUNCALL ZDP_SendData, fillAndSend
        LOCFRAME ISTACK, 0, STACK
        LOCFRAME PSTACK, 0, STACK
        LOCFRAME XSTACK, 14, STACK
        LOCFRAME IOVERLAY, 0, STATIC
        LOCFRAME DOVERLAY, 0, STATIC
        ARGFRAME ISTACK, 0, STACK
        ARGFRAME PSTACK, 0, STACK
        ARGFRAME XSTACK, 14, STACK
        ARGFRAME IOVERLAY, 0, STATIC
        ARGFRAME DOVERLAY, 0, STATIC
        REQUIRE ?V0
        REQUIRE ?V2
        REQUIRE ?V3
        MOV       A,#-0xc
        LCALL     ?BANKED_ENTER_XDATA
          CFI DPH0 load(1, XDATA, add(CFA_XSP16, literal(-1)))
          CFI DPL0 load(1, XDATA, add(CFA_XSP16, literal(-2)))
          CFI ?BRET_EXT load(1, XDATA, add(CFA_XSP16, literal(-3)))
          CFI ?RET_HIGH load(1, XDATA, add(CFA_XSP16, literal(-4)))
          CFI ?RET_LOW load(1, XDATA, add(CFA_XSP16, literal(-5)))
          CFI R7 load(1, XDATA, add(CFA_XSP16, literal(-6)))
          CFI V3 load(1, XDATA, add(CFA_XSP16, literal(-7)))
          CFI V2 load(1, XDATA, add(CFA_XSP16, literal(-8)))
          CFI V1 load(1, XDATA, add(CFA_XSP16, literal(-9)))
          CFI V0 load(1, XDATA, add(CFA_XSP16, literal(-10)))
          CFI VB load(1, XDATA, add(CFA_XSP16, literal(-11)))
          CFI R6 load(1, XDATA, add(CFA_XSP16, literal(-12)))
          CFI CFA_SP SP+0
          CFI CFA_XSP16 add(XSP16, 12)
        ; Saved register size: 12
        ; Auto size: 0
        MOV       ?V0,R1
//  257   uint8 *pBuf = ZDP_TmpBuf;
        MOV       DPTR,#ZDP_TmpBuf
        MOVX      A,@DPTR
        MOV       ?V2,A
        INC       DPTR
        MOVX      A,@DPTR
        MOV       ?V3,A
//  258   byte cnt = len;
        MOV       R6,?V0
        MOV       A,#0xe
        LCALL     ?XSTACK_DISP0_8
        LCALL     ??Subroutine144_0 & 0xFFFF
??CrossCallReturnLabel_321:
        SJMP      ??ZDP_SendData_0
//  259 
//  260   while ( cnt-- )
//  261   {
//  262     *pBuf++ = *buf++;
??ZDP_SendData_1:
        MOV       DPL,R0
        MOV       DPH,R1
        MOVX      A,@DPTR
        MOV       DPL,?V2
        MOV       DPH,?V3
        LCALL     ??Subroutine115_0 & 0xFFFF
//  263   }
??CrossCallReturnLabel_175:
        MOV       R0,DPL
        MOV       R1,DPH
        MOV       DPL,?V2
        MOV       DPH,?V3
        INC       DPTR
        MOV       ?V2,DPL
        MOV       ?V3,DPH
??ZDP_SendData_0:
        MOV       A,R6
        MOV       R7,A
        MOV       A,#-0x1
        ADD       A,R7
        MOV       R6,A
        INC       A
        JNZ       ??ZDP_SendData_1
//  264 
//  265   FillAndSendTxOptions( TransSeq, dstAddr, cmd, len, ((SecurityEnable) ? AF_EN_SECURITY : 0) );
        MOV       A,#0x10
        LCALL     ?XSTACK_DISP0_8
        MOVX      A,@DPTR
        MOV       DPTR,#ZDP_TxOptions
        JZ        ??ZDP_SendData_2
        MOV       A,#0x40
        SJMP      ??ZDP_SendData_3
??ZDP_SendData_2:
        CLR       A
??ZDP_SendData_3:
        MOVX      @DPTR,A
        ; Setup parameters for call to function fillAndSend
        MOV       A,#0xc
        LCALL     ?XSTACK_DISP0_8
        LCALL     ?PUSH_XSTACK8_X_TWO
          CFI CFA_XSP16 add(XSP16, 14)
        MOV       R1,?V0
        LCALL     ??Subroutine140_0 & 0xFFFF
??CrossCallReturnLabel_295:
        LCALL     ?DEALLOC_XSTACK8
          CFI CFA_XSP16 add(XSP16, 12)
        MOV       A,R1
        MOV       R1,A
        MOV       DPTR,#ZDP_TxOptions
        CLR       A
        MOVX      @DPTR,A
        LJMP      ??Subroutine128_0 & 0xFFFF
//  266 }
          CFI EndBlock cfiBlock1
//  267 
//  268 /*********************************************************************
//  269  * @fn          ZDP_NWKAddrOfInterestReq
//  270  *
//  271  * @brief       This builds and send a request message that has
//  272  *              NWKAddrOfInterest as its only parameter.
//  273  *
//  274  * @param       dstAddr - destination address
//  275  * @param       nwkAddr - 16 bit address
//  276  * @param       SecurityEnable - Security Options
//  277  *
//  278  * @return      afStatus_t
//  279  */

        RSEG BANKED_CODE:HUGECODE:NOROOT(0)
//  280 afStatus_t ZDP_NWKAddrOfInterestReq( zAddrType_t *dstAddr, uint16 nwkAddr,
ZDP_NWKAddrOfInterestReq:
          CFI Block cfiBlock2 Using cfiCommon0
          CFI Function ZDP_NWKAddrOfInterestReq
        CODE
//  281                                      byte cmd, byte SecurityEnable )
//  282 {
        FUNCALL ZDP_NWKAddrOfInterestReq, fillAndSend
        LOCFRAME ISTACK, 0, STACK
        LOCFRAME PSTACK, 0, STACK
        LOCFRAME XSTACK, 12, STACK
        LOCFRAME IOVERLAY, 0, STATIC
        LOCFRAME DOVERLAY, 0, STATIC
        ARGFRAME ISTACK, 0, STACK
        ARGFRAME PSTACK, 0, STACK
        ARGFRAME XSTACK, 12, STACK
        ARGFRAME IOVERLAY, 0, STATIC
        ARGFRAME DOVERLAY, 0, STATIC
        REQUIRE ?V0
        REQUIRE ?V1
        MOV       A,#-0xa
        LCALL     ?BANKED_ENTER_XDATA
          CFI DPH0 load(1, XDATA, add(CFA_XSP16, literal(-1)))
          CFI DPL0 load(1, XDATA, add(CFA_XSP16, literal(-2)))
          CFI ?BRET_EXT load(1, XDATA, add(CFA_XSP16, literal(-3)))
          CFI ?RET_HIGH load(1, XDATA, add(CFA_XSP16, literal(-4)))
          CFI ?RET_LOW load(1, XDATA, add(CFA_XSP16, literal(-5)))
          CFI R7 load(1, XDATA, add(CFA_XSP16, literal(-6)))
          CFI V1 load(1, XDATA, add(CFA_XSP16, literal(-7)))
          CFI V0 load(1, XDATA, add(CFA_XSP16, literal(-8)))
          CFI VB load(1, XDATA, add(CFA_XSP16, literal(-9)))
          CFI R6 load(1, XDATA, add(CFA_XSP16, literal(-10)))
          CFI CFA_SP SP+0
          CFI CFA_XSP16 add(XSP16, 10)
        ; Saved register size: 10
        ; Auto size: 0
//  283   (void)SecurityEnable;  // Intentionally unreferenced parameter
//  284 
//  285   ZDP_TmpBuf[0] = LO_UINT16( nwkAddr );
        LCALL     ?Subroutine18 & 0xFFFF
//  286   ZDP_TmpBuf[1] = HI_UINT16( nwkAddr );
??CrossCallReturnLabel_22:
        MOVX      @DPTR,A
//  287 
//  288   return fillAndSend( &ZDP_TransID, dstAddr, cmd, 2 );
        ; Setup parameters for call to function fillAndSend
        MOV       A,R1
        MOV       ?V0,A
        LJMP      ?Subroutine1 & 0xFFFF
//  289 }
          CFI EndBlock cfiBlock2
//  290 
//  291 /*********************************************************************
//  292  * Address Requests
//  293  */
//  294 
//  295 /*********************************************************************
//  296  * @fn          ZDP_NwkAddrReq
//  297  *
//  298  * @brief       This builds and send a NWK_addr_req message.  This
//  299  *              function sends a broadcast message looking for a 16
//  300  *              bit address with a 64 bit address as bait.
//  301  *
//  302  * @param       IEEEAddress - looking for this device
//  303  * @param       SecurityEnable - Security Options
//  304  *
//  305  * @return      afStatus_t
//  306  */

        RSEG BANKED_CODE:HUGECODE:NOROOT(0)
//  307 afStatus_t ZDP_NwkAddrReq( uint8 *IEEEAddress, byte ReqType,
ZDP_NwkAddrReq:
          CFI Block cfiBlock3 Using cfiCommon0
          CFI Function ZDP_NwkAddrReq
        CODE
//  308                            byte StartIndex, byte SecurityEnable )
//  309 {
        FUNCALL ZDP_NwkAddrReq, sAddrExtCmp
        LOCFRAME ISTACK, 0, STACK
        LOCFRAME PSTACK, 0, STACK
        LOCFRAME XSTACK, 21, STACK
        LOCFRAME IOVERLAY, 0, STATIC
        LOCFRAME DOVERLAY, 0, STATIC
        ARGFRAME ISTACK, 0, STACK
        ARGFRAME PSTACK, 0, STACK
        ARGFRAME XSTACK, 21, STACK
        ARGFRAME IOVERLAY, 0, STATIC
        ARGFRAME DOVERLAY, 0, STATIC
        FUNCALL ZDP_NwkAddrReq, sAddrExtCpy
        LOCFRAME ISTACK, 0, STACK
        LOCFRAME PSTACK, 0, STACK
        LOCFRAME XSTACK, 21, STACK
        LOCFRAME IOVERLAY, 0, STATIC
        LOCFRAME DOVERLAY, 0, STATIC
        ARGFRAME ISTACK, 0, STACK
        ARGFRAME PSTACK, 0, STACK
        ARGFRAME XSTACK, 21, STACK
        ARGFRAME IOVERLAY, 0, STATIC
        ARGFRAME DOVERLAY, 0, STATIC
        FUNCALL ZDP_NwkAddrReq, fillAndSend
        LOCFRAME ISTACK, 0, STACK
        LOCFRAME PSTACK, 0, STACK
        LOCFRAME XSTACK, 23, STACK
        LOCFRAME IOVERLAY, 0, STATIC
        LOCFRAME DOVERLAY, 0, STATIC
        ARGFRAME ISTACK, 0, STACK
        ARGFRAME PSTACK, 0, STACK
        ARGFRAME XSTACK, 23, STACK
        ARGFRAME IOVERLAY, 0, STATIC
        ARGFRAME DOVERLAY, 0, STATIC
        REQUIRE ?V0
        REQUIRE ?V1
        REQUIRE ?V2
        REQUIRE ?V3
        MOV       A,#-0xc
        LCALL     ?BANKED_ENTER_XDATA
          CFI DPH0 load(1, XDATA, add(CFA_XSP16, literal(-1)))
          CFI DPL0 load(1, XDATA, add(CFA_XSP16, literal(-2)))
          CFI ?BRET_EXT load(1, XDATA, add(CFA_XSP16, literal(-3)))
          CFI ?RET_HIGH load(1, XDATA, add(CFA_XSP16, literal(-4)))
          CFI ?RET_LOW load(1, XDATA, add(CFA_XSP16, literal(-5)))
          CFI R7 load(1, XDATA, add(CFA_XSP16, literal(-6)))
          CFI V3 load(1, XDATA, add(CFA_XSP16, literal(-7)))
          CFI V2 load(1, XDATA, add(CFA_XSP16, literal(-8)))
          CFI V1 load(1, XDATA, add(CFA_XSP16, literal(-9)))
          CFI V0 load(1, XDATA, add(CFA_XSP16, literal(-10)))
          CFI VB load(1, XDATA, add(CFA_XSP16, literal(-11)))
          CFI R6 load(1, XDATA, add(CFA_XSP16, literal(-12)))
          CFI CFA_SP SP+0
          CFI CFA_XSP16 add(XSP16, 12)
        ; Saved register size: 12
        ; Auto size: 9
        MOV       A,#-0x9
        LCALL     ?ALLOC_XSTACK8
          CFI CFA_XSP16 add(XSP16, 21)
        MOV       A,R2
        MOV       R6,A
        MOV       A,R3
        MOV       R7,A
        MOV       ?V1,R1
        MOV       ?V0,R4
//  310   uint8 *pBuf = ZDP_TmpBuf;
        MOV       DPTR,#ZDP_TmpBuf
        MOVX      A,@DPTR
        MOV       ?V2,A
        INC       DPTR
        MOVX      A,@DPTR
        MOV       ?V3,A
//  311   byte len = Z_EXTADDR_LEN + 1 + 1;  // IEEEAddress + ReqType + StartIndex.
//  312   zAddrType_t dstAddr;
//  313 
//  314   (void)SecurityEnable;  // Intentionally unreferenced parameter
//  315 
//  316   if ( osal_ExtAddrEqual( saveExtAddr, IEEEAddress ) == FALSE )
        ; Setup parameters for call to function sAddrExtCmp
        MOV       A,R2
        MOV       R4,A
        MOV       A,R3
        MOV       R5,A
        MOV       R2,#saveExtAddr & 0xff
        MOV       R3,#(saveExtAddr >> 8) & 0xff
        LCALL     `??sAddrExtCmp::?relay`; Banked call to: sAddrExtCmp
        MOV       A,R1
        JNZ       ??ZDP_NwkAddrReq_0
//  317   {
//  318     dstAddr.addrMode = AddrBroadcast;
        MOV       A,#0x8
        LCALL     ?XSTACK_DISP0_8
        LCALL     ?Subroutine91 & 0xFFFF
//  319     dstAddr.addr.shortAddr = NWK_BROADCAST_SHORTADDR_DEVRXON;
//  320   }
??CrossCallReturnLabel_144:
        SJMP      ??ZDP_NwkAddrReq_1
//  321   else
//  322   {
//  323     dstAddr.addrMode = Addr16Bit;
??ZDP_NwkAddrReq_0:
        MOV       A,#0x8
        LCALL     ?XSTACK_DISP0_8
        MOV       A,#0x2
        MOVX      @DPTR,A
//  324     dstAddr.addr.shortAddr = ZDAppNwkAddr.addr.shortAddr;
        MOV       DPTR,#ZDAppNwkAddr
        LCALL     ?Subroutine44 & 0xFFFF
//  325   }
??CrossCallReturnLabel_64:
        MOV       A,R0
        MOVX      @DPTR,A
        INC       DPTR
        MOV       A,R1
??ZDP_NwkAddrReq_1:
        MOVX      @DPTR,A
//  326 
//  327   pBuf = osal_cpyExtAddr( pBuf, IEEEAddress );
        ; Setup parameters for call to function sAddrExtCpy
        MOV       A,R6
        MOV       R4,A
        MOV       A,R7
        MOV       R5,A
        MOV       R2,?V2
        MOV       R3,?V3
        LCALL     ?Subroutine67 & 0xFFFF
//  328 
//  329   *pBuf++ = ReqType;
??CrossCallReturnLabel_107:
        MOV       A,?V1
        MOVX      @DPTR,A
//  330   *pBuf++ = StartIndex;
        INC       DPTR
        MOV       A,?V0
        MOVX      @DPTR,A
//  331 
//  332   return fillAndSend( &ZDP_TransID, &dstAddr, NWK_addr_req, len );
        ; Setup parameters for call to function fillAndSend
        CLR       A
        MOV       ?V2,A
        MOV       ?V3,A
        MOV       R0,#?V2
        LCALL     ?PUSH_XSTACK_I_TWO
          CFI CFA_XSP16 add(XSP16, 23)
        MOV       R1,#0xa
        MOV       A,#0x2
        LCALL     ?XSTACK_DISP102_8
        LCALL     ?Subroutine64 & 0xFFFF
??CrossCallReturnLabel_287:
        LCALL     ?DEALLOC_XSTACK8
          CFI CFA_XSP16 add(XSP16, 21)
        MOV       A,#0x9
        LJMP      ??Subroutine127_0 & 0xFFFF
//  333 }
          CFI EndBlock cfiBlock3

        RSEG BANKED_CODE:HUGECODE:NOROOT(0)
?Subroutine44:
          CFI Block cfiCond4 Using cfiCommon0
          CFI Function fillAndSend
          CFI Conditional ??CrossCallReturnLabel_63
          CFI R6 load(1, XDATA, add(CFA_XSP16, literal(-13)))
          CFI VB load(1, XDATA, add(CFA_XSP16, literal(-12)))
          CFI V0 load(1, XDATA, add(CFA_XSP16, literal(-11)))
          CFI V1 load(1, XDATA, add(CFA_XSP16, literal(-10)))
          CFI V2 load(1, XDATA, add(CFA_XSP16, literal(-9)))
          CFI V3 load(1, XDATA, add(CFA_XSP16, literal(-8)))
          CFI V4 load(1, XDATA, add(CFA_XSP16, literal(-7)))
          CFI R7 load(1, XDATA, add(CFA_XSP16, literal(-6)))
          CFI ?RET_LOW load(1, XDATA, add(CFA_XSP16, literal(-5)))
          CFI ?RET_HIGH load(1, XDATA, add(CFA_XSP16, literal(-4)))
          CFI ?BRET_EXT load(1, XDATA, add(CFA_XSP16, literal(-3)))
          CFI DPL0 load(1, XDATA, add(CFA_XSP16, literal(-2)))
          CFI DPH0 load(1, XDATA, add(CFA_XSP16, literal(-1)))
          CFI CFA_SP SP+-2
          CFI CFA_XSP16 add(XSP16, 25)
          CFI Block cfiCond5 Using cfiCommon0
          CFI (cfiCond5) Function ZDP_NwkAddrReq
          CFI (cfiCond5) Conditional ??CrossCallReturnLabel_64
          CFI (cfiCond5) R6 load(1, XDATA, add(CFA_XSP16, literal(-12)))
          CFI (cfiCond5) VB load(1, XDATA, add(CFA_XSP16, literal(-11)))
          CFI (cfiCond5) V0 load(1, XDATA, add(CFA_XSP16, literal(-10)))
          CFI (cfiCond5) V1 load(1, XDATA, add(CFA_XSP16, literal(-9)))
          CFI (cfiCond5) V2 load(1, XDATA, add(CFA_XSP16, literal(-8)))
          CFI (cfiCond5) V3 load(1, XDATA, add(CFA_XSP16, literal(-7)))
          CFI (cfiCond5) R7 load(1, XDATA, add(CFA_XSP16, literal(-6)))
          CFI (cfiCond5) ?RET_LOW load(1, XDATA, add(CFA_XSP16, literal(-5)))
          CFI (cfiCond5) ?RET_HIGH load(1, XDATA, add(CFA_XSP16, literal(-4)))
          CFI (cfiCond5) ?BRET_EXT load(1, XDATA, add(CFA_XSP16, literal(-3)))
          CFI (cfiCond5) DPL0 load(1, XDATA, add(CFA_XSP16, literal(-2)))
          CFI (cfiCond5) DPH0 load(1, XDATA, add(CFA_XSP16, literal(-1)))
          CFI (cfiCond5) CFA_SP SP+-2
          CFI (cfiCond5) CFA_XSP16 add(XSP16, 21)
          CFI Block cfiPicker6 Using cfiCommon1
          CFI (cfiPicker6) NoFunction
          CFI (cfiPicker6) Picker
        LCALL     ?Subroutine81 & 0xFFFF
??CrossCallReturnLabel_330:
        MOV       DPL,?XSP + 0
        MOV       DPH,?XSP + 1
        RET
          CFI EndBlock cfiCond4
          CFI EndBlock cfiCond5
          CFI EndBlock cfiPicker6
//  334 
//  335 /*********************************************************************
//  336  * @fn          ZDP_IEEEAddrReq
//  337  *
//  338  * @brief       This builds and send a IEEE_addr_req message.  This
//  339  *              function sends a unicast message looking for a 64
//  340  *              bit IEEE address with a 16 bit address as bait.
//  341  *
//  342  * @param       ReqType - ZDP_IEEEADDR_REQTYPE_SINGLE or
//  343  *                        ZDP_IEEEADDR_REQTYPE_EXTENDED
//  344  * @param       SecurityEnable - Security Options
//  345  *
//  346  * @return      afStatus_t
//  347  */

        RSEG BANKED_CODE:HUGECODE:NOROOT(0)
//  348 afStatus_t ZDP_IEEEAddrReq( uint16 shortAddr, byte ReqType,
ZDP_IEEEAddrReq:
          CFI Block cfiBlock7 Using cfiCommon0
          CFI Function ZDP_IEEEAddrReq
        CODE
//  349                             byte StartIndex, byte SecurityEnable )
//  350 {
        FUNCALL ZDP_IEEEAddrReq, fillAndSend
        LOCFRAME ISTACK, 0, STACK
        LOCFRAME PSTACK, 0, STACK
        LOCFRAME XSTACK, 21, STACK
        LOCFRAME IOVERLAY, 0, STATIC
        LOCFRAME DOVERLAY, 0, STATIC
        ARGFRAME ISTACK, 0, STACK
        ARGFRAME PSTACK, 0, STACK
        ARGFRAME XSTACK, 21, STACK
        ARGFRAME IOVERLAY, 0, STATIC
        ARGFRAME DOVERLAY, 0, STATIC
        REQUIRE ?V0
        REQUIRE ?V1
        MOV       A,#-0xa
        LCALL     ?BANKED_ENTER_XDATA
          CFI DPH0 load(1, XDATA, add(CFA_XSP16, literal(-1)))
          CFI DPL0 load(1, XDATA, add(CFA_XSP16, literal(-2)))
          CFI ?BRET_EXT load(1, XDATA, add(CFA_XSP16, literal(-3)))
          CFI ?RET_HIGH load(1, XDATA, add(CFA_XSP16, literal(-4)))
          CFI ?RET_LOW load(1, XDATA, add(CFA_XSP16, literal(-5)))
          CFI R7 load(1, XDATA, add(CFA_XSP16, literal(-6)))
          CFI V1 load(1, XDATA, add(CFA_XSP16, literal(-7)))
          CFI V0 load(1, XDATA, add(CFA_XSP16, literal(-8)))
          CFI VB load(1, XDATA, add(CFA_XSP16, literal(-9)))
          CFI R6 load(1, XDATA, add(CFA_XSP16, literal(-10)))
          CFI CFA_SP SP+0
          CFI CFA_XSP16 add(XSP16, 10)
        ; Saved register size: 10
        ; Auto size: 9
        MOV       A,#-0x9
        LCALL     ?ALLOC_XSTACK8
          CFI CFA_XSP16 add(XSP16, 19)
        MOV       A,R1
        MOV       R7,A
//  351   uint8 *pBuf = ZDP_TmpBuf;
        LCALL     ??Subroutine143_0 & 0xFFFF
//  352   byte len = 2 + 1 + 1;  // shortAddr + ReqType + StartIndex.
//  353   zAddrType_t dstAddr;
//  354 
//  355   (void)SecurityEnable;  // Intentionally unreferenced parameter
//  356 
//  357   dstAddr.addrMode = (afAddrMode_t)Addr16Bit;
??CrossCallReturnLabel_328:
        MOV       A,#0x8
        LCALL     ?XSTACK_DISP0_8
        MOV       A,#0x2
        MOVX      @DPTR,A
//  358   dstAddr.addr.shortAddr = shortAddr;
        LCALL     ?Subroutine31 & 0xFFFF
//  359 
//  360   *pBuf++ = LO_UINT16( shortAddr );
??CrossCallReturnLabel_317:
        MOV       A,R2
        MOV       DPL,R0
        MOV       DPH,R1
        MOVX      @DPTR,A
//  361   *pBuf++ = HI_UINT16( shortAddr );
        MOV       A,R3
        INC       DPTR
        MOVX      @DPTR,A
//  362 
//  363   *pBuf++ = ReqType;
        MOV       A,R7
        MOV       DPL,R0
        MOV       DPH,R1
        INC       DPTR
        INC       DPTR
        MOVX      @DPTR,A
//  364   *pBuf++ = StartIndex;
        MOV       A,R4
        MOV       DPL,R0
        MOV       DPH,R1
        INC       DPTR
        INC       DPTR
        INC       DPTR
        MOVX      @DPTR,A
//  365 
//  366   return fillAndSend( &ZDP_TransID, &dstAddr, IEEE_addr_req, len );
        ; Setup parameters for call to function fillAndSend
        MOV       ?V0,#0x1
        MOV       ?V1,#0x0
        MOV       R0,#?V0
        LCALL     ?PUSH_XSTACK_I_TWO
          CFI CFA_XSP16 add(XSP16, 21)
        MOV       R1,#0x4
          CFI EndBlock cfiBlock7
        REQUIRE ?Subroutine6
        ; // Fall through to label ?Subroutine6
//  367 }

        RSEG BANKED_CODE:HUGECODE:NOROOT(0)
?Subroutine6:
          CFI Block cfiBlock8 Using cfiCommon0
          CFI NoFunction
          CFI CFA_SP SP+0
          CFI CFA_XSP16 add(XSP16, 21)
          CFI VB load(1, XDATA, add(CFA_XSP16, literal(-9)))
          CFI DPL0 load(1, XDATA, add(CFA_XSP16, literal(-2)))
          CFI DPH0 load(1, XDATA, add(CFA_XSP16, literal(-1)))
          CFI R6 load(1, XDATA, add(CFA_XSP16, literal(-10)))
          CFI R7 load(1, XDATA, add(CFA_XSP16, literal(-6)))
          CFI V0 load(1, XDATA, add(CFA_XSP16, literal(-8)))
          CFI V1 load(1, XDATA, add(CFA_XSP16, literal(-7)))
          CFI ?BRET_EXT load(1, XDATA, add(CFA_XSP16, literal(-3)))
          CFI ?RET_HIGH load(1, XDATA, add(CFA_XSP16, literal(-4)))
          CFI ?RET_LOW load(1, XDATA, add(CFA_XSP16, literal(-5)))
        MOV       A,#0x2
        LCALL     ?XSTACK_DISP102_8
        LCALL     ?Subroutine64 & 0xFFFF
??CrossCallReturnLabel_288:
        LCALL     ?DEALLOC_XSTACK8
          CFI EndBlock cfiBlock8
        REQUIRE ??Subroutine109_0
        ; // Fall through to label ??Subroutine109_0

        RSEG BANKED_CODE:HUGECODE:NOROOT(0)
??Subroutine109_0:
          CFI Block cfiBlock9 Using cfiCommon0
          CFI NoFunction
          CFI CFA_SP SP+0
          CFI CFA_XSP16 add(XSP16, 19)
          CFI VB load(1, XDATA, add(CFA_XSP16, literal(-9)))
          CFI DPL0 load(1, XDATA, add(CFA_XSP16, literal(-2)))
          CFI DPH0 load(1, XDATA, add(CFA_XSP16, literal(-1)))
          CFI R6 load(1, XDATA, add(CFA_XSP16, literal(-10)))
          CFI R7 load(1, XDATA, add(CFA_XSP16, literal(-6)))
          CFI V0 load(1, XDATA, add(CFA_XSP16, literal(-8)))
          CFI V1 load(1, XDATA, add(CFA_XSP16, literal(-7)))
          CFI ?BRET_EXT load(1, XDATA, add(CFA_XSP16, literal(-3)))
          CFI ?RET_HIGH load(1, XDATA, add(CFA_XSP16, literal(-4)))
          CFI ?RET_LOW load(1, XDATA, add(CFA_XSP16, literal(-5)))
        MOV       A,#0x9
        SJMP      ??Subroutine112_0
          CFI EndBlock cfiBlock9

        RSEG BANKED_CODE:HUGECODE:NOROOT(0)
?Subroutine1:
          CFI Block cfiBlock10 Using cfiCommon0
          CFI NoFunction
          CFI CFA_SP SP+0
          CFI CFA_XSP16 add(XSP16, 10)
          CFI VB load(1, XDATA, add(CFA_XSP16, literal(-9)))
          CFI DPL0 load(1, XDATA, add(CFA_XSP16, literal(-2)))
          CFI DPH0 load(1, XDATA, add(CFA_XSP16, literal(-1)))
          CFI R6 load(1, XDATA, add(CFA_XSP16, literal(-10)))
          CFI R7 load(1, XDATA, add(CFA_XSP16, literal(-6)))
          CFI V0 load(1, XDATA, add(CFA_XSP16, literal(-8)))
          CFI V1 load(1, XDATA, add(CFA_XSP16, literal(-7)))
          CFI ?BRET_EXT load(1, XDATA, add(CFA_XSP16, literal(-3)))
          CFI ?RET_HIGH load(1, XDATA, add(CFA_XSP16, literal(-4)))
          CFI ?RET_LOW load(1, XDATA, add(CFA_XSP16, literal(-5)))
        MOV       ?V1,#0x0
        MOV       R0,#?V0
        LCALL     ?PUSH_XSTACK_I_TWO
          CFI CFA_XSP16 add(XSP16, 12)
        MOV       R1,#0x2
          CFI EndBlock cfiBlock10
        REQUIRE ??Subroutine110_0
        ; // Fall through to label ??Subroutine110_0

        RSEG BANKED_CODE:HUGECODE:NOROOT(0)
??Subroutine110_0:
          CFI Block cfiBlock11 Using cfiCommon0
          CFI NoFunction
          CFI CFA_SP SP+0
          CFI CFA_XSP16 add(XSP16, 12)
          CFI VB load(1, XDATA, add(CFA_XSP16, literal(-9)))
          CFI DPL0 load(1, XDATA, add(CFA_XSP16, literal(-2)))
          CFI DPH0 load(1, XDATA, add(CFA_XSP16, literal(-1)))
          CFI R6 load(1, XDATA, add(CFA_XSP16, literal(-10)))
          CFI R7 load(1, XDATA, add(CFA_XSP16, literal(-6)))
          CFI V0 load(1, XDATA, add(CFA_XSP16, literal(-8)))
          CFI V1 load(1, XDATA, add(CFA_XSP16, literal(-7)))
          CFI ?BRET_EXT load(1, XDATA, add(CFA_XSP16, literal(-3)))
          CFI ?RET_HIGH load(1, XDATA, add(CFA_XSP16, literal(-4)))
          CFI ?RET_LOW load(1, XDATA, add(CFA_XSP16, literal(-5)))
        MOV       A,R2
        MOV       R4,A
        MOV       A,R3
        MOV       R5,A
        MOV       R2,#ZDP_TransID & 0xff
        MOV       R3,#(ZDP_TransID >> 8) & 0xff
          CFI EndBlock cfiBlock11
        REQUIRE ??Subroutine111_0
        ; // Fall through to label ??Subroutine111_0

        RSEG BANKED_CODE:HUGECODE:NOROOT(0)
??Subroutine111_0:
          CFI Block cfiBlock12 Using cfiCommon0
          CFI NoFunction
          CFI CFA_SP SP+0
          CFI CFA_XSP16 add(XSP16, 12)
          CFI VB load(1, XDATA, add(CFA_XSP16, literal(-9)))
          CFI DPL0 load(1, XDATA, add(CFA_XSP16, literal(-2)))
          CFI DPH0 load(1, XDATA, add(CFA_XSP16, literal(-1)))
          CFI R6 load(1, XDATA, add(CFA_XSP16, literal(-10)))
          CFI R7 load(1, XDATA, add(CFA_XSP16, literal(-6)))
          CFI V0 load(1, XDATA, add(CFA_XSP16, literal(-8)))
          CFI V1 load(1, XDATA, add(CFA_XSP16, literal(-7)))
          CFI ?BRET_EXT load(1, XDATA, add(CFA_XSP16, literal(-3)))
          CFI ?RET_HIGH load(1, XDATA, add(CFA_XSP16, literal(-4)))
          CFI ?RET_LOW load(1, XDATA, add(CFA_XSP16, literal(-5)))
        LCALL     ??Subroutine140_0 & 0xFFFF
??CrossCallReturnLabel_296:
          CFI EndBlock cfiBlock12
        REQUIRE ??Subroutine112_0
        ; // Fall through to label ??Subroutine112_0

        RSEG BANKED_CODE:HUGECODE:NOROOT(0)
??Subroutine112_0:
          CFI Block cfiBlock13 Using cfiCommon0
          CFI NoFunction
          CFI CFA_SP SP+0
          CFI CFA_XSP16 add(XSP16, 19)
          CFI VB load(1, XDATA, add(CFA_XSP16, literal(-9)))
          CFI DPL0 load(1, XDATA, add(CFA_XSP16, literal(-2)))
          CFI DPH0 load(1, XDATA, add(CFA_XSP16, literal(-1)))
          CFI R6 load(1, XDATA, add(CFA_XSP16, literal(-10)))
          CFI R7 load(1, XDATA, add(CFA_XSP16, literal(-6)))
          CFI V0 load(1, XDATA, add(CFA_XSP16, literal(-8)))
          CFI V1 load(1, XDATA, add(CFA_XSP16, literal(-7)))
          CFI ?BRET_EXT load(1, XDATA, add(CFA_XSP16, literal(-3)))
          CFI ?RET_HIGH load(1, XDATA, add(CFA_XSP16, literal(-4)))
          CFI ?RET_LOW load(1, XDATA, add(CFA_XSP16, literal(-5)))
          CFI Invalid
        LCALL     ?DEALLOC_XSTACK8
          CFI CFA_XSP16 add(XSP16, 10)
          CFI Valid
        MOV       R7,#0x2
        LJMP      ?BANKED_LEAVE_XDATA
          CFI EndBlock cfiBlock13
//  368 
//  369 /*********************************************************************
//  370  * @fn          ZDP_MatchDescReq
//  371  *
//  372  * @brief       This builds and send a Match_Desc_req message.  This
//  373  *              function sends a broadcast or unicast message
//  374  *              requesting the list of endpoint/interfaces that
//  375  *              match profile ID and cluster IDs.
//  376  *
//  377  * @param       dstAddr - destination address
//  378  * @param       nwkAddr - network address of interest
//  379  * @param       ProfileID - Profile ID
//  380  * @param       NumInClusters - number of input clusters
//  381  * @param       InClusterList - input cluster ID list
//  382  * @param       NumOutClusters - number of output clusters
//  383  * @param       OutClusterList - output cluster ID list
//  384  * @param       SecurityEnable - Security Options
//  385  *
//  386  * @return      afStatus_t
//  387  */

        RSEG BANKED_CODE:HUGECODE:NOROOT(0)
//  388 afStatus_t ZDP_MatchDescReq( zAddrType_t *dstAddr, uint16 nwkAddr,
ZDP_MatchDescReq:
          CFI Block cfiBlock14 Using cfiCommon0
          CFI Function ZDP_MatchDescReq
        CODE
//  389                                 uint16 ProfileID,
//  390                                 byte NumInClusters, cId_t *InClusterList,
//  391                                 byte NumOutClusters, cId_t *OutClusterList,
//  392                                 byte SecurityEnable )
//  393 {
        FUNCALL ZDP_MatchDescReq, fillAndSend
        LOCFRAME ISTACK, 0, STACK
        LOCFRAME PSTACK, 0, STACK
        LOCFRAME XSTACK, 16, STACK
        LOCFRAME IOVERLAY, 0, STATIC
        LOCFRAME DOVERLAY, 0, STATIC
        ARGFRAME ISTACK, 0, STACK
        ARGFRAME PSTACK, 0, STACK
        ARGFRAME XSTACK, 16, STACK
        ARGFRAME IOVERLAY, 0, STATIC
        ARGFRAME DOVERLAY, 0, STATIC
        REQUIRE ?V0
        REQUIRE ?V1
        REQUIRE ?V2
        REQUIRE ?V3
        REQUIRE ?V4
        REQUIRE ?V5
        MOV       A,#-0xe
        LCALL     ?BANKED_ENTER_XDATA
          CFI DPH0 load(1, XDATA, add(CFA_XSP16, literal(-1)))
          CFI DPL0 load(1, XDATA, add(CFA_XSP16, literal(-2)))
          CFI ?BRET_EXT load(1, XDATA, add(CFA_XSP16, literal(-3)))
          CFI ?RET_HIGH load(1, XDATA, add(CFA_XSP16, literal(-4)))
          CFI ?RET_LOW load(1, XDATA, add(CFA_XSP16, literal(-5)))
          CFI R7 load(1, XDATA, add(CFA_XSP16, literal(-6)))
          CFI V5 load(1, XDATA, add(CFA_XSP16, literal(-7)))
          CFI V4 load(1, XDATA, add(CFA_XSP16, literal(-8)))
          CFI V3 load(1, XDATA, add(CFA_XSP16, literal(-9)))
          CFI V2 load(1, XDATA, add(CFA_XSP16, literal(-10)))
          CFI V1 load(1, XDATA, add(CFA_XSP16, literal(-11)))
          CFI V0 load(1, XDATA, add(CFA_XSP16, literal(-12)))
          CFI VB load(1, XDATA, add(CFA_XSP16, literal(-13)))
          CFI R6 load(1, XDATA, add(CFA_XSP16, literal(-14)))
          CFI CFA_SP SP+0
          CFI CFA_XSP16 add(XSP16, 14)
        ; Saved register size: 14
        ; Auto size: 0
        MOV       ?V0,R4
        MOV       ?V1,R5
        LCALL     ?Subroutine47 & 0xFFFF
//  394   uint8 *pBuf = ZDP_TmpBuf;
??CrossCallReturnLabel_319:
        MOV       A,#0x12
        LCALL     ?XSTACK_DISP0_8
        MOVX      A,@DPTR
        MOV       R5,A
//  395   // nwkAddr+ProfileID+NumInClusters+NumOutClusters.
//  396   byte i, len = 2 + 2 + 1 + 1;  // nwkAddr+ProfileID+NumInClusters+NumOutClusters.
//  397 
//  398   (void)SecurityEnable;  // Intentionally unreferenced parameter
//  399 
//  400   len += (NumInClusters + NumOutClusters) * sizeof(uint16);
        MOV       A,R6
        ADD       A,R5
        CLR       C
        RLC       A
        ADD       A,#0x6
        MOV       R7,A
//  401 
//  402   if ( len >= ZDP_BUF_SZ-1 )
        CLR       C
        SUBB      A,#0x4f
        JC        ??ZDP_MatchDescReq_0
//  403   {
//  404     return afStatus_MEM_FAIL;
        MOV       R1,#0x10
        LJMP      ??ZDP_MatchDescReq_1 & 0xFFFF
//  405   }
//  406 
//  407   // The spec changed in Zigbee 2007 (2.4.3.1.7.1) to not allow sending
//  408   // this command to 0xFFFF.  So, here we will filter this and replace 
//  409   // with 0xFFFD to only send to devices with RX ON.  This includes the 
//  410   // network address of interest.
//  411   if ( ((dstAddr->addrMode == AddrBroadcast) || (dstAddr->addrMode == Addr16Bit))
//  412       && (dstAddr->addr.shortAddr == NWK_BROADCAST_SHORTADDR_DEVALL) )
??ZDP_MatchDescReq_0:
        MOV       DPL,R2
        MOV       DPH,R3
        INC       DPTR
        INC       DPTR
        INC       DPTR
        INC       DPTR
        INC       DPTR
        INC       DPTR
        INC       DPTR
        INC       DPTR
        MOVX      A,@DPTR
        XRL       A,#0xf
        JZ        ??ZDP_MatchDescReq_2
        MOV       DPL,R2
        MOV       DPH,R3
        INC       DPTR
        INC       DPTR
        INC       DPTR
        INC       DPTR
        INC       DPTR
        INC       DPTR
        INC       DPTR
        INC       DPTR
        MOVX      A,@DPTR
        XRL       A,#0x2
        JNZ       ??ZDP_MatchDescReq_3
??ZDP_MatchDescReq_2:
        MOV       DPL,R2
        MOV       DPH,R3
        MOVX      A,@DPTR
        CPL       A
        JNZ       ??ZDP_MatchDescReq_4
        INC       DPTR
        MOVX      A,@DPTR
        CPL       A
??ZDP_MatchDescReq_4:
        JNZ       ??ZDP_MatchDescReq_3
//  413   {
//  414     dstAddr->addr.shortAddr = NWK_BROADCAST_SHORTADDR_DEVRXON;
        MOV       DPL,R2
        MOV       DPH,R3
        MOV       A,#-0x3
        MOVX      @DPTR,A
        INC       DPTR
        MOV       A,#-0x1
        MOVX      @DPTR,A
//  415   }
//  416   if ( nwkAddr == NWK_BROADCAST_SHORTADDR_DEVALL )
??ZDP_MatchDescReq_3:
        MOV       A,#-0x1
        XRL       A,R4
        JNZ       ??ZDP_MatchDescReq_5
        MOV       A,#-0x1
        XRL       A,?V1
??ZDP_MatchDescReq_5:
        JNZ       ??ZDP_MatchDescReq_6
//  417   {
//  418     nwkAddr = NWK_BROADCAST_SHORTADDR_DEVRXON;
        MOV       ?V0,#-0x3
        MOV       ?V1,#-0x1
//  419   }
//  420   
//  421   *pBuf++ = LO_UINT16( nwkAddr );   // NWKAddrOfInterest
??ZDP_MatchDescReq_6:
        MOV       DPL,R0
        MOV       DPH,R1
        MOV       A,?V0
        MOVX      @DPTR,A
//  422   *pBuf++ = HI_UINT16( nwkAddr );
        MOV       A,?V1
        INC       DPTR
        MOVX      @DPTR,A
        MOV       A,#0xe
        LCALL     ?XSTACK_DISP0_8
        LCALL     ??Subroutine125_0 & 0xFFFF
//  423 
//  424   *pBuf++ = LO_UINT16( ProfileID );   // Profile ID
??CrossCallReturnLabel_220:
        MOV       DPL,R0
        MOV       DPH,R1
        INC       DPTR
        INC       DPTR
        MOV       A,?V0
        MOVX      @DPTR,A
//  425   *pBuf++ = HI_UINT16( ProfileID );
        MOV       A,?V1
        MOV       DPL,R0
        MOV       DPH,R1
        INC       DPTR
        INC       DPTR
        INC       DPTR
        MOVX      @DPTR,A
//  426 
//  427   *pBuf++ = NumInClusters; // Input cluster list
        MOV       A,R6
        MOV       DPL,R0
        MOV       DPH,R1
        INC       DPTR
        INC       DPTR
        INC       DPTR
        INC       DPTR
        MOVX      @DPTR,A
        MOV       A,R0
        ADD       A,#0x5
        MOV       R0,A
        JNC       ??ZDP_MatchDescReq_7
        INC       R1
//  428   if ( NumInClusters )
??ZDP_MatchDescReq_7:
        MOV       A,R6
        JZ        ??ZDP_MatchDescReq_8
//  429   {
//  430     for (i=0; i<NumInClusters; ++i)  {
        MOV       R4,#0x0
        MOV       A,#0x10
        LCALL     ?XSTACK_DISP0_8
        LCALL     ??Subroutine125_0 & 0xFFFF
//  431       *pBuf++ = LO_UINT16( InClusterList[i] );
??CrossCallReturnLabel_221:
        LCALL     ?Subroutine11 & 0xFFFF
//  432       *pBuf++ = HI_UINT16( InClusterList[i] );
//  433     }
??CrossCallReturnLabel_4:
        JNC       ??ZDP_MatchDescReq_9
        INC       R1
??ZDP_MatchDescReq_9:
        INC       R4
        MOV       A,R4
        CLR       C
        SUBB      A,R6
        JC        ??CrossCallReturnLabel_221
//  434   }
//  435 
//  436   *pBuf++ = NumOutClusters; // Output cluster list
??ZDP_MatchDescReq_8:
        MOV       A,R5
        MOV       DPL,R0
        MOV       DPH,R1
        MOVX      @DPTR,A
        INC       DPTR
        MOV       R0,DPL
        MOV       R1,DPH
//  437   if ( NumOutClusters )
        JZ        ??ZDP_MatchDescReq_10
//  438   {
//  439     for (i=0; i<NumOutClusters; ++i)  {
        MOV       R4,#0x0
        MOV       A,#0x13
        LCALL     ?XSTACK_DISP0_8
        LCALL     ??Subroutine125_0 & 0xFFFF
//  440       *pBuf++ = LO_UINT16( OutClusterList[i] );
??CrossCallReturnLabel_222:
        LCALL     ?Subroutine11 & 0xFFFF
//  441       *pBuf++ = HI_UINT16( OutClusterList[i] );
//  442     }
??CrossCallReturnLabel_5:
        JNC       ??ZDP_MatchDescReq_11
        INC       R1
??ZDP_MatchDescReq_11:
        INC       R4
        MOV       A,R4
        CLR       C
        SUBB      A,R5
        JC        ??CrossCallReturnLabel_222
//  443   }
//  444 
//  445   return fillAndSend( &ZDP_TransID, dstAddr, Match_Desc_req, len );
??ZDP_MatchDescReq_10:
        ; Setup parameters for call to function fillAndSend
        MOV       ?V0,#0x6
        MOV       ?V1,#0x0
        MOV       R0,#?V0
        LCALL     ?PUSH_XSTACK_I_TWO
          CFI CFA_XSP16 add(XSP16, 16)
        MOV       A,R7
        MOV       R1,A
        MOV       A,R2
        MOV       R4,A
        MOV       A,R3
        MOV       R5,A
        LCALL     ?Subroutine64 & 0xFFFF
??CrossCallReturnLabel_289:
        LCALL     ?DEALLOC_XSTACK8
          CFI CFA_XSP16 add(XSP16, 14)
??ZDP_MatchDescReq_1:
        SJMP      ??Subroutine113_0
//  446 }
          CFI EndBlock cfiBlock14

        RSEG BANKED_CODE:HUGECODE:NOROOT(0)
?Subroutine11:
          CFI Block cfiCond15 Using cfiCommon0
          CFI Function ZDP_MatchDescReq
          CFI Conditional ??CrossCallReturnLabel_4
          CFI R6 load(1, XDATA, add(CFA_XSP16, literal(-14)))
          CFI VB load(1, XDATA, add(CFA_XSP16, literal(-13)))
          CFI V0 load(1, XDATA, add(CFA_XSP16, literal(-12)))
          CFI V1 load(1, XDATA, add(CFA_XSP16, literal(-11)))
          CFI V2 load(1, XDATA, add(CFA_XSP16, literal(-10)))
          CFI V3 load(1, XDATA, add(CFA_XSP16, literal(-9)))
          CFI V4 load(1, XDATA, add(CFA_XSP16, literal(-8)))
          CFI V5 load(1, XDATA, add(CFA_XSP16, literal(-7)))
          CFI R7 load(1, XDATA, add(CFA_XSP16, literal(-6)))
          CFI ?RET_LOW load(1, XDATA, add(CFA_XSP16, literal(-5)))
          CFI ?RET_HIGH load(1, XDATA, add(CFA_XSP16, literal(-4)))
          CFI ?BRET_EXT load(1, XDATA, add(CFA_XSP16, literal(-3)))
          CFI DPL0 load(1, XDATA, add(CFA_XSP16, literal(-2)))
          CFI DPH0 load(1, XDATA, add(CFA_XSP16, literal(-1)))
          CFI CFA_SP SP+-2
          CFI CFA_XSP16 add(XSP16, 14)
          CFI Block cfiCond16 Using cfiCommon0
          CFI (cfiCond16) Function ZDP_MatchDescReq
          CFI (cfiCond16) Conditional ??CrossCallReturnLabel_5
          CFI (cfiCond16) R6 load(1, XDATA, add(CFA_XSP16, literal(-14)))
          CFI (cfiCond16) VB load(1, XDATA, add(CFA_XSP16, literal(-13)))
          CFI (cfiCond16) V0 load(1, XDATA, add(CFA_XSP16, literal(-12)))
          CFI (cfiCond16) V1 load(1, XDATA, add(CFA_XSP16, literal(-11)))
          CFI (cfiCond16) V2 load(1, XDATA, add(CFA_XSP16, literal(-10)))
          CFI (cfiCond16) V3 load(1, XDATA, add(CFA_XSP16, literal(-9)))
          CFI (cfiCond16) V4 load(1, XDATA, add(CFA_XSP16, literal(-8)))
          CFI (cfiCond16) V5 load(1, XDATA, add(CFA_XSP16, literal(-7)))
          CFI (cfiCond16) R7 load(1, XDATA, add(CFA_XSP16, literal(-6)))
          CFI (cfiCond16) ?RET_LOW load(1, XDATA, add(CFA_XSP16, literal(-5)))
          CFI (cfiCond16) ?RET_HIGH load(1, XDATA, add(CFA_XSP16, literal(-4)))
          CFI (cfiCond16) ?BRET_EXT load(1, XDATA, add(CFA_XSP16, literal(-3)))
          CFI (cfiCond16) DPL0 load(1, XDATA, add(CFA_XSP16, literal(-2)))
          CFI (cfiCond16) DPH0 load(1, XDATA, add(CFA_XSP16, literal(-1)))
          CFI (cfiCond16) CFA_SP SP+-2
          CFI (cfiCond16) CFA_XSP16 add(XSP16, 14)
          CFI Block cfiPicker17 Using cfiCommon1
          CFI (cfiPicker17) NoFunction
          CFI (cfiPicker17) Picker
        MOV       A,R4
        ADD       A,0xE0 /* A   */
        MOV       ?V2,A
        CLR       A
        RLC       A
        MOV       ?V3,A
        MOV       A,?V0
        ADD       A,?V2
        MOV       ?V4,A
        MOV       A,?V1
        ADDC      A,?V3
        MOV       ?V5,A
        MOV       DPL,?V4
        MOV       DPH,A
        LCALL     ?Subroutine103 & 0xFFFF
??CrossCallReturnLabel_166:
        LCALL     ?Subroutine97 & 0xFFFF
??CrossCallReturnLabel_155:
        LCALL     ?Subroutine103 & 0xFFFF
??CrossCallReturnLabel_167:
        INC       DPTR
        MOVX      @DPTR,A
        MOV       A,R0
        ADD       A,#0x2
        MOV       R0,A
        RET
          CFI EndBlock cfiCond15
          CFI EndBlock cfiCond16
          CFI EndBlock cfiPicker17

        RSEG BANKED_CODE:HUGECODE:NOROOT(0)
?Subroutine2:
          CFI Block cfiBlock18 Using cfiCommon0
          CFI NoFunction
          CFI CFA_SP SP+0
          CFI CFA_XSP16 add(XSP16, 16)
          CFI VB load(1, XDATA, add(CFA_XSP16, literal(-13)))
          CFI DPL0 load(1, XDATA, add(CFA_XSP16, literal(-2)))
          CFI DPH0 load(1, XDATA, add(CFA_XSP16, literal(-1)))
          CFI R6 load(1, XDATA, add(CFA_XSP16, literal(-14)))
          CFI R7 load(1, XDATA, add(CFA_XSP16, literal(-6)))
          CFI V0 load(1, XDATA, add(CFA_XSP16, literal(-12)))
          CFI V1 load(1, XDATA, add(CFA_XSP16, literal(-11)))
          CFI V2 load(1, XDATA, add(CFA_XSP16, literal(-10)))
          CFI V3 load(1, XDATA, add(CFA_XSP16, literal(-9)))
          CFI V4 load(1, XDATA, add(CFA_XSP16, literal(-8)))
          CFI V5 load(1, XDATA, add(CFA_XSP16, literal(-7)))
          CFI ?BRET_EXT load(1, XDATA, add(CFA_XSP16, literal(-3)))
          CFI ?RET_HIGH load(1, XDATA, add(CFA_XSP16, literal(-4)))
          CFI ?RET_LOW load(1, XDATA, add(CFA_XSP16, literal(-5)))
        MOV       R4,?V4
        MOV       R5,?V5
        LCALL     ?Subroutine64 & 0xFFFF
??CrossCallReturnLabel_290:
        LCALL     ?DEALLOC_XSTACK8
          CFI EndBlock cfiBlock18
        REQUIRE ??Subroutine113_0
        ; // Fall through to label ??Subroutine113_0

        RSEG BANKED_CODE:HUGECODE:NOROOT(0)
??Subroutine113_0:
          CFI Block cfiBlock19 Using cfiCommon0
          CFI NoFunction
          CFI CFA_SP SP+0
          CFI CFA_XSP16 add(XSP16, 14)
          CFI VB load(1, XDATA, add(CFA_XSP16, literal(-13)))
          CFI DPL0 load(1, XDATA, add(CFA_XSP16, literal(-2)))
          CFI DPH0 load(1, XDATA, add(CFA_XSP16, literal(-1)))
          CFI R6 load(1, XDATA, add(CFA_XSP16, literal(-14)))
          CFI R7 load(1, XDATA, add(CFA_XSP16, literal(-6)))
          CFI V0 load(1, XDATA, add(CFA_XSP16, literal(-12)))
          CFI V1 load(1, XDATA, add(CFA_XSP16, literal(-11)))
          CFI V2 load(1, XDATA, add(CFA_XSP16, literal(-10)))
          CFI V3 load(1, XDATA, add(CFA_XSP16, literal(-9)))
          CFI V4 load(1, XDATA, add(CFA_XSP16, literal(-8)))
          CFI V5 load(1, XDATA, add(CFA_XSP16, literal(-7)))
          CFI ?BRET_EXT load(1, XDATA, add(CFA_XSP16, literal(-3)))
          CFI ?RET_HIGH load(1, XDATA, add(CFA_XSP16, literal(-4)))
          CFI ?RET_LOW load(1, XDATA, add(CFA_XSP16, literal(-5)))
        MOV       R7,#0x6
        LJMP      ?BANKED_LEAVE_XDATA
          CFI EndBlock cfiBlock19
//  447 
//  448 /*********************************************************************
//  449  * @fn          ZDP_SimpleDescReq
//  450  *
//  451  * @brief       This builds and send a NWK_Simple_Desc_req
//  452  *              message.  This function sends unicast message to the
//  453  *              destination device.
//  454  *
//  455  * @param       dstAddr - destination address
//  456  * @param       nwkAddr - 16 bit address
//  457  * @param       epIntf - endpoint/interface
//  458  * @param       SecurityEnable - Security Options
//  459  *
//  460  * @return      afStatus_t
//  461  */

        RSEG BANKED_CODE:HUGECODE:NOROOT(0)
//  462 afStatus_t ZDP_SimpleDescReq( zAddrType_t *dstAddr, uint16 nwkAddr,
ZDP_SimpleDescReq:
          CFI Block cfiBlock20 Using cfiCommon0
          CFI Function ZDP_SimpleDescReq
        CODE
//  463                                     byte endPoint, byte SecurityEnable )
//  464 
//  465 {
        FUNCALL ZDP_SimpleDescReq, fillAndSend
        LOCFRAME ISTACK, 0, STACK
        LOCFRAME PSTACK, 0, STACK
        LOCFRAME XSTACK, 12, STACK
        LOCFRAME IOVERLAY, 0, STATIC
        LOCFRAME DOVERLAY, 0, STATIC
        ARGFRAME ISTACK, 0, STACK
        ARGFRAME PSTACK, 0, STACK
        ARGFRAME XSTACK, 12, STACK
        ARGFRAME IOVERLAY, 0, STATIC
        ARGFRAME DOVERLAY, 0, STATIC
        REQUIRE ?V0
        REQUIRE ?V1
        MOV       A,#-0xa
        LCALL     ?BANKED_ENTER_XDATA
          CFI DPH0 load(1, XDATA, add(CFA_XSP16, literal(-1)))
          CFI DPL0 load(1, XDATA, add(CFA_XSP16, literal(-2)))
          CFI ?BRET_EXT load(1, XDATA, add(CFA_XSP16, literal(-3)))
          CFI ?RET_HIGH load(1, XDATA, add(CFA_XSP16, literal(-4)))
          CFI ?RET_LOW load(1, XDATA, add(CFA_XSP16, literal(-5)))
          CFI R7 load(1, XDATA, add(CFA_XSP16, literal(-6)))
          CFI V1 load(1, XDATA, add(CFA_XSP16, literal(-7)))
          CFI V0 load(1, XDATA, add(CFA_XSP16, literal(-8)))
          CFI VB load(1, XDATA, add(CFA_XSP16, literal(-9)))
          CFI R6 load(1, XDATA, add(CFA_XSP16, literal(-10)))
          CFI CFA_SP SP+0
          CFI CFA_XSP16 add(XSP16, 10)
        ; Saved register size: 10
        ; Auto size: 0
//  466   (void)SecurityEnable;  // Intentionally unreferenced parameter
//  467 
//  468   ZDP_TmpBuf[0] = LO_UINT16( nwkAddr );
        LCALL     ?Subroutine18 & 0xFFFF
//  469   ZDP_TmpBuf[1] = HI_UINT16( nwkAddr );
??CrossCallReturnLabel_23:
        LCALL     ?Subroutine13 & 0xFFFF
//  470   ZDP_TmpBuf[2] = endPoint;
//  471 
//  472   return fillAndSend( &ZDP_TransID, dstAddr, Simple_Desc_req, 3 );
??CrossCallReturnLabel_8:
        ; Setup parameters for call to function fillAndSend
        MOV       ?V0,#0x4
        MOV       ?V1,#0x0
        MOV       R0,#?V0
        LCALL     ?PUSH_XSTACK_I_TWO
          CFI CFA_XSP16 add(XSP16, 12)
        MOV       R1,#0x3
        LJMP      ??Subroutine110_0 & 0xFFFF
//  473 }
          CFI EndBlock cfiBlock20

        RSEG BANKED_CODE:HUGECODE:NOROOT(0)
?Subroutine18:
          CFI Block cfiCond21 Using cfiCommon0
          CFI Function ZDP_NWKAddrOfInterestReq
          CFI Conditional ??CrossCallReturnLabel_22
          CFI R6 load(1, XDATA, add(CFA_XSP16, literal(-10)))
          CFI VB load(1, XDATA, add(CFA_XSP16, literal(-9)))
          CFI V0 load(1, XDATA, add(CFA_XSP16, literal(-8)))
          CFI V1 load(1, XDATA, add(CFA_XSP16, literal(-7)))
          CFI R7 load(1, XDATA, add(CFA_XSP16, literal(-6)))
          CFI ?RET_LOW load(1, XDATA, add(CFA_XSP16, literal(-5)))
          CFI ?RET_HIGH load(1, XDATA, add(CFA_XSP16, literal(-4)))
          CFI ?BRET_EXT load(1, XDATA, add(CFA_XSP16, literal(-3)))
          CFI DPL0 load(1, XDATA, add(CFA_XSP16, literal(-2)))
          CFI DPH0 load(1, XDATA, add(CFA_XSP16, literal(-1)))
          CFI CFA_SP SP+-2
          CFI CFA_XSP16 add(XSP16, 10)
          CFI Block cfiCond22 Using cfiCommon0
          CFI (cfiCond22) Function ZDP_SimpleDescReq
          CFI (cfiCond22) Conditional ??CrossCallReturnLabel_23
          CFI (cfiCond22) R6 load(1, XDATA, add(CFA_XSP16, literal(-10)))
          CFI (cfiCond22) VB load(1, XDATA, add(CFA_XSP16, literal(-9)))
          CFI (cfiCond22) V0 load(1, XDATA, add(CFA_XSP16, literal(-8)))
          CFI (cfiCond22) V1 load(1, XDATA, add(CFA_XSP16, literal(-7)))
          CFI (cfiCond22) R7 load(1, XDATA, add(CFA_XSP16, literal(-6)))
          CFI (cfiCond22) ?RET_LOW load(1, XDATA, add(CFA_XSP16, literal(-5)))
          CFI (cfiCond22) ?RET_HIGH load(1, XDATA, add(CFA_XSP16, literal(-4)))
          CFI (cfiCond22) ?BRET_EXT load(1, XDATA, add(CFA_XSP16, literal(-3)))
          CFI (cfiCond22) DPL0 load(1, XDATA, add(CFA_XSP16, literal(-2)))
          CFI (cfiCond22) DPH0 load(1, XDATA, add(CFA_XSP16, literal(-1)))
          CFI (cfiCond22) CFA_SP SP+-2
          CFI (cfiCond22) CFA_XSP16 add(XSP16, 10)
          CFI Block cfiPicker23 Using cfiCommon1
          CFI (cfiPicker23) NoFunction
          CFI (cfiPicker23) Picker
        MOV       DPTR,#ZDP_TmpBuf
        LCALL     ?Subroutine89 & 0xFFFF
??CrossCallReturnLabel_218:
        MOV       A,R4
        LCALL     ?Subroutine79 & 0xFFFF
??CrossCallReturnLabel_238:
        MOV       A,R5
        RET
          CFI EndBlock cfiCond21
          CFI EndBlock cfiCond22
          CFI EndBlock cfiPicker23
//  474 
//  475 /*********************************************************************
//  476  * @fn          ZDP_UserDescSet
//  477  *
//  478  * @brief       This builds and send a User_Desc_set message to set
//  479  *              the user descriptor.  This function sends unicast
//  480  *              message to the destination device.
//  481  *
//  482  * @param       dstAddr - destination address
//  483  * @param       nwkAddr - 16 bit address
//  484  * @param       UserDescriptor - user descriptor
//  485  * @param       SecurityEnable - Security Options
//  486  *
//  487  * @return      afStatus_t
//  488  */

        RSEG BANKED_CODE:HUGECODE:NOROOT(0)
//  489 afStatus_t ZDP_UserDescSet( zAddrType_t *dstAddr, uint16 nwkAddr,
ZDP_UserDescSet:
          CFI Block cfiBlock24 Using cfiCommon0
          CFI Function ZDP_UserDescSet
        CODE
//  490                           UserDescriptorFormat_t *UserDescriptor,
//  491                           byte SecurityEnable )
//  492 {
        FUNCALL ZDP_UserDescSet, osal_memcpy
        LOCFRAME ISTACK, 0, STACK
        LOCFRAME PSTACK, 0, STACK
        LOCFRAME XSTACK, 17, STACK
        LOCFRAME IOVERLAY, 0, STATIC
        LOCFRAME DOVERLAY, 0, STATIC
        ARGFRAME ISTACK, 0, STACK
        ARGFRAME PSTACK, 0, STACK
        ARGFRAME XSTACK, 17, STACK
        ARGFRAME IOVERLAY, 0, STATIC
        ARGFRAME DOVERLAY, 0, STATIC
        FUNCALL ZDP_UserDescSet, osal_memset
        LOCFRAME ISTACK, 0, STACK
        LOCFRAME PSTACK, 0, STACK
        LOCFRAME XSTACK, 14, STACK
        LOCFRAME IOVERLAY, 0, STATIC
        LOCFRAME DOVERLAY, 0, STATIC
        ARGFRAME ISTACK, 0, STACK
        ARGFRAME PSTACK, 0, STACK
        ARGFRAME XSTACK, 14, STACK
        ARGFRAME IOVERLAY, 0, STATIC
        ARGFRAME DOVERLAY, 0, STATIC
        FUNCALL ZDP_UserDescSet, fillAndSend
        LOCFRAME ISTACK, 0, STACK
        LOCFRAME PSTACK, 0, STACK
        LOCFRAME XSTACK, 16, STACK
        LOCFRAME IOVERLAY, 0, STATIC
        LOCFRAME DOVERLAY, 0, STATIC
        ARGFRAME ISTACK, 0, STACK
        ARGFRAME PSTACK, 0, STACK
        ARGFRAME XSTACK, 16, STACK
        ARGFRAME IOVERLAY, 0, STATIC
        ARGFRAME DOVERLAY, 0, STATIC
        REQUIRE ?V0
        REQUIRE ?V1
        REQUIRE ?V2
        REQUIRE ?V4
        REQUIRE ?V5
        MOV       A,#-0xe
        LCALL     ?BANKED_ENTER_XDATA
          CFI DPH0 load(1, XDATA, add(CFA_XSP16, literal(-1)))
          CFI DPL0 load(1, XDATA, add(CFA_XSP16, literal(-2)))
          CFI ?BRET_EXT load(1, XDATA, add(CFA_XSP16, literal(-3)))
          CFI ?RET_HIGH load(1, XDATA, add(CFA_XSP16, literal(-4)))
          CFI ?RET_LOW load(1, XDATA, add(CFA_XSP16, literal(-5)))
          CFI R7 load(1, XDATA, add(CFA_XSP16, literal(-6)))
          CFI V5 load(1, XDATA, add(CFA_XSP16, literal(-7)))
          CFI V4 load(1, XDATA, add(CFA_XSP16, literal(-8)))
          CFI V3 load(1, XDATA, add(CFA_XSP16, literal(-9)))
          CFI V2 load(1, XDATA, add(CFA_XSP16, literal(-10)))
          CFI V1 load(1, XDATA, add(CFA_XSP16, literal(-11)))
          CFI V0 load(1, XDATA, add(CFA_XSP16, literal(-12)))
          CFI VB load(1, XDATA, add(CFA_XSP16, literal(-13)))
          CFI R6 load(1, XDATA, add(CFA_XSP16, literal(-14)))
          CFI CFA_SP SP+0
          CFI CFA_XSP16 add(XSP16, 14)
        ; Saved register size: 14
        ; Auto size: 0
        MOV       ?V4,R2
        MOV       ?V5,R3
//  493   uint8 *pBuf = ZDP_TmpBuf;
        LCALL     ?Subroutine52 & 0xFFFF
??CrossCallReturnLabel_195:
        MOV       A,#0xe
        LCALL     ?XSTACK_DISP0_8
        LCALL     ?Subroutine36 & 0xFFFF
//  494   byte len = (UserDescriptor->len < AF_MAX_USER_DESCRIPTOR_LEN) ?
//  495               UserDescriptor->len : AF_MAX_USER_DESCRIPTOR_LEN;
??CrossCallReturnLabel_44:
        CLR       C
        SUBB      A,#0x10
        JNC       ??ZDP_UserDescSet_0
        MOVX      A,@DPTR
        MOV       R7,A
        SJMP      ??ZDP_UserDescSet_1
??ZDP_UserDescSet_0:
        MOV       R7,#0x10
//  496   byte addrLen = 2;
//  497 
//  498   (void)SecurityEnable;  // Intentionally unreferenced parameter
//  499 
//  500   *pBuf++ = LO_UINT16( nwkAddr );
??ZDP_UserDescSet_1:
        MOV       A,R4
        MOV       DPL,R2
        MOV       DPH,R3
        MOVX      @DPTR,A
//  501   *pBuf++ = HI_UINT16( nwkAddr );
        MOV       A,R5
        INC       DPTR
        MOVX      @DPTR,A
//  502 
//  503   *pBuf++ = len;
        MOV       A,R7
        MOV       DPL,R2
        MOV       DPH,R3
        LCALL     ??Subroutine114_0 & 0xFFFF
//  504   addrLen = 3;
//  505 
//  506   pBuf = osal_memcpy( pBuf, UserDescriptor->desc, len );
??CrossCallReturnLabel_174:
        MOV       R4,DPL
        MOV       R5,DPH
        MOV       ?V0,R4
        MOV       ?V1,R5
        MOV       ?V2,#0x0
        MOV       R0,#?V0
        LCALL     ?PUSH_XSTACK_I_THREE
          CFI CFA_XSP16 add(XSP16, 17)
        MOV       A,R7
        MOV       R4,A
        MOV       R5,#0x0
        MOV       A,R2
        ADD       A,#0x3
        MOV       R2,A
        JNC       ??ZDP_UserDescSet_2
        INC       R3
??ZDP_UserDescSet_2:
        LCALL     ??Subroutine123_0 & 0xFFFF
??CrossCallReturnLabel_207:
        LCALL     ?DEALLOC_XSTACK8
          CFI CFA_XSP16 add(XSP16, 14)
//  507   osal_memset( pBuf, AF_USER_DESCRIPTOR_FILL, AF_MAX_USER_DESCRIPTOR_LEN-len );
        ; Setup parameters for call to function osal_memset
        MOV       A,R7
        MOV       R0,A
        MOV       A,#0x10
        CLR       C
        SUBB      A,R0
        MOV       R4,A
        SUBB      A,0xE0 /* A   */
        MOV       R5,A
        MOV       R1,#0x20
        LCALL     `??osal_memset::?relay`; Banked call to: osal_memset
//  508 
//  509   return fillAndSend( &ZDP_TransID, dstAddr, User_Desc_set, (AF_MAX_USER_DESCRIPTOR_LEN + addrLen) );
        ; Setup parameters for call to function fillAndSend
        MOV       ?V0,#0x14
        MOV       ?V1,#0x0
        MOV       R0,#?V0
        LCALL     ?PUSH_XSTACK_I_TWO
          CFI CFA_XSP16 add(XSP16, 16)
        MOV       R1,#0x13
        LJMP      ?Subroutine2 & 0xFFFF
//  510 }
          CFI EndBlock cfiBlock24

        RSEG BANKED_CODE:HUGECODE:NOROOT(0)
?Subroutine29:
          CFI Block cfiCond25 Using cfiCommon0
          CFI Function ZDP_NodeDescMsg
          CFI Conditional ??CrossCallReturnLabel_172
          CFI R6 load(1, XDATA, add(CFA_XSP16, literal(-10)))
          CFI VB load(1, XDATA, add(CFA_XSP16, literal(-9)))
          CFI V0 load(1, XDATA, add(CFA_XSP16, literal(-8)))
          CFI V1 load(1, XDATA, add(CFA_XSP16, literal(-7)))
          CFI R7 load(1, XDATA, add(CFA_XSP16, literal(-6)))
          CFI ?RET_LOW load(1, XDATA, add(CFA_XSP16, literal(-5)))
          CFI ?RET_HIGH load(1, XDATA, add(CFA_XSP16, literal(-4)))
          CFI ?BRET_EXT load(1, XDATA, add(CFA_XSP16, literal(-3)))
          CFI DPL0 load(1, XDATA, add(CFA_XSP16, literal(-2)))
          CFI DPH0 load(1, XDATA, add(CFA_XSP16, literal(-1)))
          CFI CFA_SP SP+-2
          CFI CFA_XSP16 add(XSP16, 10)
          CFI Block cfiCond26 Using cfiCommon0
          CFI (cfiCond26) Function ZDP_NodeDescMsg
          CFI (cfiCond26) Conditional ??CrossCallReturnLabel_173
          CFI (cfiCond26) R6 load(1, XDATA, add(CFA_XSP16, literal(-10)))
          CFI (cfiCond26) VB load(1, XDATA, add(CFA_XSP16, literal(-9)))
          CFI (cfiCond26) V0 load(1, XDATA, add(CFA_XSP16, literal(-8)))
          CFI (cfiCond26) V1 load(1, XDATA, add(CFA_XSP16, literal(-7)))
          CFI (cfiCond26) R7 load(1, XDATA, add(CFA_XSP16, literal(-6)))
          CFI (cfiCond26) ?RET_LOW load(1, XDATA, add(CFA_XSP16, literal(-5)))
          CFI (cfiCond26) ?RET_HIGH load(1, XDATA, add(CFA_XSP16, literal(-4)))
          CFI (cfiCond26) ?BRET_EXT load(1, XDATA, add(CFA_XSP16, literal(-3)))
          CFI (cfiCond26) DPL0 load(1, XDATA, add(CFA_XSP16, literal(-2)))
          CFI (cfiCond26) DPH0 load(1, XDATA, add(CFA_XSP16, literal(-1)))
          CFI (cfiCond26) CFA_SP SP+-2
          CFI (cfiCond26) CFA_XSP16 add(XSP16, 10)
          CFI Block cfiPicker27 Using cfiCommon1
          CFI (cfiPicker27) NoFunction
          CFI (cfiPicker27) Picker
        INC       DPTR
          CFI EndBlock cfiCond25
          CFI EndBlock cfiCond26
          CFI EndBlock cfiPicker27
        REQUIRE ??Subroutine114_0
        ; // Fall through to label ??Subroutine114_0

        RSEG BANKED_CODE:HUGECODE:NOROOT(0)
??Subroutine114_0:
          CFI Block cfiCond28 Using cfiCommon0
          CFI Function ZDP_UserDescSet
          CFI Conditional ??CrossCallReturnLabel_174
          CFI R6 load(1, XDATA, add(CFA_XSP16, literal(-14)))
          CFI VB load(1, XDATA, add(CFA_XSP16, literal(-13)))
          CFI V0 load(1, XDATA, add(CFA_XSP16, literal(-12)))
          CFI V1 load(1, XDATA, add(CFA_XSP16, literal(-11)))
          CFI V2 load(1, XDATA, add(CFA_XSP16, literal(-10)))
          CFI V3 load(1, XDATA, add(CFA_XSP16, literal(-9)))
          CFI V4 load(1, XDATA, add(CFA_XSP16, literal(-8)))
          CFI V5 load(1, XDATA, add(CFA_XSP16, literal(-7)))
          CFI R7 load(1, XDATA, add(CFA_XSP16, literal(-6)))
          CFI ?RET_LOW load(1, XDATA, add(CFA_XSP16, literal(-5)))
          CFI ?RET_HIGH load(1, XDATA, add(CFA_XSP16, literal(-4)))
          CFI ?BRET_EXT load(1, XDATA, add(CFA_XSP16, literal(-3)))
          CFI DPL0 load(1, XDATA, add(CFA_XSP16, literal(-2)))
          CFI DPH0 load(1, XDATA, add(CFA_XSP16, literal(-1)))
          CFI CFA_SP SP+-2
          CFI CFA_XSP16 add(XSP16, 14)
          CFI Block cfiCond29 Using cfiCommon0
          CFI (cfiCond29) Function ZDP_NodeDescMsg
          CFI (cfiCond29) Conditional ??CrossCallReturnLabel_172
          CFI (cfiCond29) R6 load(1, XDATA, add(CFA_XSP16, literal(-10)))
          CFI (cfiCond29) VB load(1, XDATA, add(CFA_XSP16, literal(-9)))
          CFI (cfiCond29) V0 load(1, XDATA, add(CFA_XSP16, literal(-8)))
          CFI (cfiCond29) V1 load(1, XDATA, add(CFA_XSP16, literal(-7)))
          CFI (cfiCond29) R7 load(1, XDATA, add(CFA_XSP16, literal(-6)))
          CFI (cfiCond29) ?RET_LOW load(1, XDATA, add(CFA_XSP16, literal(-5)))
          CFI (cfiCond29) ?RET_HIGH load(1, XDATA, add(CFA_XSP16, literal(-4)))
          CFI (cfiCond29) ?BRET_EXT load(1, XDATA, add(CFA_XSP16, literal(-3)))
          CFI (cfiCond29) DPL0 load(1, XDATA, add(CFA_XSP16, literal(-2)))
          CFI (cfiCond29) DPH0 load(1, XDATA, add(CFA_XSP16, literal(-1)))
          CFI (cfiCond29) CFA_SP SP+-2
          CFI (cfiCond29) CFA_XSP16 add(XSP16, 10)
          CFI Block cfiCond30 Using cfiCommon0
          CFI (cfiCond30) Function ZDP_NodeDescMsg
          CFI (cfiCond30) Conditional ??CrossCallReturnLabel_173
          CFI (cfiCond30) R6 load(1, XDATA, add(CFA_XSP16, literal(-10)))
          CFI (cfiCond30) VB load(1, XDATA, add(CFA_XSP16, literal(-9)))
          CFI (cfiCond30) V0 load(1, XDATA, add(CFA_XSP16, literal(-8)))
          CFI (cfiCond30) V1 load(1, XDATA, add(CFA_XSP16, literal(-7)))
          CFI (cfiCond30) R7 load(1, XDATA, add(CFA_XSP16, literal(-6)))
          CFI (cfiCond30) ?RET_LOW load(1, XDATA, add(CFA_XSP16, literal(-5)))
          CFI (cfiCond30) ?RET_HIGH load(1, XDATA, add(CFA_XSP16, literal(-4)))
          CFI (cfiCond30) ?BRET_EXT load(1, XDATA, add(CFA_XSP16, literal(-3)))
          CFI (cfiCond30) DPL0 load(1, XDATA, add(CFA_XSP16, literal(-2)))
          CFI (cfiCond30) DPH0 load(1, XDATA, add(CFA_XSP16, literal(-1)))
          CFI (cfiCond30) CFA_SP SP+-2
          CFI (cfiCond30) CFA_XSP16 add(XSP16, 10)
          CFI Block cfiPicker31 Using cfiCommon1
          CFI (cfiPicker31) NoFunction
          CFI (cfiPicker31) Picker
        INC       DPTR
        INC       DPTR
          CFI EndBlock cfiCond28
          CFI EndBlock cfiCond29
          CFI EndBlock cfiCond30
          CFI EndBlock cfiPicker31
        REQUIRE ??Subroutine115_0
        ; // Fall through to label ??Subroutine115_0

        RSEG BANKED_CODE:HUGECODE:NOROOT(0)
??Subroutine115_0:
          CFI Block cfiCond32 Using cfiCommon0
          CFI Function ZDP_SendData
          CFI Conditional ??CrossCallReturnLabel_175
          CFI R6 load(1, XDATA, add(CFA_XSP16, literal(-12)))
          CFI VB load(1, XDATA, add(CFA_XSP16, literal(-11)))
          CFI V0 load(1, XDATA, add(CFA_XSP16, literal(-10)))
          CFI V1 load(1, XDATA, add(CFA_XSP16, literal(-9)))
          CFI V2 load(1, XDATA, add(CFA_XSP16, literal(-8)))
          CFI V3 load(1, XDATA, add(CFA_XSP16, literal(-7)))
          CFI R7 load(1, XDATA, add(CFA_XSP16, literal(-6)))
          CFI ?RET_LOW load(1, XDATA, add(CFA_XSP16, literal(-5)))
          CFI ?RET_HIGH load(1, XDATA, add(CFA_XSP16, literal(-4)))
          CFI ?BRET_EXT load(1, XDATA, add(CFA_XSP16, literal(-3)))
          CFI DPL0 load(1, XDATA, add(CFA_XSP16, literal(-2)))
          CFI DPH0 load(1, XDATA, add(CFA_XSP16, literal(-1)))
          CFI CFA_SP SP+-2
          CFI CFA_XSP16 add(XSP16, 12)
          CFI Block cfiCond33 Using cfiCommon0
          CFI (cfiCond33) Function ZDP_UserDescSet
          CFI (cfiCond33) Conditional ??CrossCallReturnLabel_174
          CFI (cfiCond33) R6 load(1, XDATA, add(CFA_XSP16, literal(-14)))
          CFI (cfiCond33) VB load(1, XDATA, add(CFA_XSP16, literal(-13)))
          CFI (cfiCond33) V0 load(1, XDATA, add(CFA_XSP16, literal(-12)))
          CFI (cfiCond33) V1 load(1, XDATA, add(CFA_XSP16, literal(-11)))
          CFI (cfiCond33) V2 load(1, XDATA, add(CFA_XSP16, literal(-10)))
          CFI (cfiCond33) V3 load(1, XDATA, add(CFA_XSP16, literal(-9)))
          CFI (cfiCond33) V4 load(1, XDATA, add(CFA_XSP16, literal(-8)))
          CFI (cfiCond33) V5 load(1, XDATA, add(CFA_XSP16, literal(-7)))
          CFI (cfiCond33) R7 load(1, XDATA, add(CFA_XSP16, literal(-6)))
          CFI (cfiCond33) ?RET_LOW load(1, XDATA, add(CFA_XSP16, literal(-5)))
          CFI (cfiCond33) ?RET_HIGH load(1, XDATA, add(CFA_XSP16, literal(-4)))
          CFI (cfiCond33) ?BRET_EXT load(1, XDATA, add(CFA_XSP16, literal(-3)))
          CFI (cfiCond33) DPL0 load(1, XDATA, add(CFA_XSP16, literal(-2)))
          CFI (cfiCond33) DPH0 load(1, XDATA, add(CFA_XSP16, literal(-1)))
          CFI (cfiCond33) CFA_SP SP+-2
          CFI (cfiCond33) CFA_XSP16 add(XSP16, 14)
          CFI Block cfiCond34 Using cfiCommon0
          CFI (cfiCond34) Function ZDP_NodeDescMsg
          CFI (cfiCond34) Conditional ??CrossCallReturnLabel_172
          CFI (cfiCond34) R6 load(1, XDATA, add(CFA_XSP16, literal(-10)))
          CFI (cfiCond34) VB load(1, XDATA, add(CFA_XSP16, literal(-9)))
          CFI (cfiCond34) V0 load(1, XDATA, add(CFA_XSP16, literal(-8)))
          CFI (cfiCond34) V1 load(1, XDATA, add(CFA_XSP16, literal(-7)))
          CFI (cfiCond34) R7 load(1, XDATA, add(CFA_XSP16, literal(-6)))
          CFI (cfiCond34) ?RET_LOW load(1, XDATA, add(CFA_XSP16, literal(-5)))
          CFI (cfiCond34) ?RET_HIGH load(1, XDATA, add(CFA_XSP16, literal(-4)))
          CFI (cfiCond34) ?BRET_EXT load(1, XDATA, add(CFA_XSP16, literal(-3)))
          CFI (cfiCond34) DPL0 load(1, XDATA, add(CFA_XSP16, literal(-2)))
          CFI (cfiCond34) DPH0 load(1, XDATA, add(CFA_XSP16, literal(-1)))
          CFI (cfiCond34) CFA_SP SP+-2
          CFI (cfiCond34) CFA_XSP16 add(XSP16, 10)
          CFI Block cfiCond35 Using cfiCommon0
          CFI (cfiCond35) Function ZDP_NodeDescMsg
          CFI (cfiCond35) Conditional ??CrossCallReturnLabel_173
          CFI (cfiCond35) R6 load(1, XDATA, add(CFA_XSP16, literal(-10)))
          CFI (cfiCond35) VB load(1, XDATA, add(CFA_XSP16, literal(-9)))
          CFI (cfiCond35) V0 load(1, XDATA, add(CFA_XSP16, literal(-8)))
          CFI (cfiCond35) V1 load(1, XDATA, add(CFA_XSP16, literal(-7)))
          CFI (cfiCond35) R7 load(1, XDATA, add(CFA_XSP16, literal(-6)))
          CFI (cfiCond35) ?RET_LOW load(1, XDATA, add(CFA_XSP16, literal(-5)))
          CFI (cfiCond35) ?RET_HIGH load(1, XDATA, add(CFA_XSP16, literal(-4)))
          CFI (cfiCond35) ?BRET_EXT load(1, XDATA, add(CFA_XSP16, literal(-3)))
          CFI (cfiCond35) DPL0 load(1, XDATA, add(CFA_XSP16, literal(-2)))
          CFI (cfiCond35) DPH0 load(1, XDATA, add(CFA_XSP16, literal(-1)))
          CFI (cfiCond35) CFA_SP SP+-2
          CFI (cfiCond35) CFA_XSP16 add(XSP16, 10)
          CFI Block cfiPicker36 Using cfiCommon1
          CFI (cfiPicker36) NoFunction
          CFI (cfiPicker36) Picker
        LCALL     ??Subroutine120_0 & 0xFFFF
??CrossCallReturnLabel_190:
        INC       DPTR
        RET
          CFI EndBlock cfiCond32
          CFI EndBlock cfiCond33
          CFI EndBlock cfiCond34
          CFI EndBlock cfiCond35
          CFI EndBlock cfiPicker36
//  511 
//  512 /*********************************************************************
//  513  * @fn          ZDP_ServerDiscReq
//  514  *
//  515  * @brief       Build and send a Server_Discovery_req request message.
//  516  *
//  517  * @param       serverMask - 16-bit bit-mask of server services being sought.
//  518  * @param       SecurityEnable - Security Options
//  519  *
//  520  * @return      afStatus_t
//  521  */

        RSEG BANKED_CODE:HUGECODE:NOROOT(0)
//  522 afStatus_t ZDP_ServerDiscReq( uint16 serverMask, byte SecurityEnable )
ZDP_ServerDiscReq:
          CFI Block cfiBlock37 Using cfiCommon0
          CFI Function ZDP_ServerDiscReq
        CODE
//  523 {
        FUNCALL ZDP_ServerDiscReq, fillAndSend
        LOCFRAME ISTACK, 0, STACK
        LOCFRAME PSTACK, 0, STACK
        LOCFRAME XSTACK, 21, STACK
        LOCFRAME IOVERLAY, 0, STATIC
        LOCFRAME DOVERLAY, 0, STATIC
        ARGFRAME ISTACK, 0, STACK
        ARGFRAME PSTACK, 0, STACK
        ARGFRAME XSTACK, 21, STACK
        ARGFRAME IOVERLAY, 0, STATIC
        ARGFRAME DOVERLAY, 0, STATIC
        REQUIRE ?V0
        REQUIRE ?V1
        MOV       A,#-0xa
        LCALL     ?BANKED_ENTER_XDATA
          CFI DPH0 load(1, XDATA, add(CFA_XSP16, literal(-1)))
          CFI DPL0 load(1, XDATA, add(CFA_XSP16, literal(-2)))
          CFI ?BRET_EXT load(1, XDATA, add(CFA_XSP16, literal(-3)))
          CFI ?RET_HIGH load(1, XDATA, add(CFA_XSP16, literal(-4)))
          CFI ?RET_LOW load(1, XDATA, add(CFA_XSP16, literal(-5)))
          CFI R7 load(1, XDATA, add(CFA_XSP16, literal(-6)))
          CFI V1 load(1, XDATA, add(CFA_XSP16, literal(-7)))
          CFI V0 load(1, XDATA, add(CFA_XSP16, literal(-8)))
          CFI VB load(1, XDATA, add(CFA_XSP16, literal(-9)))
          CFI R6 load(1, XDATA, add(CFA_XSP16, literal(-10)))
          CFI CFA_SP SP+0
          CFI CFA_XSP16 add(XSP16, 10)
        ; Saved register size: 10
        ; Auto size: 9
        MOV       A,#-0x9
        LCALL     ?ALLOC_XSTACK8
          CFI CFA_XSP16 add(XSP16, 19)
        LCALL     ?Subroutine47 & 0xFFFF
//  524   uint8 *pBuf = ZDP_TmpBuf;
//  525   zAddrType_t dstAddr;
//  526 
//  527   dstAddr.addrMode = AddrBroadcast;
??CrossCallReturnLabel_320:
        MOV       A,#0x8
        LCALL     ?XSTACK_DISP0_8
        LCALL     ?Subroutine19 & 0xFFFF
//  528   dstAddr.addr.shortAddr = NWK_BROADCAST_SHORTADDR_DEVRXON;
//  529 
//  530   *pBuf++ = LO_UINT16( serverMask );
??CrossCallReturnLabel_24:
        MOV       A,R2
        MOV       DPL,R0
        MOV       DPH,R1
        MOVX      @DPTR,A
//  531   *pBuf = HI_UINT16( serverMask );
        MOV       A,R3
        INC       DPTR
        MOVX      @DPTR,A
//  532 
//  533   FillAndSendTxOptions( &ZDP_TransID, &dstAddr, Server_Discovery_req, 2,
//  534              ((SecurityEnable) ? AF_EN_SECURITY : AF_TX_OPTIONS_NONE) );
        MOV       A,R6
        MOV       DPTR,#ZDP_TxOptions
        JZ        ??ZDP_ServerDiscReq_0
        MOV       A,#0x40
        SJMP      ??ZDP_ServerDiscReq_1
??ZDP_ServerDiscReq_0:
        CLR       A
??ZDP_ServerDiscReq_1:
        MOVX      @DPTR,A
        ; Setup parameters for call to function fillAndSend
        MOV       ?V0,#0x15
        MOV       ?V1,#0x0
        MOV       R0,#?V0
        LCALL     ?PUSH_XSTACK_I_TWO
          CFI CFA_XSP16 add(XSP16, 21)
        MOV       R1,#0x2
        MOV       A,R1
        LCALL     ?XSTACK_DISP102_8
        LCALL     ?Subroutine64 & 0xFFFF
??CrossCallReturnLabel_291:
        LCALL     ?DEALLOC_XSTACK8
          CFI CFA_XSP16 add(XSP16, 19)
        MOV       A,R1
        MOV       R1,A
        MOV       DPTR,#ZDP_TxOptions
        CLR       A
        MOVX      @DPTR,A
        LJMP      ??Subroutine109_0 & 0xFFFF
//  535 }
          CFI EndBlock cfiBlock37
//  536 
//  537 /*********************************************************************
//  538  * @fn          ZDP_DeviceAnnce
//  539  *
//  540  * @brief       This builds and send a Device_Annce message.  This
//  541  *              function sends a broadcast message.
//  542  *
//  543  * @param       nwkAddr - 16 bit address of the device
//  544  * @param       IEEEAddr - 64 bit address of the device
//  545  * @param       capabilities - device capabilities.  This field is only
//  546  *                 sent for v1.1 networks.
//  547  * @param       SecurityEnable - Security Options
//  548  *
//  549  * @return      afStatus_t
//  550  */

        RSEG BANKED_CODE:HUGECODE:NOROOT(0)
//  551 afStatus_t ZDP_DeviceAnnce( uint16 nwkAddr, uint8 *IEEEAddr,
ZDP_DeviceAnnce:
          CFI Block cfiBlock38 Using cfiCommon0
          CFI Function ZDP_DeviceAnnce
        CODE
//  552                               byte capabilities, byte SecurityEnable )
//  553 {
        FUNCALL ZDP_DeviceAnnce, sAddrExtCpy
        LOCFRAME ISTACK, 0, STACK
        LOCFRAME PSTACK, 0, STACK
        LOCFRAME XSTACK, 19, STACK
        LOCFRAME IOVERLAY, 0, STATIC
        LOCFRAME DOVERLAY, 0, STATIC
        ARGFRAME ISTACK, 0, STACK
        ARGFRAME PSTACK, 0, STACK
        ARGFRAME XSTACK, 19, STACK
        ARGFRAME IOVERLAY, 0, STATIC
        ARGFRAME DOVERLAY, 0, STATIC
        FUNCALL ZDP_DeviceAnnce, fillAndSend
        LOCFRAME ISTACK, 0, STACK
        LOCFRAME PSTACK, 0, STACK
        LOCFRAME XSTACK, 21, STACK
        LOCFRAME IOVERLAY, 0, STATIC
        LOCFRAME DOVERLAY, 0, STATIC
        ARGFRAME ISTACK, 0, STACK
        ARGFRAME PSTACK, 0, STACK
        ARGFRAME XSTACK, 21, STACK
        ARGFRAME IOVERLAY, 0, STATIC
        ARGFRAME DOVERLAY, 0, STATIC
        REQUIRE ?V0
        REQUIRE ?V1
        MOV       A,#-0xa
        LCALL     ?BANKED_ENTER_XDATA
          CFI DPH0 load(1, XDATA, add(CFA_XSP16, literal(-1)))
          CFI DPL0 load(1, XDATA, add(CFA_XSP16, literal(-2)))
          CFI ?BRET_EXT load(1, XDATA, add(CFA_XSP16, literal(-3)))
          CFI ?RET_HIGH load(1, XDATA, add(CFA_XSP16, literal(-4)))
          CFI ?RET_LOW load(1, XDATA, add(CFA_XSP16, literal(-5)))
          CFI R7 load(1, XDATA, add(CFA_XSP16, literal(-6)))
          CFI V1 load(1, XDATA, add(CFA_XSP16, literal(-7)))
          CFI V0 load(1, XDATA, add(CFA_XSP16, literal(-8)))
          CFI VB load(1, XDATA, add(CFA_XSP16, literal(-9)))
          CFI R6 load(1, XDATA, add(CFA_XSP16, literal(-10)))
          CFI CFA_SP SP+0
          CFI CFA_XSP16 add(XSP16, 10)
        ; Saved register size: 10
        ; Auto size: 9
        MOV       A,#-0x9
        LCALL     ?ALLOC_XSTACK8
          CFI CFA_XSP16 add(XSP16, 19)
        MOV       A,R1
        MOV       R6,A
//  554   zAddrType_t dstAddr;
//  555   uint8 len;
//  556 
//  557   (void)SecurityEnable;  // Intentionally unreferenced parameter
//  558 
//  559   dstAddr.addrMode = (afAddrMode_t)AddrBroadcast;
        MOV       A,#0x8
        LCALL     ?XSTACK_DISP0_8
        LCALL     ?Subroutine19 & 0xFFFF
//  560   dstAddr.addr.shortAddr = NWK_BROADCAST_SHORTADDR_DEVRXON;
//  561 
//  562   ZDP_TmpBuf[0] = LO_UINT16( nwkAddr );
??CrossCallReturnLabel_25:
        LCALL     ?Subroutine54 & 0xFFFF
??CrossCallReturnLabel_214:
        MOV       A,R2
        LCALL     ?Subroutine21 & 0xFFFF
//  563   ZDP_TmpBuf[1] = HI_UINT16( nwkAddr );
??CrossCallReturnLabel_26:
        MOV       A,R3
        MOVX      @DPTR,A
//  564   osal_cpyExtAddr( &ZDP_TmpBuf[2], IEEEAddr );
        ; Setup parameters for call to function sAddrExtCpy
        MOV       DPTR,#ZDP_TmpBuf
        MOVX      A,@DPTR
        ADD       A,#0x2
        MOV       R2,A
        INC       DPTR
        MOVX      A,@DPTR
        ADDC      A,#0x0
        MOV       R3,A
        LCALL     `??sAddrExtCpy::?relay`; Banked call to: sAddrExtCpy
//  565   len = 2 + Z_EXTADDR_LEN;
//  566 
//  567   ZDP_TmpBuf[10] = capabilities;
        LCALL     ?Subroutine108 & 0xFFFF
??CrossCallReturnLabel_336:
        XCH       A,R0
        ADD       A,#0xa
        MOV       DPL,A
        CLR       A
        ADDC      A,R0
        MOV       DPH,A
        MOV       A,R6
        MOVX      @DPTR,A
//  568   len++;
//  569 
//  570   return fillAndSend( &ZDP_TransID, &dstAddr, Device_annce, len );
        ; Setup parameters for call to function fillAndSend
        MOV       ?V0,#0x13
        MOV       ?V1,#0x0
        MOV       R0,#?V0
        LCALL     ?PUSH_XSTACK_I_TWO
          CFI CFA_XSP16 add(XSP16, 21)
        MOV       R1,#0xb
        LJMP      ?Subroutine6 & 0xFFFF
//  571 }
          CFI EndBlock cfiBlock38

        RSEG BANKED_CODE:HUGECODE:NOROOT(0)
?Subroutine19:
          CFI Block cfiCond39 Using cfiCommon0
          CFI Function ZDP_ServerDiscReq
          CFI Conditional ??CrossCallReturnLabel_24
          CFI R6 load(1, XDATA, add(CFA_XSP16, literal(-10)))
          CFI VB load(1, XDATA, add(CFA_XSP16, literal(-9)))
          CFI V0 load(1, XDATA, add(CFA_XSP16, literal(-8)))
          CFI V1 load(1, XDATA, add(CFA_XSP16, literal(-7)))
          CFI R7 load(1, XDATA, add(CFA_XSP16, literal(-6)))
          CFI ?RET_LOW load(1, XDATA, add(CFA_XSP16, literal(-5)))
          CFI ?RET_HIGH load(1, XDATA, add(CFA_XSP16, literal(-4)))
          CFI ?BRET_EXT load(1, XDATA, add(CFA_XSP16, literal(-3)))
          CFI DPL0 load(1, XDATA, add(CFA_XSP16, literal(-2)))
          CFI DPH0 load(1, XDATA, add(CFA_XSP16, literal(-1)))
          CFI CFA_SP SP+-2
          CFI CFA_XSP16 add(XSP16, 19)
          CFI Block cfiCond40 Using cfiCommon0
          CFI (cfiCond40) Function ZDP_DeviceAnnce
          CFI (cfiCond40) Conditional ??CrossCallReturnLabel_25
          CFI (cfiCond40) R6 load(1, XDATA, add(CFA_XSP16, literal(-10)))
          CFI (cfiCond40) VB load(1, XDATA, add(CFA_XSP16, literal(-9)))
          CFI (cfiCond40) V0 load(1, XDATA, add(CFA_XSP16, literal(-8)))
          CFI (cfiCond40) V1 load(1, XDATA, add(CFA_XSP16, literal(-7)))
          CFI (cfiCond40) R7 load(1, XDATA, add(CFA_XSP16, literal(-6)))
          CFI (cfiCond40) ?RET_LOW load(1, XDATA, add(CFA_XSP16, literal(-5)))
          CFI (cfiCond40) ?RET_HIGH load(1, XDATA, add(CFA_XSP16, literal(-4)))
          CFI (cfiCond40) ?BRET_EXT load(1, XDATA, add(CFA_XSP16, literal(-3)))
          CFI (cfiCond40) DPL0 load(1, XDATA, add(CFA_XSP16, literal(-2)))
          CFI (cfiCond40) DPH0 load(1, XDATA, add(CFA_XSP16, literal(-1)))
          CFI (cfiCond40) CFA_SP SP+-2
          CFI (cfiCond40) CFA_XSP16 add(XSP16, 19)
          CFI Block cfiPicker41 Using cfiCommon1
          CFI (cfiPicker41) NoFunction
          CFI (cfiPicker41) Picker
        LCALL     ?Subroutine91 & 0xFFFF
??CrossCallReturnLabel_145:
        MOVX      @DPTR,A
        RET
          CFI EndBlock cfiCond39
          CFI EndBlock cfiCond40
          CFI EndBlock cfiPicker41

        RSEG BANKED_CODE:HUGECODE:NOROOT(0)
?Subroutine91:
          CFI Block cfiCond42 Using cfiCommon0
          CFI Function ZDP_NwkAddrReq
          CFI Conditional ??CrossCallReturnLabel_144
          CFI R6 load(1, XDATA, add(CFA_XSP16, literal(-12)))
          CFI VB load(1, XDATA, add(CFA_XSP16, literal(-11)))
          CFI V0 load(1, XDATA, add(CFA_XSP16, literal(-10)))
          CFI V1 load(1, XDATA, add(CFA_XSP16, literal(-9)))
          CFI V2 load(1, XDATA, add(CFA_XSP16, literal(-8)))
          CFI V3 load(1, XDATA, add(CFA_XSP16, literal(-7)))
          CFI R7 load(1, XDATA, add(CFA_XSP16, literal(-6)))
          CFI ?RET_LOW load(1, XDATA, add(CFA_XSP16, literal(-5)))
          CFI ?RET_HIGH load(1, XDATA, add(CFA_XSP16, literal(-4)))
          CFI ?BRET_EXT load(1, XDATA, add(CFA_XSP16, literal(-3)))
          CFI DPL0 load(1, XDATA, add(CFA_XSP16, literal(-2)))
          CFI DPH0 load(1, XDATA, add(CFA_XSP16, literal(-1)))
          CFI CFA_SP SP+-2
          CFI CFA_XSP16 add(XSP16, 21)
          CFI Block cfiCond43 Using cfiCommon0
          CFI (cfiCond43) Function ZDP_ServerDiscReq
          CFI (cfiCond43) Conditional ??CrossCallReturnLabel_145, ??CrossCallReturnLabel_24
          CFI (cfiCond43) R6 load(1, XDATA, add(CFA_XSP16, literal(-10)))
          CFI (cfiCond43) VB load(1, XDATA, add(CFA_XSP16, literal(-9)))
          CFI (cfiCond43) V0 load(1, XDATA, add(CFA_XSP16, literal(-8)))
          CFI (cfiCond43) V1 load(1, XDATA, add(CFA_XSP16, literal(-7)))
          CFI (cfiCond43) R7 load(1, XDATA, add(CFA_XSP16, literal(-6)))
          CFI (cfiCond43) ?RET_LOW load(1, XDATA, add(CFA_XSP16, literal(-5)))
          CFI (cfiCond43) ?RET_HIGH load(1, XDATA, add(CFA_XSP16, literal(-4)))
          CFI (cfiCond43) ?BRET_EXT load(1, XDATA, add(CFA_XSP16, literal(-3)))
          CFI (cfiCond43) DPL0 load(1, XDATA, add(CFA_XSP16, literal(-2)))
          CFI (cfiCond43) DPH0 load(1, XDATA, add(CFA_XSP16, literal(-1)))
          CFI (cfiCond43) CFA_SP SP+-4
          CFI (cfiCond43) CFA_XSP16 add(XSP16, 19)
          CFI Block cfiCond44 Using cfiCommon0
          CFI (cfiCond44) Function ZDP_DeviceAnnce
          CFI (cfiCond44) Conditional ??CrossCallReturnLabel_145, ??CrossCallReturnLabel_25
          CFI (cfiCond44) R6 load(1, XDATA, add(CFA_XSP16, literal(-10)))
          CFI (cfiCond44) VB load(1, XDATA, add(CFA_XSP16, literal(-9)))
          CFI (cfiCond44) V0 load(1, XDATA, add(CFA_XSP16, literal(-8)))
          CFI (cfiCond44) V1 load(1, XDATA, add(CFA_XSP16, literal(-7)))
          CFI (cfiCond44) R7 load(1, XDATA, add(CFA_XSP16, literal(-6)))
          CFI (cfiCond44) ?RET_LOW load(1, XDATA, add(CFA_XSP16, literal(-5)))
          CFI (cfiCond44) ?RET_HIGH load(1, XDATA, add(CFA_XSP16, literal(-4)))
          CFI (cfiCond44) ?BRET_EXT load(1, XDATA, add(CFA_XSP16, literal(-3)))
          CFI (cfiCond44) DPL0 load(1, XDATA, add(CFA_XSP16, literal(-2)))
          CFI (cfiCond44) DPH0 load(1, XDATA, add(CFA_XSP16, literal(-1)))
          CFI (cfiCond44) CFA_SP SP+-4
          CFI (cfiCond44) CFA_XSP16 add(XSP16, 19)
          CFI Block cfiPicker45 Using cfiCommon1
          CFI (cfiPicker45) NoFunction
          CFI (cfiPicker45) Picker
        MOV       A,#0xf
        MOVX      @DPTR,A
        MOV       DPL,?XSP + 0
        MOV       DPH,?XSP + 1
        MOV       A,#-0x3
        MOVX      @DPTR,A
        INC       DPTR
        MOV       A,#-0x1
        RET
          CFI EndBlock cfiCond42
          CFI EndBlock cfiCond43
          CFI EndBlock cfiCond44
          CFI EndBlock cfiPicker45
//  572 
//  573 /*********************************************************************
//  574  * Address Responses
//  575  */
//  576 
//  577 /*********************************************************************
//  578  * @fn      zdpProcessAddrReq
//  579  *
//  580  * @brief   Process an incoming NWK_addr_req or IEEE_addr_req message and then
//  581  *          build and send a corresponding NWK_addr_rsp or IEEE_addr_rsp msg.
//  582  *
//  583  * @param   inMsg - incoming message
//  584  *
//  585  * @return  none
//  586  */

        RSEG BANKED_CODE:HUGECODE:NOROOT(0)
//  587 void zdpProcessAddrReq( zdoIncomingMsg_t *inMsg )
zdpProcessAddrReq:
          CFI Block cfiBlock46 Using cfiCommon0
          CFI Function zdpProcessAddrReq
        CODE
//  588 {
        FUNCALL zdpProcessAddrReq, sAddrExtCmp
        LOCFRAME ISTACK, 0, STACK
        LOCFRAME PSTACK, 0, STACK
        LOCFRAME XSTACK, 31, STACK
        LOCFRAME IOVERLAY, 0, STATIC
        LOCFRAME DOVERLAY, 0, STATIC
        ARGFRAME ISTACK, 0, STACK
        ARGFRAME PSTACK, 0, STACK
        ARGFRAME XSTACK, 31, STACK
        ARGFRAME IOVERLAY, 0, STATIC
        ARGFRAME DOVERLAY, 0, STATIC
        FUNCALL zdpProcessAddrReq, AssocGetWithExt
        LOCFRAME ISTACK, 0, STACK
        LOCFRAME PSTACK, 0, STACK
        LOCFRAME XSTACK, 31, STACK
        LOCFRAME IOVERLAY, 0, STATIC
        LOCFRAME DOVERLAY, 0, STATIC
        ARGFRAME ISTACK, 0, STACK
        ARGFRAME PSTACK, 0, STACK
        ARGFRAME XSTACK, 31, STACK
        ARGFRAME IOVERLAY, 0, STATIC
        ARGFRAME DOVERLAY, 0, STATIC
        FUNCALL zdpProcessAddrReq, AssocGetWithShort
        LOCFRAME ISTACK, 0, STACK
        LOCFRAME PSTACK, 0, STACK
        LOCFRAME XSTACK, 31, STACK
        LOCFRAME IOVERLAY, 0, STATIC
        LOCFRAME DOVERLAY, 0, STATIC
        ARGFRAME ISTACK, 0, STACK
        ARGFRAME PSTACK, 0, STACK
        ARGFRAME XSTACK, 31, STACK
        ARGFRAME IOVERLAY, 0, STATIC
        ARGFRAME DOVERLAY, 0, STATIC
        FUNCALL zdpProcessAddrReq, AddrMgrEntryGet
        LOCFRAME ISTACK, 0, STACK
        LOCFRAME PSTACK, 0, STACK
        LOCFRAME XSTACK, 31, STACK
        LOCFRAME IOVERLAY, 0, STATIC
        LOCFRAME DOVERLAY, 0, STATIC
        ARGFRAME ISTACK, 0, STACK
        ARGFRAME PSTACK, 0, STACK
        ARGFRAME XSTACK, 31, STACK
        ARGFRAME IOVERLAY, 0, STATIC
        ARGFRAME DOVERLAY, 0, STATIC
        FUNCALL zdpProcessAddrReq, sAddrExtCpy
        LOCFRAME ISTACK, 0, STACK
        LOCFRAME PSTACK, 0, STACK
        LOCFRAME XSTACK, 31, STACK
        LOCFRAME IOVERLAY, 0, STATIC
        LOCFRAME DOVERLAY, 0, STATIC
        ARGFRAME ISTACK, 0, STACK
        ARGFRAME PSTACK, 0, STACK
        ARGFRAME XSTACK, 31, STACK
        ARGFRAME IOVERLAY, 0, STATIC
        ARGFRAME DOVERLAY, 0, STATIC
        FUNCALL zdpProcessAddrReq, AssocMakeList
        LOCFRAME ISTACK, 0, STACK
        LOCFRAME PSTACK, 0, STACK
        LOCFRAME XSTACK, 31, STACK
        LOCFRAME IOVERLAY, 0, STATIC
        LOCFRAME DOVERLAY, 0, STATIC
        ARGFRAME ISTACK, 0, STACK
        ARGFRAME PSTACK, 0, STACK
        ARGFRAME XSTACK, 31, STACK
        ARGFRAME IOVERLAY, 0, STATIC
        ARGFRAME DOVERLAY, 0, STATIC
        FUNCALL zdpProcessAddrReq, osal_mem_free
        LOCFRAME ISTACK, 0, STACK
        LOCFRAME PSTACK, 0, STACK
        LOCFRAME XSTACK, 31, STACK
        LOCFRAME IOVERLAY, 0, STATIC
        LOCFRAME DOVERLAY, 0, STATIC
        ARGFRAME ISTACK, 0, STACK
        ARGFRAME PSTACK, 0, STACK
        ARGFRAME XSTACK, 31, STACK
        ARGFRAME IOVERLAY, 0, STATIC
        ARGFRAME DOVERLAY, 0, STATIC
        FUNCALL zdpProcessAddrReq, fillAndSend
        LOCFRAME ISTACK, 0, STACK
        LOCFRAME PSTACK, 0, STACK
        LOCFRAME XSTACK, 33, STACK
        LOCFRAME IOVERLAY, 0, STATIC
        LOCFRAME DOVERLAY, 0, STATIC
        ARGFRAME ISTACK, 0, STACK
        ARGFRAME PSTACK, 0, STACK
        ARGFRAME XSTACK, 33, STACK
        ARGFRAME IOVERLAY, 0, STATIC
        ARGFRAME DOVERLAY, 0, STATIC
        REQUIRE ?V0
        REQUIRE ?V1
        REQUIRE ?V2
        REQUIRE ?V3
        REQUIRE ?V4
        REQUIRE ?V5
        REQUIRE ?V6
        MOV       A,#-0xf
        LCALL     ?BANKED_ENTER_XDATA
          CFI DPH0 load(1, XDATA, add(CFA_XSP16, literal(-1)))
          CFI DPL0 load(1, XDATA, add(CFA_XSP16, literal(-2)))
          CFI ?BRET_EXT load(1, XDATA, add(CFA_XSP16, literal(-3)))
          CFI ?RET_HIGH load(1, XDATA, add(CFA_XSP16, literal(-4)))
          CFI ?RET_LOW load(1, XDATA, add(CFA_XSP16, literal(-5)))
          CFI R7 load(1, XDATA, add(CFA_XSP16, literal(-6)))
          CFI V6 load(1, XDATA, add(CFA_XSP16, literal(-7)))
          CFI V5 load(1, XDATA, add(CFA_XSP16, literal(-8)))
          CFI V4 load(1, XDATA, add(CFA_XSP16, literal(-9)))
          CFI V3 load(1, XDATA, add(CFA_XSP16, literal(-10)))
          CFI V2 load(1, XDATA, add(CFA_XSP16, literal(-11)))
          CFI V1 load(1, XDATA, add(CFA_XSP16, literal(-12)))
          CFI V0 load(1, XDATA, add(CFA_XSP16, literal(-13)))
          CFI VB load(1, XDATA, add(CFA_XSP16, literal(-14)))
          CFI R6 load(1, XDATA, add(CFA_XSP16, literal(-15)))
          CFI CFA_SP SP+0
          CFI CFA_XSP16 add(XSP16, 15)
        ; Saved register size: 15
        ; Auto size: 16
        MOV       A,#-0x10
        LCALL     ?ALLOC_XSTACK8
          CFI CFA_XSP16 add(XSP16, 31)
        MOV       ?V2,R2
        MOV       ?V3,R3
//  589   associated_devices_t *pAssoc;
//  590   uint8 reqType;
//  591   uint16 aoi = INVALID_NODE_ADDR;
        MOV       R6,#-0x2
        MOV       R7,#-0x1
//  592   uint8 *ieee = NULL;
        MOV       ?V0,#0x0
        MOV       ?V1,#0x0
//  593 
//  594   reqType = inMsg->asdu[(inMsg->clusterID == NWK_addr_req) ? Z_EXTADDR_LEN : sizeof( uint16 ) ];
        MOV       A,R2
        LCALL     ?Subroutine45 & 0xFFFF
??CrossCallReturnLabel_183:
        JNZ       ??zdpProcessAddrReq_0
        MOV       R0,#0x8
        SJMP      ??zdpProcessAddrReq_1
??zdpProcessAddrReq_0:
        MOV       R0,#0x2
??zdpProcessAddrReq_1:
        MOV       A,R2
        LCALL     ??Subroutine116_0 & 0xFFFF
??CrossCallReturnLabel_179:
        ADD       A,R0
        MOV       R2,A
        INC       DPTR
        MOVX      A,@DPTR
        ADDC      A,#0x0
        MOV       DPL,R2
        MOV       DPH,A
        MOVX      A,@DPTR
        MOV       ?V6,A
//  595 
//  596   if ( inMsg->clusterID == NWK_addr_req )
        MOV       A,?V2
        ADD       A,#0xc
        LCALL     ??Subroutine117_0 & 0xFFFF
??CrossCallReturnLabel_176:
        ORL       A,R1
        JNZ       ??zdpProcessAddrReq_2
//  597 
//  598   {
//  599     ieee = inMsg->asdu;
        MOV       A,?V2
        ADD       A,#0x13
        MOV       DPL,A
        CLR       A
        ADDC      A,?V3
        LCALL     ?Subroutine43 & 0xFFFF
//  600 
//  601     if ( osal_ExtAddrEqual( saveExtAddr, ieee ) )
??CrossCallReturnLabel_227:
        ; Setup parameters for call to function sAddrExtCmp
        MOV       R4,?V0
        MOV       R5,A
        MOV       R2,#saveExtAddr & 0xff
        MOV       R3,#(saveExtAddr >> 8) & 0xff
        LCALL     `??sAddrExtCmp::?relay`; Banked call to: sAddrExtCmp
        MOV       A,R1
        JZ        ??zdpProcessAddrReq_3
//  602     {
//  603       aoi = ZDAppNwkAddr.addr.shortAddr;
        LCALL     ?Subroutine37 & 0xFFFF
//  604     }
??CrossCallReturnLabel_265:
        LJMP      ??zdpProcessAddrReq_4 & 0xFFFF
//  605     // Handle response for sleeping end devices
//  606     else if ( (ZSTACK_ROUTER_BUILD)
//  607       && (((pAssoc = AssocGetWithExt( ieee )) != NULL)
//  608              && (pAssoc->nodeRelation == CHILD_RFD)) )
??zdpProcessAddrReq_3:
        ; Setup parameters for call to function AssocGetWithExt
        MOV       R2,?V0
        MOV       R3,?V1
        LCALL     `??AssocGetWithExt::?relay`; Banked call to: AssocGetWithExt
        MOV       ?V5,R3
        MOV       R1,?V5
        MOV       A,R2
        ORL       A,R1
        JNZ       $+5
        LJMP      ??zdpProcessAddrReq_5 & 0xFFFF
        MOV       DPL,R2
        MOV       DPH,R3
        INC       DPTR
        INC       DPTR
        INC       DPTR
        INC       DPTR
        MOVX      A,@DPTR
        XRL       A,#0x1
        JZ        $+5
        LJMP      ??zdpProcessAddrReq_5 & 0xFFFF
//  609     {
//  610       aoi = pAssoc->shortAddr;
        MOV       DPL,R2
        MOV       DPH,R3
        LCALL     ??Subroutine135_0 & 0xFFFF
//  611       if ( reqType != ZDP_ADDR_REQTYPE_SINGLE )
??CrossCallReturnLabel_260:
        MOV       A,?V6
        JNZ       ??zdpProcessAddrReq_6
        SJMP      ??zdpProcessAddrReq_4
//  612         reqType = 0xFF; // Force Invalid
//  613     }
//  614   }
??zdpProcessAddrReq_2:
        LCALL     ?Subroutine68 & 0xFFFF
??CrossCallReturnLabel_180:
        MOV       R0,A
        INC       DPTR
        MOVX      A,@DPTR
        MOV       DPL,R0
        MOV       DPH,A
        MOVX      A,@DPTR
        MOV       R2,A
        INC       DPTR
        MOVX      A,@DPTR
        MOV       R0,A
        CLR       A
        XCH       A,R0
        MOV       R1,A
        MOV       A,R2
        ADD       A,R0
        MOV       R6,A
        CLR       A
        ADDC      A,R1
        MOV       R7,A
//  615   else  // if ( inMsg->clusterID == IEEE_addr_req )
//  616   {
//  617     aoi = BUILD_UINT16( inMsg->asdu[0], inMsg->asdu[1] );
//  618 
//  619     if ( aoi == ZDAppNwkAddr.addr.shortAddr )
        MOV       DPTR,#ZDAppNwkAddr
        MOVX      A,@DPTR
        XRL       A,R6
        JNZ       ??zdpProcessAddrReq_7
        INC       DPTR
        MOVX      A,@DPTR
        XRL       A,R7
??zdpProcessAddrReq_7:
        JNZ       ??zdpProcessAddrReq_8
//  620     {
//  621       ieee = saveExtAddr;
        MOV       ?V0,#saveExtAddr & 0xff
        MOV       ?V1,#(saveExtAddr >> 8) & 0xff
        SJMP      ??zdpProcessAddrReq_4
//  622     }
//  623     else if ( (ZSTACK_ROUTER_BUILD)
//  624       && (((pAssoc = AssocGetWithShort( aoi )) != NULL)
//  625              && (pAssoc->nodeRelation == CHILD_RFD)) )
??zdpProcessAddrReq_8:
        ; Setup parameters for call to function AssocGetWithShort
        MOV       A,R1
        MOV       R3,A
        LCALL     `??AssocGetWithShort::?relay`; Banked call to: AssocGetWithShort
        MOV       ?V5,R3
        MOV       R1,?V5
        MOV       A,R2
        ORL       A,R1
        JZ        ??zdpProcessAddrReq_5
        MOV       DPL,R2
        MOV       DPH,R3
        INC       DPTR
        INC       DPTR
        INC       DPTR
        INC       DPTR
        MOVX      A,@DPTR
        XRL       A,#0x1
        JNZ       ??zdpProcessAddrReq_5
//  626     {
//  627       AddrMgrEntry_t addrEntry;
//  628       addrEntry.user = ADDRMGR_USER_DEFAULT;
        MOV       A,#0x3
        LCALL     ?XSTACK_DISP0_8
        CLR       A
        MOVX      @DPTR,A
//  629       addrEntry.index = pAssoc->addrIdx;
        MOV       DPL,R2
        MOV       DPH,R3
        INC       DPTR
        INC       DPTR
        LCALL     ??Subroutine144_0 & 0xFFFF
??CrossCallReturnLabel_322:
        MOV       A,#0xe
        LCALL     ?XSTACK_DISP0_8
        LCALL     ??Subroutine134_0 & 0xFFFF
//  630       if ( AddrMgrEntryGet( &addrEntry ) )
??CrossCallReturnLabel_250:
        ; Setup parameters for call to function AddrMgrEntryGet
        MOV       A,#0x3
        LCALL     ?XSTACK_DISP101_8
        LCALL     `??AddrMgrEntryGet::?relay`; Banked call to: AddrMgrEntryGet
        MOV       A,R1
        JZ        ??zdpProcessAddrReq_9
//  631       {
//  632         ieee = addrEntry.extAddr;
        MOV       A,#0x6
        LCALL     ?XSTACK_DISP0_8
        MOV       ?V0,DPL
        MOV       ?V1,DPH
//  633       }
//  634 
//  635       if ( reqType != ZDP_ADDR_REQTYPE_SINGLE )
??zdpProcessAddrReq_9:
        MOV       A,?V6
        JZ        ??zdpProcessAddrReq_4
//  636         reqType = 0xFF; // Force Invalid
??zdpProcessAddrReq_6:
        MOV       ?V6,#-0x1
//  637     }
//  638   }
//  639 
//  640   if ( ((aoi != INVALID_NODE_ADDR) && (ieee != NULL)) || (inMsg->wasBroadcast == FALSE) )
??zdpProcessAddrReq_4:
        MOV       A,#-0x2
        XRL       A,R6
        JNZ       ??zdpProcessAddrReq_10
        MOV       A,#-0x1
        XRL       A,R7
??zdpProcessAddrReq_10:
        JZ        ??zdpProcessAddrReq_5
        MOV       A,?V0
        ORL       A,?V1
        JNZ       ??zdpProcessAddrReq_11
??zdpProcessAddrReq_5:
        MOV       A,?V2
        ADD       A,#0xb
        LCALL     ??Subroutine117_0 & 0xFFFF
??CrossCallReturnLabel_177:
        JZ        $+5
        LJMP      ??zdpProcessAddrReq_12 & 0xFFFF
//  641   {
//  642     uint8 stat;
//  643     uint8 *pBuf = ZDP_TmpBuf;
??zdpProcessAddrReq_11:
        LCALL     ?Subroutine52 & 0xFFFF
//  644     // Status + IEEE-Addr + Nwk-Addr.
//  645     uint8 len = 1 + Z_EXTADDR_LEN + 2;
??CrossCallReturnLabel_196:
        MOV       ?V5,#0xb
//  646     
//  647     // If aoi and iee are both setup, we found results
//  648     if ( (aoi != INVALID_NODE_ADDR) && (ieee != NULL) )
        MOV       A,#-0x2
        XRL       A,R6
        JNZ       ??zdpProcessAddrReq_13
        MOV       A,#-0x1
        XRL       A,R7
??zdpProcessAddrReq_13:
        JZ        ??zdpProcessAddrReq_14
        MOV       A,?V0
        ORL       A,?V1
        JZ        ??zdpProcessAddrReq_14
//  649     {
//  650       stat = ((reqType == ZDP_ADDR_REQTYPE_SINGLE) || (reqType == ZDP_ADDR_REQTYPE_EXTENDED)) 
//  651                     ? ZDP_SUCCESS : ZDP_INVALID_REQTYPE;
        MOV       A,?V6
        JZ        ??zdpProcessAddrReq_15
        MOV       A,#0x1
        XRL       A,?V6
        JNZ       ??zdpProcessAddrReq_16
??zdpProcessAddrReq_15:
        MOV       ?V4,#0x0
        SJMP      ??zdpProcessAddrReq_17
??zdpProcessAddrReq_16:
        MOV       ?V4,#-0x80
        SJMP      ??zdpProcessAddrReq_17
//  652     }
//  653     else 
//  654     {
//  655       // not found and the req was unicast to this device
//  656       stat = ZDP_DEVICE_NOT_FOUND;
??zdpProcessAddrReq_14:
        MOV       ?V4,#-0x7f
//  657       
//  658       // Fill in the missing field with this device's address
//  659       if ( inMsg->clusterID == NWK_addr_req )
        MOV       A,?V2
        LCALL     ?Subroutine45 & 0xFFFF
??CrossCallReturnLabel_184:
        JNZ       ??zdpProcessAddrReq_18
//  660       {
//  661         aoi = ZDAppNwkAddr.addr.shortAddr;
        LCALL     ?Subroutine37 & 0xFFFF
//  662       }
??CrossCallReturnLabel_266:
        SJMP      ??zdpProcessAddrReq_17
//  663       else
//  664       {
//  665         ieee = saveExtAddr;
??zdpProcessAddrReq_18:
        MOV       ?V0,#saveExtAddr & 0xff
        MOV       ?V1,#(saveExtAddr >> 8) & 0xff
//  666       }
//  667     }
//  668 
//  669     *pBuf++ = stat;
??zdpProcessAddrReq_17:
        MOV       DPL,R2
        MOV       DPH,R3
        MOV       A,?V4
        LCALL     ??Subroutine122_0 & 0xFFFF
//  670 
//  671     pBuf = osal_cpyExtAddr( pBuf, ieee );
??CrossCallReturnLabel_201:
        ; Setup parameters for call to function sAddrExtCpy
        MOV       R4,?V0
        MOV       R5,?V1
        LCALL     `??sAddrExtCpy::?relay`; Banked call to: sAddrExtCpy
        MOV       A,#0x1
        LCALL     ?XSTACK_DISP0_8
        LCALL     ??Subroutine142_0 & 0xFFFF
//  672 
//  673     *pBuf++ = LO_UINT16( aoi );
??CrossCallReturnLabel_313:
        MOV       A,#0x1
        LCALL     ?XSTACK_DISP0_8
        LCALL     ??Subroutine124_0 & 0xFFFF
??CrossCallReturnLabel_211:
        MOV       A,R6
        MOVX      @DPTR,A
//  674     *pBuf++ = HI_UINT16( aoi );
        MOV       A,#0x1
        LCALL     ?XSTACK_DISP0_8
        LCALL     ??Subroutine124_0 & 0xFFFF
??CrossCallReturnLabel_212:
        INC       DPTR
        MOV       A,R7
        MOVX      @DPTR,A
//  675 
//  676     if ( ZSTACK_ROUTER_BUILD )
//  677     {
//  678       if ( (reqType == ZDP_ADDR_REQTYPE_EXTENDED) && (aoi == ZDAppNwkAddr.addr.shortAddr)
//  679            && (stat == ZDP_SUCCESS) )
        MOV       A,#0x1
        XRL       A,?V6
        JZ        $+5
        LJMP      ??zdpProcessAddrReq_19 & 0xFFFF
        MOV       DPTR,#ZDAppNwkAddr
        MOVX      A,@DPTR
        XRL       A,R6
        JNZ       ??zdpProcessAddrReq_20
        INC       DPTR
        MOVX      A,@DPTR
        XRL       A,R7
??zdpProcessAddrReq_20:
        JZ        $+5
        LJMP      ??zdpProcessAddrReq_19 & 0xFFFF
        MOV       A,?V4
        JZ        $+5
        LJMP      ??zdpProcessAddrReq_19 & 0xFFFF
//  680       {
//  681         uint8  cnt = 0;
        MOV       DPL,?XSP + 0
        MOV       DPH,?XSP + 1
        CLR       A
        MOVX      @DPTR,A
//  682         uint16 *list = AssocMakeList( &cnt );
        ; Setup parameters for call to function AssocMakeList
        MOV       R2,?XSP + 0
        MOV       R3,?XSP + 1
        LCALL     `??AssocMakeList::?relay`; Banked call to: AssocMakeList
        MOV       ?V0,R2
        MOV       ?V1,R3
        MOV       R0,?V0
        MOV       R1,?V1
//  683 
//  684         if ( list != NULL )
        MOV       A,R2
        ORL       A,R1
        JNZ       $+5
        LJMP      ??zdpProcessAddrReq_21 & 0xFFFF
//  685         {
//  686           byte idx = inMsg->asdu[(((inMsg->clusterID == NWK_addr_req) ? Z_EXTADDR_LEN : sizeof( uint16 )) + 1)];
        MOV       A,?V2
        LCALL     ?Subroutine73 & 0xFFFF
??CrossCallReturnLabel_117:
        ADDC      A,?V3
        MOV       DPH,A
        LCALL     ?Subroutine48 & 0xFFFF
??CrossCallReturnLabel_65:
        JNZ       ??zdpProcessAddrReq_22
        MOV       R2,#0x9
        SJMP      ??zdpProcessAddrReq_23
??zdpProcessAddrReq_22:
        MOV       R2,#0x3
??zdpProcessAddrReq_23:
        LCALL     ?Subroutine68 & 0xFFFF
??CrossCallReturnLabel_181:
        ADD       A,R2
        MOV       R4,A
        INC       DPTR
        MOVX      A,@DPTR
        ADDC      A,#0x0
        MOV       DPL,R4
        MOV       DPH,A
        MOVX      A,@DPTR
        MOV       R6,A
//  687           uint16 *pList = list + idx;
        ADD       A,0xE0 /* A   */
        MOV       R2,A
        CLR       A
        RLC       A
        MOV       R3,A
        MOV       A,R0
        ADD       A,R2
        MOV       R4,A
        MOV       A,R1
        ADDC      A,R3
        MOV       R5,A
//  688 
//  689           // NumAssocDev field is only present on success.
//  690           if ( cnt > idx )
        MOV       DPL,?XSP + 0
        MOV       DPH,?XSP + 1
        MOVX      A,@DPTR
        MOV       R2,A
        MOV       A,R6
        CLR       C
        SUBB      A,R2
        JNC       ??zdpProcessAddrReq_24
//  691           {
//  692             cnt -= idx;
        MOVX      A,@DPTR
        CLR       C
        SUBB      A,R6
        MOVX      @DPTR,A
//  693             len += (cnt * sizeof( uint16 ));
        CLR       C
        RLC       A
        ADD       A,#0xb
        MOV       ?V5,A
        SJMP      ??zdpProcessAddrReq_25
//  694           }
//  695           else
//  696           {
//  697             cnt = 0;
??zdpProcessAddrReq_24:
        CLR       A
        MOVX      @DPTR,A
//  698           }
//  699           *pBuf++ = cnt;
??zdpProcessAddrReq_25:
        MOVX      A,@DPTR
        PUSH      A
          CFI CFA_SP SP+-1
        MOV       A,#0x1
        LCALL     ?XSTACK_DISP0_8
        LCALL     ?Subroutine56 & 0xFFFF
??CrossCallReturnLabel_82:
        POP       A
          CFI CFA_SP SP+0
        MOVX      @DPTR,A
//  700           len++;
//  701 
//  702           // StartIndex field is only present if NumAssocDev field is non-zero.
//  703           *pBuf++ = idx;
        MOV       A,#0x1
        LCALL     ?XSTACK_DISP0_8
        LCALL     ?Subroutine56 & 0xFFFF
??CrossCallReturnLabel_83:
        INC       DPTR
        MOV       A,R6
        MOVX      @DPTR,A
        MOV       A,#0x1
        LCALL     ?XSTACK_DISP0_8
        MOVX      A,@DPTR
        ADD       A,#0x4
        MOV       R2,A
        INC       DPTR
        MOVX      A,@DPTR
        ADDC      A,#0x0
        MOV       R3,A
//  704           len++;
        INC       ?V5
        INC       ?V5
        SJMP      ??zdpProcessAddrReq_26
//  705 
//  706           while ( cnt != 0 )
//  707           {
//  708             *pBuf++ = LO_UINT16( *pList );
??zdpProcessAddrReq_27:
        MOV       DPL,R4
        MOV       DPH,R5
        LCALL     ??Subroutine137_0 & 0xFFFF
//  709             *pBuf++ = HI_UINT16( *pList );
??CrossCallReturnLabel_274:
        JNC       ??zdpProcessAddrReq_28
        INC       R3
//  710             pList++;
??zdpProcessAddrReq_28:
        MOV       A,R4
        ADD       A,#0x2
        MOV       R4,A
        JNC       ??zdpProcessAddrReq_29
        INC       R5
//  711             cnt--;
??zdpProcessAddrReq_29:
        MOV       DPL,?XSP + 0
        MOV       DPH,?XSP + 1
        MOVX      A,@DPTR
        DEC       A
        MOVX      @DPTR,A
//  712           }
??zdpProcessAddrReq_26:
        MOV       DPL,?XSP + 0
        MOV       DPH,?XSP + 1
        MOVX      A,@DPTR
        JNZ       ??zdpProcessAddrReq_27
//  713 
//  714           osal_mem_free( (uint8 *)list );
        ; Setup parameters for call to function osal_mem_free
        MOV       A,R0
        MOV       R2,A
        MOV       A,R1
        MOV       R3,A
        LCALL     `??osal_mem_free::?relay`; Banked call to: osal_mem_free
        SJMP      ??zdpProcessAddrReq_19
//  715         }
//  716         else
//  717         {
//  718           // NumAssocDev field is only present on success.
//  719           *pBuf++ = 0;
??zdpProcessAddrReq_21:
        MOV       A,#0x1
        LCALL     ?XSTACK_DISP0_8
        LCALL     ?Subroutine53 & 0xFFFF
??CrossCallReturnLabel_78:
        CLR       A
        MOVX      @DPTR,A
//  720           len++;
        MOV       ?V5,#0xc
//  721         }
//  722       }
//  723     }
//  724 
//  725     ZDP_TxOptions = AF_MSG_ACK_REQUEST;
??zdpProcessAddrReq_19:
        MOV       DPTR,#ZDP_TxOptions
        MOV       A,#0x10
        MOVX      @DPTR,A
//  726     fillAndSend( &(inMsg->TransSeq), &(inMsg->srcAddr), (cId_t)(inMsg->clusterID | ZDO_RESPONSE_BIT), len );
        ; Setup parameters for call to function fillAndSend
        MOV       A,?V2
        ADD       A,#0xc
        LCALL     ??Subroutine117_0 & 0xFFFF
??CrossCallReturnLabel_178:
        MOV       ?V0,A
        INC       DPTR
        MOVX      A,@DPTR
        ORL       A,#0x80
        MOV       ?V1,A
        MOV       R0,#?V0
        LCALL     ?PUSH_XSTACK_I_TWO
          CFI CFA_XSP16 add(XSP16, 33)
        MOV       R1,?V5
        MOV       A,?V2
        ADD       A,#0x2
        MOV       R4,A
        CLR       A
        ADDC      A,?V3
        MOV       R5,A
        MOV       A,?V2
        ADD       A,#0xf
        MOV       R2,A
        CLR       A
        ADDC      A,?V3
        MOV       R3,A
        LCALL     ??Subroutine140_0 & 0xFFFF
??CrossCallReturnLabel_297:
        LCALL     ?DEALLOC_XSTACK8
          CFI CFA_XSP16 add(XSP16, 31)
//  727     ZDP_TxOptions = AF_TX_OPTIONS_NONE;
        MOV       DPTR,#ZDP_TxOptions
        CLR       A
        MOVX      @DPTR,A
//  728   }
//  729 }
??zdpProcessAddrReq_12:
        MOV       A,#0x10
        LCALL     ?DEALLOC_XSTACK8
          CFI EndBlock cfiBlock46
        REQUIRE ?Subroutine3
        ; // Fall through to label ?Subroutine3

        RSEG BANKED_CODE:HUGECODE:NOROOT(0)
?Subroutine3:
          CFI Block cfiBlock47 Using cfiCommon0
          CFI NoFunction
          CFI CFA_SP SP+0
          CFI CFA_XSP16 add(XSP16, 15)
          CFI VB load(1, XDATA, add(CFA_XSP16, literal(-14)))
          CFI DPL0 load(1, XDATA, add(CFA_XSP16, literal(-2)))
          CFI DPH0 load(1, XDATA, add(CFA_XSP16, literal(-1)))
          CFI R6 load(1, XDATA, add(CFA_XSP16, literal(-15)))
          CFI R7 load(1, XDATA, add(CFA_XSP16, literal(-6)))
          CFI V0 load(1, XDATA, add(CFA_XSP16, literal(-13)))
          CFI V1 load(1, XDATA, add(CFA_XSP16, literal(-12)))
          CFI V2 load(1, XDATA, add(CFA_XSP16, literal(-11)))
          CFI V3 load(1, XDATA, add(CFA_XSP16, literal(-10)))
          CFI V4 load(1, XDATA, add(CFA_XSP16, literal(-9)))
          CFI V5 load(1, XDATA, add(CFA_XSP16, literal(-8)))
          CFI V6 load(1, XDATA, add(CFA_XSP16, literal(-7)))
          CFI ?BRET_EXT load(1, XDATA, add(CFA_XSP16, literal(-3)))
          CFI ?RET_HIGH load(1, XDATA, add(CFA_XSP16, literal(-4)))
          CFI ?RET_LOW load(1, XDATA, add(CFA_XSP16, literal(-5)))
        MOV       R7,#0x7
        LJMP      ?BANKED_LEAVE_XDATA
          CFI EndBlock cfiBlock47

        RSEG BANKED_CODE:HUGECODE:NOROOT(0)
?Subroutine68:
          CFI Block cfiCond48 Using cfiCommon0
          CFI Function zdpProcessAddrReq
          CFI Conditional ??CrossCallReturnLabel_180
          CFI R6 load(1, XDATA, add(CFA_XSP16, literal(-15)))
          CFI VB load(1, XDATA, add(CFA_XSP16, literal(-14)))
          CFI V0 load(1, XDATA, add(CFA_XSP16, literal(-13)))
          CFI V1 load(1, XDATA, add(CFA_XSP16, literal(-12)))
          CFI V2 load(1, XDATA, add(CFA_XSP16, literal(-11)))
          CFI V3 load(1, XDATA, add(CFA_XSP16, literal(-10)))
          CFI V4 load(1, XDATA, add(CFA_XSP16, literal(-9)))
          CFI V5 load(1, XDATA, add(CFA_XSP16, literal(-8)))
          CFI V6 load(1, XDATA, add(CFA_XSP16, literal(-7)))
          CFI R7 load(1, XDATA, add(CFA_XSP16, literal(-6)))
          CFI ?RET_LOW load(1, XDATA, add(CFA_XSP16, literal(-5)))
          CFI ?RET_HIGH load(1, XDATA, add(CFA_XSP16, literal(-4)))
          CFI ?BRET_EXT load(1, XDATA, add(CFA_XSP16, literal(-3)))
          CFI DPL0 load(1, XDATA, add(CFA_XSP16, literal(-2)))
          CFI DPH0 load(1, XDATA, add(CFA_XSP16, literal(-1)))
          CFI CFA_SP SP+-2
          CFI CFA_XSP16 add(XSP16, 31)
          CFI Block cfiCond49 Using cfiCommon0
          CFI (cfiCond49) Function zdpProcessAddrReq
          CFI (cfiCond49) Conditional ??CrossCallReturnLabel_181
          CFI (cfiCond49) R6 load(1, XDATA, add(CFA_XSP16, literal(-15)))
          CFI (cfiCond49) VB load(1, XDATA, add(CFA_XSP16, literal(-14)))
          CFI (cfiCond49) V0 load(1, XDATA, add(CFA_XSP16, literal(-13)))
          CFI (cfiCond49) V1 load(1, XDATA, add(CFA_XSP16, literal(-12)))
          CFI (cfiCond49) V2 load(1, XDATA, add(CFA_XSP16, literal(-11)))
          CFI (cfiCond49) V3 load(1, XDATA, add(CFA_XSP16, literal(-10)))
          CFI (cfiCond49) V4 load(1, XDATA, add(CFA_XSP16, literal(-9)))
          CFI (cfiCond49) V5 load(1, XDATA, add(CFA_XSP16, literal(-8)))
          CFI (cfiCond49) V6 load(1, XDATA, add(CFA_XSP16, literal(-7)))
          CFI (cfiCond49) R7 load(1, XDATA, add(CFA_XSP16, literal(-6)))
          CFI (cfiCond49) ?RET_LOW load(1, XDATA, add(CFA_XSP16, literal(-5)))
          CFI (cfiCond49) ?RET_HIGH load(1, XDATA, add(CFA_XSP16, literal(-4)))
          CFI (cfiCond49) ?BRET_EXT load(1, XDATA, add(CFA_XSP16, literal(-3)))
          CFI (cfiCond49) DPL0 load(1, XDATA, add(CFA_XSP16, literal(-2)))
          CFI (cfiCond49) DPH0 load(1, XDATA, add(CFA_XSP16, literal(-1)))
          CFI (cfiCond49) CFA_SP SP+-2
          CFI (cfiCond49) CFA_XSP16 add(XSP16, 31)
          CFI Block cfiPicker50 Using cfiCommon1
          CFI (cfiPicker50) NoFunction
          CFI (cfiPicker50) Picker
        MOV       A,?V2
          CFI EndBlock cfiCond48
          CFI EndBlock cfiCond49
          CFI EndBlock cfiPicker50
        REQUIRE ??Subroutine116_0
        ; // Fall through to label ??Subroutine116_0

        RSEG BANKED_CODE:HUGECODE:NOROOT(0)
??Subroutine116_0:
          CFI Block cfiCond51 Using cfiCommon0
          CFI Function zdpProcessAddrReq
          CFI Conditional ??CrossCallReturnLabel_179
          CFI R6 load(1, XDATA, add(CFA_XSP16, literal(-15)))
          CFI VB load(1, XDATA, add(CFA_XSP16, literal(-14)))
          CFI V0 load(1, XDATA, add(CFA_XSP16, literal(-13)))
          CFI V1 load(1, XDATA, add(CFA_XSP16, literal(-12)))
          CFI V2 load(1, XDATA, add(CFA_XSP16, literal(-11)))
          CFI V3 load(1, XDATA, add(CFA_XSP16, literal(-10)))
          CFI V4 load(1, XDATA, add(CFA_XSP16, literal(-9)))
          CFI V5 load(1, XDATA, add(CFA_XSP16, literal(-8)))
          CFI V6 load(1, XDATA, add(CFA_XSP16, literal(-7)))
          CFI R7 load(1, XDATA, add(CFA_XSP16, literal(-6)))
          CFI ?RET_LOW load(1, XDATA, add(CFA_XSP16, literal(-5)))
          CFI ?RET_HIGH load(1, XDATA, add(CFA_XSP16, literal(-4)))
          CFI ?BRET_EXT load(1, XDATA, add(CFA_XSP16, literal(-3)))
          CFI DPL0 load(1, XDATA, add(CFA_XSP16, literal(-2)))
          CFI DPH0 load(1, XDATA, add(CFA_XSP16, literal(-1)))
          CFI CFA_SP SP+-2
          CFI CFA_XSP16 add(XSP16, 31)
          CFI Block cfiCond52 Using cfiCommon0
          CFI (cfiCond52) Function zdpProcessAddrReq
          CFI (cfiCond52) Conditional ??CrossCallReturnLabel_180
          CFI (cfiCond52) R6 load(1, XDATA, add(CFA_XSP16, literal(-15)))
          CFI (cfiCond52) VB load(1, XDATA, add(CFA_XSP16, literal(-14)))
          CFI (cfiCond52) V0 load(1, XDATA, add(CFA_XSP16, literal(-13)))
          CFI (cfiCond52) V1 load(1, XDATA, add(CFA_XSP16, literal(-12)))
          CFI (cfiCond52) V2 load(1, XDATA, add(CFA_XSP16, literal(-11)))
          CFI (cfiCond52) V3 load(1, XDATA, add(CFA_XSP16, literal(-10)))
          CFI (cfiCond52) V4 load(1, XDATA, add(CFA_XSP16, literal(-9)))
          CFI (cfiCond52) V5 load(1, XDATA, add(CFA_XSP16, literal(-8)))
          CFI (cfiCond52) V6 load(1, XDATA, add(CFA_XSP16, literal(-7)))
          CFI (cfiCond52) R7 load(1, XDATA, add(CFA_XSP16, literal(-6)))
          CFI (cfiCond52) ?RET_LOW load(1, XDATA, add(CFA_XSP16, literal(-5)))
          CFI (cfiCond52) ?RET_HIGH load(1, XDATA, add(CFA_XSP16, literal(-4)))
          CFI (cfiCond52) ?BRET_EXT load(1, XDATA, add(CFA_XSP16, literal(-3)))
          CFI (cfiCond52) DPL0 load(1, XDATA, add(CFA_XSP16, literal(-2)))
          CFI (cfiCond52) DPH0 load(1, XDATA, add(CFA_XSP16, literal(-1)))
          CFI (cfiCond52) CFA_SP SP+-2
          CFI (cfiCond52) CFA_XSP16 add(XSP16, 31)
          CFI Block cfiCond53 Using cfiCommon0
          CFI (cfiCond53) Function zdpProcessAddrReq
          CFI (cfiCond53) Conditional ??CrossCallReturnLabel_181
          CFI (cfiCond53) R6 load(1, XDATA, add(CFA_XSP16, literal(-15)))
          CFI (cfiCond53) VB load(1, XDATA, add(CFA_XSP16, literal(-14)))
          CFI (cfiCond53) V0 load(1, XDATA, add(CFA_XSP16, literal(-13)))
          CFI (cfiCond53) V1 load(1, XDATA, add(CFA_XSP16, literal(-12)))
          CFI (cfiCond53) V2 load(1, XDATA, add(CFA_XSP16, literal(-11)))
          CFI (cfiCond53) V3 load(1, XDATA, add(CFA_XSP16, literal(-10)))
          CFI (cfiCond53) V4 load(1, XDATA, add(CFA_XSP16, literal(-9)))
          CFI (cfiCond53) V5 load(1, XDATA, add(CFA_XSP16, literal(-8)))
          CFI (cfiCond53) V6 load(1, XDATA, add(CFA_XSP16, literal(-7)))
          CFI (cfiCond53) R7 load(1, XDATA, add(CFA_XSP16, literal(-6)))
          CFI (cfiCond53) ?RET_LOW load(1, XDATA, add(CFA_XSP16, literal(-5)))
          CFI (cfiCond53) ?RET_HIGH load(1, XDATA, add(CFA_XSP16, literal(-4)))
          CFI (cfiCond53) ?BRET_EXT load(1, XDATA, add(CFA_XSP16, literal(-3)))
          CFI (cfiCond53) DPL0 load(1, XDATA, add(CFA_XSP16, literal(-2)))
          CFI (cfiCond53) DPH0 load(1, XDATA, add(CFA_XSP16, literal(-1)))
          CFI (cfiCond53) CFA_SP SP+-2
          CFI (cfiCond53) CFA_XSP16 add(XSP16, 31)
          CFI Block cfiPicker54 Using cfiCommon1
          CFI (cfiPicker54) NoFunction
          CFI (cfiPicker54) Picker
        ADD       A,#0x13
          CFI EndBlock cfiCond51
          CFI EndBlock cfiCond52
          CFI EndBlock cfiCond53
          CFI EndBlock cfiPicker54
        REQUIRE ??Subroutine117_0
        ; // Fall through to label ??Subroutine117_0

        RSEG BANKED_CODE:HUGECODE:NOROOT(0)
??Subroutine117_0:
          CFI Block cfiCond55 Using cfiCommon0
          CFI Function zdpProcessAddrReq
          CFI Conditional ??CrossCallReturnLabel_176
          CFI R6 load(1, XDATA, add(CFA_XSP16, literal(-15)))
          CFI VB load(1, XDATA, add(CFA_XSP16, literal(-14)))
          CFI V0 load(1, XDATA, add(CFA_XSP16, literal(-13)))
          CFI V1 load(1, XDATA, add(CFA_XSP16, literal(-12)))
          CFI V2 load(1, XDATA, add(CFA_XSP16, literal(-11)))
          CFI V3 load(1, XDATA, add(CFA_XSP16, literal(-10)))
          CFI V4 load(1, XDATA, add(CFA_XSP16, literal(-9)))
          CFI V5 load(1, XDATA, add(CFA_XSP16, literal(-8)))
          CFI V6 load(1, XDATA, add(CFA_XSP16, literal(-7)))
          CFI R7 load(1, XDATA, add(CFA_XSP16, literal(-6)))
          CFI ?RET_LOW load(1, XDATA, add(CFA_XSP16, literal(-5)))
          CFI ?RET_HIGH load(1, XDATA, add(CFA_XSP16, literal(-4)))
          CFI ?BRET_EXT load(1, XDATA, add(CFA_XSP16, literal(-3)))
          CFI DPL0 load(1, XDATA, add(CFA_XSP16, literal(-2)))
          CFI DPH0 load(1, XDATA, add(CFA_XSP16, literal(-1)))
          CFI CFA_SP SP+-2
          CFI CFA_XSP16 add(XSP16, 31)
          CFI Block cfiCond56 Using cfiCommon0
          CFI (cfiCond56) Function zdpProcessAddrReq
          CFI (cfiCond56) Conditional ??CrossCallReturnLabel_177
          CFI (cfiCond56) R6 load(1, XDATA, add(CFA_XSP16, literal(-15)))
          CFI (cfiCond56) VB load(1, XDATA, add(CFA_XSP16, literal(-14)))
          CFI (cfiCond56) V0 load(1, XDATA, add(CFA_XSP16, literal(-13)))
          CFI (cfiCond56) V1 load(1, XDATA, add(CFA_XSP16, literal(-12)))
          CFI (cfiCond56) V2 load(1, XDATA, add(CFA_XSP16, literal(-11)))
          CFI (cfiCond56) V3 load(1, XDATA, add(CFA_XSP16, literal(-10)))
          CFI (cfiCond56) V4 load(1, XDATA, add(CFA_XSP16, literal(-9)))
          CFI (cfiCond56) V5 load(1, XDATA, add(CFA_XSP16, literal(-8)))
          CFI (cfiCond56) V6 load(1, XDATA, add(CFA_XSP16, literal(-7)))
          CFI (cfiCond56) R7 load(1, XDATA, add(CFA_XSP16, literal(-6)))
          CFI (cfiCond56) ?RET_LOW load(1, XDATA, add(CFA_XSP16, literal(-5)))
          CFI (cfiCond56) ?RET_HIGH load(1, XDATA, add(CFA_XSP16, literal(-4)))
          CFI (cfiCond56) ?BRET_EXT load(1, XDATA, add(CFA_XSP16, literal(-3)))
          CFI (cfiCond56) DPL0 load(1, XDATA, add(CFA_XSP16, literal(-2)))
          CFI (cfiCond56) DPH0 load(1, XDATA, add(CFA_XSP16, literal(-1)))
          CFI (cfiCond56) CFA_SP SP+-2
          CFI (cfiCond56) CFA_XSP16 add(XSP16, 31)
          CFI Block cfiCond57 Using cfiCommon0
          CFI (cfiCond57) Function zdpProcessAddrReq
          CFI (cfiCond57) Conditional ??CrossCallReturnLabel_178
          CFI (cfiCond57) R6 load(1, XDATA, add(CFA_XSP16, literal(-15)))
          CFI (cfiCond57) VB load(1, XDATA, add(CFA_XSP16, literal(-14)))
          CFI (cfiCond57) V0 load(1, XDATA, add(CFA_XSP16, literal(-13)))
          CFI (cfiCond57) V1 load(1, XDATA, add(CFA_XSP16, literal(-12)))
          CFI (cfiCond57) V2 load(1, XDATA, add(CFA_XSP16, literal(-11)))
          CFI (cfiCond57) V3 load(1, XDATA, add(CFA_XSP16, literal(-10)))
          CFI (cfiCond57) V4 load(1, XDATA, add(CFA_XSP16, literal(-9)))
          CFI (cfiCond57) V5 load(1, XDATA, add(CFA_XSP16, literal(-8)))
          CFI (cfiCond57) V6 load(1, XDATA, add(CFA_XSP16, literal(-7)))
          CFI (cfiCond57) R7 load(1, XDATA, add(CFA_XSP16, literal(-6)))
          CFI (cfiCond57) ?RET_LOW load(1, XDATA, add(CFA_XSP16, literal(-5)))
          CFI (cfiCond57) ?RET_HIGH load(1, XDATA, add(CFA_XSP16, literal(-4)))
          CFI (cfiCond57) ?BRET_EXT load(1, XDATA, add(CFA_XSP16, literal(-3)))
          CFI (cfiCond57) DPL0 load(1, XDATA, add(CFA_XSP16, literal(-2)))
          CFI (cfiCond57) DPH0 load(1, XDATA, add(CFA_XSP16, literal(-1)))
          CFI (cfiCond57) CFA_SP SP+-2
          CFI (cfiCond57) CFA_XSP16 add(XSP16, 31)
          CFI Block cfiCond58 Using cfiCommon0
          CFI (cfiCond58) Function zdpProcessAddrReq
          CFI (cfiCond58) Conditional ??CrossCallReturnLabel_179
          CFI (cfiCond58) R6 load(1, XDATA, add(CFA_XSP16, literal(-15)))
          CFI (cfiCond58) VB load(1, XDATA, add(CFA_XSP16, literal(-14)))
          CFI (cfiCond58) V0 load(1, XDATA, add(CFA_XSP16, literal(-13)))
          CFI (cfiCond58) V1 load(1, XDATA, add(CFA_XSP16, literal(-12)))
          CFI (cfiCond58) V2 load(1, XDATA, add(CFA_XSP16, literal(-11)))
          CFI (cfiCond58) V3 load(1, XDATA, add(CFA_XSP16, literal(-10)))
          CFI (cfiCond58) V4 load(1, XDATA, add(CFA_XSP16, literal(-9)))
          CFI (cfiCond58) V5 load(1, XDATA, add(CFA_XSP16, literal(-8)))
          CFI (cfiCond58) V6 load(1, XDATA, add(CFA_XSP16, literal(-7)))
          CFI (cfiCond58) R7 load(1, XDATA, add(CFA_XSP16, literal(-6)))
          CFI (cfiCond58) ?RET_LOW load(1, XDATA, add(CFA_XSP16, literal(-5)))
          CFI (cfiCond58) ?RET_HIGH load(1, XDATA, add(CFA_XSP16, literal(-4)))
          CFI (cfiCond58) ?BRET_EXT load(1, XDATA, add(CFA_XSP16, literal(-3)))
          CFI (cfiCond58) DPL0 load(1, XDATA, add(CFA_XSP16, literal(-2)))
          CFI (cfiCond58) DPH0 load(1, XDATA, add(CFA_XSP16, literal(-1)))
          CFI (cfiCond58) CFA_SP SP+-2
          CFI (cfiCond58) CFA_XSP16 add(XSP16, 31)
          CFI Block cfiCond59 Using cfiCommon0
          CFI (cfiCond59) Function zdpProcessAddrReq
          CFI (cfiCond59) Conditional ??CrossCallReturnLabel_180
          CFI (cfiCond59) R6 load(1, XDATA, add(CFA_XSP16, literal(-15)))
          CFI (cfiCond59) VB load(1, XDATA, add(CFA_XSP16, literal(-14)))
          CFI (cfiCond59) V0 load(1, XDATA, add(CFA_XSP16, literal(-13)))
          CFI (cfiCond59) V1 load(1, XDATA, add(CFA_XSP16, literal(-12)))
          CFI (cfiCond59) V2 load(1, XDATA, add(CFA_XSP16, literal(-11)))
          CFI (cfiCond59) V3 load(1, XDATA, add(CFA_XSP16, literal(-10)))
          CFI (cfiCond59) V4 load(1, XDATA, add(CFA_XSP16, literal(-9)))
          CFI (cfiCond59) V5 load(1, XDATA, add(CFA_XSP16, literal(-8)))
          CFI (cfiCond59) V6 load(1, XDATA, add(CFA_XSP16, literal(-7)))
          CFI (cfiCond59) R7 load(1, XDATA, add(CFA_XSP16, literal(-6)))
          CFI (cfiCond59) ?RET_LOW load(1, XDATA, add(CFA_XSP16, literal(-5)))
          CFI (cfiCond59) ?RET_HIGH load(1, XDATA, add(CFA_XSP16, literal(-4)))
          CFI (cfiCond59) ?BRET_EXT load(1, XDATA, add(CFA_XSP16, literal(-3)))
          CFI (cfiCond59) DPL0 load(1, XDATA, add(CFA_XSP16, literal(-2)))
          CFI (cfiCond59) DPH0 load(1, XDATA, add(CFA_XSP16, literal(-1)))
          CFI (cfiCond59) CFA_SP SP+-2
          CFI (cfiCond59) CFA_XSP16 add(XSP16, 31)
          CFI Block cfiCond60 Using cfiCommon0
          CFI (cfiCond60) Function zdpProcessAddrReq
          CFI (cfiCond60) Conditional ??CrossCallReturnLabel_181
          CFI (cfiCond60) R6 load(1, XDATA, add(CFA_XSP16, literal(-15)))
          CFI (cfiCond60) VB load(1, XDATA, add(CFA_XSP16, literal(-14)))
          CFI (cfiCond60) V0 load(1, XDATA, add(CFA_XSP16, literal(-13)))
          CFI (cfiCond60) V1 load(1, XDATA, add(CFA_XSP16, literal(-12)))
          CFI (cfiCond60) V2 load(1, XDATA, add(CFA_XSP16, literal(-11)))
          CFI (cfiCond60) V3 load(1, XDATA, add(CFA_XSP16, literal(-10)))
          CFI (cfiCond60) V4 load(1, XDATA, add(CFA_XSP16, literal(-9)))
          CFI (cfiCond60) V5 load(1, XDATA, add(CFA_XSP16, literal(-8)))
          CFI (cfiCond60) V6 load(1, XDATA, add(CFA_XSP16, literal(-7)))
          CFI (cfiCond60) R7 load(1, XDATA, add(CFA_XSP16, literal(-6)))
          CFI (cfiCond60) ?RET_LOW load(1, XDATA, add(CFA_XSP16, literal(-5)))
          CFI (cfiCond60) ?RET_HIGH load(1, XDATA, add(CFA_XSP16, literal(-4)))
          CFI (cfiCond60) ?BRET_EXT load(1, XDATA, add(CFA_XSP16, literal(-3)))
          CFI (cfiCond60) DPL0 load(1, XDATA, add(CFA_XSP16, literal(-2)))
          CFI (cfiCond60) DPH0 load(1, XDATA, add(CFA_XSP16, literal(-1)))
          CFI (cfiCond60) CFA_SP SP+-2
          CFI (cfiCond60) CFA_XSP16 add(XSP16, 31)
          CFI Block cfiPicker61 Using cfiCommon1
          CFI (cfiPicker61) NoFunction
          CFI (cfiPicker61) Picker
        MOV       DPL,A
        CLR       A
        ADDC      A,?V3
        MOV       DPH,A
        MOVX      A,@DPTR
        RET
          CFI EndBlock cfiCond55
          CFI EndBlock cfiCond56
          CFI EndBlock cfiCond57
          CFI EndBlock cfiCond58
          CFI EndBlock cfiCond59
          CFI EndBlock cfiCond60
          CFI EndBlock cfiPicker61

        RSEG BANKED_CODE:HUGECODE:NOROOT(0)
?Subroutine56:
          CFI Block cfiCond62 Using cfiCommon0
          CFI Function zdpProcessAddrReq
          CFI Conditional ??CrossCallReturnLabel_82
          CFI R6 load(1, XDATA, add(CFA_XSP16, literal(-15)))
          CFI VB load(1, XDATA, add(CFA_XSP16, literal(-14)))
          CFI V0 load(1, XDATA, add(CFA_XSP16, literal(-13)))
          CFI V1 load(1, XDATA, add(CFA_XSP16, literal(-12)))
          CFI V2 load(1, XDATA, add(CFA_XSP16, literal(-11)))
          CFI V3 load(1, XDATA, add(CFA_XSP16, literal(-10)))
          CFI V4 load(1, XDATA, add(CFA_XSP16, literal(-9)))
          CFI V5 load(1, XDATA, add(CFA_XSP16, literal(-8)))
          CFI V6 load(1, XDATA, add(CFA_XSP16, literal(-7)))
          CFI R7 load(1, XDATA, add(CFA_XSP16, literal(-6)))
          CFI ?RET_LOW load(1, XDATA, add(CFA_XSP16, literal(-5)))
          CFI ?RET_HIGH load(1, XDATA, add(CFA_XSP16, literal(-4)))
          CFI ?BRET_EXT load(1, XDATA, add(CFA_XSP16, literal(-3)))
          CFI DPL0 load(1, XDATA, add(CFA_XSP16, literal(-2)))
          CFI DPH0 load(1, XDATA, add(CFA_XSP16, literal(-1)))
          CFI CFA_XSP16 add(XSP16, 31)
          CFI Block cfiCond63 Using cfiCommon0
          CFI (cfiCond63) Function zdpProcessAddrReq
          CFI (cfiCond63) Conditional ??CrossCallReturnLabel_83
          CFI (cfiCond63) R6 load(1, XDATA, add(CFA_XSP16, literal(-15)))
          CFI (cfiCond63) VB load(1, XDATA, add(CFA_XSP16, literal(-14)))
          CFI (cfiCond63) V0 load(1, XDATA, add(CFA_XSP16, literal(-13)))
          CFI (cfiCond63) V1 load(1, XDATA, add(CFA_XSP16, literal(-12)))
          CFI (cfiCond63) V2 load(1, XDATA, add(CFA_XSP16, literal(-11)))
          CFI (cfiCond63) V3 load(1, XDATA, add(CFA_XSP16, literal(-10)))
          CFI (cfiCond63) V4 load(1, XDATA, add(CFA_XSP16, literal(-9)))
          CFI (cfiCond63) V5 load(1, XDATA, add(CFA_XSP16, literal(-8)))
          CFI (cfiCond63) V6 load(1, XDATA, add(CFA_XSP16, literal(-7)))
          CFI (cfiCond63) R7 load(1, XDATA, add(CFA_XSP16, literal(-6)))
          CFI (cfiCond63) ?RET_LOW load(1, XDATA, add(CFA_XSP16, literal(-5)))
          CFI (cfiCond63) ?RET_HIGH load(1, XDATA, add(CFA_XSP16, literal(-4)))
          CFI (cfiCond63) ?BRET_EXT load(1, XDATA, add(CFA_XSP16, literal(-3)))
          CFI (cfiCond63) DPL0 load(1, XDATA, add(CFA_XSP16, literal(-2)))
          CFI (cfiCond63) DPH0 load(1, XDATA, add(CFA_XSP16, literal(-1)))
          CFI (cfiCond63) CFA_SP SP+-2
          CFI (cfiCond63) CFA_XSP16 add(XSP16, 31)
          CFI Block cfiPicker64 Using cfiCommon1
          CFI (cfiPicker64) NoFunction
          CFI (cfiPicker64) Picker
        MOVX      A,@DPTR
        MOV       R2,A
        INC       DPTR
        MOVX      A,@DPTR
        MOV       DPH,A
        MOV       DPL,R2
        INC       DPTR
        INC       DPTR
        RET
          CFI EndBlock cfiCond62
          CFI EndBlock cfiCond63
          CFI EndBlock cfiPicker64

        RSEG BANKED_CODE:HUGECODE:NOROOT(0)
?Subroutine45:
          CFI Block cfiCond65 Using cfiCommon0
          CFI Function zdpProcessAddrReq
          CFI Conditional ??CrossCallReturnLabel_183
          CFI R6 load(1, XDATA, add(CFA_XSP16, literal(-15)))
          CFI VB load(1, XDATA, add(CFA_XSP16, literal(-14)))
          CFI V0 load(1, XDATA, add(CFA_XSP16, literal(-13)))
          CFI V1 load(1, XDATA, add(CFA_XSP16, literal(-12)))
          CFI V2 load(1, XDATA, add(CFA_XSP16, literal(-11)))
          CFI V3 load(1, XDATA, add(CFA_XSP16, literal(-10)))
          CFI V4 load(1, XDATA, add(CFA_XSP16, literal(-9)))
          CFI V5 load(1, XDATA, add(CFA_XSP16, literal(-8)))
          CFI V6 load(1, XDATA, add(CFA_XSP16, literal(-7)))
          CFI R7 load(1, XDATA, add(CFA_XSP16, literal(-6)))
          CFI ?RET_LOW load(1, XDATA, add(CFA_XSP16, literal(-5)))
          CFI ?RET_HIGH load(1, XDATA, add(CFA_XSP16, literal(-4)))
          CFI ?BRET_EXT load(1, XDATA, add(CFA_XSP16, literal(-3)))
          CFI DPL0 load(1, XDATA, add(CFA_XSP16, literal(-2)))
          CFI DPH0 load(1, XDATA, add(CFA_XSP16, literal(-1)))
          CFI CFA_SP SP+-2
          CFI CFA_XSP16 add(XSP16, 31)
          CFI Block cfiCond66 Using cfiCommon0
          CFI (cfiCond66) Function zdpProcessAddrReq
          CFI (cfiCond66) Conditional ??CrossCallReturnLabel_184
          CFI (cfiCond66) R6 load(1, XDATA, add(CFA_XSP16, literal(-15)))
          CFI (cfiCond66) VB load(1, XDATA, add(CFA_XSP16, literal(-14)))
          CFI (cfiCond66) V0 load(1, XDATA, add(CFA_XSP16, literal(-13)))
          CFI (cfiCond66) V1 load(1, XDATA, add(CFA_XSP16, literal(-12)))
          CFI (cfiCond66) V2 load(1, XDATA, add(CFA_XSP16, literal(-11)))
          CFI (cfiCond66) V3 load(1, XDATA, add(CFA_XSP16, literal(-10)))
          CFI (cfiCond66) V4 load(1, XDATA, add(CFA_XSP16, literal(-9)))
          CFI (cfiCond66) V5 load(1, XDATA, add(CFA_XSP16, literal(-8)))
          CFI (cfiCond66) V6 load(1, XDATA, add(CFA_XSP16, literal(-7)))
          CFI (cfiCond66) R7 load(1, XDATA, add(CFA_XSP16, literal(-6)))
          CFI (cfiCond66) ?RET_LOW load(1, XDATA, add(CFA_XSP16, literal(-5)))
          CFI (cfiCond66) ?RET_HIGH load(1, XDATA, add(CFA_XSP16, literal(-4)))
          CFI (cfiCond66) ?BRET_EXT load(1, XDATA, add(CFA_XSP16, literal(-3)))
          CFI (cfiCond66) DPL0 load(1, XDATA, add(CFA_XSP16, literal(-2)))
          CFI (cfiCond66) DPH0 load(1, XDATA, add(CFA_XSP16, literal(-1)))
          CFI (cfiCond66) CFA_SP SP+-2
          CFI (cfiCond66) CFA_XSP16 add(XSP16, 31)
          CFI Block cfiPicker67 Using cfiCommon1
          CFI (cfiPicker67) NoFunction
          CFI (cfiPicker67) Picker
        ADD       A,#0xc
        MOV       DPL,A
        CLR       A
        ADDC      A,?V3
        MOV       DPH,A
          CFI EndBlock cfiCond65
          CFI EndBlock cfiCond66
          CFI EndBlock cfiPicker67
        REQUIRE ??Subroutine118_0
        ; // Fall through to label ??Subroutine118_0

        RSEG BANKED_CODE:HUGECODE:NOROOT(0)
??Subroutine118_0:
          CFI Block cfiCond68 Using cfiCommon0
          CFI Function ZDO_RemoveRegisteredCB
          CFI Conditional ??CrossCallReturnLabel_182
          CFI R6 load(1, XDATA, add(CFA_XSP16, literal(-9)))
          CFI VB load(1, XDATA, add(CFA_XSP16, literal(-8)))
          CFI V0 load(1, XDATA, add(CFA_XSP16, literal(-7)))
          CFI R7 load(1, XDATA, add(CFA_XSP16, literal(-6)))
          CFI ?RET_LOW load(1, XDATA, add(CFA_XSP16, literal(-5)))
          CFI ?RET_HIGH load(1, XDATA, add(CFA_XSP16, literal(-4)))
          CFI ?BRET_EXT load(1, XDATA, add(CFA_XSP16, literal(-3)))
          CFI DPL0 load(1, XDATA, add(CFA_XSP16, literal(-2)))
          CFI DPH0 load(1, XDATA, add(CFA_XSP16, literal(-1)))
          CFI CFA_SP SP+-2
          CFI CFA_XSP16 add(XSP16, 9)
          CFI Block cfiCond69 Using cfiCommon0
          CFI (cfiCond69) Function zdpProcessAddrReq
          CFI (cfiCond69) Conditional ??CrossCallReturnLabel_183
          CFI (cfiCond69) R6 load(1, XDATA, add(CFA_XSP16, literal(-15)))
          CFI (cfiCond69) VB load(1, XDATA, add(CFA_XSP16, literal(-14)))
          CFI (cfiCond69) V0 load(1, XDATA, add(CFA_XSP16, literal(-13)))
          CFI (cfiCond69) V1 load(1, XDATA, add(CFA_XSP16, literal(-12)))
          CFI (cfiCond69) V2 load(1, XDATA, add(CFA_XSP16, literal(-11)))
          CFI (cfiCond69) V3 load(1, XDATA, add(CFA_XSP16, literal(-10)))
          CFI (cfiCond69) V4 load(1, XDATA, add(CFA_XSP16, literal(-9)))
          CFI (cfiCond69) V5 load(1, XDATA, add(CFA_XSP16, literal(-8)))
          CFI (cfiCond69) V6 load(1, XDATA, add(CFA_XSP16, literal(-7)))
          CFI (cfiCond69) R7 load(1, XDATA, add(CFA_XSP16, literal(-6)))
          CFI (cfiCond69) ?RET_LOW load(1, XDATA, add(CFA_XSP16, literal(-5)))
          CFI (cfiCond69) ?RET_HIGH load(1, XDATA, add(CFA_XSP16, literal(-4)))
          CFI (cfiCond69) ?BRET_EXT load(1, XDATA, add(CFA_XSP16, literal(-3)))
          CFI (cfiCond69) DPL0 load(1, XDATA, add(CFA_XSP16, literal(-2)))
          CFI (cfiCond69) DPH0 load(1, XDATA, add(CFA_XSP16, literal(-1)))
          CFI (cfiCond69) CFA_SP SP+-2
          CFI (cfiCond69) CFA_XSP16 add(XSP16, 31)
          CFI Block cfiCond70 Using cfiCommon0
          CFI (cfiCond70) Function zdpProcessAddrReq
          CFI (cfiCond70) Conditional ??CrossCallReturnLabel_184
          CFI (cfiCond70) R6 load(1, XDATA, add(CFA_XSP16, literal(-15)))
          CFI (cfiCond70) VB load(1, XDATA, add(CFA_XSP16, literal(-14)))
          CFI (cfiCond70) V0 load(1, XDATA, add(CFA_XSP16, literal(-13)))
          CFI (cfiCond70) V1 load(1, XDATA, add(CFA_XSP16, literal(-12)))
          CFI (cfiCond70) V2 load(1, XDATA, add(CFA_XSP16, literal(-11)))
          CFI (cfiCond70) V3 load(1, XDATA, add(CFA_XSP16, literal(-10)))
          CFI (cfiCond70) V4 load(1, XDATA, add(CFA_XSP16, literal(-9)))
          CFI (cfiCond70) V5 load(1, XDATA, add(CFA_XSP16, literal(-8)))
          CFI (cfiCond70) V6 load(1, XDATA, add(CFA_XSP16, literal(-7)))
          CFI (cfiCond70) R7 load(1, XDATA, add(CFA_XSP16, literal(-6)))
          CFI (cfiCond70) ?RET_LOW load(1, XDATA, add(CFA_XSP16, literal(-5)))
          CFI (cfiCond70) ?RET_HIGH load(1, XDATA, add(CFA_XSP16, literal(-4)))
          CFI (cfiCond70) ?BRET_EXT load(1, XDATA, add(CFA_XSP16, literal(-3)))
          CFI (cfiCond70) DPL0 load(1, XDATA, add(CFA_XSP16, literal(-2)))
          CFI (cfiCond70) DPH0 load(1, XDATA, add(CFA_XSP16, literal(-1)))
          CFI (cfiCond70) CFA_SP SP+-2
          CFI (cfiCond70) CFA_XSP16 add(XSP16, 31)
          CFI Block cfiPicker71 Using cfiCommon1
          CFI (cfiPicker71) NoFunction
          CFI (cfiPicker71) Picker
        LCALL     ?Subroutine81 & 0xFFFF
??CrossCallReturnLabel_331:
        MOV       A,R0
        ORL       A,R1
        RET
          CFI EndBlock cfiCond68
          CFI EndBlock cfiCond69
          CFI EndBlock cfiCond70
          CFI EndBlock cfiPicker71
//  730 
//  731 /*********************************************************************
//  732  * @fn          ZDP_NodeDescMsg
//  733  *
//  734  * @brief       Builds and sends a Node Descriptor message, unicast to the
//  735  *              specified device.
//  736  *
//  737  * @param       inMsg - incoming message
//  738  * @param       nwkAddr - 16 bit network address for device
//  739  * @param       pNodeDesc - pointer to the node descriptor
//  740  *
//  741  * @return      afStatus_t
//  742  */

        RSEG BANKED_CODE:HUGECODE:NOROOT(0)
//  743 afStatus_t ZDP_NodeDescMsg( zdoIncomingMsg_t *inMsg,
ZDP_NodeDescMsg:
          CFI Block cfiBlock72 Using cfiCommon0
          CFI Function ZDP_NodeDescMsg
        CODE
//  744                            uint16 nwkAddr, NodeDescriptorFormat_t *pNodeDesc )
//  745 {
        FUNCALL ZDP_NodeDescMsg, fillAndSend
        LOCFRAME ISTACK, 0, STACK
        LOCFRAME PSTACK, 0, STACK
        LOCFRAME XSTACK, 12, STACK
        LOCFRAME IOVERLAY, 0, STATIC
        LOCFRAME DOVERLAY, 0, STATIC
        ARGFRAME ISTACK, 0, STACK
        ARGFRAME PSTACK, 0, STACK
        ARGFRAME XSTACK, 12, STACK
        ARGFRAME IOVERLAY, 0, STATIC
        ARGFRAME DOVERLAY, 0, STATIC
        REQUIRE ?V0
        REQUIRE ?V1
        MOV       A,#-0xa
        LCALL     ?BANKED_ENTER_XDATA
          CFI DPH0 load(1, XDATA, add(CFA_XSP16, literal(-1)))
          CFI DPL0 load(1, XDATA, add(CFA_XSP16, literal(-2)))
          CFI ?BRET_EXT load(1, XDATA, add(CFA_XSP16, literal(-3)))
          CFI ?RET_HIGH load(1, XDATA, add(CFA_XSP16, literal(-4)))
          CFI ?RET_LOW load(1, XDATA, add(CFA_XSP16, literal(-5)))
          CFI R7 load(1, XDATA, add(CFA_XSP16, literal(-6)))
          CFI V1 load(1, XDATA, add(CFA_XSP16, literal(-7)))
          CFI V0 load(1, XDATA, add(CFA_XSP16, literal(-8)))
          CFI VB load(1, XDATA, add(CFA_XSP16, literal(-9)))
          CFI R6 load(1, XDATA, add(CFA_XSP16, literal(-10)))
          CFI CFA_SP SP+0
          CFI CFA_XSP16 add(XSP16, 10)
        ; Saved register size: 10
        ; Auto size: 0
//  746   uint8 *pBuf = ZDP_TmpBuf;
        MOV       DPTR,#ZDP_TmpBuf
        LCALL     ??Subroutine135_0 & 0xFFFF
//  747   byte len;
//  748 
//  749   len = 1 + 2 + 13;  // Status + nwkAddr + Node descriptor
//  750 
//  751   *pBuf++ = ZDP_SUCCESS;
??CrossCallReturnLabel_261:
        MOV       DPL,R6
        MOV       DPH,A
        CLR       A
        MOVX      @DPTR,A
//  752 
//  753   *pBuf++ = LO_UINT16( nwkAddr );
        MOV       A,R4
        INC       DPTR
        MOVX      @DPTR,A
//  754   *pBuf++ = HI_UINT16( nwkAddr );
        MOV       A,R5
        MOV       DPL,R6
        MOV       DPH,R7
        INC       DPTR
        INC       DPTR
        MOVX      @DPTR,A
        MOV       A,#0xa
        LCALL     ?XSTACK_DISP0_8
        LCALL     ?Subroutine36 & 0xFFFF
//  755 
//  756   *pBuf++ = (byte)((pNodeDesc->ComplexDescAvail << 3) |
//  757                      (pNodeDesc->UserDescAvail << 4) |
//  758                      (pNodeDesc->LogicalType & 0x07));
??CrossCallReturnLabel_45:
        ANL       A,#0x1f
        MOV       DPL,R6
        MOV       DPH,R7
        LCALL     ?Subroutine29 & 0xFFFF
//  759 
//  760   *pBuf++ = (byte)((pNodeDesc->FrequencyBand << 3) | (pNodeDesc->APSFlags & 0x07));
??CrossCallReturnLabel_172:
        LCALL     ?Subroutine40 & 0xFFFF
??CrossCallReturnLabel_54:
        LCALL     ?Subroutine29 & 0xFFFF
//  761   *pBuf++ = pNodeDesc->CapabilityFlags;
??CrossCallReturnLabel_173:
        LCALL     ?Subroutine82 & 0xFFFF
??CrossCallReturnLabel_247:
        LCALL     ?Subroutine28 & 0xFFFF
//  762   *pBuf++ = pNodeDesc->ManufacturerCode[0];
??CrossCallReturnLabel_185:
        LCALL     ?Subroutine40 & 0xFFFF
??CrossCallReturnLabel_55:
        LCALL     ?Subroutine28 & 0xFFFF
//  763   *pBuf++ = pNodeDesc->ManufacturerCode[1];
??CrossCallReturnLabel_186:
        LCALL     ?Subroutine82 & 0xFFFF
??CrossCallReturnLabel_248:
        LCALL     ?Subroutine27 & 0xFFFF
//  764   *pBuf++ = pNodeDesc->MaxBufferSize;
??CrossCallReturnLabel_34:
        LCALL     ?Subroutine40 & 0xFFFF
??CrossCallReturnLabel_56:
        LCALL     ?Subroutine27 & 0xFFFF
//  765   *pBuf++ = pNodeDesc->MaxInTransferSize[0];
??CrossCallReturnLabel_35:
        INC       DPTR
        LCALL     ?Subroutine39 & 0xFFFF
??CrossCallReturnLabel_52:
        LCALL     ?Subroutine22 & 0xFFFF
//  766   *pBuf++ = pNodeDesc->MaxInTransferSize[1];
??CrossCallReturnLabel_28:
        LCALL     ?Subroutine39 & 0xFFFF
??CrossCallReturnLabel_53:
        INC       DPTR
        MOVX      @DPTR,A
//  767 
//  768   *pBuf++ = LO_UINT16( pNodeDesc->ServerMask );
        MOV       A,R0
        ADD       A,#0x8
        MOV       R4,A
        CLR       A
        ADDC      A,R1
        MOV       R5,A
        MOV       DPL,R4
        MOV       DPH,A
        MOVX      A,@DPTR
        MOV       ?V0,A
        LCALL     ?Subroutine74 & 0xFFFF
??CrossCallReturnLabel_121:
        MOV       A,?V0
        LCALL     ?Subroutine16 & 0xFFFF
//  769   *pBuf++ = HI_UINT16( pNodeDesc->ServerMask );
??CrossCallReturnLabel_16:
        PUSH      A
          CFI CFA_SP SP+-1
        MOV       A,R6
        LCALL     ?Subroutine73 & 0xFFFF
??CrossCallReturnLabel_118:
        ADDC      A,R7
        MOV       DPH,A
        POP       A
          CFI CFA_SP SP+0
        LCALL     ?Subroutine22 & 0xFFFF
//  770   *pBuf++ = pNodeDesc->MaxOutTransferSize[0];
??CrossCallReturnLabel_29:
        INC       DPTR
        INC       DPTR
        INC       DPTR
        MOVX      A,@DPTR
        PUSH      A
          CFI CFA_SP SP+-1
        MOV       A,R6
        ADD       A,#0xd
        MOV       DPL,A
        CLR       A
        ADDC      A,R7
        MOV       DPH,A
        POP       A
          CFI CFA_SP SP+0
        MOVX      @DPTR,A
//  771   *pBuf++ = pNodeDesc->MaxOutTransferSize[1];
        MOV       A,R0
        ADD       A,#0xb
        MOV       DPL,A
        CLR       A
        ADDC      A,R1
        MOV       DPH,A
        MOVX      A,@DPTR
        PUSH      A
          CFI CFA_SP SP+-1
        MOV       A,R6
        ADD       A,#0xe
        MOV       DPL,A
        CLR       A
        ADDC      A,R7
        MOV       DPH,A
        POP       A
          CFI CFA_SP SP+0
        MOVX      @DPTR,A
//  772   *pBuf = pNodeDesc->DescriptorCapability;
        MOV       A,R0
        LCALL     ?Subroutine73 & 0xFFFF
??CrossCallReturnLabel_119:
        ADDC      A,R1
        MOV       DPH,A
        MOVX      A,@DPTR
        PUSH      A
          CFI CFA_SP SP+-1
        MOV       A,R6
        ADD       A,#0xf
        MOV       DPL,A
        CLR       A
        ADDC      A,R7
        MOV       DPH,A
        POP       A
          CFI CFA_SP SP+0
        MOVX      @DPTR,A
//  773 
//  774   return fillAndSend( &(inMsg->TransSeq), &(inMsg->srcAddr), Node_Desc_rsp, len );
        ; Setup parameters for call to function fillAndSend
        MOV       ?V0,#0x2
        MOV       ?V1,#-0x80
        MOV       R0,#?V0
        LCALL     ?PUSH_XSTACK_I_TWO
          CFI CFA_XSP16 add(XSP16, 12)
        MOV       R1,#0x10
        LCALL     ?Subroutine72 & 0xFFFF
??CrossCallReturnLabel_115:
        JNC       ??ZDP_NodeDescMsg_0
        INC       R3
??ZDP_NodeDescMsg_0:
        LJMP      ??Subroutine111_0 & 0xFFFF
//  775 }
          CFI EndBlock cfiBlock72

        RSEG BANKED_CODE:HUGECODE:NOROOT(0)
?Subroutine73:
          CFI Block cfiCond73 Using cfiCommon0
          CFI Function zdpProcessAddrReq
          CFI Conditional ??CrossCallReturnLabel_117
          CFI R6 load(1, XDATA, add(CFA_XSP16, literal(-15)))
          CFI VB load(1, XDATA, add(CFA_XSP16, literal(-14)))
          CFI V0 load(1, XDATA, add(CFA_XSP16, literal(-13)))
          CFI V1 load(1, XDATA, add(CFA_XSP16, literal(-12)))
          CFI V2 load(1, XDATA, add(CFA_XSP16, literal(-11)))
          CFI V3 load(1, XDATA, add(CFA_XSP16, literal(-10)))
          CFI V4 load(1, XDATA, add(CFA_XSP16, literal(-9)))
          CFI V5 load(1, XDATA, add(CFA_XSP16, literal(-8)))
          CFI V6 load(1, XDATA, add(CFA_XSP16, literal(-7)))
          CFI R7 load(1, XDATA, add(CFA_XSP16, literal(-6)))
          CFI ?RET_LOW load(1, XDATA, add(CFA_XSP16, literal(-5)))
          CFI ?RET_HIGH load(1, XDATA, add(CFA_XSP16, literal(-4)))
          CFI ?BRET_EXT load(1, XDATA, add(CFA_XSP16, literal(-3)))
          CFI DPL0 load(1, XDATA, add(CFA_XSP16, literal(-2)))
          CFI DPH0 load(1, XDATA, add(CFA_XSP16, literal(-1)))
          CFI CFA_SP SP+-2
          CFI CFA_XSP16 add(XSP16, 31)
          CFI Block cfiCond74 Using cfiCommon0
          CFI (cfiCond74) Function ZDP_NodeDescMsg
          CFI (cfiCond74) Conditional ??CrossCallReturnLabel_118
          CFI (cfiCond74) R6 load(1, XDATA, add(CFA_XSP16, literal(-10)))
          CFI (cfiCond74) VB load(1, XDATA, add(CFA_XSP16, literal(-9)))
          CFI (cfiCond74) V0 load(1, XDATA, add(CFA_XSP16, literal(-8)))
          CFI (cfiCond74) V1 load(1, XDATA, add(CFA_XSP16, literal(-7)))
          CFI (cfiCond74) R7 load(1, XDATA, add(CFA_XSP16, literal(-6)))
          CFI (cfiCond74) ?RET_LOW load(1, XDATA, add(CFA_XSP16, literal(-5)))
          CFI (cfiCond74) ?RET_HIGH load(1, XDATA, add(CFA_XSP16, literal(-4)))
          CFI (cfiCond74) ?BRET_EXT load(1, XDATA, add(CFA_XSP16, literal(-3)))
          CFI (cfiCond74) DPL0 load(1, XDATA, add(CFA_XSP16, literal(-2)))
          CFI (cfiCond74) DPH0 load(1, XDATA, add(CFA_XSP16, literal(-1)))
          CFI (cfiCond74) CFA_XSP16 add(XSP16, 10)
          CFI Block cfiCond75 Using cfiCommon0
          CFI (cfiCond75) Function ZDP_NodeDescMsg
          CFI (cfiCond75) Conditional ??CrossCallReturnLabel_119
          CFI (cfiCond75) R6 load(1, XDATA, add(CFA_XSP16, literal(-10)))
          CFI (cfiCond75) VB load(1, XDATA, add(CFA_XSP16, literal(-9)))
          CFI (cfiCond75) V0 load(1, XDATA, add(CFA_XSP16, literal(-8)))
          CFI (cfiCond75) V1 load(1, XDATA, add(CFA_XSP16, literal(-7)))
          CFI (cfiCond75) R7 load(1, XDATA, add(CFA_XSP16, literal(-6)))
          CFI (cfiCond75) ?RET_LOW load(1, XDATA, add(CFA_XSP16, literal(-5)))
          CFI (cfiCond75) ?RET_HIGH load(1, XDATA, add(CFA_XSP16, literal(-4)))
          CFI (cfiCond75) ?BRET_EXT load(1, XDATA, add(CFA_XSP16, literal(-3)))
          CFI (cfiCond75) DPL0 load(1, XDATA, add(CFA_XSP16, literal(-2)))
          CFI (cfiCond75) DPH0 load(1, XDATA, add(CFA_XSP16, literal(-1)))
          CFI (cfiCond75) CFA_SP SP+-2
          CFI (cfiCond75) CFA_XSP16 add(XSP16, 10)
          CFI Block cfiCond76 Using cfiCommon0
          CFI (cfiCond76) Function ZDO_SendMsgCBs
          CFI (cfiCond76) Conditional ??CrossCallReturnLabel_120
          CFI (cfiCond76) R6 load(1, XDATA, add(CFA_XSP16, literal(-16)))
          CFI (cfiCond76) VB load(1, XDATA, add(CFA_XSP16, literal(-15)))
          CFI (cfiCond76) V0 load(1, XDATA, add(CFA_XSP16, literal(-14)))
          CFI (cfiCond76) V1 load(1, XDATA, add(CFA_XSP16, literal(-13)))
          CFI (cfiCond76) V2 load(1, XDATA, add(CFA_XSP16, literal(-12)))
          CFI (cfiCond76) V3 load(1, XDATA, add(CFA_XSP16, literal(-11)))
          CFI (cfiCond76) V4 load(1, XDATA, add(CFA_XSP16, literal(-10)))
          CFI (cfiCond76) V5 load(1, XDATA, add(CFA_XSP16, literal(-9)))
          CFI (cfiCond76) V6 load(1, XDATA, add(CFA_XSP16, literal(-8)))
          CFI (cfiCond76) V7 load(1, XDATA, add(CFA_XSP16, literal(-7)))
          CFI (cfiCond76) R7 load(1, XDATA, add(CFA_XSP16, literal(-6)))
          CFI (cfiCond76) ?RET_LOW load(1, XDATA, add(CFA_XSP16, literal(-5)))
          CFI (cfiCond76) ?RET_HIGH load(1, XDATA, add(CFA_XSP16, literal(-4)))
          CFI (cfiCond76) ?BRET_EXT load(1, XDATA, add(CFA_XSP16, literal(-3)))
          CFI (cfiCond76) DPL0 load(1, XDATA, add(CFA_XSP16, literal(-2)))
          CFI (cfiCond76) DPH0 load(1, XDATA, add(CFA_XSP16, literal(-1)))
          CFI (cfiCond76) CFA_SP SP+-2
          CFI (cfiCond76) CFA_XSP16 add(XSP16, 16)
          CFI Block cfiPicker77 Using cfiCommon1
          CFI (cfiPicker77) NoFunction
          CFI (cfiPicker77) Picker
        ADD       A,#0xc
        MOV       DPL,A
        CLR       A
        RET
          CFI EndBlock cfiCond73
          CFI EndBlock cfiCond74
          CFI EndBlock cfiCond75
          CFI EndBlock cfiCond76
          CFI EndBlock cfiPicker77

        RSEG BANKED_CODE:HUGECODE:NOROOT(0)
?Subroutine39:
          CFI Block cfiCond78 Using cfiCommon0
          CFI Function ZDP_NodeDescMsg
          CFI Conditional ??CrossCallReturnLabel_52
          CFI R6 load(1, XDATA, add(CFA_XSP16, literal(-10)))
          CFI VB load(1, XDATA, add(CFA_XSP16, literal(-9)))
          CFI V0 load(1, XDATA, add(CFA_XSP16, literal(-8)))
          CFI V1 load(1, XDATA, add(CFA_XSP16, literal(-7)))
          CFI R7 load(1, XDATA, add(CFA_XSP16, literal(-6)))
          CFI ?RET_LOW load(1, XDATA, add(CFA_XSP16, literal(-5)))
          CFI ?RET_HIGH load(1, XDATA, add(CFA_XSP16, literal(-4)))
          CFI ?BRET_EXT load(1, XDATA, add(CFA_XSP16, literal(-3)))
          CFI DPL0 load(1, XDATA, add(CFA_XSP16, literal(-2)))
          CFI DPH0 load(1, XDATA, add(CFA_XSP16, literal(-1)))
          CFI CFA_SP SP+-2
          CFI CFA_XSP16 add(XSP16, 10)
          CFI Block cfiCond79 Using cfiCommon0
          CFI (cfiCond79) Function ZDP_NodeDescMsg
          CFI (cfiCond79) Conditional ??CrossCallReturnLabel_53
          CFI (cfiCond79) R6 load(1, XDATA, add(CFA_XSP16, literal(-10)))
          CFI (cfiCond79) VB load(1, XDATA, add(CFA_XSP16, literal(-9)))
          CFI (cfiCond79) V0 load(1, XDATA, add(CFA_XSP16, literal(-8)))
          CFI (cfiCond79) V1 load(1, XDATA, add(CFA_XSP16, literal(-7)))
          CFI (cfiCond79) R7 load(1, XDATA, add(CFA_XSP16, literal(-6)))
          CFI (cfiCond79) ?RET_LOW load(1, XDATA, add(CFA_XSP16, literal(-5)))
          CFI (cfiCond79) ?RET_HIGH load(1, XDATA, add(CFA_XSP16, literal(-4)))
          CFI (cfiCond79) ?BRET_EXT load(1, XDATA, add(CFA_XSP16, literal(-3)))
          CFI (cfiCond79) DPL0 load(1, XDATA, add(CFA_XSP16, literal(-2)))
          CFI (cfiCond79) DPH0 load(1, XDATA, add(CFA_XSP16, literal(-1)))
          CFI (cfiCond79) CFA_SP SP+-2
          CFI (cfiCond79) CFA_XSP16 add(XSP16, 10)
          CFI Block cfiPicker80 Using cfiCommon1
          CFI (cfiPicker80) NoFunction
          CFI (cfiPicker80) Picker
        LCALL     ??Subroutine132_0 & 0xFFFF
??CrossCallReturnLabel_245:
        INC       DPTR
        INC       DPTR
        INC       DPTR
        INC       DPTR
        INC       DPTR
        INC       DPTR
        INC       DPTR
        INC       DPTR
        INC       DPTR
        RET
          CFI EndBlock cfiCond78
          CFI EndBlock cfiCond79
          CFI EndBlock cfiPicker80

        RSEG BANKED_CODE:HUGECODE:NOROOT(0)
?Subroutine36:
          CFI Block cfiCond81 Using cfiCommon0
          CFI Function ZDP_UserDescSet
          CFI Conditional ??CrossCallReturnLabel_44
          CFI R6 load(1, XDATA, add(CFA_XSP16, literal(-14)))
          CFI VB load(1, XDATA, add(CFA_XSP16, literal(-13)))
          CFI V0 load(1, XDATA, add(CFA_XSP16, literal(-12)))
          CFI V1 load(1, XDATA, add(CFA_XSP16, literal(-11)))
          CFI V2 load(1, XDATA, add(CFA_XSP16, literal(-10)))
          CFI V3 load(1, XDATA, add(CFA_XSP16, literal(-9)))
          CFI V4 load(1, XDATA, add(CFA_XSP16, literal(-8)))
          CFI V5 load(1, XDATA, add(CFA_XSP16, literal(-7)))
          CFI R7 load(1, XDATA, add(CFA_XSP16, literal(-6)))
          CFI ?RET_LOW load(1, XDATA, add(CFA_XSP16, literal(-5)))
          CFI ?RET_HIGH load(1, XDATA, add(CFA_XSP16, literal(-4)))
          CFI ?BRET_EXT load(1, XDATA, add(CFA_XSP16, literal(-3)))
          CFI DPL0 load(1, XDATA, add(CFA_XSP16, literal(-2)))
          CFI DPH0 load(1, XDATA, add(CFA_XSP16, literal(-1)))
          CFI CFA_SP SP+-2
          CFI CFA_XSP16 add(XSP16, 14)
          CFI Block cfiCond82 Using cfiCommon0
          CFI (cfiCond82) Function ZDP_NodeDescMsg
          CFI (cfiCond82) Conditional ??CrossCallReturnLabel_45
          CFI (cfiCond82) R6 load(1, XDATA, add(CFA_XSP16, literal(-10)))
          CFI (cfiCond82) VB load(1, XDATA, add(CFA_XSP16, literal(-9)))
          CFI (cfiCond82) V0 load(1, XDATA, add(CFA_XSP16, literal(-8)))
          CFI (cfiCond82) V1 load(1, XDATA, add(CFA_XSP16, literal(-7)))
          CFI (cfiCond82) R7 load(1, XDATA, add(CFA_XSP16, literal(-6)))
          CFI (cfiCond82) ?RET_LOW load(1, XDATA, add(CFA_XSP16, literal(-5)))
          CFI (cfiCond82) ?RET_HIGH load(1, XDATA, add(CFA_XSP16, literal(-4)))
          CFI (cfiCond82) ?BRET_EXT load(1, XDATA, add(CFA_XSP16, literal(-3)))
          CFI (cfiCond82) DPL0 load(1, XDATA, add(CFA_XSP16, literal(-2)))
          CFI (cfiCond82) DPH0 load(1, XDATA, add(CFA_XSP16, literal(-1)))
          CFI (cfiCond82) CFA_SP SP+-2
          CFI (cfiCond82) CFA_XSP16 add(XSP16, 10)
          CFI Block cfiCond83 Using cfiCommon0
          CFI (cfiCond83) Function ZDP_PowerDescMsg
          CFI (cfiCond83) Conditional ??CrossCallReturnLabel_46
          CFI (cfiCond83) R6 load(1, XDATA, add(CFA_XSP16, literal(-10)))
          CFI (cfiCond83) VB load(1, XDATA, add(CFA_XSP16, literal(-9)))
          CFI (cfiCond83) V0 load(1, XDATA, add(CFA_XSP16, literal(-8)))
          CFI (cfiCond83) V1 load(1, XDATA, add(CFA_XSP16, literal(-7)))
          CFI (cfiCond83) R7 load(1, XDATA, add(CFA_XSP16, literal(-6)))
          CFI (cfiCond83) ?RET_LOW load(1, XDATA, add(CFA_XSP16, literal(-5)))
          CFI (cfiCond83) ?RET_HIGH load(1, XDATA, add(CFA_XSP16, literal(-4)))
          CFI (cfiCond83) ?BRET_EXT load(1, XDATA, add(CFA_XSP16, literal(-3)))
          CFI (cfiCond83) DPL0 load(1, XDATA, add(CFA_XSP16, literal(-2)))
          CFI (cfiCond83) DPH0 load(1, XDATA, add(CFA_XSP16, literal(-1)))
          CFI (cfiCond83) CFA_SP SP+-2
          CFI (cfiCond83) CFA_XSP16 add(XSP16, 10)
          CFI Block cfiPicker84 Using cfiCommon1
          CFI (cfiPicker84) NoFunction
          CFI (cfiPicker84) Picker
        LCALL     ?Subroutine81 & 0xFFFF
??CrossCallReturnLabel_329:
        MOV       DPL,R0
        MOV       DPH,A
        MOVX      A,@DPTR
        RET
          CFI EndBlock cfiCond81
          CFI EndBlock cfiCond82
          CFI EndBlock cfiCond83
          CFI EndBlock cfiPicker84

        RSEG BANKED_CODE:HUGECODE:NOROOT(0)
?Subroutine28:
          CFI Block cfiCond85 Using cfiCommon0
          CFI Function ZDP_NodeDescMsg
          CFI Conditional ??CrossCallReturnLabel_185
          CFI R6 load(1, XDATA, add(CFA_XSP16, literal(-10)))
          CFI VB load(1, XDATA, add(CFA_XSP16, literal(-9)))
          CFI V0 load(1, XDATA, add(CFA_XSP16, literal(-8)))
          CFI V1 load(1, XDATA, add(CFA_XSP16, literal(-7)))
          CFI R7 load(1, XDATA, add(CFA_XSP16, literal(-6)))
          CFI ?RET_LOW load(1, XDATA, add(CFA_XSP16, literal(-5)))
          CFI ?RET_HIGH load(1, XDATA, add(CFA_XSP16, literal(-4)))
          CFI ?BRET_EXT load(1, XDATA, add(CFA_XSP16, literal(-3)))
          CFI DPL0 load(1, XDATA, add(CFA_XSP16, literal(-2)))
          CFI DPH0 load(1, XDATA, add(CFA_XSP16, literal(-1)))
          CFI CFA_SP SP+-2
          CFI CFA_XSP16 add(XSP16, 10)
          CFI Block cfiCond86 Using cfiCommon0
          CFI (cfiCond86) Function ZDP_NodeDescMsg
          CFI (cfiCond86) Conditional ??CrossCallReturnLabel_186
          CFI (cfiCond86) R6 load(1, XDATA, add(CFA_XSP16, literal(-10)))
          CFI (cfiCond86) VB load(1, XDATA, add(CFA_XSP16, literal(-9)))
          CFI (cfiCond86) V0 load(1, XDATA, add(CFA_XSP16, literal(-8)))
          CFI (cfiCond86) V1 load(1, XDATA, add(CFA_XSP16, literal(-7)))
          CFI (cfiCond86) R7 load(1, XDATA, add(CFA_XSP16, literal(-6)))
          CFI (cfiCond86) ?RET_LOW load(1, XDATA, add(CFA_XSP16, literal(-5)))
          CFI (cfiCond86) ?RET_HIGH load(1, XDATA, add(CFA_XSP16, literal(-4)))
          CFI (cfiCond86) ?BRET_EXT load(1, XDATA, add(CFA_XSP16, literal(-3)))
          CFI (cfiCond86) DPL0 load(1, XDATA, add(CFA_XSP16, literal(-2)))
          CFI (cfiCond86) DPH0 load(1, XDATA, add(CFA_XSP16, literal(-1)))
          CFI (cfiCond86) CFA_SP SP+-2
          CFI (cfiCond86) CFA_XSP16 add(XSP16, 10)
          CFI Block cfiPicker87 Using cfiCommon1
          CFI (cfiPicker87) NoFunction
          CFI (cfiPicker87) Picker
        INC       DPTR
        INC       DPTR
        INC       DPTR
          CFI EndBlock cfiCond85
          CFI EndBlock cfiCond86
          CFI EndBlock cfiPicker87
        REQUIRE ??Subroutine119_0
        ; // Fall through to label ??Subroutine119_0

        RSEG BANKED_CODE:HUGECODE:NOROOT(0)
??Subroutine119_0:
          CFI Block cfiCond88 Using cfiCommon0
          CFI Function ZDP_MgmtRtgRsp
          CFI Conditional ??CrossCallReturnLabel_187
          CFI R6 load(1, XDATA, add(CFA_XSP16, literal(-16)))
          CFI VB load(1, XDATA, add(CFA_XSP16, literal(-15)))
          CFI V0 load(1, XDATA, add(CFA_XSP16, literal(-14)))
          CFI V1 load(1, XDATA, add(CFA_XSP16, literal(-13)))
          CFI V2 load(1, XDATA, add(CFA_XSP16, literal(-12)))
          CFI V3 load(1, XDATA, add(CFA_XSP16, literal(-11)))
          CFI V4 load(1, XDATA, add(CFA_XSP16, literal(-10)))
          CFI V5 load(1, XDATA, add(CFA_XSP16, literal(-9)))
          CFI V6 load(1, XDATA, add(CFA_XSP16, literal(-8)))
          CFI V7 load(1, XDATA, add(CFA_XSP16, literal(-7)))
          CFI R7 load(1, XDATA, add(CFA_XSP16, literal(-6)))
          CFI ?RET_LOW load(1, XDATA, add(CFA_XSP16, literal(-5)))
          CFI ?RET_HIGH load(1, XDATA, add(CFA_XSP16, literal(-4)))
          CFI ?BRET_EXT load(1, XDATA, add(CFA_XSP16, literal(-3)))
          CFI DPL0 load(1, XDATA, add(CFA_XSP16, literal(-2)))
          CFI DPH0 load(1, XDATA, add(CFA_XSP16, literal(-1)))
          CFI CFA_SP SP+-2
          CFI CFA_XSP16 add(XSP16, 19)
          CFI Block cfiCond89 Using cfiCommon0
          CFI (cfiCond89) Function ZDP_NodeDescMsg
          CFI (cfiCond89) Conditional ??CrossCallReturnLabel_185
          CFI (cfiCond89) R6 load(1, XDATA, add(CFA_XSP16, literal(-10)))
          CFI (cfiCond89) VB load(1, XDATA, add(CFA_XSP16, literal(-9)))
          CFI (cfiCond89) V0 load(1, XDATA, add(CFA_XSP16, literal(-8)))
          CFI (cfiCond89) V1 load(1, XDATA, add(CFA_XSP16, literal(-7)))
          CFI (cfiCond89) R7 load(1, XDATA, add(CFA_XSP16, literal(-6)))
          CFI (cfiCond89) ?RET_LOW load(1, XDATA, add(CFA_XSP16, literal(-5)))
          CFI (cfiCond89) ?RET_HIGH load(1, XDATA, add(CFA_XSP16, literal(-4)))
          CFI (cfiCond89) ?BRET_EXT load(1, XDATA, add(CFA_XSP16, literal(-3)))
          CFI (cfiCond89) DPL0 load(1, XDATA, add(CFA_XSP16, literal(-2)))
          CFI (cfiCond89) DPH0 load(1, XDATA, add(CFA_XSP16, literal(-1)))
          CFI (cfiCond89) CFA_SP SP+-2
          CFI (cfiCond89) CFA_XSP16 add(XSP16, 10)
          CFI Block cfiCond90 Using cfiCommon0
          CFI (cfiCond90) Function ZDP_NodeDescMsg
          CFI (cfiCond90) Conditional ??CrossCallReturnLabel_186
          CFI (cfiCond90) R6 load(1, XDATA, add(CFA_XSP16, literal(-10)))
          CFI (cfiCond90) VB load(1, XDATA, add(CFA_XSP16, literal(-9)))
          CFI (cfiCond90) V0 load(1, XDATA, add(CFA_XSP16, literal(-8)))
          CFI (cfiCond90) V1 load(1, XDATA, add(CFA_XSP16, literal(-7)))
          CFI (cfiCond90) R7 load(1, XDATA, add(CFA_XSP16, literal(-6)))
          CFI (cfiCond90) ?RET_LOW load(1, XDATA, add(CFA_XSP16, literal(-5)))
          CFI (cfiCond90) ?RET_HIGH load(1, XDATA, add(CFA_XSP16, literal(-4)))
          CFI (cfiCond90) ?BRET_EXT load(1, XDATA, add(CFA_XSP16, literal(-3)))
          CFI (cfiCond90) DPL0 load(1, XDATA, add(CFA_XSP16, literal(-2)))
          CFI (cfiCond90) DPH0 load(1, XDATA, add(CFA_XSP16, literal(-1)))
          CFI (cfiCond90) CFA_SP SP+-2
          CFI (cfiCond90) CFA_XSP16 add(XSP16, 10)
          CFI Block cfiPicker91 Using cfiCommon1
          CFI (cfiPicker91) NoFunction
          CFI (cfiPicker91) Picker
        LCALL     ?Subroutine94 & 0xFFFF
??CrossCallReturnLabel_188:
        INC       DPTR
        INC       DPTR
        INC       DPTR
        RET
          CFI EndBlock cfiCond88
          CFI EndBlock cfiCond89
          CFI EndBlock cfiCond90
          CFI EndBlock cfiPicker91

        RSEG BANKED_CODE:HUGECODE:NOROOT(0)
?Subroutine94:
          CFI Block cfiCond92 Using cfiCommon0
          CFI Function ZDP_NodeDescMsg
          CFI Conditional ??CrossCallReturnLabel_188, ??CrossCallReturnLabel_185
          CFI R6 load(1, XDATA, add(CFA_XSP16, literal(-10)))
          CFI VB load(1, XDATA, add(CFA_XSP16, literal(-9)))
          CFI V0 load(1, XDATA, add(CFA_XSP16, literal(-8)))
          CFI V1 load(1, XDATA, add(CFA_XSP16, literal(-7)))
          CFI R7 load(1, XDATA, add(CFA_XSP16, literal(-6)))
          CFI ?RET_LOW load(1, XDATA, add(CFA_XSP16, literal(-5)))
          CFI ?RET_HIGH load(1, XDATA, add(CFA_XSP16, literal(-4)))
          CFI ?BRET_EXT load(1, XDATA, add(CFA_XSP16, literal(-3)))
          CFI DPL0 load(1, XDATA, add(CFA_XSP16, literal(-2)))
          CFI DPH0 load(1, XDATA, add(CFA_XSP16, literal(-1)))
          CFI CFA_SP SP+-4
          CFI CFA_XSP16 add(XSP16, 10)
          CFI Block cfiCond93 Using cfiCommon0
          CFI (cfiCond93) Function ZDP_NodeDescMsg
          CFI (cfiCond93) Conditional ??CrossCallReturnLabel_188, ??CrossCallReturnLabel_186
          CFI (cfiCond93) R6 load(1, XDATA, add(CFA_XSP16, literal(-10)))
          CFI (cfiCond93) VB load(1, XDATA, add(CFA_XSP16, literal(-9)))
          CFI (cfiCond93) V0 load(1, XDATA, add(CFA_XSP16, literal(-8)))
          CFI (cfiCond93) V1 load(1, XDATA, add(CFA_XSP16, literal(-7)))
          CFI (cfiCond93) R7 load(1, XDATA, add(CFA_XSP16, literal(-6)))
          CFI (cfiCond93) ?RET_LOW load(1, XDATA, add(CFA_XSP16, literal(-5)))
          CFI (cfiCond93) ?RET_HIGH load(1, XDATA, add(CFA_XSP16, literal(-4)))
          CFI (cfiCond93) ?BRET_EXT load(1, XDATA, add(CFA_XSP16, literal(-3)))
          CFI (cfiCond93) DPL0 load(1, XDATA, add(CFA_XSP16, literal(-2)))
          CFI (cfiCond93) DPH0 load(1, XDATA, add(CFA_XSP16, literal(-1)))
          CFI (cfiCond93) CFA_SP SP+-4
          CFI (cfiCond93) CFA_XSP16 add(XSP16, 10)
          CFI Block cfiCond94 Using cfiCommon0
          CFI (cfiCond94) Function ZDP_MgmtRtgRsp
          CFI (cfiCond94) Conditional ??CrossCallReturnLabel_188, ??CrossCallReturnLabel_187
          CFI (cfiCond94) R6 load(1, XDATA, add(CFA_XSP16, literal(-16)))
          CFI (cfiCond94) VB load(1, XDATA, add(CFA_XSP16, literal(-15)))
          CFI (cfiCond94) V0 load(1, XDATA, add(CFA_XSP16, literal(-14)))
          CFI (cfiCond94) V1 load(1, XDATA, add(CFA_XSP16, literal(-13)))
          CFI (cfiCond94) V2 load(1, XDATA, add(CFA_XSP16, literal(-12)))
          CFI (cfiCond94) V3 load(1, XDATA, add(CFA_XSP16, literal(-11)))
          CFI (cfiCond94) V4 load(1, XDATA, add(CFA_XSP16, literal(-10)))
          CFI (cfiCond94) V5 load(1, XDATA, add(CFA_XSP16, literal(-9)))
          CFI (cfiCond94) V6 load(1, XDATA, add(CFA_XSP16, literal(-8)))
          CFI (cfiCond94) V7 load(1, XDATA, add(CFA_XSP16, literal(-7)))
          CFI (cfiCond94) R7 load(1, XDATA, add(CFA_XSP16, literal(-6)))
          CFI (cfiCond94) ?RET_LOW load(1, XDATA, add(CFA_XSP16, literal(-5)))
          CFI (cfiCond94) ?RET_HIGH load(1, XDATA, add(CFA_XSP16, literal(-4)))
          CFI (cfiCond94) ?BRET_EXT load(1, XDATA, add(CFA_XSP16, literal(-3)))
          CFI (cfiCond94) DPL0 load(1, XDATA, add(CFA_XSP16, literal(-2)))
          CFI (cfiCond94) DPH0 load(1, XDATA, add(CFA_XSP16, literal(-1)))
          CFI (cfiCond94) CFA_SP SP+-4
          CFI (cfiCond94) CFA_XSP16 add(XSP16, 19)
          CFI Block cfiCond95 Using cfiCommon0
          CFI (cfiCond95) Function ZDP_PowerDescMsg
          CFI (cfiCond95) Conditional ??CrossCallReturnLabel_189
          CFI (cfiCond95) R6 load(1, XDATA, add(CFA_XSP16, literal(-10)))
          CFI (cfiCond95) VB load(1, XDATA, add(CFA_XSP16, literal(-9)))
          CFI (cfiCond95) V0 load(1, XDATA, add(CFA_XSP16, literal(-8)))
          CFI (cfiCond95) V1 load(1, XDATA, add(CFA_XSP16, literal(-7)))
          CFI (cfiCond95) R7 load(1, XDATA, add(CFA_XSP16, literal(-6)))
          CFI (cfiCond95) ?RET_LOW load(1, XDATA, add(CFA_XSP16, literal(-5)))
          CFI (cfiCond95) ?RET_HIGH load(1, XDATA, add(CFA_XSP16, literal(-4)))
          CFI (cfiCond95) ?BRET_EXT load(1, XDATA, add(CFA_XSP16, literal(-3)))
          CFI (cfiCond95) DPL0 load(1, XDATA, add(CFA_XSP16, literal(-2)))
          CFI (cfiCond95) DPH0 load(1, XDATA, add(CFA_XSP16, literal(-1)))
          CFI (cfiCond95) CFA_SP SP+-2
          CFI (cfiCond95) CFA_XSP16 add(XSP16, 10)
          CFI Block cfiPicker96 Using cfiCommon1
          CFI (cfiPicker96) NoFunction
          CFI (cfiPicker96) Picker
        INC       DPTR
        INC       DPTR
          CFI EndBlock cfiCond92
          CFI EndBlock cfiCond93
          CFI EndBlock cfiCond94
          CFI EndBlock cfiCond95
          CFI EndBlock cfiPicker96
        REQUIRE ??Subroutine120_0
        ; // Fall through to label ??Subroutine120_0

        RSEG BANKED_CODE:HUGECODE:NOROOT(0)
??Subroutine120_0:
          CFI Block cfiCond97 Using cfiCommon0
          CFI Function ZDP_NodeDescMsg
          CFI Conditional ??CrossCallReturnLabel_190, ??CrossCallReturnLabel_172
          CFI R6 load(1, XDATA, add(CFA_XSP16, literal(-10)))
          CFI VB load(1, XDATA, add(CFA_XSP16, literal(-9)))
          CFI V0 load(1, XDATA, add(CFA_XSP16, literal(-8)))
          CFI V1 load(1, XDATA, add(CFA_XSP16, literal(-7)))
          CFI R7 load(1, XDATA, add(CFA_XSP16, literal(-6)))
          CFI ?RET_LOW load(1, XDATA, add(CFA_XSP16, literal(-5)))
          CFI ?RET_HIGH load(1, XDATA, add(CFA_XSP16, literal(-4)))
          CFI ?BRET_EXT load(1, XDATA, add(CFA_XSP16, literal(-3)))
          CFI DPL0 load(1, XDATA, add(CFA_XSP16, literal(-2)))
          CFI DPH0 load(1, XDATA, add(CFA_XSP16, literal(-1)))
          CFI CFA_SP SP+-4
          CFI CFA_XSP16 add(XSP16, 10)
          CFI Block cfiCond98 Using cfiCommon0
          CFI (cfiCond98) Function ZDP_NodeDescMsg
          CFI (cfiCond98) Conditional ??CrossCallReturnLabel_190, ??CrossCallReturnLabel_173
          CFI (cfiCond98) R6 load(1, XDATA, add(CFA_XSP16, literal(-10)))
          CFI (cfiCond98) VB load(1, XDATA, add(CFA_XSP16, literal(-9)))
          CFI (cfiCond98) V0 load(1, XDATA, add(CFA_XSP16, literal(-8)))
          CFI (cfiCond98) V1 load(1, XDATA, add(CFA_XSP16, literal(-7)))
          CFI (cfiCond98) R7 load(1, XDATA, add(CFA_XSP16, literal(-6)))
          CFI (cfiCond98) ?RET_LOW load(1, XDATA, add(CFA_XSP16, literal(-5)))
          CFI (cfiCond98) ?RET_HIGH load(1, XDATA, add(CFA_XSP16, literal(-4)))
          CFI (cfiCond98) ?BRET_EXT load(1, XDATA, add(CFA_XSP16, literal(-3)))
          CFI (cfiCond98) DPL0 load(1, XDATA, add(CFA_XSP16, literal(-2)))
          CFI (cfiCond98) DPH0 load(1, XDATA, add(CFA_XSP16, literal(-1)))
          CFI (cfiCond98) CFA_SP SP+-4
          CFI (cfiCond98) CFA_XSP16 add(XSP16, 10)
          CFI Block cfiCond99 Using cfiCommon0
          CFI (cfiCond99) Function ZDP_UserDescSet
          CFI (cfiCond99) Conditional ??CrossCallReturnLabel_190, ??CrossCallReturnLabel_174
          CFI (cfiCond99) R6 load(1, XDATA, add(CFA_XSP16, literal(-14)))
          CFI (cfiCond99) VB load(1, XDATA, add(CFA_XSP16, literal(-13)))
          CFI (cfiCond99) V0 load(1, XDATA, add(CFA_XSP16, literal(-12)))
          CFI (cfiCond99) V1 load(1, XDATA, add(CFA_XSP16, literal(-11)))
          CFI (cfiCond99) V2 load(1, XDATA, add(CFA_XSP16, literal(-10)))
          CFI (cfiCond99) V3 load(1, XDATA, add(CFA_XSP16, literal(-9)))
          CFI (cfiCond99) V4 load(1, XDATA, add(CFA_XSP16, literal(-8)))
          CFI (cfiCond99) V5 load(1, XDATA, add(CFA_XSP16, literal(-7)))
          CFI (cfiCond99) R7 load(1, XDATA, add(CFA_XSP16, literal(-6)))
          CFI (cfiCond99) ?RET_LOW load(1, XDATA, add(CFA_XSP16, literal(-5)))
          CFI (cfiCond99) ?RET_HIGH load(1, XDATA, add(CFA_XSP16, literal(-4)))
          CFI (cfiCond99) ?BRET_EXT load(1, XDATA, add(CFA_XSP16, literal(-3)))
          CFI (cfiCond99) DPL0 load(1, XDATA, add(CFA_XSP16, literal(-2)))
          CFI (cfiCond99) DPH0 load(1, XDATA, add(CFA_XSP16, literal(-1)))
          CFI (cfiCond99) CFA_SP SP+-4
          CFI (cfiCond99) CFA_XSP16 add(XSP16, 14)
          CFI Block cfiCond100 Using cfiCommon0
          CFI (cfiCond100) Function ZDP_SendData
          CFI (cfiCond100) Conditional ??CrossCallReturnLabel_190, ??CrossCallReturnLabel_175
          CFI (cfiCond100) R6 load(1, XDATA, add(CFA_XSP16, literal(-12)))
          CFI (cfiCond100) VB load(1, XDATA, add(CFA_XSP16, literal(-11)))
          CFI (cfiCond100) V0 load(1, XDATA, add(CFA_XSP16, literal(-10)))
          CFI (cfiCond100) V1 load(1, XDATA, add(CFA_XSP16, literal(-9)))
          CFI (cfiCond100) V2 load(1, XDATA, add(CFA_XSP16, literal(-8)))
          CFI (cfiCond100) V3 load(1, XDATA, add(CFA_XSP16, literal(-7)))
          CFI (cfiCond100) R7 load(1, XDATA, add(CFA_XSP16, literal(-6)))
          CFI (cfiCond100) ?RET_LOW load(1, XDATA, add(CFA_XSP16, literal(-5)))
          CFI (cfiCond100) ?RET_HIGH load(1, XDATA, add(CFA_XSP16, literal(-4)))
          CFI (cfiCond100) ?BRET_EXT load(1, XDATA, add(CFA_XSP16, literal(-3)))
          CFI (cfiCond100) DPL0 load(1, XDATA, add(CFA_XSP16, literal(-2)))
          CFI (cfiCond100) DPH0 load(1, XDATA, add(CFA_XSP16, literal(-1)))
          CFI (cfiCond100) CFA_SP SP+-4
          CFI (cfiCond100) CFA_XSP16 add(XSP16, 12)
          CFI Block cfiCond101 Using cfiCommon0
          CFI (cfiCond101) Function ZDP_IncomingData
          CFI (cfiCond101) Conditional ??CrossCallReturnLabel_191
          CFI (cfiCond101) R6 load(1, XDATA, add(CFA_XSP16, literal(-10)))
          CFI (cfiCond101) VB load(1, XDATA, add(CFA_XSP16, literal(-9)))
          CFI (cfiCond101) V0 load(1, XDATA, add(CFA_XSP16, literal(-8)))
          CFI (cfiCond101) V1 load(1, XDATA, add(CFA_XSP16, literal(-7)))
          CFI (cfiCond101) R7 load(1, XDATA, add(CFA_XSP16, literal(-6)))
          CFI (cfiCond101) ?RET_LOW load(1, XDATA, add(CFA_XSP16, literal(-5)))
          CFI (cfiCond101) ?RET_HIGH load(1, XDATA, add(CFA_XSP16, literal(-4)))
          CFI (cfiCond101) ?BRET_EXT load(1, XDATA, add(CFA_XSP16, literal(-3)))
          CFI (cfiCond101) DPL0 load(1, XDATA, add(CFA_XSP16, literal(-2)))
          CFI (cfiCond101) DPH0 load(1, XDATA, add(CFA_XSP16, literal(-1)))
          CFI (cfiCond101) CFA_SP SP+-2
          CFI (cfiCond101) CFA_XSP16 add(XSP16, 31)
          CFI Block cfiCond102 Using cfiCommon0
          CFI (cfiCond102) Function ZDP_NodeDescMsg
          CFI (cfiCond102) Conditional ??CrossCallReturnLabel_188, ??CrossCallReturnLabel_185
          CFI (cfiCond102) R6 load(1, XDATA, add(CFA_XSP16, literal(-10)))
          CFI (cfiCond102) VB load(1, XDATA, add(CFA_XSP16, literal(-9)))
          CFI (cfiCond102) V0 load(1, XDATA, add(CFA_XSP16, literal(-8)))
          CFI (cfiCond102) V1 load(1, XDATA, add(CFA_XSP16, literal(-7)))
          CFI (cfiCond102) R7 load(1, XDATA, add(CFA_XSP16, literal(-6)))
          CFI (cfiCond102) ?RET_LOW load(1, XDATA, add(CFA_XSP16, literal(-5)))
          CFI (cfiCond102) ?RET_HIGH load(1, XDATA, add(CFA_XSP16, literal(-4)))
          CFI (cfiCond102) ?BRET_EXT load(1, XDATA, add(CFA_XSP16, literal(-3)))
          CFI (cfiCond102) DPL0 load(1, XDATA, add(CFA_XSP16, literal(-2)))
          CFI (cfiCond102) DPH0 load(1, XDATA, add(CFA_XSP16, literal(-1)))
          CFI (cfiCond102) CFA_SP SP+-4
          CFI (cfiCond102) CFA_XSP16 add(XSP16, 10)
          CFI Block cfiCond103 Using cfiCommon0
          CFI (cfiCond103) Function ZDP_NodeDescMsg
          CFI (cfiCond103) Conditional ??CrossCallReturnLabel_188, ??CrossCallReturnLabel_186
          CFI (cfiCond103) R6 load(1, XDATA, add(CFA_XSP16, literal(-10)))
          CFI (cfiCond103) VB load(1, XDATA, add(CFA_XSP16, literal(-9)))
          CFI (cfiCond103) V0 load(1, XDATA, add(CFA_XSP16, literal(-8)))
          CFI (cfiCond103) V1 load(1, XDATA, add(CFA_XSP16, literal(-7)))
          CFI (cfiCond103) R7 load(1, XDATA, add(CFA_XSP16, literal(-6)))
          CFI (cfiCond103) ?RET_LOW load(1, XDATA, add(CFA_XSP16, literal(-5)))
          CFI (cfiCond103) ?RET_HIGH load(1, XDATA, add(CFA_XSP16, literal(-4)))
          CFI (cfiCond103) ?BRET_EXT load(1, XDATA, add(CFA_XSP16, literal(-3)))
          CFI (cfiCond103) DPL0 load(1, XDATA, add(CFA_XSP16, literal(-2)))
          CFI (cfiCond103) DPH0 load(1, XDATA, add(CFA_XSP16, literal(-1)))
          CFI (cfiCond103) CFA_SP SP+-4
          CFI (cfiCond103) CFA_XSP16 add(XSP16, 10)
          CFI Block cfiCond104 Using cfiCommon0
          CFI (cfiCond104) Function ZDP_MgmtRtgRsp
          CFI (cfiCond104) Conditional ??CrossCallReturnLabel_188, ??CrossCallReturnLabel_187
          CFI (cfiCond104) R6 load(1, XDATA, add(CFA_XSP16, literal(-16)))
          CFI (cfiCond104) VB load(1, XDATA, add(CFA_XSP16, literal(-15)))
          CFI (cfiCond104) V0 load(1, XDATA, add(CFA_XSP16, literal(-14)))
          CFI (cfiCond104) V1 load(1, XDATA, add(CFA_XSP16, literal(-13)))
          CFI (cfiCond104) V2 load(1, XDATA, add(CFA_XSP16, literal(-12)))
          CFI (cfiCond104) V3 load(1, XDATA, add(CFA_XSP16, literal(-11)))
          CFI (cfiCond104) V4 load(1, XDATA, add(CFA_XSP16, literal(-10)))
          CFI (cfiCond104) V5 load(1, XDATA, add(CFA_XSP16, literal(-9)))
          CFI (cfiCond104) V6 load(1, XDATA, add(CFA_XSP16, literal(-8)))
          CFI (cfiCond104) V7 load(1, XDATA, add(CFA_XSP16, literal(-7)))
          CFI (cfiCond104) R7 load(1, XDATA, add(CFA_XSP16, literal(-6)))
          CFI (cfiCond104) ?RET_LOW load(1, XDATA, add(CFA_XSP16, literal(-5)))
          CFI (cfiCond104) ?RET_HIGH load(1, XDATA, add(CFA_XSP16, literal(-4)))
          CFI (cfiCond104) ?BRET_EXT load(1, XDATA, add(CFA_XSP16, literal(-3)))
          CFI (cfiCond104) DPL0 load(1, XDATA, add(CFA_XSP16, literal(-2)))
          CFI (cfiCond104) DPH0 load(1, XDATA, add(CFA_XSP16, literal(-1)))
          CFI (cfiCond104) CFA_SP SP+-4
          CFI (cfiCond104) CFA_XSP16 add(XSP16, 19)
          CFI Block cfiCond105 Using cfiCommon0
          CFI (cfiCond105) Function ZDP_PowerDescMsg
          CFI (cfiCond105) Conditional ??CrossCallReturnLabel_189
          CFI (cfiCond105) R6 load(1, XDATA, add(CFA_XSP16, literal(-10)))
          CFI (cfiCond105) VB load(1, XDATA, add(CFA_XSP16, literal(-9)))
          CFI (cfiCond105) V0 load(1, XDATA, add(CFA_XSP16, literal(-8)))
          CFI (cfiCond105) V1 load(1, XDATA, add(CFA_XSP16, literal(-7)))
          CFI (cfiCond105) R7 load(1, XDATA, add(CFA_XSP16, literal(-6)))
          CFI (cfiCond105) ?RET_LOW load(1, XDATA, add(CFA_XSP16, literal(-5)))
          CFI (cfiCond105) ?RET_HIGH load(1, XDATA, add(CFA_XSP16, literal(-4)))
          CFI (cfiCond105) ?BRET_EXT load(1, XDATA, add(CFA_XSP16, literal(-3)))
          CFI (cfiCond105) DPL0 load(1, XDATA, add(CFA_XSP16, literal(-2)))
          CFI (cfiCond105) DPH0 load(1, XDATA, add(CFA_XSP16, literal(-1)))
          CFI (cfiCond105) CFA_SP SP+-2
          CFI (cfiCond105) CFA_XSP16 add(XSP16, 10)
          CFI Block cfiPicker106 Using cfiCommon1
          CFI (cfiPicker106) NoFunction
          CFI (cfiPicker106) Picker
        MOVX      @DPTR,A
        ; Setup parameters for call to function osal_memcpy
        MOV       DPL,R0
        MOV       DPH,R1
        RET
          CFI EndBlock cfiCond97
          CFI EndBlock cfiCond98
          CFI EndBlock cfiCond99
          CFI EndBlock cfiCond100
          CFI EndBlock cfiCond101
          CFI EndBlock cfiCond102
          CFI EndBlock cfiCond103
          CFI EndBlock cfiCond104
          CFI EndBlock cfiCond105
          CFI EndBlock cfiPicker106

        RSEG BANKED_CODE:HUGECODE:NOROOT(0)
?Subroutine27:
          CFI Block cfiCond107 Using cfiCommon0
          CFI Function ZDP_NodeDescMsg
          CFI Conditional ??CrossCallReturnLabel_34
          CFI R6 load(1, XDATA, add(CFA_XSP16, literal(-10)))
          CFI VB load(1, XDATA, add(CFA_XSP16, literal(-9)))
          CFI V0 load(1, XDATA, add(CFA_XSP16, literal(-8)))
          CFI V1 load(1, XDATA, add(CFA_XSP16, literal(-7)))
          CFI R7 load(1, XDATA, add(CFA_XSP16, literal(-6)))
          CFI ?RET_LOW load(1, XDATA, add(CFA_XSP16, literal(-5)))
          CFI ?RET_HIGH load(1, XDATA, add(CFA_XSP16, literal(-4)))
          CFI ?BRET_EXT load(1, XDATA, add(CFA_XSP16, literal(-3)))
          CFI DPL0 load(1, XDATA, add(CFA_XSP16, literal(-2)))
          CFI DPH0 load(1, XDATA, add(CFA_XSP16, literal(-1)))
          CFI CFA_SP SP+-2
          CFI CFA_XSP16 add(XSP16, 10)
          CFI Block cfiCond108 Using cfiCommon0
          CFI (cfiCond108) Function ZDP_NodeDescMsg
          CFI (cfiCond108) Conditional ??CrossCallReturnLabel_35
          CFI (cfiCond108) R6 load(1, XDATA, add(CFA_XSP16, literal(-10)))
          CFI (cfiCond108) VB load(1, XDATA, add(CFA_XSP16, literal(-9)))
          CFI (cfiCond108) V0 load(1, XDATA, add(CFA_XSP16, literal(-8)))
          CFI (cfiCond108) V1 load(1, XDATA, add(CFA_XSP16, literal(-7)))
          CFI (cfiCond108) R7 load(1, XDATA, add(CFA_XSP16, literal(-6)))
          CFI (cfiCond108) ?RET_LOW load(1, XDATA, add(CFA_XSP16, literal(-5)))
          CFI (cfiCond108) ?RET_HIGH load(1, XDATA, add(CFA_XSP16, literal(-4)))
          CFI (cfiCond108) ?BRET_EXT load(1, XDATA, add(CFA_XSP16, literal(-3)))
          CFI (cfiCond108) DPL0 load(1, XDATA, add(CFA_XSP16, literal(-2)))
          CFI (cfiCond108) DPH0 load(1, XDATA, add(CFA_XSP16, literal(-1)))
          CFI (cfiCond108) CFA_SP SP+-2
          CFI (cfiCond108) CFA_XSP16 add(XSP16, 10)
          CFI Block cfiPicker109 Using cfiCommon1
          CFI (cfiPicker109) NoFunction
          CFI (cfiPicker109) Picker
        INC       DPTR
        INC       DPTR
        INC       DPTR
        INC       DPTR
        INC       DPTR
        INC       DPTR
        INC       DPTR
        LCALL     ?Subroutine93 & 0xFFFF
??CrossCallReturnLabel_148:
        RET
          CFI EndBlock cfiCond107
          CFI EndBlock cfiCond108
          CFI EndBlock cfiPicker109

        RSEG BANKED_CODE:HUGECODE:NOROOT(0)
?Subroutine93:
          CFI Block cfiCond110 Using cfiCommon0
          CFI Function ZDP_NodeDescMsg
          CFI Conditional ??CrossCallReturnLabel_148, ??CrossCallReturnLabel_34
          CFI R6 load(1, XDATA, add(CFA_XSP16, literal(-10)))
          CFI VB load(1, XDATA, add(CFA_XSP16, literal(-9)))
          CFI V0 load(1, XDATA, add(CFA_XSP16, literal(-8)))
          CFI V1 load(1, XDATA, add(CFA_XSP16, literal(-7)))
          CFI R7 load(1, XDATA, add(CFA_XSP16, literal(-6)))
          CFI ?RET_LOW load(1, XDATA, add(CFA_XSP16, literal(-5)))
          CFI ?RET_HIGH load(1, XDATA, add(CFA_XSP16, literal(-4)))
          CFI ?BRET_EXT load(1, XDATA, add(CFA_XSP16, literal(-3)))
          CFI DPL0 load(1, XDATA, add(CFA_XSP16, literal(-2)))
          CFI DPH0 load(1, XDATA, add(CFA_XSP16, literal(-1)))
          CFI CFA_SP SP+-4
          CFI CFA_XSP16 add(XSP16, 10)
          CFI Block cfiCond111 Using cfiCommon0
          CFI (cfiCond111) Function ZDP_NodeDescMsg
          CFI (cfiCond111) Conditional ??CrossCallReturnLabel_148, ??CrossCallReturnLabel_35
          CFI (cfiCond111) R6 load(1, XDATA, add(CFA_XSP16, literal(-10)))
          CFI (cfiCond111) VB load(1, XDATA, add(CFA_XSP16, literal(-9)))
          CFI (cfiCond111) V0 load(1, XDATA, add(CFA_XSP16, literal(-8)))
          CFI (cfiCond111) V1 load(1, XDATA, add(CFA_XSP16, literal(-7)))
          CFI (cfiCond111) R7 load(1, XDATA, add(CFA_XSP16, literal(-6)))
          CFI (cfiCond111) ?RET_LOW load(1, XDATA, add(CFA_XSP16, literal(-5)))
          CFI (cfiCond111) ?RET_HIGH load(1, XDATA, add(CFA_XSP16, literal(-4)))
          CFI (cfiCond111) ?BRET_EXT load(1, XDATA, add(CFA_XSP16, literal(-3)))
          CFI (cfiCond111) DPL0 load(1, XDATA, add(CFA_XSP16, literal(-2)))
          CFI (cfiCond111) DPH0 load(1, XDATA, add(CFA_XSP16, literal(-1)))
          CFI (cfiCond111) CFA_SP SP+-4
          CFI (cfiCond111) CFA_XSP16 add(XSP16, 10)
          CFI Block cfiCond112 Using cfiCommon0
          CFI (cfiCond112) Function ZDP_NodeDescMsg
          CFI (cfiCond112) Conditional ??CrossCallReturnLabel_149, ??CrossCallReturnLabel_28
          CFI (cfiCond112) R6 load(1, XDATA, add(CFA_XSP16, literal(-10)))
          CFI (cfiCond112) VB load(1, XDATA, add(CFA_XSP16, literal(-9)))
          CFI (cfiCond112) V0 load(1, XDATA, add(CFA_XSP16, literal(-8)))
          CFI (cfiCond112) V1 load(1, XDATA, add(CFA_XSP16, literal(-7)))
          CFI (cfiCond112) R7 load(1, XDATA, add(CFA_XSP16, literal(-6)))
          CFI (cfiCond112) ?RET_LOW load(1, XDATA, add(CFA_XSP16, literal(-5)))
          CFI (cfiCond112) ?RET_HIGH load(1, XDATA, add(CFA_XSP16, literal(-4)))
          CFI (cfiCond112) ?BRET_EXT load(1, XDATA, add(CFA_XSP16, literal(-3)))
          CFI (cfiCond112) DPL0 load(1, XDATA, add(CFA_XSP16, literal(-2)))
          CFI (cfiCond112) DPH0 load(1, XDATA, add(CFA_XSP16, literal(-1)))
          CFI (cfiCond112) CFA_SP SP+-4
          CFI (cfiCond112) CFA_XSP16 add(XSP16, 10)
          CFI Block cfiCond113 Using cfiCommon0
          CFI (cfiCond113) Function ZDP_NodeDescMsg
          CFI (cfiCond113) Conditional ??CrossCallReturnLabel_149, ??CrossCallReturnLabel_29
          CFI (cfiCond113) R6 load(1, XDATA, add(CFA_XSP16, literal(-10)))
          CFI (cfiCond113) VB load(1, XDATA, add(CFA_XSP16, literal(-9)))
          CFI (cfiCond113) V0 load(1, XDATA, add(CFA_XSP16, literal(-8)))
          CFI (cfiCond113) V1 load(1, XDATA, add(CFA_XSP16, literal(-7)))
          CFI (cfiCond113) R7 load(1, XDATA, add(CFA_XSP16, literal(-6)))
          CFI (cfiCond113) ?RET_LOW load(1, XDATA, add(CFA_XSP16, literal(-5)))
          CFI (cfiCond113) ?RET_HIGH load(1, XDATA, add(CFA_XSP16, literal(-4)))
          CFI (cfiCond113) ?BRET_EXT load(1, XDATA, add(CFA_XSP16, literal(-3)))
          CFI (cfiCond113) DPL0 load(1, XDATA, add(CFA_XSP16, literal(-2)))
          CFI (cfiCond113) DPH0 load(1, XDATA, add(CFA_XSP16, literal(-1)))
          CFI (cfiCond113) CFA_SP SP+-4
          CFI (cfiCond113) CFA_XSP16 add(XSP16, 10)
          CFI Block cfiPicker114 Using cfiCommon1
          CFI (cfiPicker114) NoFunction
          CFI (cfiPicker114) Picker
        MOVX      @DPTR,A
        MOV       DPL,R0
        MOV       DPH,R1
        INC       DPTR
        INC       DPTR
        INC       DPTR
        INC       DPTR
        INC       DPTR
        RET
          CFI EndBlock cfiCond110
          CFI EndBlock cfiCond111
          CFI EndBlock cfiCond112
          CFI EndBlock cfiCond113
          CFI EndBlock cfiPicker114

        RSEG BANKED_CODE:HUGECODE:NOROOT(0)
?Subroutine22:
          CFI Block cfiCond115 Using cfiCommon0
          CFI Function ZDP_NodeDescMsg
          CFI Conditional ??CrossCallReturnLabel_28
          CFI R6 load(1, XDATA, add(CFA_XSP16, literal(-10)))
          CFI VB load(1, XDATA, add(CFA_XSP16, literal(-9)))
          CFI V0 load(1, XDATA, add(CFA_XSP16, literal(-8)))
          CFI V1 load(1, XDATA, add(CFA_XSP16, literal(-7)))
          CFI R7 load(1, XDATA, add(CFA_XSP16, literal(-6)))
          CFI ?RET_LOW load(1, XDATA, add(CFA_XSP16, literal(-5)))
          CFI ?RET_HIGH load(1, XDATA, add(CFA_XSP16, literal(-4)))
          CFI ?BRET_EXT load(1, XDATA, add(CFA_XSP16, literal(-3)))
          CFI DPL0 load(1, XDATA, add(CFA_XSP16, literal(-2)))
          CFI DPH0 load(1, XDATA, add(CFA_XSP16, literal(-1)))
          CFI CFA_SP SP+-2
          CFI CFA_XSP16 add(XSP16, 10)
          CFI Block cfiCond116 Using cfiCommon0
          CFI (cfiCond116) Function ZDP_NodeDescMsg
          CFI (cfiCond116) Conditional ??CrossCallReturnLabel_29
          CFI (cfiCond116) R6 load(1, XDATA, add(CFA_XSP16, literal(-10)))
          CFI (cfiCond116) VB load(1, XDATA, add(CFA_XSP16, literal(-9)))
          CFI (cfiCond116) V0 load(1, XDATA, add(CFA_XSP16, literal(-8)))
          CFI (cfiCond116) V1 load(1, XDATA, add(CFA_XSP16, literal(-7)))
          CFI (cfiCond116) R7 load(1, XDATA, add(CFA_XSP16, literal(-6)))
          CFI (cfiCond116) ?RET_LOW load(1, XDATA, add(CFA_XSP16, literal(-5)))
          CFI (cfiCond116) ?RET_HIGH load(1, XDATA, add(CFA_XSP16, literal(-4)))
          CFI (cfiCond116) ?BRET_EXT load(1, XDATA, add(CFA_XSP16, literal(-3)))
          CFI (cfiCond116) DPL0 load(1, XDATA, add(CFA_XSP16, literal(-2)))
          CFI (cfiCond116) DPH0 load(1, XDATA, add(CFA_XSP16, literal(-1)))
          CFI (cfiCond116) CFA_SP SP+-2
          CFI (cfiCond116) CFA_XSP16 add(XSP16, 10)
          CFI Block cfiPicker117 Using cfiCommon1
          CFI (cfiPicker117) NoFunction
          CFI (cfiPicker117) Picker
        LCALL     ?Subroutine93 & 0xFFFF
??CrossCallReturnLabel_149:
        INC       DPTR
        INC       DPTR
        RET
          CFI EndBlock cfiCond115
          CFI EndBlock cfiCond116
          CFI EndBlock cfiPicker117
//  776 
//  777 /*********************************************************************
//  778  * @fn          ZDP_PowerDescMsg
//  779  *
//  780  * @brief       Builds and sends a Power Descriptor message, unicast to the
//  781  *              specified device.
//  782  *
//  783  * @param       inMsg - incoming message (request)
//  784  * @param       nwkAddr - 16 bit network address for device
//  785  * @param       pPowerDesc - pointer to the node descriptor
//  786  *
//  787  * @return      afStatus_t
//  788  */

        RSEG BANKED_CODE:HUGECODE:NOROOT(0)
//  789 afStatus_t ZDP_PowerDescMsg( zdoIncomingMsg_t *inMsg,
ZDP_PowerDescMsg:
          CFI Block cfiBlock118 Using cfiCommon0
          CFI Function ZDP_PowerDescMsg
        CODE
//  790                      uint16 nwkAddr, NodePowerDescriptorFormat_t *pPowerDesc )
//  791 {
        FUNCALL ZDP_PowerDescMsg, fillAndSend
        LOCFRAME ISTACK, 0, STACK
        LOCFRAME PSTACK, 0, STACK
        LOCFRAME XSTACK, 12, STACK
        LOCFRAME IOVERLAY, 0, STATIC
        LOCFRAME DOVERLAY, 0, STATIC
        ARGFRAME ISTACK, 0, STACK
        ARGFRAME PSTACK, 0, STACK
        ARGFRAME XSTACK, 12, STACK
        ARGFRAME IOVERLAY, 0, STATIC
        ARGFRAME DOVERLAY, 0, STATIC
        REQUIRE ?V0
        REQUIRE ?V1
        MOV       A,#-0xa
        LCALL     ?BANKED_ENTER_XDATA
          CFI DPH0 load(1, XDATA, add(CFA_XSP16, literal(-1)))
          CFI DPL0 load(1, XDATA, add(CFA_XSP16, literal(-2)))
          CFI ?BRET_EXT load(1, XDATA, add(CFA_XSP16, literal(-3)))
          CFI ?RET_HIGH load(1, XDATA, add(CFA_XSP16, literal(-4)))
          CFI ?RET_LOW load(1, XDATA, add(CFA_XSP16, literal(-5)))
          CFI R7 load(1, XDATA, add(CFA_XSP16, literal(-6)))
          CFI V1 load(1, XDATA, add(CFA_XSP16, literal(-7)))
          CFI V0 load(1, XDATA, add(CFA_XSP16, literal(-8)))
          CFI VB load(1, XDATA, add(CFA_XSP16, literal(-9)))
          CFI R6 load(1, XDATA, add(CFA_XSP16, literal(-10)))
          CFI CFA_SP SP+0
          CFI CFA_XSP16 add(XSP16, 10)
        ; Saved register size: 10
        ; Auto size: 0
//  792   uint8 *pBuf = ZDP_TmpBuf;
        LCALL     ?Subroutine46 & 0xFFFF
??CrossCallReturnLabel_311:
        MOV       R6,A
        MOV       A,R1
        MOV       R7,A
//  793   byte len = 1 + 2 + 2;  // Status + nwkAddr + Node Power descriptor.
//  794 
//  795   *pBuf++ = ZDP_SUCCESS;
        MOV       DPL,R0
        MOV       DPH,A
        CLR       A
        MOVX      @DPTR,A
//  796 
//  797   *pBuf++ = LO_UINT16( nwkAddr );
        MOV       A,R4
        INC       DPTR
        MOVX      @DPTR,A
//  798   *pBuf++ = HI_UINT16( nwkAddr );
        MOV       A,R5
        MOV       DPL,R0
        MOV       DPH,R1
        INC       DPTR
        INC       DPTR
        MOVX      @DPTR,A
        MOV       A,#0xa
        LCALL     ?XSTACK_DISP0_8
        LCALL     ?Subroutine36 & 0xFFFF
//  799 
//  800   *pBuf++ = (byte)((pPowerDesc->AvailablePowerSources << 4)
//  801                     | (pPowerDesc->PowerMode & 0x0F));
??CrossCallReturnLabel_46:
        MOV       DPL,R6
        MOV       DPH,R7
        INC       DPTR
        LCALL     ?Subroutine94 & 0xFFFF
//  802   *pBuf++ = (byte)((pPowerDesc->CurrentPowerSourceLevel << 4)
//  803                     | (pPowerDesc->CurrentPowerSource & 0x0F));
??CrossCallReturnLabel_189:
        LCALL     ??Subroutine125_0 & 0xFFFF
??CrossCallReturnLabel_223:
        ANL       A,#0xf
        MOV       R1,A
        MOV       A,#0xc
        MOV       R0,#?V0
        LCALL     ?US_SHR
        MOV       A,?V0
        SWAP      A
        ORL       A,R1
        MOV       DPL,R6
        MOV       DPH,R7
        INC       DPTR
        INC       DPTR
        INC       DPTR
        INC       DPTR
        MOVX      @DPTR,A
//  804 
//  805   return fillAndSend( &(inMsg->TransSeq), &(inMsg->srcAddr), Power_Desc_rsp, len );
        ; Setup parameters for call to function fillAndSend
        MOV       ?V0,#0x3
        MOV       ?V1,#-0x80
        MOV       R0,#?V0
        LCALL     ?PUSH_XSTACK_I_TWO
          CFI CFA_XSP16 add(XSP16, 12)
        MOV       R1,#0x5
        LCALL     ?Subroutine72 & 0xFFFF
??CrossCallReturnLabel_116:
        JNC       ??ZDP_PowerDescMsg_0
        INC       R3
??ZDP_PowerDescMsg_0:
        LJMP      ??Subroutine111_0 & 0xFFFF
//  806 }
          CFI EndBlock cfiBlock118

        RSEG BANKED_CODE:HUGECODE:NOROOT(0)
?Subroutine72:
          CFI Block cfiCond119 Using cfiCommon0
          CFI Function ZDP_NodeDescMsg
          CFI Conditional ??CrossCallReturnLabel_115
          CFI R6 load(1, XDATA, add(CFA_XSP16, literal(-10)))
          CFI VB load(1, XDATA, add(CFA_XSP16, literal(-9)))
          CFI V0 load(1, XDATA, add(CFA_XSP16, literal(-8)))
          CFI V1 load(1, XDATA, add(CFA_XSP16, literal(-7)))
          CFI R7 load(1, XDATA, add(CFA_XSP16, literal(-6)))
          CFI ?RET_LOW load(1, XDATA, add(CFA_XSP16, literal(-5)))
          CFI ?RET_HIGH load(1, XDATA, add(CFA_XSP16, literal(-4)))
          CFI ?BRET_EXT load(1, XDATA, add(CFA_XSP16, literal(-3)))
          CFI DPL0 load(1, XDATA, add(CFA_XSP16, literal(-2)))
          CFI DPH0 load(1, XDATA, add(CFA_XSP16, literal(-1)))
          CFI CFA_SP SP+-2
          CFI CFA_XSP16 add(XSP16, 12)
          CFI Block cfiCond120 Using cfiCommon0
          CFI (cfiCond120) Function ZDP_PowerDescMsg
          CFI (cfiCond120) Conditional ??CrossCallReturnLabel_116
          CFI (cfiCond120) R6 load(1, XDATA, add(CFA_XSP16, literal(-10)))
          CFI (cfiCond120) VB load(1, XDATA, add(CFA_XSP16, literal(-9)))
          CFI (cfiCond120) V0 load(1, XDATA, add(CFA_XSP16, literal(-8)))
          CFI (cfiCond120) V1 load(1, XDATA, add(CFA_XSP16, literal(-7)))
          CFI (cfiCond120) R7 load(1, XDATA, add(CFA_XSP16, literal(-6)))
          CFI (cfiCond120) ?RET_LOW load(1, XDATA, add(CFA_XSP16, literal(-5)))
          CFI (cfiCond120) ?RET_HIGH load(1, XDATA, add(CFA_XSP16, literal(-4)))
          CFI (cfiCond120) ?BRET_EXT load(1, XDATA, add(CFA_XSP16, literal(-3)))
          CFI (cfiCond120) DPL0 load(1, XDATA, add(CFA_XSP16, literal(-2)))
          CFI (cfiCond120) DPH0 load(1, XDATA, add(CFA_XSP16, literal(-1)))
          CFI (cfiCond120) CFA_SP SP+-2
          CFI (cfiCond120) CFA_XSP16 add(XSP16, 12)
          CFI Block cfiPicker121 Using cfiCommon1
          CFI (cfiPicker121) NoFunction
          CFI (cfiPicker121) Picker
        MOV       A,R2
        ADD       A,#0x2
        MOV       R4,A
        CLR       A
        ADDC      A,R3
        MOV       R5,A
        MOV       A,R2
        ADD       A,#0xf
        MOV       R2,A
        RET
          CFI EndBlock cfiCond119
          CFI EndBlock cfiCond120
          CFI EndBlock cfiPicker121
//  807 
//  808 /*********************************************************************
//  809  * @fn          ZDP_SimpleDescMsg
//  810  *
//  811  * @brief       Builds and sends a Simple Descriptor message, unicast to the
//  812  *              specified device.
//  813  *
//  814  * @param       inMsg - incoming message (request)
//  815  * @param       Status - message status (ZDP_SUCCESS or other)
//  816  * @param       pSimpleDesc - pointer to the node descriptor
//  817  *
//  818  * @return      afStatus_t
//  819  */

        RSEG BANKED_CODE:HUGECODE:NOROOT(0)
//  820 afStatus_t ZDP_SimpleDescMsg( zdoIncomingMsg_t *inMsg, byte Status,
ZDP_SimpleDescMsg:
          CFI Block cfiBlock122 Using cfiCommon0
          CFI Function ZDP_SimpleDescMsg
        CODE
//  821                               SimpleDescriptionFormat_t *pSimpleDesc )
//  822 {
        FUNCALL ZDP_SimpleDescMsg, fillAndSend
        LOCFRAME ISTACK, 0, STACK
        LOCFRAME PSTACK, 0, STACK
        LOCFRAME XSTACK, 17, STACK
        LOCFRAME IOVERLAY, 0, STATIC
        LOCFRAME DOVERLAY, 0, STATIC
        ARGFRAME ISTACK, 0, STACK
        ARGFRAME PSTACK, 0, STACK
        ARGFRAME XSTACK, 17, STACK
        ARGFRAME IOVERLAY, 0, STATIC
        ARGFRAME DOVERLAY, 0, STATIC
        REQUIRE ?V0
        REQUIRE ?V1
        REQUIRE ?V2
        REQUIRE ?V3
        REQUIRE ?V4
        REQUIRE ?V5
        REQUIRE ?V6
        MOV       A,#-0xf
        LCALL     ?BANKED_ENTER_XDATA
          CFI DPH0 load(1, XDATA, add(CFA_XSP16, literal(-1)))
          CFI DPL0 load(1, XDATA, add(CFA_XSP16, literal(-2)))
          CFI ?BRET_EXT load(1, XDATA, add(CFA_XSP16, literal(-3)))
          CFI ?RET_HIGH load(1, XDATA, add(CFA_XSP16, literal(-4)))
          CFI ?RET_LOW load(1, XDATA, add(CFA_XSP16, literal(-5)))
          CFI R7 load(1, XDATA, add(CFA_XSP16, literal(-6)))
          CFI V6 load(1, XDATA, add(CFA_XSP16, literal(-7)))
          CFI V5 load(1, XDATA, add(CFA_XSP16, literal(-8)))
          CFI V4 load(1, XDATA, add(CFA_XSP16, literal(-9)))
          CFI V3 load(1, XDATA, add(CFA_XSP16, literal(-10)))
          CFI V2 load(1, XDATA, add(CFA_XSP16, literal(-11)))
          CFI V1 load(1, XDATA, add(CFA_XSP16, literal(-12)))
          CFI V0 load(1, XDATA, add(CFA_XSP16, literal(-13)))
          CFI VB load(1, XDATA, add(CFA_XSP16, literal(-14)))
          CFI R6 load(1, XDATA, add(CFA_XSP16, literal(-15)))
          CFI CFA_SP SP+0
          CFI CFA_XSP16 add(XSP16, 15)
        ; Saved register size: 15
        ; Auto size: 0
        MOV       A,R2
        MOV       R6,A
        MOV       A,R3
        MOV       R7,A
        MOV       ?V6,R1
//  823   uint8 *pBuf = ZDP_TmpBuf;
        LCALL     ?Subroutine52 & 0xFFFF
//  824   uint8 i, len;
//  825 
//  826   if ( Status == ZDP_SUCCESS && pSimpleDesc )
??CrossCallReturnLabel_197:
        MOV       A,R1
        JNZ       ??ZDP_SimpleDescMsg_0
        MOV       A,R4
        ORL       A,R5
        JZ        ??ZDP_SimpleDescMsg_0
//  827   {
//  828     // Status + NWKAddrOfInterest + desc length + empty simple descriptor.
//  829     len = 1 + 2 + 1 + 8;
//  830     len += (pSimpleDesc->AppNumInClusters + pSimpleDesc->AppNumOutClusters) * sizeof ( uint16 );
        MOV       DPL,R4
        MOV       DPH,R5
        INC       DPTR
        INC       DPTR
        INC       DPTR
        INC       DPTR
        INC       DPTR
        INC       DPTR
        INC       DPTR
        INC       DPTR
        INC       DPTR
        MOVX      A,@DPTR
        MOV       R0,A
        MOV       DPL,R4
        MOV       DPH,R5
        INC       DPTR
        INC       DPTR
        INC       DPTR
        INC       DPTR
        INC       DPTR
        INC       DPTR
        MOVX      A,@DPTR
        ADD       A,R0
        CLR       C
        RLC       A
        ADD       A,#0xc
        MOV       R1,A
//  831   }
//  832   else
//  833   {
//  834     len = 1 + 2 + 1; // Status + desc length
//  835   }
//  836   if ( len >= ZDP_BUF_SZ-1 )
        CLR       C
        SUBB      A,#0x4f
        JC        ??ZDP_SimpleDescMsg_1
//  837   {
//  838     return afStatus_MEM_FAIL;
        MOV       R1,#0x10
        LJMP      ??ZDP_SimpleDescMsg_2 & 0xFFFF
//  839   }
??ZDP_SimpleDescMsg_0:
        MOV       R1,#0x4
//  840 
//  841   *pBuf++ = Status;
??ZDP_SimpleDescMsg_1:
        MOV       DPL,R2
        MOV       DPH,R3
        MOV       A,?V6
        MOVX      @DPTR,A
//  842 
//  843   *pBuf++ = LO_UINT16( ZDAppNwkAddr.addr.shortAddr );
        MOV       DPTR,#ZDAppNwkAddr
        LCALL     ?Subroutine60 & 0xFFFF
??CrossCallReturnLabel_91:
        MOVX      @DPTR,A
//  844   *pBuf++ = HI_UINT16( ZDAppNwkAddr.addr.shortAddr );
        MOV       DPTR,#ZDAppNwkAddr + 1
        LCALL     ?Subroutine59 & 0xFFFF
??CrossCallReturnLabel_88:
        MOVX      @DPTR,A
//  845 
//  846   if ( len > 4 )
        MOV       A,R1
        CLR       C
        SUBB      A,#0x5
        JNC       $+5
        LJMP      ??ZDP_SimpleDescMsg_3 & 0xFFFF
//  847   {
//  848     *pBuf++ = len - 4;   // Simple descriptor length
        MOV       A,#-0x4
        ADD       A,R1
        MOV       DPL,R2
        MOV       DPH,R3
        INC       DPTR
        INC       DPTR
        INC       DPTR
        MOVX      @DPTR,A
//  849 
//  850     *pBuf++ = pSimpleDesc->EndPoint;
        MOV       DPL,R4
        MOV       DPH,R5
        LCALL     ?Subroutine58 & 0xFFFF
??CrossCallReturnLabel_86:
        LCALL     ?Subroutine95 & 0xFFFF
//  851     *pBuf++ = LO_UINT16( pSimpleDesc->AppProfId );
??CrossCallReturnLabel_150:
        MOV       ?V0,DPL
        MOV       ?V1,DPH
        LCALL     ?Subroutine105 & 0xFFFF
??CrossCallReturnLabel_283:
        LCALL     ?Subroutine10 & 0xFFFF
//  852     *pBuf++ = HI_UINT16( pSimpleDesc->AppProfId );
??CrossCallReturnLabel_2:
        MOVX      @DPTR,A
//  853     *pBuf++ = LO_UINT16( pSimpleDesc->AppDeviceId );
        MOV       A,R4
        ADD       A,#0x3
        LCALL     ?Subroutine77 & 0xFFFF
??CrossCallReturnLabel_129:
        LCALL     ?Subroutine59 & 0xFFFF
??CrossCallReturnLabel_89:
        LCALL     ?Subroutine10 & 0xFFFF
//  854     *pBuf++ = HI_UINT16( pSimpleDesc->AppDeviceId );
??CrossCallReturnLabel_3:
        INC       DPTR
        LCALL     ?Subroutine25 & 0xFFFF
//  855 
//  856     *pBuf++ = (byte)(pSimpleDesc->AppDevVer << 4);
??CrossCallReturnLabel_30:
        SWAP      A
        ANL       A,#0xf0
        MOV       DPL,R2
        MOV       DPH,R3
        INC       DPTR
        INC       DPTR
        INC       DPTR
        INC       DPTR
        INC       DPTR
        INC       DPTR
        INC       DPTR
        INC       DPTR
        INC       DPTR
        MOVX      @DPTR,A
//  857 
//  858     *pBuf++ = pSimpleDesc->AppNumInClusters;
        MOV       A,R4
        ADD       A,#0x6
        LCALL     ?Subroutine77 & 0xFFFF
??CrossCallReturnLabel_130:
        LCALL     ?Subroutine58 & 0xFFFF
??CrossCallReturnLabel_87:
        INC       DPTR
        INC       DPTR
        INC       DPTR
        INC       DPTR
        INC       DPTR
        INC       DPTR
        MOVX      @DPTR,A
        MOV       A,R2
        ADD       A,#0xb
        MOV       R2,A
        JNC       ??ZDP_SimpleDescMsg_4
        INC       R3
//  859     if ( pSimpleDesc->AppNumInClusters )
??ZDP_SimpleDescMsg_4:
        MOV       DPL,?V0
        MOV       DPH,?V1
        MOVX      A,@DPTR
        JZ        ??ZDP_SimpleDescMsg_5
//  860     {
//  861       for (i=0; i<pSimpleDesc->AppNumInClusters; ++i)
        MOV       R0,#0x0
        SJMP      ??ZDP_SimpleDescMsg_6
//  862       {
//  863         *pBuf++ = LO_UINT16( pSimpleDesc->pAppInClusterList[i] );
??ZDP_SimpleDescMsg_7:
        LCALL     ?Subroutine69 & 0xFFFF
//  864         *pBuf++ = HI_UINT16( pSimpleDesc->pAppInClusterList[i] );
//  865       }
??CrossCallReturnLabel_111:
        ADD       A,#0x7
        LCALL     ?Subroutine8 & 0xFFFF
??CrossCallReturnLabel_0:
        JNC       ??ZDP_SimpleDescMsg_8
        INC       R3
??ZDP_SimpleDescMsg_8:
        INC       R0
??ZDP_SimpleDescMsg_6:
        MOV       DPL,R4
        MOV       DPH,R5
        INC       DPTR
        INC       DPTR
        INC       DPTR
        INC       DPTR
        INC       DPTR
        INC       DPTR
        MOVX      A,@DPTR
        MOV       ?V0,A
        MOV       A,R0
        CLR       C
        SUBB      A,?V0
        JC        ??ZDP_SimpleDescMsg_7
//  866     }
//  867 
//  868     *pBuf++ = pSimpleDesc->AppNumOutClusters;
??ZDP_SimpleDescMsg_5:
        MOV       A,R4
        ADD       A,#0x9
        MOV       ?V0,A
        CLR       A
        ADDC      A,R5
        MOV       ?V1,A
        MOV       DPL,?V0
        LCALL     ?Subroutine23 & 0xFFFF
//  869     if ( pSimpleDesc->AppNumOutClusters )
??CrossCallReturnLabel_203:
        MOV       DPL,?V0
        MOV       DPH,?V1
        MOVX      A,@DPTR
        JZ        ??ZDP_SimpleDescMsg_9
//  870     {
//  871       for (i=0; i<pSimpleDesc->AppNumOutClusters; ++i)
        MOV       R0,#0x0
??ZDP_SimpleDescMsg_10:
        MOV       DPL,R4
        MOV       DPH,R5
        INC       DPTR
        INC       DPTR
        INC       DPTR
        INC       DPTR
        INC       DPTR
        INC       DPTR
        INC       DPTR
        INC       DPTR
        INC       DPTR
        MOVX      A,@DPTR
        MOV       ?V0,A
        MOV       A,R0
        CLR       C
        SUBB      A,?V0
        JNC       ??ZDP_SimpleDescMsg_9
//  872       {
//  873         *pBuf++ = LO_UINT16( pSimpleDesc->pAppOutClusterList[i] );
        LCALL     ?Subroutine69 & 0xFFFF
//  874         *pBuf++ = HI_UINT16( pSimpleDesc->pAppOutClusterList[i] );
//  875       }
??CrossCallReturnLabel_112:
        ADD       A,#0xa
        LCALL     ?Subroutine8 & 0xFFFF
??CrossCallReturnLabel_1:
        JNC       ??ZDP_SimpleDescMsg_11
        INC       R3
??ZDP_SimpleDescMsg_11:
        INC       R0
        SJMP      ??ZDP_SimpleDescMsg_10
//  876     }
//  877   }
//  878 
//  879   else
//  880   {
//  881     *pBuf = 0; // Description Length = 0;
??ZDP_SimpleDescMsg_3:
        MOV       DPL,R2
        MOV       DPH,R3
        INC       DPTR
        INC       DPTR
        INC       DPTR
        CLR       A
        MOVX      @DPTR,A
//  882   }
//  883 
//  884   return fillAndSend( &(inMsg->TransSeq), &(inMsg->srcAddr), Simple_Desc_rsp, len );
??ZDP_SimpleDescMsg_9:
        ; Setup parameters for call to function fillAndSend
        MOV       ?V0,#0x4
        MOV       ?V1,#-0x80
        MOV       R0,#?V0
        LCALL     ?PUSH_XSTACK_I_TWO
          CFI CFA_XSP16 add(XSP16, 17)
        MOV       A,R6
        ADD       A,#0x2
        MOV       R4,A
        CLR       A
        ADDC      A,R7
        MOV       R5,A
        MOV       A,R6
        ADD       A,#0xf
        MOV       R2,A
        CLR       A
        ADDC      A,R7
        MOV       R3,A
        LCALL     ??Subroutine140_0 & 0xFFFF
??CrossCallReturnLabel_298:
        LCALL     ?DEALLOC_XSTACK8
          CFI CFA_XSP16 add(XSP16, 15)
??ZDP_SimpleDescMsg_2:
        LJMP      ?Subroutine3 & 0xFFFF
//  885 }
          CFI EndBlock cfiBlock122

        RSEG BANKED_CODE:HUGECODE:NOROOT(0)
?Subroutine77:
          CFI Block cfiCond123 Using cfiCommon0
          CFI Function ZDP_SimpleDescMsg
          CFI Conditional ??CrossCallReturnLabel_129
          CFI R6 load(1, XDATA, add(CFA_XSP16, literal(-15)))
          CFI VB load(1, XDATA, add(CFA_XSP16, literal(-14)))
          CFI V0 load(1, XDATA, add(CFA_XSP16, literal(-13)))
          CFI V1 load(1, XDATA, add(CFA_XSP16, literal(-12)))
          CFI V2 load(1, XDATA, add(CFA_XSP16, literal(-11)))
          CFI V3 load(1, XDATA, add(CFA_XSP16, literal(-10)))
          CFI V4 load(1, XDATA, add(CFA_XSP16, literal(-9)))
          CFI V5 load(1, XDATA, add(CFA_XSP16, literal(-8)))
          CFI V6 load(1, XDATA, add(CFA_XSP16, literal(-7)))
          CFI R7 load(1, XDATA, add(CFA_XSP16, literal(-6)))
          CFI ?RET_LOW load(1, XDATA, add(CFA_XSP16, literal(-5)))
          CFI ?RET_HIGH load(1, XDATA, add(CFA_XSP16, literal(-4)))
          CFI ?BRET_EXT load(1, XDATA, add(CFA_XSP16, literal(-3)))
          CFI DPL0 load(1, XDATA, add(CFA_XSP16, literal(-2)))
          CFI DPH0 load(1, XDATA, add(CFA_XSP16, literal(-1)))
          CFI CFA_SP SP+-2
          CFI CFA_XSP16 add(XSP16, 15)
          CFI Block cfiCond124 Using cfiCommon0
          CFI (cfiCond124) Function ZDP_SimpleDescMsg
          CFI (cfiCond124) Conditional ??CrossCallReturnLabel_130
          CFI (cfiCond124) R6 load(1, XDATA, add(CFA_XSP16, literal(-15)))
          CFI (cfiCond124) VB load(1, XDATA, add(CFA_XSP16, literal(-14)))
          CFI (cfiCond124) V0 load(1, XDATA, add(CFA_XSP16, literal(-13)))
          CFI (cfiCond124) V1 load(1, XDATA, add(CFA_XSP16, literal(-12)))
          CFI (cfiCond124) V2 load(1, XDATA, add(CFA_XSP16, literal(-11)))
          CFI (cfiCond124) V3 load(1, XDATA, add(CFA_XSP16, literal(-10)))
          CFI (cfiCond124) V4 load(1, XDATA, add(CFA_XSP16, literal(-9)))
          CFI (cfiCond124) V5 load(1, XDATA, add(CFA_XSP16, literal(-8)))
          CFI (cfiCond124) V6 load(1, XDATA, add(CFA_XSP16, literal(-7)))
